	.cpu cortex-m0plus
	.arch armv6s-m
	.fpu softvfp
	.eabi_attribute 20, 1	@ Tag_ABI_FP_denormal
	.eabi_attribute 21, 1	@ Tag_ABI_FP_exceptions
	.eabi_attribute 23, 3	@ Tag_ABI_FP_number_model
	.eabi_attribute 24, 1	@ Tag_ABI_align8_needed
	.eabi_attribute 25, 1	@ Tag_ABI_align8_preserved
	.eabi_attribute 26, 1	@ Tag_ABI_enum_size
	.eabi_attribute 30, 1	@ Tag_ABI_optimization_goals
	.eabi_attribute 34, 0	@ Tag_CPU_unaligned_access
	.eabi_attribute 18, 4	@ Tag_ABI_PCS_wchar_t
	.file	"filter.cpp"
@ GNU C++17 (GCC) version 14.2.0 (arm-none-eabi)
@	compiled by GNU C version 9.3-win32 20200320, GMP version 6.1.2, MPFR version 3.1.4, MPC version 1.0.3, isl version isl-0.18-GMP

@ GGC heuristics: --param ggc-min-expand=100 --param ggc-min-heapsize=131072
@ options passed: -mcpu=cortex-m0plus -mthumb -march=armv6-m -g -O1 -std=gnu++17 -fno-exceptions -fno-rtti -ffunction-sections -fdata-sections
	.text
.Ltext0:
	.cfi_sections	.debug_frame
	.file 1 "lib/filter/src/filter.cpp"
	.section	.text._ZN6filter9FIRFilter15process_one_symEv,"ax",%progbits
	.align	1
	.global	_ZN6filter9FIRFilter15process_one_symEv
	.syntax unified
	.code	16
	.thumb_func
	.type	_ZN6filter9FIRFilter15process_one_symEv, %function
_ZN6filter9FIRFilter15process_one_symEv:
.LVL0:
.LFB2073:
	.loc 1 88 38 view -0
	.cfi_startproc
	@ args = 0, pretend = 0, frame = 0
	@ frame_needed = 0, uses_anonymous_args = 0
	.loc 1 88 38 is_stmt 0 view .LVU1
	push	{r4, r5, r6, r7, lr}	@
	.cfi_def_cfa_offset 20
	.cfi_offset 4, -20
	.cfi_offset 5, -16
	.cfi_offset 6, -12
	.cfi_offset 7, -8
	.cfi_offset 14, -4
	movs	r6, r0	@ this, tmp175
	.loc 1 89 5 is_stmt 1 view .LVU2
.LVL1:
.LBB766:
.LBI766:
	.file 2 "C:/Users/andre/.platformio/packages/toolchain-rp2040-earlephilhower/arm-none-eabi/include/c++/14.2.0/bits/stl_vector.h"
	.loc 2 992 7 view .LVU3
.LBB767:
@ C:/Users/andre/.platformio/packages/toolchain-rp2040-earlephilhower/arm-none-eabi/include/c++/14.2.0/bits/stl_vector.h:993:       { return size_type(this->_M_impl._M_finish - this->_M_impl._M_start); }
	.loc 2 993 66 is_stmt 0 view .LVU4
	ldr	r7, [r0, #8]	@ _48, MEM[(const struct vector *)this_34(D) + 8B].D.36436._M_impl.D.35737._M_start
@ C:/Users/andre/.platformio/packages/toolchain-rp2040-earlephilhower/arm-none-eabi/include/c++/14.2.0/bits/stl_vector.h:993:       { return size_type(this->_M_impl._M_finish - this->_M_impl._M_start); }
	.loc 2 993 50 view .LVU5
	ldr	r1, [r0, #12]	@ MEM[(const struct vector *)this_34(D) + 8B].D.36436._M_impl.D.35737._M_finish, MEM[(const struct vector *)this_34(D) + 8B].D.36436._M_impl.D.35737._M_finish
	subs	r1, r1, r7	@ _49, MEM[(const struct vector *)this_34(D) + 8B].D.36436._M_impl.D.35737._M_finish, _48
	asrs	r0, r1, #2	@ _50, _49,
.LVL2:
	.loc 2 993 50 view .LVU6
.LBE767:
.LBE766:
	.loc 1 90 5 is_stmt 1 view .LVU7
	.loc 1 101 5 view .LVU8
	.loc 1 103 5 view .LVU9
@ lib/filter/src/filter.cpp:103:     int p_data1 = m_buffer_pos - 1;
	.loc 1 103 19 is_stmt 0 view .LVU10
	movs	r3, #160	@ tmp154,
	lsls	r3, r3, #1	@ tmp154, tmp154,
	ldr	r2, [r6, r3]	@ _1, this_34(D)->m_buffer_pos
@ lib/filter/src/filter.cpp:103:     int p_data1 = m_buffer_pos - 1;
	.loc 1 103 32 view .LVU11
	subs	r3, r2, #1	@ p_data1, _1,
.LVL3:
	.loc 1 104 5 is_stmt 1 view .LVU12
@ lib/filter/src/filter.cpp:104:     int p_data2 = m_buffer_pos - coeff_len;
	.loc 1 104 32 is_stmt 0 view .LVU13
	subs	r2, r2, r0	@ p_data2, _1, _50
.LVL4:
	.loc 1 105 5 is_stmt 1 view .LVU14
.LBB768:
	.loc 1 105 26 discriminator 1 view .LVU15
@ lib/filter/src/filter.cpp:105:     for (size_t n = 0; n < coeff_len/2; n++) {
	.loc 1 105 37 is_stmt 0 discriminator 1 view .LVU16
	lsrs	r0, r0, #1	@ _56, _50,
.LVL5:
	.loc 1 105 37 discriminator 1 view .LVU17
	mov	ip, r0	@ _56, _56
@ lib/filter/src/filter.cpp:105:     for (size_t n = 0; n < coeff_len/2; n++) {
	.loc 1 105 26 discriminator 1 view .LVU18
	cmp	r1, #4	@ _49,
	bls	.L7		@,
@ lib/filter/src/filter.cpp:105:     for (size_t n = 0; n < coeff_len/2; n++) {
	.loc 1 105 17 view .LVU19
	movs	r1, #0	@ n,
.LVL6:
	.loc 1 105 17 view .LVU20
.LBE768:
@ lib/filter/src/filter.cpp:101:     int32_t result = 0;
	.loc 1 101 13 view .LVU21
	movs	r0, #0	@ result,
	b	.L5		@
.LVL7:
.L9:
.LBB769:
	.loc 1 108 13 is_stmt 1 view .LVU22
@ lib/filter/src/filter.cpp:108:             p_data1 += FILTER_BUFFER_SIZE;
	.loc 1 108 21 is_stmt 0 view .LVU23
	adds	r3, r3, #128	@ p_data1,
.LVL8:
	.loc 1 108 21 view .LVU24
	b	.L3		@
.LVL9:
.L10:
	.loc 1 110 13 is_stmt 1 view .LVU25
@ lib/filter/src/filter.cpp:110:             p_data2 += FILTER_BUFFER_SIZE;
	.loc 1 110 21 is_stmt 0 view .LVU26
	adds	r2, r2, #128	@ p_data2,
.LVL10:
.L4:
	.loc 1 111 9 is_stmt 1 view .LVU27
@ lib/filter/src/filter.cpp:111:         result += ((int32_t)m_buffer[p_data1] + (int32_t)m_buffer[p_data2])  * coeff[n];
	.loc 1 111 45 is_stmt 0 view .LVU28
	movs	r4, r3	@ tmp155, p_data1
	adds	r4, r4, #32	@ tmp155,
	lsls	r4, r4, #1	@ tmp156, tmp155,
@ lib/filter/src/filter.cpp:111:         result += ((int32_t)m_buffer[p_data1] + (int32_t)m_buffer[p_data2])  * coeff[n];
	.loc 1 111 20 view .LVU29
	ldrh	r5, [r4, r6]	@ _9, *this_34(D)
@ lib/filter/src/filter.cpp:111:         result += ((int32_t)m_buffer[p_data1] + (int32_t)m_buffer[p_data2])  * coeff[n];
	.loc 1 111 74 view .LVU30
	movs	r4, r2	@ tmp158, p_data2
	adds	r4, r4, #32	@ tmp158,
	lsls	r4, r4, #1	@ tmp159, tmp158,
@ lib/filter/src/filter.cpp:111:         result += ((int32_t)m_buffer[p_data1] + (int32_t)m_buffer[p_data2])  * coeff[n];
	.loc 1 111 49 view .LVU31
	ldrh	r4, [r4, r6]	@ _11, *this_34(D)
@ lib/filter/src/filter.cpp:111:         result += ((int32_t)m_buffer[p_data1] + (int32_t)m_buffer[p_data2])  * coeff[n];
	.loc 1 111 47 view .LVU32
	adds	r5, r5, r4	@ _12, _9, _11
@ lib/filter/src/filter.cpp:111:         result += ((int32_t)m_buffer[p_data1] + (int32_t)m_buffer[p_data2])  * coeff[n];
	.loc 1 111 87 view .LVU33
	lsls	r4, r1, #2	@ _32, n,
@ lib/filter/src/filter.cpp:111:         result += ((int32_t)m_buffer[p_data1] + (int32_t)m_buffer[p_data2])  * coeff[n];
	.loc 1 111 78 view .LVU34
	ldr	r4, [r7, r4]	@ MEM[(long int *)_48 + _32 * 1], MEM[(long int *)_48 + _32 * 1]
	muls	r4, r5	@ _16, _12
@ lib/filter/src/filter.cpp:111:         result += ((int32_t)m_buffer[p_data1] + (int32_t)m_buffer[p_data2])  * coeff[n];
	.loc 1 111 16 view .LVU35
	adds	r0, r0, r4	@ result, result, _16
.LVL11:
	.loc 1 112 9 is_stmt 1 view .LVU36
@ lib/filter/src/filter.cpp:112:         p_data1--;
	.loc 1 112 16 is_stmt 0 view .LVU37
	subs	r3, r3, #1	@ p_data1,
.LVL12:
	.loc 1 113 9 is_stmt 1 view .LVU38
@ lib/filter/src/filter.cpp:113:         p_data2++;
	.loc 1 113 16 is_stmt 0 view .LVU39
	adds	r2, r2, #1	@ p_data2,
.LVL13:
	.loc 1 105 5 is_stmt 1 discriminator 2 view .LVU40
	adds	r1, r1, #1	@ n,
.LVL14:
	.loc 1 105 26 discriminator 1 view .LVU41
	cmp	r1, ip	@ n, _56
	bcs	.L2		@,
.LVL15:
.L5:
	.loc 1 107 9 view .LVU42
	cmp	r3, #0	@ p_data1,
	blt	.L9		@,
.LVL16:
.L3:
	.loc 1 109 9 view .LVU43
	cmp	r2, #0	@ p_data2,
	bge	.L4		@,
	b	.L10		@
.LVL17:
.L7:
	.loc 1 109 9 is_stmt 0 view .LVU44
.LBE769:
@ lib/filter/src/filter.cpp:101:     int32_t result = 0;
	.loc 1 101 13 view .LVU45
	movs	r0, #0	@ result,
.LVL18:
.L2:
	.loc 1 116 5 is_stmt 1 view .LVU46
	cmp	r3, #0	@ p_data1,
	blt	.L11		@,
.LVL19:
.L6:
	.loc 1 118 5 view .LVU47
	.loc 1 120 5 view .LVU48
@ lib/filter/src/filter.cpp:118:     result += (int32_t)m_buffer[p_data1] * coeff[coeff_len/2];
	.loc 1 118 61 is_stmt 0 view .LVU49
	mov	r2, ip	@ _56, _56
.LVL20:
	.loc 1 118 61 view .LVU50
	lsls	r2, r2, #2	@ tmp166, _56,
.LVL21:
@ lib/filter/src/filter.cpp:118:     result += (int32_t)m_buffer[p_data1] * coeff[coeff_len/2];
	.loc 1 118 40 view .LVU51
	adds	r3, r3, #32	@ tmp167,
.LVL22:
	.loc 1 118 40 view .LVU52
	lsls	r3, r3, #1	@ tmp168, tmp167,
.LVL23:
@ lib/filter/src/filter.cpp:118:     result += (int32_t)m_buffer[p_data1] * coeff[coeff_len/2];
	.loc 1 118 15 view .LVU53
	ldrh	r1, [r3, r6]	@ _21, *this_34(D)
@ lib/filter/src/filter.cpp:118:     result += (int32_t)m_buffer[p_data1] * coeff[coeff_len/2];
	.loc 1 118 42 view .LVU54
	ldr	r3, [r2, r7]	@ *_23, *_23
	muls	r3, r1	@ _25, _21
@ lib/filter/src/filter.cpp:118:     result += (int32_t)m_buffer[p_data1] * coeff[coeff_len/2];
	.loc 1 118 12 view .LVU55
	adds	r0, r3, r0	@ result_40, _25, result
@ lib/filter/src/filter.cpp:120:     return result >> m_gain_bits;
	.loc 1 120 22 view .LVU56
	movs	r3, #170	@ tmp173,
	lsls	r3, r3, #1	@ tmp173, tmp173,
	ldr	r3, [r6, r3]	@ this_34(D)->m_gain_bits, this_34(D)->m_gain_bits
	asrs	r0, r0, r3	@ _41, result_40, this_34(D)->m_gain_bits
@ lib/filter/src/filter.cpp:121: }
	.loc 1 121 1 view .LVU57
	@ sp needed	@
.LVL24:
.LVL25:
	.loc 1 121 1 view .LVU58
	pop	{r4, r5, r6, r7, pc}
.LVL26:
.L11:
	.loc 1 117 9 is_stmt 1 view .LVU59
@ lib/filter/src/filter.cpp:117:         p_data1 += FILTER_BUFFER_SIZE;
	.loc 1 117 17 is_stmt 0 view .LVU60
	adds	r3, r3, #128	@ p_data1,
.LVL27:
	.loc 1 117 17 view .LVU61
	b	.L6		@
	.cfi_endproc
.LFE2073:
	.size	_ZN6filter9FIRFilter15process_one_symEv, .-_ZN6filter9FIRFilter15process_one_symEv
	.section	.text._ZN6filter9FIRFilter11process_oneEv,"ax",%progbits
	.align	1
	.global	_ZN6filter9FIRFilter11process_oneEv
	.syntax unified
	.code	16
	.thumb_func
	.type	_ZN6filter9FIRFilter11process_oneEv, %function
_ZN6filter9FIRFilter11process_oneEv:
.LVL28:
.LFB2072:
	.loc 1 70 34 is_stmt 1 view -0
	.cfi_startproc
	@ args = 0, pretend = 0, frame = 0
	@ frame_needed = 0, uses_anonymous_args = 0
	.loc 1 70 34 is_stmt 0 view .LVU63
	push	{r3, r4, r5, r6, r7, lr}	@
	.cfi_def_cfa_offset 24
	.cfi_offset 3, -24
	.cfi_offset 4, -20
	.cfi_offset 5, -16
	.cfi_offset 6, -12
	.cfi_offset 7, -8
	.cfi_offset 14, -4
	.loc 1 71 5 is_stmt 1 view .LVU64
@ lib/filter/src/filter.cpp:71:     if (m_is_symmetric)
	.loc 1 71 9 is_stmt 0 view .LVU65
	movs	r3, #168	@ tmp135,
	lsls	r3, r3, #1	@ tmp135, tmp135,
@ lib/filter/src/filter.cpp:71:     if (m_is_symmetric)
	.loc 1 71 5 view .LVU66
	ldrb	r3, [r0, r3]	@ tmp136,
	cmp	r3, #0	@ tmp136,
	beq	.L13		@,
	.loc 1 72 9 is_stmt 1 view .LVU67
@ lib/filter/src/filter.cpp:72:         return process_one_sym();
	.loc 1 72 31 is_stmt 0 view .LVU68
	bl	_ZN6filter9FIRFilter15process_one_symEv		@
.LVL29:
@ lib/filter/src/filter.cpp:72:         return process_one_sym();
	.loc 1 72 32 view .LVU69
	b	.L12		@
.LVL30:
.L13:
	.loc 1 74 5 is_stmt 1 view .LVU70
.LBB770:
.LBI770:
	.loc 2 992 7 view .LVU71
.LBB771:
@ C:/Users/andre/.platformio/packages/toolchain-rp2040-earlephilhower/arm-none-eabi/include/c++/14.2.0/bits/stl_vector.h:993:       { return size_type(this->_M_impl._M_finish - this->_M_impl._M_start); }
	.loc 2 993 40 is_stmt 0 view .LVU72
	ldr	r2, [r0, #12]	@ _20, MEM[(const struct vector *)this_19(D) + 8B].D.36436._M_impl.D.35737._M_finish
@ C:/Users/andre/.platformio/packages/toolchain-rp2040-earlephilhower/arm-none-eabi/include/c++/14.2.0/bits/stl_vector.h:993:       { return size_type(this->_M_impl._M_finish - this->_M_impl._M_start); }
	.loc 2 993 66 view .LVU73
	ldr	r7, [r0, #8]	@ _27, MEM[(const struct vector *)this_19(D) + 8B].D.36436._M_impl.D.35737._M_start
@ C:/Users/andre/.platformio/packages/toolchain-rp2040-earlephilhower/arm-none-eabi/include/c++/14.2.0/bits/stl_vector.h:993:       { return size_type(this->_M_impl._M_finish - this->_M_impl._M_start); }
	.loc 2 993 50 view .LVU74
	subs	r3, r2, r7	@ _29, _20, _27
	asrs	r3, r3, #2	@ _31, _29,
	mov	ip, r3	@ _31, _31
.LVL31:
	.loc 2 993 50 view .LVU75
.LBE771:
.LBE770:
	.loc 1 75 5 is_stmt 1 view .LVU76
	.loc 1 77 5 view .LVU77
	.loc 1 78 5 view .LVU78
@ lib/filter/src/filter.cpp:78:     int p_data = m_buffer_pos - 1;
	.loc 1 78 18 is_stmt 0 view .LVU79
	movs	r3, #160	@ tmp139,
.LVL32:
	.loc 1 78 18 view .LVU80
	lsls	r3, r3, #1	@ tmp139, tmp139,
@ lib/filter/src/filter.cpp:78:     int p_data = m_buffer_pos - 1;
	.loc 1 78 31 view .LVU81
	ldr	r3, [r0, r3]	@ this_19(D)->m_buffer_pos, this_19(D)->m_buffer_pos
	subs	r3, r3, #1	@ p_data,
.LVL33:
	.loc 1 79 5 is_stmt 1 view .LVU82
.LBB772:
	.loc 1 79 26 discriminator 1 view .LVU83
	cmp	r2, r7	@ _20, _27
	beq	.L18		@,
@ lib/filter/src/filter.cpp:79:     for (size_t n = 0; n < coeff_len; n++) {
	.loc 1 79 17 is_stmt 0 view .LVU84
	movs	r2, #0	@ n,
.LBE772:
@ lib/filter/src/filter.cpp:77:     int32_t result = 0;
	.loc 1 77 13 view .LVU85
	movs	r4, #0	@ result,
	b	.L17		@
.LVL34:
.L20:
.LBB773:
	.loc 1 81 13 is_stmt 1 view .LVU86
@ lib/filter/src/filter.cpp:81:             p_data += FILTER_BUFFER_SIZE;
	.loc 1 81 20 is_stmt 0 view .LVU87
	adds	r3, r3, #128	@ p_data,
.LVL35:
.L16:
	.loc 1 82 9 is_stmt 1 view .LVU88
@ lib/filter/src/filter.cpp:82:         result += (int32_t)m_buffer[p_data] * coeff[n];
	.loc 1 82 54 is_stmt 0 view .LVU89
	lsls	r6, r2, #2	@ _16, n,
@ lib/filter/src/filter.cpp:82:         result += (int32_t)m_buffer[p_data] * coeff[n];
	.loc 1 82 43 view .LVU90
	movs	r1, r3	@ tmp142, p_data
	adds	r1, r1, #32	@ tmp142,
	lsls	r1, r1, #1	@ tmp143, tmp142,
@ lib/filter/src/filter.cpp:82:         result += (int32_t)m_buffer[p_data] * coeff[n];
	.loc 1 82 19 view .LVU91
	ldrh	r5, [r1, r0]	@ _7, *this_19(D)
@ lib/filter/src/filter.cpp:82:         result += (int32_t)m_buffer[p_data] * coeff[n];
	.loc 1 82 45 view .LVU92
	ldr	r1, [r7, r6]	@ MEM[(long int *)_27 + _16 * 1], MEM[(long int *)_27 + _16 * 1]
	muls	r1, r5	@ _11, _7
@ lib/filter/src/filter.cpp:82:         result += (int32_t)m_buffer[p_data] * coeff[n];
	.loc 1 82 16 view .LVU93
	adds	r4, r4, r1	@ result, result, _11
.LVL36:
	.loc 1 83 9 is_stmt 1 view .LVU94
@ lib/filter/src/filter.cpp:83:         p_data--;
	.loc 1 83 15 is_stmt 0 view .LVU95
	subs	r3, r3, #1	@ p_data,
.LVL37:
	.loc 1 79 5 is_stmt 1 discriminator 2 view .LVU96
	adds	r2, r2, #1	@ n,
.LVL38:
	.loc 1 79 26 discriminator 1 view .LVU97
	cmp	r2, ip	@ n, _31
	bcs	.L15		@,
.LVL39:
.L17:
	.loc 1 80 9 view .LVU98
	cmp	r3, #0	@ p_data,
	bge	.L16		@,
	.loc 1 80 9 is_stmt 0 view .LVU99
	b	.L20		@
.LVL40:
.L18:
	.loc 1 80 9 view .LVU100
.LBE773:
@ lib/filter/src/filter.cpp:77:     int32_t result = 0;
	.loc 1 77 13 view .LVU101
	movs	r4, #0	@ result,
.LVL41:
.L15:
	.loc 1 85 5 is_stmt 1 view .LVU102
@ lib/filter/src/filter.cpp:85:     return result >> m_gain_bits;
	.loc 1 85 22 is_stmt 0 view .LVU103
	movs	r3, #170	@ tmp147,
.LVL42:
	.loc 1 85 22 view .LVU104
	lsls	r3, r3, #1	@ tmp147, tmp147,
	ldr	r3, [r0, r3]	@ this_19(D)->m_gain_bits, this_19(D)->m_gain_bits
	movs	r0, r4	@ result, result
.LVL43:
	.loc 1 85 22 view .LVU105
	asrs	r0, r0, r3	@ result, result, this_19(D)->m_gain_bits
.LVL44:
.L12:
@ lib/filter/src/filter.cpp:86: }
	.loc 1 86 1 view .LVU106
	@ sp needed	@
	pop	{r3, r4, r5, r6, r7, pc}
	.cfi_endproc
.LFE2072:
	.size	_ZN6filter9FIRFilter11process_oneEv, .-_ZN6filter9FIRFilter11process_oneEv
	.section	.text._ZN6filter9CICFilter5writeEPKtjj,"ax",%progbits
	.align	1
	.global	_ZN6filter9CICFilter5writeEPKtjj
	.syntax unified
	.code	16
	.thumb_func
	.type	_ZN6filter9CICFilter5writeEPKtjj, %function
_ZN6filter9CICFilter5writeEPKtjj:
.LVL45:
.LFB2076:
	.loc 1 157 73 is_stmt 1 view -0
	.cfi_startproc
	@ args = 0, pretend = 0, frame = 8
	@ frame_needed = 0, uses_anonymous_args = 0
	.loc 1 157 73 is_stmt 0 view .LVU108
	push	{r4, r5, r6, r7, lr}	@
	.cfi_def_cfa_offset 20
	.cfi_offset 4, -20
	.cfi_offset 5, -16
	.cfi_offset 6, -12
	.cfi_offset 7, -8
	.cfi_offset 14, -4
	mov	lr, fp	@,
	mov	r7, r10	@,
	mov	r6, r9	@,
	mov	r5, r8	@,
	push	{r5, r6, r7, lr}	@
	.cfi_def_cfa_offset 36
	.cfi_offset 8, -36
	.cfi_offset 9, -32
	.cfi_offset 10, -28
	.cfi_offset 11, -24
	sub	sp, sp, #12	@,,
	.cfi_def_cfa_offset 48
	movs	r6, r0	@ this, tmp173
	mov	fp, r1	@ data, tmp174
	mov	ip, r2	@ length, tmp175
	mov	r8, r3	@ step, tmp176
	.loc 1 158 5 is_stmt 1 view .LVU109
	.loc 1 159 5 view .LVU110
	.loc 1 160 5 view .LVU111
.LVL46:
	.loc 1 161 5 view .LVU112
@ lib/filter/src/filter.cpp:161:     auto data_counter = m_data_counter;
	.loc 1 161 10 is_stmt 0 view .LVU113
	ldr	r7, [r0, #80]	@ data_counter, this_31(D)->m_data_counter
.LVL47:
	.loc 1 163 5 is_stmt 1 view .LVU114
.LBB774:
	.loc 1 163 19 discriminator 1 view .LVU115
	cmp	r2, #0	@ length,
	beq	.L30		@,
.LBE774:
@ lib/filter/src/filter.cpp:160:     uint32_t err_cnt{0};
	.loc 1 160 14 is_stmt 0 view .LVU116
	movs	r3, #0	@ err_cnt,
.LVL48:
	.loc 1 160 14 view .LVU117
	mov	r10, r3	@ err_cnt, err_cnt
.LBB778:
@ lib/filter/src/filter.cpp:163:     for (n = 0; n < length; n += step) {
	.loc 1 163 12 view .LVU118
	movs	r0, #0	@ n,
.LVL49:
	.loc 1 163 12 view .LVU119
	adds	r3, r3, #12	@ _29,
	mov	r9, r3	@ _29, _29
	add	r9, r9, r6	@ _29, this
	mov	r3, r9	@ _29, _29
	str	r3, [sp, #4]	@ _29, %sfp
	b	.L29		@
.LVL50:
.L28:
.LBB775:
	.loc 1 193 13 is_stmt 1 view .LVU120
@ lib/filter/src/filter.cpp:193:             err_cnt++;
	.loc 1 193 20 is_stmt 0 view .LVU121
	movs	r3, #1	@ tmp188,
	mov	r9, r3	@ tmp188, tmp188
	add	r10, r10, r9	@ err_cnt, tmp188
.LVL51:
@ lib/filter/src/filter.cpp:179:             data_counter = 0;
	.loc 1 179 26 view .LVU122
	movs	r7, #0	@ data_counter,
.L25:
.LVL52:
	.loc 1 179 26 view .LVU123
.LBE775:
	.loc 1 163 5 is_stmt 1 discriminator 2 view .LVU124
@ lib/filter/src/filter.cpp:163:     for (n = 0; n < length; n += step) {
	.loc 1 163 31 is_stmt 0 discriminator 2 view .LVU125
	add	r0, r0, r8	@ n, step
.LVL53:
	.loc 1 163 19 is_stmt 1 discriminator 1 view .LVU126
	cmp	ip, r0	@ length, n
	bls	.L22		@,
.LVL54:
.L29:
.LBB776:
	.loc 1 164 9 view .LVU127
	.loc 1 167 9 view .LVU128
@ lib/filter/src/filter.cpp:167:         stage_in = data[n];
	.loc 1 167 26 is_stmt 0 view .LVU129
	lsls	r3, r0, #1	@ _60, n,
@ lib/filter/src/filter.cpp:167:         stage_in = data[n];
	.loc 1 167 18 view .LVU130
	mov	r2, fp	@ data, data
	ldrh	r3, [r2, r3]	@ stage_out, MEM[(const uint16_t *)data_39(D) + _60 * 1]
.LVL55:
	.loc 1 168 9 is_stmt 1 view .LVU131
@ lib/filter/src/filter.cpp:168:         ord = m_order;
	.loc 1 168 13 is_stmt 0 view .LVU132
	ldr	r2, [r6, #88]	@ ord, this_31(D)->m_order
.LVL56:
	.loc 1 169 9 is_stmt 1 view .LVU133
	.loc 1 169 19 view .LVU134
	subs	r1, r2, #1	@ ord, ord,
.LVL57:
	.loc 1 169 19 is_stmt 0 view .LVU135
	cmp	r2, #0	@ ord,
	beq	.L23		@,
	.loc 1 169 19 view .LVU136
	movs	r4, r6	@ ivtmp.362, this
	adds	r4, r4, #8	@ ivtmp.362,
.LVL58:
	.loc 1 169 19 view .LVU137
	movs	r2, r1	@ ord, ord
.LVL59:
.L24:
	.loc 1 170 13 is_stmt 1 view .LVU138
@ lib/filter/src/filter.cpp:170:             stage_out = stage_in + *state;
	.loc 1 170 23 is_stmt 0 view .LVU139
	ldr	r5, [r4]	@ MEM[(int32_t *)_66], MEM[(int32_t *)_66]
	adds	r3, r3, r5	@ stage_out, stage_out, MEM[(int32_t *)_66]
.LVL60:
	.loc 1 171 13 is_stmt 1 view .LVU140
@ lib/filter/src/filter.cpp:171:             *state++ = stage_out;
	.loc 1 171 22 is_stmt 0 view .LVU141
	stmia	r4!, {r3}	@ MEM[(int32_t *)_66], stage_out
.LVL61:
	.loc 1 172 13 is_stmt 1 view .LVU142
	.loc 1 169 19 view .LVU143
	.loc 1 169 19 is_stmt 0 view .LVU144
	subs	r2, r2, #1	@ ord, ord
	bcs	.L24		@,
.LVL62:
	.loc 1 176 9 is_stmt 1 view .LVU145
@ lib/filter/src/filter.cpp:176:         if (++data_counter < m_decimation_factor)
	.loc 1 176 28 is_stmt 0 view .LVU146
	adds	r7, r7, #1	@ data_counter,
.LVL63:
@ lib/filter/src/filter.cpp:176:         if (++data_counter < m_decimation_factor)
	.loc 1 176 9 view .LVU147
	ldr	r2, [r6, #84]	@ this_31(D)->m_decimation_factor, this_31(D)->m_decimation_factor
.LVL64:
	.loc 1 176 9 view .LVU148
	cmp	r2, r7	@ this_31(D)->m_decimation_factor, data_counter
	bhi	.L25		@,
	.loc 1 179 13 is_stmt 1 view .LVU149
.LVL65:
	.loc 1 182 9 view .LVU150
@ lib/filter/src/filter.cpp:182:         ord = m_order;
	.loc 1 182 13 is_stmt 0 view .LVU151
	ldr	r4, [r6, #88]	@ ord, this_31(D)->m_order
.LVL66:
	.loc 1 183 9 is_stmt 1 view .LVU152
	.loc 1 183 19 view .LVU153
	subs	r2, r4, #1	@ ord, ord,
.LVL67:
	.loc 1 183 19 is_stmt 0 view .LVU154
	cmp	r4, #0	@ ord,
	beq	.L26		@,
	lsls	r4, r1, #2	@ _63, ord,
.LVL68:
	.loc 1 183 19 view .LVU155
	ldr	r1, [sp, #4]	@ _29, %sfp
	mov	r9, r1	@ _29, _29
	add	r4, r4, r9	@ state, _29
.LVL69:
.L27:
	.loc 1 184 13 is_stmt 1 view .LVU156
	movs	r1, r3	@ stage_in, stage_out
@ lib/filter/src/filter.cpp:184:             stage_out = stage_in - *state;
	.loc 1 184 23 is_stmt 0 view .LVU157
	ldr	r5, [r4]	@ *state_81, *state_81
	subs	r3, r3, r5	@ stage_out, stage_out, *state_81
.LVL70:
	.loc 1 185 13 is_stmt 1 view .LVU158
@ lib/filter/src/filter.cpp:185:             *state++ = stage_in;
	.loc 1 185 22 is_stmt 0 view .LVU159
	str	r1, [r4]	@ stage_in, *state_23
	adds	r4, r4, #4	@ state,
.LVL71:
	.loc 1 186 13 is_stmt 1 view .LVU160
	.loc 1 183 19 view .LVU161
	.loc 1 183 19 is_stmt 0 view .LVU162
	subs	r2, r2, #1	@ ord, ord
	bcs	.L27		@,
.LVL72:
.L26:
	.loc 1 190 9 is_stmt 1 view .LVU163
@ lib/filter/src/filter.cpp:190:         if (m_out_cnt < FILTER_OUTPUT_LEN) {
	.loc 1 190 13 is_stmt 0 view .LVU164
	ldr	r2, [r6, #92]	@ _7, this_31(D)->m_out_cnt
@ lib/filter/src/filter.cpp:190:         if (m_out_cnt < FILTER_OUTPUT_LEN) {
	.loc 1 190 9 view .LVU165
	cmp	r2, #127	@ _7,
	bhi	.L28		@,
	.loc 1 191 13 is_stmt 1 view .LVU166
@ lib/filter/src/filter.cpp:191:             m_out_buf[m_out_cnt++] = stage_in;
	.loc 1 191 32 is_stmt 0 view .LVU167
	adds	r4, r2, #1	@ _8, _7,
	str	r4, [r6, #92]	@ _8, this_31(D)->m_out_cnt
@ lib/filter/src/filter.cpp:191:             m_out_buf[m_out_cnt++] = stage_in;
	.loc 1 191 36 view .LVU168
	adds	r2, r2, #24	@ tmp160,
	lsls	r2, r2, #2	@ tmp161, tmp160,
	str	r3, [r2, r6]	@ stage_out, this_31(D)->m_out_buf[_7]
@ lib/filter/src/filter.cpp:179:             data_counter = 0;
	.loc 1 179 26 view .LVU169
	movs	r7, #0	@ data_counter,
	b	.L25		@
.LVL73:
.L30:
	.loc 1 179 26 view .LVU170
.LBE776:
.LBE778:
@ lib/filter/src/filter.cpp:160:     uint32_t err_cnt{0};
	.loc 1 160 14 view .LVU171
	mov	r10, r2	@ err_cnt, length
.LVL74:
.L22:
	.loc 1 196 5 is_stmt 1 view .LVU172
@ lib/filter/src/filter.cpp:196:     m_data_counter = data_counter;
	.loc 1 196 20 is_stmt 0 view .LVU173
	str	r7, [r6, #80]	@ data_counter, this_31(D)->m_data_counter
	.loc 1 197 5 is_stmt 1 view .LVU174
@ lib/filter/src/filter.cpp:197:     overflow_cnt += err_cnt;
	.loc 1 197 18 is_stmt 0 view .LVU175
	ldr	r3, [r6]	@ this_31(D)->overflow_cnt, this_31(D)->overflow_cnt
	add	r3, r3, r10	@ _10, err_cnt
	str	r3, [r6]	@ _10, this_31(D)->overflow_cnt
	.loc 1 198 5 is_stmt 1 view .LVU176
@ lib/filter/src/filter.cpp:198:     samples_out_cnt += length/step - err_cnt;
	.loc 1 198 30 is_stmt 0 view .LVU177
	mov	r1, r8	@, step
	mov	r0, ip	@, length
	bl	__aeabi_uidiv		@
.LVL75:
@ lib/filter/src/filter.cpp:198:     samples_out_cnt += length/step - err_cnt;
	.loc 1 198 21 view .LVU178
	ldr	r3, [r6, #4]	@ this_31(D)->samples_out_cnt, this_31(D)->samples_out_cnt
	adds	r3, r0, r3	@ _72, tmp177, this_31(D)->samples_out_cnt
	mov	r2, r10	@ err_cnt, err_cnt
	subs	r3, r3, r2	@ _14, _72, err_cnt
	str	r3, [r6, #4]	@ _14, this_31(D)->samples_out_cnt
@ lib/filter/src/filter.cpp:199: }
	.loc 1 199 1 view .LVU179
	add	sp, sp, #12	@,,
	@ sp needed	@
.LVL76:
.LVL77:
.LVL78:
.LVL79:
	.loc 1 199 1 view .LVU180
	pop	{r4, r5, r6, r7}
	mov	fp, r7
	mov	r10, r6
	mov	r9, r5
	mov	r8, r4
	pop	{r4, r5, r6, r7, pc}
.LVL80:
.L23:
.LBB779:
.LBB777:
	.loc 1 176 9 is_stmt 1 view .LVU181
@ lib/filter/src/filter.cpp:176:         if (++data_counter < m_decimation_factor)
	.loc 1 176 28 is_stmt 0 view .LVU182
	adds	r7, r7, #1	@ data_counter,
.LVL81:
@ lib/filter/src/filter.cpp:176:         if (++data_counter < m_decimation_factor)
	.loc 1 176 9 view .LVU183
	ldr	r2, [r6, #84]	@ this_31(D)->m_decimation_factor, this_31(D)->m_decimation_factor
	cmp	r2, r7	@ this_31(D)->m_decimation_factor, data_counter
	bhi	.L25		@,
	b	.L26		@
.LBE777:
.LBE779:
	.cfi_endproc
.LFE2076:
	.size	_ZN6filter9CICFilter5writeEPKtjj, .-_ZN6filter9CICFilter5writeEPKtjj
	.section	.text._ZN6filter9CICFilter4readEPtj,"ax",%progbits
	.align	1
	.global	_ZN6filter9CICFilter4readEPtj
	.syntax unified
	.code	16
	.thumb_func
	.type	_ZN6filter9CICFilter4readEPtj, %function
_ZN6filter9CICFilter4readEPtj:
.LVL82:
.LFB2077:
	.loc 1 202 58 is_stmt 1 view -0
	.cfi_startproc
	@ args = 0, pretend = 0, frame = 0
	@ frame_needed = 0, uses_anonymous_args = 0
	.loc 1 202 58 is_stmt 0 view .LVU185
	push	{r3, r4, r5, r6, r7, lr}	@
	.cfi_def_cfa_offset 24
	.cfi_offset 3, -24
	.cfi_offset 4, -20
	.cfi_offset 5, -16
	.cfi_offset 6, -12
	.cfi_offset 7, -8
	.cfi_offset 14, -4
	movs	r6, r0	@ this, tmp159
	.loc 1 203 5 is_stmt 1 view .LVU186
.LVL83:
.LBB780:
.LBI780:
	.file 3 "C:/Users/andre/.platformio/packages/toolchain-rp2040-earlephilhower/arm-none-eabi/include/c++/14.2.0/bits/stl_algobase.h"
	.loc 3 233 5 view .LVU187
.LBB781:
@ C:/Users/andre/.platformio/packages/toolchain-rp2040-earlephilhower/arm-none-eabi/include/c++/14.2.0/bits/stl_algobase.h:238:       if (__b < __a)
	.loc 3 238 7 is_stmt 0 view .LVU188
	ldr	r7, [r0, #92]	@ <retval>, MEM[(const unsigned int &)this_16(D) + 92]
	cmp	r7, r2	@ <retval>, max_length
	bls	.L38		@,
	movs	r7, r2	@ <retval>, max_length
.L38:
.LVL84:
	.loc 3 238 7 view .LVU189
.LBE781:
.LBE780:
	.loc 1 204 5 is_stmt 1 view .LVU190
	cmp	r7, #0	@ <retval>,
	beq	.L37		@,
	movs	r5, r6	@ ivtmp.374, this
	adds	r5, r5, #96	@ ivtmp.374,
	movs	r2, r1	@ ivtmp.376, out
.LVL85:
	.loc 1 204 5 is_stmt 0 view .LVU191
	lsls	r3, r7, #1	@ _40, <retval>,
	adds	r1, r1, r3	@ _42, out, _40
.LVL86:
.LBB782:
.LBB783:
@ lib/filter/src/filter.cpp:210:         if (val > UINT16_MAX) 
	.loc 1 210 9 view .LVU192
	movs	r3, #128	@ tmp143,
	lsls	r3, r3, #9	@ tmp143, tmp143,
	mov	ip, r3	@ tmp143, tmp143
	b	.L42		@
.LVL87:
.L40:
@ lib/filter/src/filter.cpp:208:         if (val < 0)
	.loc 1 208 9 view .LVU193
	mvns	r4, r3	@ tmp158, val_22
	asrs	r4, r4, #31	@ tmp157, tmp158,
	ands	r3, r4	@ val_22, tmp157
@ lib/filter/src/filter.cpp:212:         out[n] = val;
	.loc 1 212 16 view .LVU194
	strh	r3, [r2]	@ val_22, MEM[(uint16_t *)_39]
.LVL88:
	.loc 1 212 16 view .LVU195
.LBE783:
	.loc 1 206 5 is_stmt 1 discriminator 2 view .LVU196
	.loc 1 206 26 discriminator 1 view .LVU197
	adds	r5, r5, #4	@ ivtmp.374,
	adds	r2, r2, #2	@ ivtmp.376,
	cmp	r2, r1	@ ivtmp.376, _42
	beq	.L45		@,
.LVL89:
.L42:
.LBB784:
	.loc 1 207 9 view .LVU198
	.loc 1 208 9 view .LVU199
	.loc 1 212 9 view .LVU200
@ lib/filter/src/filter.cpp:207:         auto val = m_out_buf[n] >> m_attenuate_shift;
	.loc 1 207 14 is_stmt 0 view .LVU201
	ldr	r3, [r5]	@ MEM[(long int *)_38], MEM[(long int *)_38]
	ldr	r0, [r6, #72]	@ this_16(D)->m_attenuate_shift, this_16(D)->m_attenuate_shift
	asrs	r3, r3, r0	@ val_22, MEM[(long int *)_38], this_16(D)->m_attenuate_shift
@ lib/filter/src/filter.cpp:210:         if (val > UINT16_MAX) 
	.loc 1 210 9 view .LVU202
	cmp	r3, ip	@ val_22, tmp143
	blt	.L40		@,
	ldr	r3, .L46	@ val_22,
	b	.L40		@
.LVL90:
.L45:
	.loc 1 210 9 view .LVU203
.LBE784:
.LBE782:
	.loc 1 214 5 is_stmt 1 view .LVU204
@ lib/filter/src/filter.cpp:214:     if (output_size == m_out_cnt)
	.loc 1 214 24 is_stmt 0 view .LVU205
	ldr	r4, [r6, #92]	@ _7, this_16(D)->m_out_cnt
@ lib/filter/src/filter.cpp:214:     if (output_size == m_out_cnt)
	.loc 1 214 5 view .LVU206
	cmp	r4, r7	@ _7, <retval>
	bne	.L43		@,
	.loc 1 215 9 is_stmt 1 view .LVU207
@ lib/filter/src/filter.cpp:215:         m_out_cnt = 0;
	.loc 1 215 19 is_stmt 0 view .LVU208
	movs	r3, #0	@ tmp145,
	str	r3, [r6, #92]	@ tmp145, this_16(D)->m_out_cnt
.LVL91:
.L37:
@ lib/filter/src/filter.cpp:222: }
	.loc 1 222 1 view .LVU209
	movs	r0, r7	@, <retval>
	@ sp needed	@
.LVL92:
	.loc 1 222 1 view .LVU210
	pop	{r3, r4, r5, r6, r7, pc}
.LVL93:
.L43:
	.loc 1 217 9 is_stmt 1 view .LVU211
@ lib/filter/src/filter.cpp:217:         memmove(m_out_buf, &m_out_buf[output_size], sizeof(m_out_buf[0]) * (m_out_cnt - output_size));
	.loc 1 217 87 is_stmt 0 view .LVU212
	subs	r4, r4, r7	@ _10, _7, <retval>
@ lib/filter/src/filter.cpp:217:         memmove(m_out_buf, &m_out_buf[output_size], sizeof(m_out_buf[0]) * (m_out_cnt - output_size));
	.loc 1 217 16 view .LVU213
	lsls	r2, r4, #2	@ _11, _10,
@ lib/filter/src/filter.cpp:217:         memmove(m_out_buf, &m_out_buf[output_size], sizeof(m_out_buf[0]) * (m_out_cnt - output_size));
	.loc 1 217 28 view .LVU214
	movs	r1, r7	@ _32, <retval>
	adds	r1, r1, #24	@ _32,
	lsls	r1, r1, #2	@ _29, _32,
	adds	r1, r6, r1	@ _9, this, _29
@ lib/filter/src/filter.cpp:217:         memmove(m_out_buf, &m_out_buf[output_size], sizeof(m_out_buf[0]) * (m_out_cnt - output_size));
	.loc 1 217 16 view .LVU215
	movs	r0, r6	@ tmp155, this
	adds	r0, r0, #96	@ tmp155,
	bl	memmove		@
.LVL94:
	.loc 1 218 9 is_stmt 1 view .LVU216
@ lib/filter/src/filter.cpp:218:         m_out_cnt = m_out_cnt - output_size;
	.loc 1 218 19 is_stmt 0 view .LVU217
	str	r4, [r6, #92]	@ _10, this_16(D)->m_out_cnt
	b	.L37		@
.L47:
	.align	2
.L46:
	.word	65535
	.cfi_endproc
.LFE2077:
	.size	_ZN6filter9CICFilter4readEPtj, .-_ZN6filter9CICFilter4readEPtj
	.section	.text._ZNSt11_Deque_baseIlSaIlEE16_M_destroy_nodesEPPlS3_,"axG",%progbits,_ZNSt11_Deque_baseIlSaIlEE16_M_destroy_nodesEPPlS3_,comdat
	.align	1
	.weak	_ZNSt11_Deque_baseIlSaIlEE16_M_destroy_nodesEPPlS3_
	.syntax unified
	.code	16
	.thumb_func
	.type	_ZNSt11_Deque_baseIlSaIlEE16_M_destroy_nodesEPPlS3_, %function
_ZNSt11_Deque_baseIlSaIlEE16_M_destroy_nodesEPPlS3_:
.LVL95:
.LFB2242:
	.file 4 "C:/Users/andre/.platformio/packages/toolchain-rp2040-earlephilhower/arm-none-eabi/include/c++/14.2.0/bits/stl_deque.h"
	.loc 4 695 5 is_stmt 1 view -0
	.cfi_startproc
	@ args = 0, pretend = 0, frame = 0
	@ frame_needed = 0, uses_anonymous_args = 0
	.loc 4 695 5 is_stmt 0 view .LVU219
	push	{r4, r5, r6, lr}	@
	.cfi_def_cfa_offset 16
	.cfi_offset 4, -16
	.cfi_offset 5, -12
	.cfi_offset 6, -8
	.cfi_offset 14, -4
	movs	r4, r1	@ __nstart, tmp120
	movs	r5, r2	@ __nfinish, tmp121
.LVL96:
.LBB785:
	.loc 4 699 45 is_stmt 1 discriminator 1 view .LVU220
	cmp	r1, r2	@ __nstart, __nfinish
	bcs	.L48		@,
.LBB786:
.LBB787:
.LBB788:
.LBB789:
.LBB790:
@ C:/Users/andre/.platformio/packages/toolchain-rp2040-earlephilhower/arm-none-eabi/include/c++/14.2.0/bits/new_allocator.h:172: 	_GLIBCXX_OPERATOR_DELETE(_GLIBCXX_SIZED_DEALLOC(__p, __n));
	.file 5 "C:/Users/andre/.platformio/packages/toolchain-rp2040-earlephilhower/arm-none-eabi/include/c++/14.2.0/bits/new_allocator.h"
	.loc 5 172 26 is_stmt 0 view .LVU221
	movs	r6, #128	@ tmp118,
	lsls	r6, r6, #2	@ tmp118, tmp118,
.LVL97:
.L50:
	.loc 5 172 26 view .LVU222
.LBE790:
.LBE789:
.LBE788:
.LBE787:
.LBI786:
	.loc 4 587 7 is_stmt 1 view .LVU223
.LBB794:
.LBB793:
.LBI788:
	.file 6 "C:/Users/andre/.platformio/packages/toolchain-rp2040-earlephilhower/arm-none-eabi/include/c++/14.2.0/bits/alloc_traits.h"
	.loc 6 512 7 view .LVU224
.LBB792:
.LBI789:
	.loc 5 156 7 view .LVU225
.LBB791:
@ C:/Users/andre/.platformio/packages/toolchain-rp2040-earlephilhower/arm-none-eabi/include/c++/14.2.0/bits/new_allocator.h:172: 	_GLIBCXX_OPERATOR_DELETE(_GLIBCXX_SIZED_DEALLOC(__p, __n));
	.loc 5 172 26 is_stmt 0 view .LVU226
	ldmia	r4!, {r0}	@ MEM[(long int * *)__n_12], MEM[(long int * *)__n_12]
.LVL98:
	.loc 5 172 26 view .LVU227
	movs	r1, r6	@, tmp118
	bl	_ZdlPvj		@
.LVL99:
	.loc 5 172 26 view .LVU228
.LBE791:
.LBE792:
.LBE793:
.LBE794:
.LBE786:
	.loc 4 699 7 is_stmt 1 discriminator 3 view .LVU229
	.loc 4 699 45 discriminator 1 view .LVU230
	cmp	r5, r4	@ __nfinish, __nstart
	bhi	.L50		@,
.L48:
	.loc 4 699 45 is_stmt 0 discriminator 1 view .LVU231
.LBE785:
@ C:/Users/andre/.platformio/packages/toolchain-rp2040-earlephilhower/arm-none-eabi/include/c++/14.2.0/bits/stl_deque.h:701:     }
	.loc 4 701 5 view .LVU232
	@ sp needed	@
.LVL100:
.LVL101:
	.loc 4 701 5 view .LVU233
	pop	{r4, r5, r6, pc}
	.cfi_endproc
.LFE2242:
	.size	_ZNSt11_Deque_baseIlSaIlEE16_M_destroy_nodesEPPlS3_, .-_ZNSt11_Deque_baseIlSaIlEE16_M_destroy_nodesEPPlS3_
	.section	.rodata._ZNSt5dequeIlSaIlEE16_M_push_back_auxIJlEEEvDpOT_.str1.4,"aMS",%progbits,1
	.align	2
.LC0:
	.ascii	"cannot create std::deque larger than max_size()\000"
	.section	.text._ZNSt5dequeIlSaIlEE16_M_push_back_auxIJlEEEvDpOT_,"axG",%progbits,_ZNSt5dequeIlSaIlEE16_M_push_back_auxIJlEEEvDpOT_,comdat
	.align	1
	.weak	_ZNSt5dequeIlSaIlEE16_M_push_back_auxIJlEEEvDpOT_
	.syntax unified
	.code	16
	.thumb_func
	.type	_ZNSt5dequeIlSaIlEE16_M_push_back_auxIJlEEEvDpOT_, %function
_ZNSt5dequeIlSaIlEE16_M_push_back_auxIJlEEEvDpOT_:
.LVL102:
.LFB2346:
	.file 7 "C:/Users/andre/.platformio/packages/toolchain-rp2040-earlephilhower/arm-none-eabi/include/c++/14.2.0/bits/deque.tcc"
	.loc 7 484 7 is_stmt 1 view -0
	.cfi_startproc
	@ args = 0, pretend = 0, frame = 0
	@ frame_needed = 0, uses_anonymous_args = 0
	.loc 7 484 7 is_stmt 0 view .LVU235
	push	{r3, r4, r5, r6, r7, lr}	@
	.cfi_def_cfa_offset 24
	.cfi_offset 3, -24
	.cfi_offset 4, -20
	.cfi_offset 5, -16
	.cfi_offset 6, -12
	.cfi_offset 7, -8
	.cfi_offset 14, -4
	mov	lr, fp	@,
	mov	r7, r10	@,
	mov	r6, r9	@,
	mov	r5, r8	@,
	push	{r5, r6, r7, lr}	@
	.cfi_def_cfa_offset 40
	.cfi_offset 8, -40
	.cfi_offset 9, -36
	.cfi_offset 10, -32
	.cfi_offset 11, -28
	movs	r4, r0	@ this, tmp244
	mov	fp, r1	@ __args#0, tmp245
.LVL103:
.LBB871:
.LBI871:
	.loc 4 1268 7 is_stmt 1 view .LVU236
.LBB872:
.LBI872:
	.loc 4 370 7 view .LVU237
.LBB873:
@ C:/Users/andre/.platformio/packages/toolchain-rp2040-earlephilhower/arm-none-eabi/include/c++/14.2.0/bits/stl_deque.h:373: 	  * (__x._M_node - __y._M_node - bool(__x._M_node))
	.loc 4 373 11 is_stmt 0 view .LVU238
	ldr	r2, [r0, #36]	@ _24, MEM[(const struct _Self &)this_6(D) + 24]._M_node
@ C:/Users/andre/.platformio/packages/toolchain-rp2040-earlephilhower/arm-none-eabi/include/c++/14.2.0/bits/stl_deque.h:373: 	  * (__x._M_node - __y._M_node - bool(__x._M_node))
	.loc 4 373 25 view .LVU239
	ldr	r1, [r0, #20]	@ _25, MEM[(const struct _Self &)this_6(D) + 8]._M_node
.LVL104:
@ C:/Users/andre/.platformio/packages/toolchain-rp2040-earlephilhower/arm-none-eabi/include/c++/14.2.0/bits/stl_deque.h:373: 	  * (__x._M_node - __y._M_node - bool(__x._M_node))
	.loc 4 373 19 view .LVU240
	subs	r6, r2, r1	@ _26, _24, _25
	asrs	r7, r6, #2	@ _27, _26,
.LVL105:
@ C:/Users/andre/.platformio/packages/toolchain-rp2040-earlephilhower/arm-none-eabi/include/c++/14.2.0/bits/stl_deque.h:374: 	  + (__x._M_cur - __x._M_first)
	.loc 4 374 18 view .LVU241
	ldr	r3, [r0, #24]	@ MEM[(const struct _Self &)this_6(D) + 24]._M_cur, MEM[(const struct _Self &)this_6(D) + 24]._M_cur
	ldr	r0, [r0, #28]	@ MEM[(const struct _Self &)this_6(D) + 24]._M_first, MEM[(const struct _Self &)this_6(D) + 24]._M_first
.LVL106:
	.loc 4 374 18 view .LVU242
	subs	r3, r3, r0	@ _34, MEM[(const struct _Self &)this_6(D) + 24]._M_cur, MEM[(const struct _Self &)this_6(D) + 24]._M_first
	asrs	r3, r3, #2	@ _35, _34,
@ C:/Users/andre/.platformio/packages/toolchain-rp2040-earlephilhower/arm-none-eabi/include/c++/14.2.0/bits/stl_deque.h:373: 	  * (__x._M_node - __y._M_node - bool(__x._M_node))
	.loc 4 373 35 view .LVU243
	movs	r0, r2	@ _28, _24
	subs	r5, r0, #1	@ tmp199, _28
	sbcs	r0, r0, r5	@ _28, _28, tmp199
@ C:/Users/andre/.platformio/packages/toolchain-rp2040-earlephilhower/arm-none-eabi/include/c++/14.2.0/bits/stl_deque.h:373: 	  * (__x._M_node - __y._M_node - bool(__x._M_node))
	.loc 4 373 33 view .LVU244
	subs	r0, r7, r0	@ _30, _27, _28
@ C:/Users/andre/.platformio/packages/toolchain-rp2040-earlephilhower/arm-none-eabi/include/c++/14.2.0/bits/stl_deque.h:373: 	  * (__x._M_node - __y._M_node - bool(__x._M_node))
	.loc 4 373 4 view .LVU245
	lsls	r0, r0, #7	@ _31, _30,
@ C:/Users/andre/.platformio/packages/toolchain-rp2040-earlephilhower/arm-none-eabi/include/c++/14.2.0/bits/stl_deque.h:374: 	  + (__x._M_cur - __x._M_first)
	.loc 4 374 4 view .LVU246
	adds	r3, r3, r0	@ _36, _35, _31
@ C:/Users/andre/.platformio/packages/toolchain-rp2040-earlephilhower/arm-none-eabi/include/c++/14.2.0/bits/stl_deque.h:375: 	  + (__y._M_last - __y._M_cur);
	.loc 4 375 19 view .LVU247
	ldr	r0, [r4, #16]	@ MEM[(const struct _Self &)this_6(D) + 8]._M_last, MEM[(const struct _Self &)this_6(D) + 8]._M_last
	ldr	r5, [r4, #8]	@ MEM[(const struct _Self &)this_6(D) + 8]._M_cur, MEM[(const struct _Self &)this_6(D) + 8]._M_cur
	subs	r0, r0, r5	@ _39, MEM[(const struct _Self &)this_6(D) + 8]._M_last, MEM[(const struct _Self &)this_6(D) + 8]._M_cur
	asrs	r0, r0, #2	@ _40, _39,
@ C:/Users/andre/.platformio/packages/toolchain-rp2040-earlephilhower/arm-none-eabi/include/c++/14.2.0/bits/stl_deque.h:375: 	  + (__y._M_last - __y._M_cur);
	.loc 4 375 31 view .LVU248
	adds	r3, r3, r0	@ _41, _36, _40
.LBE873:
.LBE872:
.LBE871:
@ C:/Users/andre/.platformio/packages/toolchain-rp2040-earlephilhower/arm-none-eabi/include/c++/14.2.0/bits/deque.tcc:492: 	if (size() == max_size())
	.loc 7 492 2 discriminator 2 view .LVU249
	ldr	r0, .L68	@ tmp209,
	cmp	r3, r0	@ _41, tmp209
	beq	.L65		@,
.LVL107:
.LBB874:
.LBI874:
	.loc 4 2168 7 is_stmt 1 view .LVU250
.LBB875:
@ C:/Users/andre/.platformio/packages/toolchain-rp2040-earlephilhower/arm-none-eabi/include/c++/14.2.0/bits/stl_deque.h:2170: 	if (__nodes_to_add + 1 > this->_M_impl._M_map_size
	.loc 4 2170 41 is_stmt 0 view .LVU251
	ldr	r0, [r4, #4]	@ _43, this_6(D)->D.37667._M_impl.D.37034._M_map_size
@ C:/Users/andre/.platformio/packages/toolchain-rp2040-earlephilhower/arm-none-eabi/include/c++/14.2.0/bits/stl_deque.h:2171: 	    - (this->_M_impl._M_finish._M_node - this->_M_impl._M_map))
	.loc 4 2171 57 view .LVU252
	ldr	r3, [r4]	@ _45, this_6(D)->D.37667._M_impl.D.37034._M_map
	mov	ip, r3	@ _45, _45
@ C:/Users/andre/.platformio/packages/toolchain-rp2040-earlephilhower/arm-none-eabi/include/c++/14.2.0/bits/stl_deque.h:2171: 	    - (this->_M_impl._M_finish._M_node - this->_M_impl._M_map))
	.loc 4 2171 41 view .LVU253
	subs	r3, r2, r3	@ _46, _24, _45
	asrs	r3, r3, #2	@ _47, _46,
@ C:/Users/andre/.platformio/packages/toolchain-rp2040-earlephilhower/arm-none-eabi/include/c++/14.2.0/bits/stl_deque.h:2171: 	    - (this->_M_impl._M_finish._M_node - this->_M_impl._M_map))
	.loc 4 2171 6 view .LVU254
	subs	r3, r0, r3	@ _49, _43, _47
@ C:/Users/andre/.platformio/packages/toolchain-rp2040-earlephilhower/arm-none-eabi/include/c++/14.2.0/bits/stl_deque.h:2170: 	if (__nodes_to_add + 1 > this->_M_impl._M_map_size
	.loc 4 2170 2 view .LVU255
	cmp	r3, #1	@ _49,
	bls	.L66		@,
.L54:
.LVL108:
	.loc 4 2170 2 view .LVU256
.LBE875:
.LBE874:
@ C:/Users/andre/.platformio/packages/toolchain-rp2040-earlephilhower/arm-none-eabi/include/c++/14.2.0/bits/deque.tcc:497: 	*(this->_M_impl._M_finish._M_node + 1) = this->_M_allocate_node();
	.loc 7 497 28 view .LVU257
	ldr	r6, [r4, #36]	@ _1, this_6(D)->D.37667._M_impl.D.37034._M_finish._M_node
.LVL109:
.LBB974:
.LBI974:
	.loc 4 580 7 is_stmt 1 view .LVU258
.LBB975:
.LBB976:
.LBI976:
	.loc 6 477 7 view .LVU259
.LBB977:
.LBI977:
	.loc 5 126 7 view .LVU260
.LBB978:
@ C:/Users/andre/.platformio/packages/toolchain-rp2040-earlephilhower/arm-none-eabi/include/c++/14.2.0/bits/new_allocator.h:151: 	return static_cast<_Tp*>(_GLIBCXX_OPERATOR_NEW(__n * sizeof(_Tp)));
	.loc 5 151 48 is_stmt 0 view .LVU261
	movs	r0, #128	@ tmp248,
	lsls	r0, r0, #2	@, tmp248,
	bl	_Znwj		@
.LVL110:
	.loc 5 151 48 view .LVU262
.LBE978:
.LBE977:
.LBE976:
.LBE975:
.LBE974:
@ C:/Users/andre/.platformio/packages/toolchain-rp2040-earlephilhower/arm-none-eabi/include/c++/14.2.0/bits/deque.tcc:497: 	*(this->_M_impl._M_finish._M_node + 1) = this->_M_allocate_node();
	.loc 7 497 41 discriminator 1 view .LVU263
	str	r0, [r6, #4]	@ tmp247, MEM[(long int * *)_1 + 4B]
@ C:/Users/andre/.platformio/packages/toolchain-rp2040-earlephilhower/arm-none-eabi/include/c++/14.2.0/bits/deque.tcc:501: 	    _Alloc_traits::construct(this->_M_impl,
	.loc 7 501 30 view .LVU264
	ldr	r3, [r4, #24]	@ _2, this_6(D)->D.37667._M_impl.D.37034._M_finish._M_cur
.LVL111:
.LBB979:
.LBI979:
	.loc 6 529 2 is_stmt 1 view .LVU265
.LBB980:
.LBI980:
	.loc 5 189 2 view .LVU266
.LBB981:
@ C:/Users/andre/.platformio/packages/toolchain-rp2040-earlephilhower/arm-none-eabi/include/c++/14.2.0/bits/new_allocator.h:191: 	{ ::new((void *)__p) _Up(std::forward<_Args>(__args)...); }
	.loc 5 191 4 is_stmt 0 discriminator 1 view .LVU267
	mov	r2, fp	@ __args#0, __args#0
	ldr	r2, [r2]	@ _8, *__args#0_11(D)
	str	r2, [r3]	@ _8, *_2
.LVL112:
	.loc 5 191 4 discriminator 1 view .LVU268
.LBE981:
.LBE980:
.LBE979:
@ C:/Users/andre/.platformio/packages/toolchain-rp2040-earlephilhower/arm-none-eabi/include/c++/14.2.0/bits/deque.tcc:507: 	    this->_M_impl._M_finish._M_set_node(this->_M_impl._M_finish._M_node
	.loc 7 507 66 view .LVU269
	ldr	r3, [r4, #36]	@ _3, this_6(D)->D.37667._M_impl.D.37034._M_finish._M_node
.LVL113:
.LBB982:
.LBI982:
	.loc 4 263 7 is_stmt 1 view .LVU270
.LBE982:
@ C:/Users/andre/.platformio/packages/toolchain-rp2040-earlephilhower/arm-none-eabi/include/c++/14.2.0/bits/deque.tcc:507: 	    this->_M_impl._M_finish._M_set_node(this->_M_impl._M_finish._M_node
	.loc 7 507 41 is_stmt 0 view .LVU271
	adds	r2, r3, #4	@ _4, _3,
.LVL114:
.LBB984:
.LBB983:
@ C:/Users/andre/.platformio/packages/toolchain-rp2040-earlephilhower/arm-none-eabi/include/c++/14.2.0/bits/stl_deque.h:265: 	_M_node = __new_node;
	.loc 4 265 10 view .LVU272
	str	r2, [r4, #36]	@ _4, MEM[(struct _Deque_iterator *)this_6(D) + 24B]._M_node
@ C:/Users/andre/.platformio/packages/toolchain-rp2040-earlephilhower/arm-none-eabi/include/c++/14.2.0/bits/stl_deque.h:266: 	_M_first = *__new_node;
	.loc 4 266 11 view .LVU273
	ldr	r3, [r3, #4]	@ _17, MEM[(long int * *)_3 + 4B]
	str	r3, [r4, #28]	@ _17, MEM[(struct _Deque_iterator *)this_6(D) + 24B]._M_first
@ C:/Users/andre/.platformio/packages/toolchain-rp2040-earlephilhower/arm-none-eabi/include/c++/14.2.0/bits/stl_deque.h:267: 	_M_last = _M_first + difference_type(_S_buffer_size());
	.loc 4 267 21 discriminator 1 view .LVU274
	movs	r2, #128	@ tmp269,
.LVL115:
	.loc 4 267 21 discriminator 1 view .LVU275
	lsls	r2, r2, #2	@ tmp269, tmp269,
	adds	r2, r3, r2	@ _18, _17, tmp269
@ C:/Users/andre/.platformio/packages/toolchain-rp2040-earlephilhower/arm-none-eabi/include/c++/14.2.0/bits/stl_deque.h:267: 	_M_last = _M_first + difference_type(_S_buffer_size());
	.loc 4 267 10 discriminator 1 view .LVU276
	str	r2, [r4, #32]	@ _18, MEM[(struct _Deque_iterator *)this_6(D) + 24B]._M_last
.LVL116:
	.loc 4 267 10 discriminator 1 view .LVU277
.LBE983:
.LBE984:
@ C:/Users/andre/.platformio/packages/toolchain-rp2040-earlephilhower/arm-none-eabi/include/c++/14.2.0/bits/deque.tcc:509: 	    this->_M_impl._M_finish._M_cur = this->_M_impl._M_finish._M_first;
	.loc 7 509 37 view .LVU278
	str	r3, [r4, #24]	@ _17, this_6(D)->D.37667._M_impl.D.37034._M_finish._M_cur
@ C:/Users/andre/.platformio/packages/toolchain-rp2040-earlephilhower/arm-none-eabi/include/c++/14.2.0/bits/deque.tcc:516:       }
	.loc 7 516 7 view .LVU279
	@ sp needed	@
.LVL117:
.LVL118:
	.loc 7 516 7 view .LVU280
	pop	{r4, r5, r6, r7}
	mov	fp, r7
	mov	r10, r6
	mov	r9, r5
	mov	r8, r4
	pop	{r3, r4, r5, r6, r7, pc}
.LVL119:
.L65:
@ C:/Users/andre/.platformio/packages/toolchain-rp2040-earlephilhower/arm-none-eabi/include/c++/14.2.0/bits/deque.tcc:493: 	  __throw_length_error(
	.loc 7 493 24 view .LVU281
	ldr	r0, .L68+4	@ tmp210,
	bl	_ZSt20__throw_length_errorPKc		@
.LVL120:
.L66:
.LBB985:
.LBB973:
.LBB876:
.LBI876:
	.loc 7 931 5 is_stmt 1 view .LVU282
.LBB877:
@ C:/Users/andre/.platformio/packages/toolchain-rp2040-earlephilhower/arm-none-eabi/include/c++/14.2.0/bits/deque.tcc:936:       const size_type __new_num_nodes = __old_num_nodes + __nodes_to_add;
	.loc 7 936 23 is_stmt 0 view .LVU283
	adds	r3, r7, #2	@ __new_num_nodes, _27,
.LVL121:
.LBB878:
@ C:/Users/andre/.platformio/packages/toolchain-rp2040-earlephilhower/arm-none-eabi/include/c++/14.2.0/bits/deque.tcc:939:       if (this->_M_impl._M_map_size > 2 * __new_num_nodes)
	.loc 7 939 41 view .LVU284
	lsls	r5, r3, #1	@ _59, __new_num_nodes,
@ C:/Users/andre/.platformio/packages/toolchain-rp2040-earlephilhower/arm-none-eabi/include/c++/14.2.0/bits/deque.tcc:939:       if (this->_M_impl._M_map_size > 2 * __new_num_nodes)
	.loc 7 939 7 view .LVU285
	cmp	r0, r5	@ _43, _59
	bls	.L55		@,
@ C:/Users/andre/.platformio/packages/toolchain-rp2040-earlephilhower/arm-none-eabi/include/c++/14.2.0/bits/deque.tcc:942: 					 - __new_num_nodes) / 2
	.loc 7 942 7 view .LVU286
	subs	r7, r0, r3	@ _61, _43, __new_num_nodes
.LVL122:
@ C:/Users/andre/.platformio/packages/toolchain-rp2040-earlephilhower/arm-none-eabi/include/c++/14.2.0/bits/deque.tcc:942: 					 - __new_num_nodes) / 2
	.loc 7 942 26 view .LVU287
	lsrs	r7, r7, #1	@ _62, _61,
@ C:/Users/andre/.platformio/packages/toolchain-rp2040-earlephilhower/arm-none-eabi/include/c++/14.2.0/bits/deque.tcc:941: 	  __new_nstart = this->_M_impl._M_map + (this->_M_impl._M_map_size
	.loc 7 941 40 view .LVU288
	lsls	r7, r7, #2	@ _63, _62,
@ C:/Users/andre/.platformio/packages/toolchain-rp2040-earlephilhower/arm-none-eabi/include/c++/14.2.0/bits/deque.tcc:941: 	  __new_nstart = this->_M_impl._M_map + (this->_M_impl._M_map_size
	.loc 7 941 17 view .LVU289
	add	r7, r7, ip	@ __new_nstart, _45
.LVL123:
@ C:/Users/andre/.platformio/packages/toolchain-rp2040-earlephilhower/arm-none-eabi/include/c++/14.2.0/bits/deque.tcc:944: 	  if (__new_nstart < this->_M_impl._M_start._M_node)
	.loc 7 944 4 view .LVU290
	cmp	r1, r7	@ _25, __new_nstart
	bls	.L56		@,
.LVL124:
.LBB879:
.LBI879:
	.loc 3 642 5 is_stmt 1 view .LVU291
.LBB880:
.LBI880:
	.loc 3 553 5 view .LVU292
.LBB881:
.LBI881:
	.loc 3 547 5 view .LVU293
.LBB882:
.LBI882:
	.loc 3 512 5 view .LVU294
.LBB883:
.LBB884:
.LBI884:
	.loc 3 448 2 view .LVU295
.LBE884:
.LBE883:
.LBE882:
.LBE881:
.LBE880:
.LBE879:
@ C:/Users/andre/.platformio/packages/toolchain-rp2040-earlephilhower/arm-none-eabi/include/c++/14.2.0/bits/deque.tcc:945: 	    std::copy(this->_M_impl._M_start._M_node,
	.loc 7 945 15 is_stmt 0 view .LVU296
	adds	r2, r2, #4	@ _68,
.LVL125:
.LBB899:
.LBB897:
.LBB895:
.LBB893:
.LBB891:
.LBB889:
.LBB885:
@ C:/Users/andre/.platformio/packages/toolchain-rp2040-earlephilhower/arm-none-eabi/include/c++/14.2.0/bits/stl_algobase.h:450: 	  const ptrdiff_t _Num = __last - __first;
	.loc 3 450 34 view .LVU297
	subs	r2, r2, r1	@ _97, _68, _25
.LVL126:
@ C:/Users/andre/.platformio/packages/toolchain-rp2040-earlephilhower/arm-none-eabi/include/c++/14.2.0/bits/stl_algobase.h:451: 	  if (__builtin_expect(_Num > 1, true))
	.loc 3 451 4 discriminator 1 view .LVU298
	cmp	r2, #4	@ _97,
	ble	.L57		@,
@ C:/Users/andre/.platformio/packages/toolchain-rp2040-earlephilhower/arm-none-eabi/include/c++/14.2.0/bits/stl_algobase.h:452: 	    __builtin_memmove(__result, __first, sizeof(_Tp) * _Num);
	.loc 3 452 23 view .LVU299
	movs	r0, r7	@, __new_nstart
	bl	memmove		@
.LVL127:
.L58:
	.loc 3 452 23 view .LVU300
.LBE885:
.LBE889:
.LBE891:
.LBE893:
.LBE895:
.LBE897:
.LBE899:
.LBE878:
.LBB966:
.LBI966:
	.loc 4 263 7 is_stmt 1 view .LVU301
.LBB967:
@ C:/Users/andre/.platformio/packages/toolchain-rp2040-earlephilhower/arm-none-eabi/include/c++/14.2.0/bits/stl_deque.h:265: 	_M_node = __new_node;
	.loc 4 265 10 is_stmt 0 view .LVU302
	str	r7, [r4, #20]	@ __new_nstart, MEM[(struct _Deque_iterator *)this_6(D) + 8B]._M_node
@ C:/Users/andre/.platformio/packages/toolchain-rp2040-earlephilhower/arm-none-eabi/include/c++/14.2.0/bits/stl_deque.h:266: 	_M_first = *__new_node;
	.loc 4 266 11 view .LVU303
	ldr	r3, [r7]	@ _91, *__new_nstart_90
	str	r3, [r4, #12]	@ _91, MEM[(struct _Deque_iterator *)this_6(D) + 8B]._M_first
@ C:/Users/andre/.platformio/packages/toolchain-rp2040-earlephilhower/arm-none-eabi/include/c++/14.2.0/bits/stl_deque.h:267: 	_M_last = _M_first + difference_type(_S_buffer_size());
	.loc 4 267 21 discriminator 1 view .LVU304
	movs	r2, #128	@ tmp265,
	lsls	r2, r2, #2	@ tmp265, tmp265,
	mov	ip, r2	@ tmp265, tmp265
	add	r3, r3, ip	@ _92, tmp265
@ C:/Users/andre/.platformio/packages/toolchain-rp2040-earlephilhower/arm-none-eabi/include/c++/14.2.0/bits/stl_deque.h:267: 	_M_last = _M_first + difference_type(_S_buffer_size());
	.loc 4 267 10 discriminator 1 view .LVU305
	str	r3, [r4, #16]	@ _92, MEM[(struct _Deque_iterator *)this_6(D) + 8B]._M_last
.LVL128:
	.loc 4 267 10 discriminator 1 view .LVU306
.LBE967:
.LBE966:
@ C:/Users/andre/.platformio/packages/toolchain-rp2040-earlephilhower/arm-none-eabi/include/c++/14.2.0/bits/deque.tcc:972:       this->_M_impl._M_finish._M_set_node(__new_nstart + __old_num_nodes - 1);
	.loc 7 972 42 view .LVU307
	adds	r7, r7, r6	@ _94, __new_nstart, _26
.LVL129:
.LBB968:
.LBI968:
	.loc 4 263 7 is_stmt 1 view .LVU308
.LBB969:
@ C:/Users/andre/.platformio/packages/toolchain-rp2040-earlephilhower/arm-none-eabi/include/c++/14.2.0/bits/stl_deque.h:265: 	_M_node = __new_node;
	.loc 4 265 10 is_stmt 0 view .LVU309
	str	r7, [r4, #36]	@ _94, MEM[(struct _Deque_iterator *)this_6(D) + 24B]._M_node
@ C:/Users/andre/.platformio/packages/toolchain-rp2040-earlephilhower/arm-none-eabi/include/c++/14.2.0/bits/stl_deque.h:266: 	_M_first = *__new_node;
	.loc 4 266 11 view .LVU310
	ldr	r3, [r7]	@ _95, *_94
	str	r3, [r4, #28]	@ _95, MEM[(struct _Deque_iterator *)this_6(D) + 24B]._M_first
@ C:/Users/andre/.platformio/packages/toolchain-rp2040-earlephilhower/arm-none-eabi/include/c++/14.2.0/bits/stl_deque.h:267: 	_M_last = _M_first + difference_type(_S_buffer_size());
	.loc 4 267 21 discriminator 1 view .LVU311
	add	r3, r3, ip	@ _96, tmp267
@ C:/Users/andre/.platformio/packages/toolchain-rp2040-earlephilhower/arm-none-eabi/include/c++/14.2.0/bits/stl_deque.h:267: 	_M_last = _M_first + difference_type(_S_buffer_size());
	.loc 4 267 10 discriminator 1 view .LVU312
	str	r3, [r4, #32]	@ _96, MEM[(struct _Deque_iterator *)this_6(D) + 24B]._M_last
.LVL130:
	.loc 4 267 10 discriminator 1 view .LVU313
.LBE969:
.LBE968:
.LBE877:
.LBE876:
	b	.L54		@
.LVL131:
.L57:
.LBB972:
.LBB971:
.LBB970:
.LBB900:
.LBB898:
.LBB896:
.LBB894:
.LBB892:
.LBB890:
.LBB888:
@ C:/Users/andre/.platformio/packages/toolchain-rp2040-earlephilhower/arm-none-eabi/include/c++/14.2.0/bits/stl_algobase.h:453: 	  else if (_Num == 1)
	.loc 3 453 9 view .LVU314
	cmp	r2, #4	@ _97,
	bne	.L58		@,
.LVL132:
.LBB886:
.LBI886:
	.loc 3 412 2 is_stmt 1 view .LVU315
.LBB887:
@ C:/Users/andre/.platformio/packages/toolchain-rp2040-earlephilhower/arm-none-eabi/include/c++/14.2.0/bits/stl_algobase.h:413: 	{ *__to = *__from; }
	.loc 3 413 10 is_stmt 0 view .LVU316
	ldr	r3, [r1]	@ _102, *_25
.LVL133:
	.loc 3 413 10 view .LVU317
	str	r3, [r7]	@ _102, *__new_nstart_67
.LVL134:
@ C:/Users/andre/.platformio/packages/toolchain-rp2040-earlephilhower/arm-none-eabi/include/c++/14.2.0/bits/stl_algobase.h:413: 	{ *__to = *__from; }
	.loc 3 413 21 view .LVU318
	b	.L58		@
.LVL135:
.L56:
	.loc 3 413 21 view .LVU319
.LBE887:
.LBE886:
.LBE888:
.LBE890:
.LBE892:
.LBE894:
.LBE896:
.LBE898:
.LBE900:
@ C:/Users/andre/.platformio/packages/toolchain-rp2040-earlephilhower/arm-none-eabi/include/c++/14.2.0/bits/deque.tcc:949: 	    std::copy_backward(this->_M_impl._M_start._M_node,
	.loc 7 949 24 view .LVU320
	adds	r0, r6, #4	@ _71, _26,
	adds	r0, r7, r0	@ _72, __new_nstart, _71
.LVL136:
.LBB901:
.LBI901:
	.loc 3 878 5 is_stmt 1 view .LVU321
.LBB902:
.LBI902:
	.loc 3 823 5 view .LVU322
.LBB903:
.LBI903:
	.loc 3 795 5 view .LVU323
.LBB904:
.LBI904:
	.loc 3 777 5 view .LVU324
.LBB905:
.LBB906:
.LBI906:
	.loc 3 762 2 view .LVU325
.LBE906:
.LBE905:
.LBE904:
.LBE903:
.LBE902:
.LBE901:
@ C:/Users/andre/.platformio/packages/toolchain-rp2040-earlephilhower/arm-none-eabi/include/c++/14.2.0/bits/deque.tcc:949: 	    std::copy_backward(this->_M_impl._M_start._M_node,
	.loc 7 949 24 is_stmt 0 view .LVU326
	adds	r2, r2, #4	@ _69,
.LVL137:
.LBB915:
.LBB914:
.LBB913:
.LBB912:
.LBB911:
.LBB910:
.LBB907:
@ C:/Users/andre/.platformio/packages/toolchain-rp2040-earlephilhower/arm-none-eabi/include/c++/14.2.0/bits/stl_algobase.h:764: 	  const ptrdiff_t _Num = __last - __first;
	.loc 3 764 34 view .LVU327
	subs	r2, r2, r1	@ _105, _69, _25
.LVL138:
@ C:/Users/andre/.platformio/packages/toolchain-rp2040-earlephilhower/arm-none-eabi/include/c++/14.2.0/bits/stl_algobase.h:765: 	  if (__builtin_expect(_Num > 1, true))
	.loc 3 765 4 discriminator 1 view .LVU328
	cmp	r2, #4	@ _105,
	ble	.L59		@,
@ C:/Users/andre/.platformio/packages/toolchain-rp2040-earlephilhower/arm-none-eabi/include/c++/14.2.0/bits/stl_algobase.h:766: 	    __builtin_memmove(__result - _Num, __first, sizeof(_Tp) * _Num);
	.loc 3 766 33 view .LVU329
	subs	r0, r0, r2	@ _111, _72, _105
.LVL139:
@ C:/Users/andre/.platformio/packages/toolchain-rp2040-earlephilhower/arm-none-eabi/include/c++/14.2.0/bits/stl_algobase.h:766: 	    __builtin_memmove(__result - _Num, __first, sizeof(_Tp) * _Num);
	.loc 3 766 23 view .LVU330
	bl	memmove		@
.LVL140:
	.loc 3 766 23 view .LVU331
	b	.L58		@
.LVL141:
.L59:
@ C:/Users/andre/.platformio/packages/toolchain-rp2040-earlephilhower/arm-none-eabi/include/c++/14.2.0/bits/stl_algobase.h:767: 	  else if (_Num == 1)
	.loc 3 767 9 view .LVU332
	cmp	r2, #4	@ _105,
	bne	.L58		@,
.LVL142:
.LBB908:
.LBI908:
	.loc 3 412 2 is_stmt 1 view .LVU333
.LBB909:
@ C:/Users/andre/.platformio/packages/toolchain-rp2040-earlephilhower/arm-none-eabi/include/c++/14.2.0/bits/stl_algobase.h:413: 	{ *__to = *__from; }
	.loc 3 413 10 is_stmt 0 view .LVU334
	ldr	r3, [r1]	@ _112, *_25
.LVL143:
	.loc 3 413 10 view .LVU335
	subs	r0, r0, #4	@ tmp224,
.LVL144:
	.loc 3 413 10 view .LVU336
	str	r3, [r0]	@ _112, MEM[(long int * *)_72 + 4294967292B]
.LVL145:
@ C:/Users/andre/.platformio/packages/toolchain-rp2040-earlephilhower/arm-none-eabi/include/c++/14.2.0/bits/stl_algobase.h:413: 	{ *__to = *__from; }
	.loc 3 413 21 view .LVU337
	b	.L58		@
.LVL146:
.L55:
	.loc 3 413 21 view .LVU338
.LBE909:
.LBE908:
.LBE907:
.LBE910:
.LBE911:
.LBE912:
.LBE913:
.LBE914:
.LBE915:
.LBB916:
.LBB917:
.LBI917:
	.loc 3 257 5 is_stmt 1 view .LVU339
.LBB918:
@ C:/Users/andre/.platformio/packages/toolchain-rp2040-earlephilhower/arm-none-eabi/include/c++/14.2.0/bits/stl_algobase.h:262:       if (__a < __b)
	.loc 3 262 7 is_stmt 0 view .LVU340
	subs	r3, r0, #0	@ _73, _43,
.LVL147:
	.loc 3 262 7 view .LVU341
	bne	.L60		@,
	movs	r3, #1	@ _73,
.L60:
	.loc 3 262 7 view .LVU342
.LBE918:
.LBE917:
@ C:/Users/andre/.platformio/packages/toolchain-rp2040-earlephilhower/arm-none-eabi/include/c++/14.2.0/bits/deque.tcc:956: 				     + std::max(this->_M_impl._M_map_size,
	.loc 7 956 10 discriminator 1 view .LVU343
	mov	r8, r3	@ _73, _73
	add	r8, r8, r0	@ _73, _43
@ C:/Users/andre/.platformio/packages/toolchain-rp2040-earlephilhower/arm-none-eabi/include/c++/14.2.0/bits/deque.tcc:955: 	  size_type __new_map_size = this->_M_impl._M_map_size
	.loc 7 955 14 view .LVU344
	movs	r3, #2	@ __new_map_size,
	add	r3, r3, r8	@ __new_map_size, _74
	mov	r10, r3	@ __new_map_size, __new_map_size
.LVL148:
.LBB919:
.LBI919:
	.loc 4 594 7 is_stmt 1 view .LVU345
.LBB920:
.LBB921:
.LBI921:
	.loc 4 576 7 view .LVU346
.LBB922:
.LBI922:
	.file 8 "C:/Users/andre/.platformio/packages/toolchain-rp2040-earlephilhower/arm-none-eabi/include/c++/14.2.0/bits/allocator.h"
	.loc 8 176 2 view .LVU347
.LBB923:
.LBI923:
	.loc 5 88 7 view .LVU348
	.loc 5 88 7 is_stmt 0 view .LVU349
.LBE923:
.LBE922:
.LBE921:
.LBB924:
.LBI924:
	.loc 6 477 7 is_stmt 1 view .LVU350
.LBB925:
.LBI925:
	.loc 5 126 7 view .LVU351
.LBB926:
@ C:/Users/andre/.platformio/packages/toolchain-rp2040-earlephilhower/arm-none-eabi/include/c++/14.2.0/bits/new_allocator.h:134: 	if (__builtin_expect(__n > this->_M_max_size(), false))
	.loc 5 134 2 is_stmt 0 discriminator 1 view .LVU352
	movs	r3, #128	@ tmp226,
.LVL149:
	.loc 5 134 2 discriminator 1 view .LVU353
	lsls	r3, r3, #22	@ tmp226, tmp226,
	cmp	r10, r3	@ __new_map_size, tmp226
	bcs	.L67		@,
@ C:/Users/andre/.platformio/packages/toolchain-rp2040-earlephilhower/arm-none-eabi/include/c++/14.2.0/bits/new_allocator.h:151: 	return static_cast<_Tp*>(_GLIBCXX_OPERATOR_NEW(__n * sizeof(_Tp)));
	.loc 5 151 48 view .LVU354
	mov	r3, r10	@ __new_map_size, __new_map_size
	lsls	r0, r3, #2	@ _119, __new_map_size,
	bl	_Znwj		@
.LVL150:
	mov	r9, r0	@ _120, tmp246
.LVL151:
	.loc 5 151 48 view .LVU355
.LBE926:
.LBE925:
.LBE924:
.LBB929:
.LBI929:
	.loc 8 182 7 is_stmt 1 view .LVU356
.LBB930:
.LBI930:
	.loc 5 104 7 view .LVU357
	.loc 5 104 7 is_stmt 0 view .LVU358
.LBE930:
.LBE929:
.LBE920:
.LBE919:
@ C:/Users/andre/.platformio/packages/toolchain-rp2040-earlephilhower/arm-none-eabi/include/c++/14.2.0/bits/deque.tcc:960: 	  __new_nstart = __new_map + (__new_map_size - __new_num_nodes) / 2
	.loc 7 960 47 view .LVU359
	mov	r3, r8	@ _74, _74
	subs	r7, r3, r7	@ _77, _74, _27
.LVL152:
@ C:/Users/andre/.platformio/packages/toolchain-rp2040-earlephilhower/arm-none-eabi/include/c++/14.2.0/bits/deque.tcc:960: 	  __new_nstart = __new_map + (__new_map_size - __new_num_nodes) / 2
	.loc 7 960 66 view .LVU360
	lsrs	r7, r7, #1	@ _78, _77,
@ C:/Users/andre/.platformio/packages/toolchain-rp2040-earlephilhower/arm-none-eabi/include/c++/14.2.0/bits/deque.tcc:960: 	  __new_nstart = __new_map + (__new_map_size - __new_num_nodes) / 2
	.loc 7 960 29 view .LVU361
	lsls	r7, r7, #2	@ _79, _78,
@ C:/Users/andre/.platformio/packages/toolchain-rp2040-earlephilhower/arm-none-eabi/include/c++/14.2.0/bits/deque.tcc:960: 	  __new_nstart = __new_map + (__new_map_size - __new_num_nodes) / 2
	.loc 7 960 17 view .LVU362
	add	r7, r7, r9	@ __new_nstart, _120
.LVL153:
@ C:/Users/andre/.platformio/packages/toolchain-rp2040-earlephilhower/arm-none-eabi/include/c++/14.2.0/bits/deque.tcc:962: 	  std::copy(this->_M_impl._M_start._M_node,
	.loc 7 962 13 view .LVU363
	ldr	r1, [r4, #20]	@ _84, this_6(D)->D.37667._M_impl.D.37034._M_start._M_node
.LVL154:
.LBB933:
.LBI933:
	.loc 3 642 5 is_stmt 1 view .LVU364
.LBB934:
.LBI934:
	.loc 3 553 5 view .LVU365
.LBB935:
.LBI935:
	.loc 3 547 5 view .LVU366
.LBB936:
.LBI936:
	.loc 3 512 5 view .LVU367
.LBB937:
.LBB938:
.LBI938:
	.loc 3 448 2 view .LVU368
.LBE938:
.LBE937:
.LBE936:
.LBE935:
.LBE934:
.LBE933:
@ C:/Users/andre/.platformio/packages/toolchain-rp2040-earlephilhower/arm-none-eabi/include/c++/14.2.0/bits/deque.tcc:962: 	  std::copy(this->_M_impl._M_start._M_node,
	.loc 7 962 13 is_stmt 0 view .LVU369
	ldr	r2, [r4, #36]	@ this_6(D)->D.37667._M_impl.D.37034._M_finish._M_node, this_6(D)->D.37667._M_impl.D.37034._M_finish._M_node
	adds	r2, r2, #4	@ _86,
.LVL155:
.LBB953:
.LBB951:
.LBB949:
.LBB947:
.LBB945:
.LBB943:
.LBB939:
@ C:/Users/andre/.platformio/packages/toolchain-rp2040-earlephilhower/arm-none-eabi/include/c++/14.2.0/bits/stl_algobase.h:450: 	  const ptrdiff_t _Num = __last - __first;
	.loc 3 450 34 view .LVU370
	subs	r2, r2, r1	@ _121, _86, _84
.LVL156:
@ C:/Users/andre/.platformio/packages/toolchain-rp2040-earlephilhower/arm-none-eabi/include/c++/14.2.0/bits/stl_algobase.h:451: 	  if (__builtin_expect(_Num > 1, true))
	.loc 3 451 4 discriminator 1 view .LVU371
	cmp	r2, #4	@ _121,
	ble	.L63		@,
@ C:/Users/andre/.platformio/packages/toolchain-rp2040-earlephilhower/arm-none-eabi/include/c++/14.2.0/bits/stl_algobase.h:452: 	    __builtin_memmove(__result, __first, sizeof(_Tp) * _Num);
	.loc 3 452 23 view .LVU372
	movs	r0, r7	@, __new_nstart
.LVL157:
	.loc 3 452 23 view .LVU373
	bl	memmove		@
.LVL158:
.L64:
	.loc 3 452 23 view .LVU374
.LBE939:
.LBE943:
.LBE945:
.LBE947:
.LBE949:
.LBE951:
.LBE953:
.LBB954:
.LBI954:
	.loc 4 601 7 is_stmt 1 view .LVU375
.LBB955:
.LBB956:
.LBI956:
	.loc 4 576 7 view .LVU376
.LBB957:
.LBI957:
	.loc 8 176 2 view .LVU377
.LBB958:
.LBI958:
	.loc 5 88 7 view .LVU378
	.loc 5 88 7 is_stmt 0 view .LVU379
.LBE958:
.LBE957:
.LBE956:
.LBB959:
.LBI959:
	.loc 6 512 7 is_stmt 1 view .LVU380
.LBB960:
.LBI960:
	.loc 5 156 7 view .LVU381
.LBB961:
@ C:/Users/andre/.platformio/packages/toolchain-rp2040-earlephilhower/arm-none-eabi/include/c++/14.2.0/bits/new_allocator.h:172: 	_GLIBCXX_OPERATOR_DELETE(_GLIBCXX_SIZED_DEALLOC(__p, __n));
	.loc 5 172 26 is_stmt 0 view .LVU382
	ldr	r1, [r4, #4]	@ this_6(D)->D.37667._M_impl.D.37034._M_map_size, this_6(D)->D.37667._M_impl.D.37034._M_map_size
	lsls	r1, r1, #2	@ _89, this_6(D)->D.37667._M_impl.D.37034._M_map_size,
	ldr	r0, [r4]	@ this_6(D)->D.37667._M_impl.D.37034._M_map, this_6(D)->D.37667._M_impl.D.37034._M_map
	bl	_ZdlPvj		@
.LVL159:
	.loc 5 172 26 view .LVU383
.LBE961:
.LBE960:
.LBE959:
.LBB962:
.LBI962:
	.loc 8 182 7 is_stmt 1 view .LVU384
.LBB963:
.LBI963:
	.loc 5 104 7 view .LVU385
	.loc 5 104 7 is_stmt 0 view .LVU386
.LBE963:
.LBE962:
.LBE955:
.LBE954:
@ C:/Users/andre/.platformio/packages/toolchain-rp2040-earlephilhower/arm-none-eabi/include/c++/14.2.0/bits/deque.tcc:967: 	  this->_M_impl._M_map = __new_map;
	.loc 7 967 25 view .LVU387
	mov	r3, r9	@ _120, _120
	str	r3, [r4]	@ _120, this_6(D)->D.37667._M_impl.D.37034._M_map
@ C:/Users/andre/.platformio/packages/toolchain-rp2040-earlephilhower/arm-none-eabi/include/c++/14.2.0/bits/deque.tcc:968: 	  this->_M_impl._M_map_size = __new_map_size;
	.loc 7 968 30 view .LVU388
	mov	r3, r10	@ __new_map_size, __new_map_size
	str	r3, [r4, #4]	@ __new_map_size, this_6(D)->D.37667._M_impl.D.37034._M_map_size
	b	.L58		@
.LVL160:
.L67:
.LBB964:
.LBB932:
.LBB931:
.LBB928:
.LBB927:
@ C:/Users/andre/.platformio/packages/toolchain-rp2040-earlephilhower/arm-none-eabi/include/c++/14.2.0/bits/new_allocator.h:138: 	    if (__n > (std::size_t(-1) / sizeof(_Tp)))
	.loc 5 138 6 view .LVU389
	movs	r3, #128	@ tmp227,
	lsls	r3, r3, #23	@ tmp227, tmp227,
	cmp	r10, r3	@ __new_map_size, tmp227
	bcc	.L62		@,
@ C:/Users/andre/.platformio/packages/toolchain-rp2040-earlephilhower/arm-none-eabi/include/c++/14.2.0/bits/new_allocator.h:139: 	      std::__throw_bad_array_new_length();
	.loc 5 139 41 view .LVU390
	bl	_ZSt28__throw_bad_array_new_lengthv		@
.LVL161:
.L62:
@ C:/Users/andre/.platformio/packages/toolchain-rp2040-earlephilhower/arm-none-eabi/include/c++/14.2.0/bits/new_allocator.h:140: 	    std::__throw_bad_alloc();
	.loc 5 140 28 view .LVU391
	bl	_ZSt17__throw_bad_allocv		@
.LVL162:
.L63:
	.loc 5 140 28 view .LVU392
.LBE927:
.LBE928:
.LBE931:
.LBE932:
.LBE964:
.LBB965:
.LBB952:
.LBB950:
.LBB948:
.LBB946:
.LBB944:
.LBB942:
@ C:/Users/andre/.platformio/packages/toolchain-rp2040-earlephilhower/arm-none-eabi/include/c++/14.2.0/bits/stl_algobase.h:453: 	  else if (_Num == 1)
	.loc 3 453 9 view .LVU393
	cmp	r2, #4	@ _121,
	bne	.L64		@,
.LVL163:
.LBB940:
.LBI940:
	.loc 3 412 2 is_stmt 1 view .LVU394
.LBB941:
@ C:/Users/andre/.platformio/packages/toolchain-rp2040-earlephilhower/arm-none-eabi/include/c++/14.2.0/bits/stl_algobase.h:413: 	{ *__to = *__from; }
	.loc 3 413 10 is_stmt 0 view .LVU395
	ldr	r3, [r1]	@ _126, *_84
	str	r3, [r7]	@ _126, *__new_nstart_83
.LVL164:
@ C:/Users/andre/.platformio/packages/toolchain-rp2040-earlephilhower/arm-none-eabi/include/c++/14.2.0/bits/stl_algobase.h:413: 	{ *__to = *__from; }
	.loc 3 413 21 view .LVU396
	b	.L64		@
.L69:
	.align	2
.L68:
	.word	536870911
	.word	.LC0
.LBE941:
.LBE940:
.LBE942:
.LBE944:
.LBE946:
.LBE948:
.LBE950:
.LBE952:
.LBE965:
.LBE916:
.LBE970:
.LBE971:
.LBE972:
.LBE973:
.LBE985:
	.cfi_endproc
.LFE2346:
	.size	_ZNSt5dequeIlSaIlEE16_M_push_back_auxIJlEEEvDpOT_, .-_ZNSt5dequeIlSaIlEE16_M_push_back_auxIJlEEEvDpOT_
	.section	.text._ZN6filter9FIRFilter5writeEPKtjj,"ax",%progbits
	.align	1
	.global	_ZN6filter9FIRFilter5writeEPKtjj
	.syntax unified
	.code	16
	.thumb_func
	.type	_ZN6filter9FIRFilter5writeEPKtjj, %function
_ZN6filter9FIRFilter5writeEPKtjj:
.LVL165:
.LFB2070:
	.loc 1 8 73 is_stmt 1 view -0
	.cfi_startproc
	@ args = 0, pretend = 0, frame = 16
	@ frame_needed = 0, uses_anonymous_args = 0
	.loc 1 8 73 is_stmt 0 view .LVU398
	push	{r4, r5, r6, r7, lr}	@
	.cfi_def_cfa_offset 20
	.cfi_offset 4, -20
	.cfi_offset 5, -16
	.cfi_offset 6, -12
	.cfi_offset 7, -8
	.cfi_offset 14, -4
	mov	lr, fp	@,
	mov	r7, r10	@,
	mov	r6, r9	@,
	mov	r5, r8	@,
	push	{r5, r6, r7, lr}	@
	.cfi_def_cfa_offset 36
	.cfi_offset 8, -36
	.cfi_offset 9, -32
	.cfi_offset 10, -28
	.cfi_offset 11, -24
	sub	sp, sp, #20	@,,
	.cfi_def_cfa_offset 56
	movs	r4, r0	@ this, tmp225
	str	r1, [sp]	@ tmp226, %sfp
	mov	r9, r2	@ length, tmp227
	mov	r10, r3	@ step, tmp228
	.loc 1 9 5 is_stmt 1 view .LVU399
.LVL166:
.LBB1012:
.LBI1012:
	.loc 2 992 7 view .LVU400
.LBB1013:
@ C:/Users/andre/.platformio/packages/toolchain-rp2040-earlephilhower/arm-none-eabi/include/c++/14.2.0/bits/stl_vector.h:993:       { return size_type(this->_M_impl._M_finish - this->_M_impl._M_start); }
	.loc 2 993 50 is_stmt 0 view .LVU401
	ldr	r3, [r0, #12]	@ MEM[(const struct vector *)this_25(D) + 8B].D.36436._M_impl.D.35737._M_finish, MEM[(const struct vector *)this_25(D) + 8B].D.36436._M_impl.D.35737._M_finish
.LVL167:
	.loc 2 993 50 view .LVU402
	ldr	r2, [r0, #8]	@ MEM[(const struct vector *)this_25(D) + 8B].D.36436._M_impl.D.35737._M_start, MEM[(const struct vector *)this_25(D) + 8B].D.36436._M_impl.D.35737._M_start
.LVL168:
	.loc 2 993 50 view .LVU403
	subs	r3, r3, r2	@ _27, MEM[(const struct vector *)this_25(D) + 8B].D.36436._M_impl.D.35737._M_finish, MEM[(const struct vector *)this_25(D) + 8B].D.36436._M_impl.D.35737._M_start
	asrs	r3, r3, #2	@ _45, _27,
	str	r3, [sp, #4]	@ _45, %sfp
.LVL169:
	.loc 2 993 50 view .LVU404
.LBE1013:
.LBE1012:
	.loc 1 11 5 is_stmt 1 view .LVU405
.LBB1014:
	.loc 1 11 36 discriminator 1 view .LVU406
	mov	r3, r9	@ length, length
.LVL170:
	.loc 1 11 36 is_stmt 0 discriminator 1 view .LVU407
	cmp	r3, #0	@ length,
	beq	.L70		@,
@ lib/filter/src/filter.cpp:11:     for (size_t in_ptr = 0; in_ptr < length; in_ptr += step) {
	.loc 1 11 17 view .LVU408
	movs	r5, #0	@ in_ptr,
.LBB1015:
@ lib/filter/src/filter.cpp:13:         m_buffer[m_buffer_pos++] = data[in_ptr];
	.loc 1 13 18 view .LVU409
	movs	r3, #160	@ tmp169,
	lsls	r3, r3, #1	@ tmp169, tmp169,
	mov	r8, r3	@ tmp169, tmp169
@ lib/filter/src/filter.cpp:17:         if (m_buffer_fill < FILTER_BUFFER_SIZE)
	.loc 1 17 13 view .LVU410
	movs	r6, #162	@ tmp174,
	lsls	r6, r6, #1	@ tmp174, tmp174,
@ lib/filter/src/filter.cpp:21:         bool sample_output = m_input_cnt == 0;
	.loc 1 21 30 view .LVU411
	movs	r7, #164	@ tmp177,
	lsls	r7, r7, #1	@ tmp177, tmp177,
	b	.L79		@
.LVL171:
.L81:
	.loc 1 37 13 is_stmt 1 view .LVU412
@ lib/filter/src/filter.cpp:37:             m_values.push_back(process_one());
	.loc 1 37 43 is_stmt 0 view .LVU413
	movs	r0, r4	@, this
	bl	_ZN6filter9FIRFilter11process_oneEv		@
.LVL172:
@ lib/filter/src/filter.cpp:37:             m_values.push_back(process_one());
	.loc 1 37 43 discriminator 1 view .LVU414
	str	r0, [sp, #12]	@ _14, D.39018
.LVL173:
.LBB1016:
.LBI1016:
	.loc 4 1553 7 is_stmt 1 view .LVU415
.LBB1017:
.LBI1017:
	.loc 7 164 7 view .LVU416
.LBB1018:
@ C:/Users/andre/.platformio/packages/toolchain-rp2040-earlephilhower/arm-none-eabi/include/c++/14.2.0/bits/deque.tcc:168: 	    != this->_M_impl._M_finish._M_last - 1)
	.loc 7 168 41 is_stmt 0 view .LVU417
	ldr	r3, [r4, #52]	@ MEM[(struct deque *)this_25(D) + 20B].D.37667._M_impl.D.37034._M_finish._M_last, MEM[(struct deque *)this_25(D) + 20B].D.37667._M_impl.D.37034._M_finish._M_last
	subs	r3, r3, #4	@ _71,
@ C:/Users/andre/.platformio/packages/toolchain-rp2040-earlephilhower/arm-none-eabi/include/c++/14.2.0/bits/deque.tcc:167: 	if (this->_M_impl._M_finish._M_cur
	.loc 7 167 2 view .LVU418
	cmp	fp, r3	@ _59, _71
	beq	.L77		@,
.LVL174:
.LBB1019:
.LBI1019:
	.loc 6 529 2 is_stmt 1 view .LVU419
.LBB1020:
.LBI1020:
	.loc 5 189 2 view .LVU420
.LBB1021:
@ C:/Users/andre/.platformio/packages/toolchain-rp2040-earlephilhower/arm-none-eabi/include/c++/14.2.0/bits/new_allocator.h:191: 	{ ::new((void *)__p) _Up(std::forward<_Args>(__args)...); }
	.loc 5 191 4 is_stmt 0 discriminator 1 view .LVU421
	mov	r3, fp	@ _59, _59
	str	r0, [r3]	@ _14, *_59
.LVL175:
	.loc 5 191 4 discriminator 1 view .LVU422
.LBE1021:
.LBE1020:
.LBE1019:
@ C:/Users/andre/.platformio/packages/toolchain-rp2040-earlephilhower/arm-none-eabi/include/c++/14.2.0/bits/deque.tcc:173: 	    ++this->_M_impl._M_finish._M_cur;
	.loc 7 173 6 view .LVU423
	ldr	r3, [r4, #44]	@ MEM[(struct deque *)this_25(D) + 20B].D.37667._M_impl.D.37034._M_finish._M_cur, MEM[(struct deque *)this_25(D) + 20B].D.37667._M_impl.D.37034._M_finish._M_cur
	adds	r3, r3, #4	@ _74,
	str	r3, [r4, #44]	@ _74, MEM[(struct deque *)this_25(D) + 20B].D.37667._M_impl.D.37034._M_finish._M_cur
.L78:
.LVL176:
.LBB1022:
.LBI1022:
	.loc 4 1468 7 is_stmt 1 view .LVU424
.LBB1023:
.LBB1024:
.LBI1024:
	.loc 4 1170 7 view .LVU425
.LBB1025:
.LBI1025:
	.loc 4 168 7 view .LVU426
	.loc 4 168 7 is_stmt 0 view .LVU427
.LBE1025:
.LBE1024:
.LBE1023:
.LBE1022:
.LBE1018:
.LBE1017:
.LBE1016:
	.loc 1 38 13 is_stmt 1 view .LVU428
@ lib/filter/src/filter.cpp:38:             samples_out_cnt++;
	.loc 1 38 28 is_stmt 0 view .LVU429
	ldr	r3, [r4, #4]	@ this_25(D)->samples_out_cnt, this_25(D)->samples_out_cnt
	adds	r3, r3, #1	@ _16,
	str	r3, [r4, #4]	@ _16, this_25(D)->samples_out_cnt
.L75:
	.loc 1 38 28 view .LVU430
.LBE1015:
	.loc 1 11 5 is_stmt 1 discriminator 2 view .LVU431
@ lib/filter/src/filter.cpp:11:     for (size_t in_ptr = 0; in_ptr < length; in_ptr += step) {
	.loc 1 11 53 is_stmt 0 discriminator 2 view .LVU432
	add	r5, r5, r10	@ in_ptr, step
.LVL177:
	.loc 1 11 36 is_stmt 1 discriminator 1 view .LVU433
	cmp	r9, r5	@ length, in_ptr
	bls	.L70		@,
.LVL178:
.L79:
.LBB1033:
	.loc 1 13 9 view .LVU434
@ lib/filter/src/filter.cpp:13:         m_buffer[m_buffer_pos++] = data[in_ptr];
	.loc 1 13 47 is_stmt 0 view .LVU435
	lsls	r3, r5, #1	@ _34, in_ptr,
	ldr	r2, [sp]	@ data, %sfp
	ldrh	r0, [r2, r3]	@ _3, MEM[(const uint16_t *)data_29(D) + _34 * 1]
@ lib/filter/src/filter.cpp:13:         m_buffer[m_buffer_pos++] = data[in_ptr];
	.loc 1 13 18 view .LVU436
	mov	r3, r8	@ tmp169, tmp169
	ldr	r3, [r4, r3]	@ _4, this_25(D)->m_buffer_pos
@ lib/filter/src/filter.cpp:13:         m_buffer[m_buffer_pos++] = data[in_ptr];
	.loc 1 13 30 view .LVU437
	adds	r2, r3, #1	@ _5, _4,
@ lib/filter/src/filter.cpp:13:         m_buffer[m_buffer_pos++] = data[in_ptr];
	.loc 1 13 34 view .LVU438
	movs	r1, r3	@ tmp170, _4
	adds	r1, r1, #32	@ tmp170,
	lsls	r1, r1, #1	@ tmp171, tmp170,
	strh	r0, [r1, r4]	@ _3, this_25(D)->m_buffer[_4]
	.loc 1 14 9 is_stmt 1 view .LVU439
@ lib/filter/src/filter.cpp:15:             m_buffer_pos = 0;
	.loc 1 15 26 is_stmt 0 view .LVU440
	subs	r3, r3, #127	@ tmp216,
	subs	r1, r3, #1	@ tmp217, tmp216
	sbcs	r3, r3, r1	@ tmp215, tmp216, tmp217
	rsbs	r3, r3, #0	@ tmp218, tmp215
	ands	r2, r3	@ _5, tmp218
	mov	r3, r8	@ tmp169, tmp169
	str	r2, [r4, r3]	@ _5, MEM <struct FIRFilter> [(void *)this_25(D)].m_buffer_pos
	.loc 1 17 9 is_stmt 1 view .LVU441
@ lib/filter/src/filter.cpp:17:         if (m_buffer_fill < FILTER_BUFFER_SIZE)
	.loc 1 17 13 is_stmt 0 view .LVU442
	ldr	r3, [r4, r6]	@ _6, this_25(D)->m_buffer_fill
@ lib/filter/src/filter.cpp:17:         if (m_buffer_fill < FILTER_BUFFER_SIZE)
	.loc 1 17 9 view .LVU443
	cmp	r3, #127	@ _6,
	bhi	.L73		@,
	.loc 1 18 13 is_stmt 1 view .LVU444
@ lib/filter/src/filter.cpp:18:             m_buffer_fill++;
	.loc 1 18 26 is_stmt 0 view .LVU445
	adds	r3, r3, #1	@ _7,
	str	r3, [r4, r6]	@ _7, this_25(D)->m_buffer_fill
.L73:
	.loc 1 21 9 is_stmt 1 view .LVU446
@ lib/filter/src/filter.cpp:21:         bool sample_output = m_input_cnt == 0;
	.loc 1 21 30 is_stmt 0 view .LVU447
	ldr	r1, [r4, r7]	@ _8, this_25(D)->m_input_cnt
.LVL179:
	.loc 1 23 9 is_stmt 1 view .LVU448
@ lib/filter/src/filter.cpp:23:         m_input_cnt++;
	.loc 1 23 20 is_stmt 0 view .LVU449
	adds	r2, r1, #1	@ _9, _8,
	.loc 1 24 9 is_stmt 1 view .LVU450
	ldr	r3, [r4, #60]	@ this_25(D)->m_decimation_factor, this_25(D)->m_decimation_factor
@ lib/filter/src/filter.cpp:25:             m_input_cnt = 0;
	.loc 1 25 25 is_stmt 0 view .LVU451
	subs	r3, r2, r3	@ tmp221, _9, this_25(D)->m_decimation_factor
	subs	r0, r3, #1	@ tmp222, tmp221
	sbcs	r3, r3, r0	@ tmp220, tmp221, tmp222
	rsbs	r3, r3, #0	@ tmp223, tmp220
	ands	r2, r3	@ _9, tmp223
	str	r2, [r4, r7]	@ _9, MEM <struct FIRFilter> [(void *)this_25(D)].m_input_cnt
	.loc 1 27 9 is_stmt 1 view .LVU452
	cmp	r1, #0	@ _8,
	bne	.L75		@,
	.loc 1 31 9 view .LVU453
	ldr	r3, [r4, r6]	@ this_25(D)->m_buffer_fill, this_25(D)->m_buffer_fill
	ldr	r2, [sp, #4]	@ _45, %sfp
	cmp	r3, r2	@ this_25(D)->m_buffer_fill, _45
	bcc	.L75		@,
	.loc 1 35 9 view .LVU454
.LVL180:
.LBB1028:
.LBI1028:
	.loc 4 1268 7 view .LVU455
.LBB1029:
.LBB1030:
.LBI1030:
	.loc 4 370 7 view .LVU456
.LBB1031:
@ C:/Users/andre/.platformio/packages/toolchain-rp2040-earlephilhower/arm-none-eabi/include/c++/14.2.0/bits/stl_deque.h:373: 	  * (__x._M_node - __y._M_node - bool(__x._M_node))
	.loc 4 373 11 is_stmt 0 view .LVU457
	ldr	r2, [r4, #56]	@ _51, MEM[(const struct _Self &)this_25(D) + 44]._M_node
@ C:/Users/andre/.platformio/packages/toolchain-rp2040-earlephilhower/arm-none-eabi/include/c++/14.2.0/bits/stl_deque.h:374: 	  + (__x._M_cur - __x._M_first)
	.loc 4 374 11 view .LVU458
	ldr	r3, [r4, #44]	@ _59, MEM[(const struct _Self &)this_25(D) + 44]._M_cur
	mov	fp, r3	@ _59, _59
.LVL181:
@ C:/Users/andre/.platformio/packages/toolchain-rp2040-earlephilhower/arm-none-eabi/include/c++/14.2.0/bits/stl_deque.h:373: 	  * (__x._M_node - __y._M_node - bool(__x._M_node))
	.loc 4 373 19 view .LVU459
	ldr	r3, [r4, #40]	@ MEM[(const struct _Self &)this_25(D) + 28]._M_node, MEM[(const struct _Self &)this_25(D) + 28]._M_node
	subs	r3, r2, r3	@ _53, _51, MEM[(const struct _Self &)this_25(D) + 28]._M_node
	asrs	r3, r3, #2	@ _54, _53,
@ C:/Users/andre/.platformio/packages/toolchain-rp2040-earlephilhower/arm-none-eabi/include/c++/14.2.0/bits/stl_deque.h:373: 	  * (__x._M_node - __y._M_node - bool(__x._M_node))
	.loc 4 373 35 view .LVU460
	subs	r1, r2, #1	@ tmp189, _51
	sbcs	r2, r2, r1	@ _55, _51, tmp189
.LVL182:
@ C:/Users/andre/.platformio/packages/toolchain-rp2040-earlephilhower/arm-none-eabi/include/c++/14.2.0/bits/stl_deque.h:373: 	  * (__x._M_node - __y._M_node - bool(__x._M_node))
	.loc 4 373 33 view .LVU461
	subs	r3, r3, r2	@ _57, _54, _55
@ C:/Users/andre/.platformio/packages/toolchain-rp2040-earlephilhower/arm-none-eabi/include/c++/14.2.0/bits/stl_deque.h:373: 	  * (__x._M_node - __y._M_node - bool(__x._M_node))
	.loc 4 373 4 view .LVU462
	lsls	r3, r3, #7	@ _58, _57,
@ C:/Users/andre/.platformio/packages/toolchain-rp2040-earlephilhower/arm-none-eabi/include/c++/14.2.0/bits/stl_deque.h:374: 	  + (__x._M_cur - __x._M_first)
	.loc 4 374 18 view .LVU463
	ldr	r2, [r4, #48]	@ MEM[(const struct _Self &)this_25(D) + 44]._M_first, MEM[(const struct _Self &)this_25(D) + 44]._M_first
	mov	r1, fp	@ _59, _59
	subs	r2, r1, r2	@ _61, _59, MEM[(const struct _Self &)this_25(D) + 44]._M_first
	asrs	r2, r2, #2	@ _62, _61,
@ C:/Users/andre/.platformio/packages/toolchain-rp2040-earlephilhower/arm-none-eabi/include/c++/14.2.0/bits/stl_deque.h:374: 	  + (__x._M_cur - __x._M_first)
	.loc 4 374 4 view .LVU464
	adds	r3, r3, r2	@ _63, _58, _62
@ C:/Users/andre/.platformio/packages/toolchain-rp2040-earlephilhower/arm-none-eabi/include/c++/14.2.0/bits/stl_deque.h:375: 	  + (__y._M_last - __y._M_cur);
	.loc 4 375 19 view .LVU465
	ldr	r2, [r4, #36]	@ MEM[(const struct _Self &)this_25(D) + 28]._M_last, MEM[(const struct _Self &)this_25(D) + 28]._M_last
	ldr	r1, [r4, #28]	@ MEM[(const struct _Self &)this_25(D) + 28]._M_cur, MEM[(const struct _Self &)this_25(D) + 28]._M_cur
	subs	r2, r2, r1	@ _66, MEM[(const struct _Self &)this_25(D) + 28]._M_last, MEM[(const struct _Self &)this_25(D) + 28]._M_cur
	asrs	r2, r2, #2	@ _67, _66,
@ C:/Users/andre/.platformio/packages/toolchain-rp2040-earlephilhower/arm-none-eabi/include/c++/14.2.0/bits/stl_deque.h:375: 	  + (__y._M_last - __y._M_cur);
	.loc 4 375 31 view .LVU466
	adds	r3, r3, r2	@ _68, _63, _67
.LBE1031:
.LBE1030:
.LBE1029:
.LBE1028:
@ lib/filter/src/filter.cpp:35:         if (m_values.size() < m_max_values) {
	.loc 1 35 9 discriminator 1 view .LVU467
	movs	r2, #166	@ tmp182,
	lsls	r2, r2, #1	@ tmp182, tmp182,
	ldr	r2, [r4, r2]	@ this_25(D)->m_max_values, this_25(D)->m_max_values
	cmp	r2, r3	@ this_25(D)->m_max_values, _68
	bhi	.L81		@,
	.loc 1 40 13 is_stmt 1 view .LVU468
@ lib/filter/src/filter.cpp:40:             overflow_cnt++;
	.loc 1 40 25 is_stmt 0 view .LVU469
	ldr	r3, [r4]	@ this_25(D)->overflow_cnt, this_25(D)->overflow_cnt
	adds	r3, r3, #1	@ _18,
	str	r3, [r4]	@ _18, this_25(D)->overflow_cnt
	b	.L75		@
.LVL183:
.L77:
@ lib/filter/src/filter.cpp:37:             m_values.push_back(process_one());
	.loc 1 37 31 view .LVU470
	movs	r0, r4	@ _13, this
	adds	r0, r0, #20	@ _13,
.LBB1032:
.LBB1027:
.LBB1026:
@ C:/Users/andre/.platformio/packages/toolchain-rp2040-earlephilhower/arm-none-eabi/include/c++/14.2.0/bits/deque.tcc:176: 	  _M_push_back_aux(std::forward<_Args>(__args)...);
	.loc 7 176 20 view .LVU471
	add	r1, sp, #12	@,,
.LVL184:
	.loc 7 176 20 view .LVU472
	bl	_ZNSt5dequeIlSaIlEE16_M_push_back_auxIJlEEEvDpOT_		@
.LVL185:
	.loc 7 176 20 view .LVU473
	b	.L78		@
.LVL186:
.L70:
	.loc 7 176 20 view .LVU474
.LBE1026:
.LBE1027:
.LBE1032:
.LBE1033:
.LBE1014:
@ lib/filter/src/filter.cpp:43: }
	.loc 1 43 1 view .LVU475
	add	sp, sp, #20	@,,
.LVL187:
	.loc 1 43 1 view .LVU476
	@ sp needed	@
.LVL188:
.LVL189:
.LVL190:
	.loc 1 43 1 view .LVU477
	pop	{r4, r5, r6, r7}
	mov	fp, r7
	mov	r10, r6
	mov	r9, r5
	mov	r8, r4
	pop	{r4, r5, r6, r7, pc}
	.cfi_endproc
.LFE2070:
	.size	_ZN6filter9FIRFilter5writeEPKtjj, .-_ZN6filter9FIRFilter5writeEPKtjj
	.section	.rodata._ZNSt6vectorIlSaIlEE17_M_realloc_appendIJlEEEvDpOT_.str1.4,"aMS",%progbits,1
	.align	2
.LC2:
	.ascii	"vector::_M_realloc_append\000"
	.section	.text._ZNSt6vectorIlSaIlEE17_M_realloc_appendIJlEEEvDpOT_,"axG",%progbits,_ZNSt6vectorIlSaIlEE17_M_realloc_appendIJlEEEvDpOT_,comdat
	.align	1
	.weak	_ZNSt6vectorIlSaIlEE17_M_realloc_appendIJlEEEvDpOT_
	.syntax unified
	.code	16
	.thumb_func
	.type	_ZNSt6vectorIlSaIlEE17_M_realloc_appendIJlEEEvDpOT_, %function
_ZNSt6vectorIlSaIlEE17_M_realloc_appendIJlEEEvDpOT_:
.LVL191:
.LFB2348:
	.file 9 "C:/Users/andre/.platformio/packages/toolchain-rp2040-earlephilhower/arm-none-eabi/include/c++/14.2.0/bits/vector.tcc"
	.loc 9 581 7 is_stmt 1 view -0
	.cfi_startproc
	@ args = 0, pretend = 0, frame = 0
	@ frame_needed = 0, uses_anonymous_args = 0
	.loc 9 581 7 is_stmt 0 view .LVU479
	push	{r3, r4, r5, r6, r7, lr}	@
	.cfi_def_cfa_offset 24
	.cfi_offset 3, -24
	.cfi_offset 4, -20
	.cfi_offset 5, -16
	.cfi_offset 6, -12
	.cfi_offset 7, -8
	.cfi_offset 14, -4
	mov	lr, r9	@,
	mov	r7, r8	@,
	push	{r7, lr}	@
	.cfi_def_cfa_offset 32
	.cfi_offset 8, -32
	.cfi_offset 9, -28
	movs	r6, r0	@ this, tmp155
	mov	r9, r1	@ __args#0, tmp156
.LVL192:
.LBB1070:
.LBI1070:
	.loc 2 1906 7 is_stmt 1 view .LVU480
.LBB1071:
.LBB1072:
.LBI1072:
	.loc 2 992 7 view .LVU481
.LBB1073:
@ C:/Users/andre/.platformio/packages/toolchain-rp2040-earlephilhower/arm-none-eabi/include/c++/14.2.0/bits/stl_vector.h:993:       { return size_type(this->_M_impl._M_finish - this->_M_impl._M_start); }
	.loc 2 993 66 is_stmt 0 view .LVU482
	ldr	r7, [r0]	@ _36, MEM[(const struct vector *)this_11(D)].D.36436._M_impl.D.35737._M_start
@ C:/Users/andre/.platformio/packages/toolchain-rp2040-earlephilhower/arm-none-eabi/include/c++/14.2.0/bits/stl_vector.h:993:       { return size_type(this->_M_impl._M_finish - this->_M_impl._M_start); }
	.loc 2 993 50 view .LVU483
	ldr	r4, [r0, #4]	@ MEM[(const struct vector *)this_11(D)].D.36436._M_impl.D.35737._M_finish, MEM[(const struct vector *)this_11(D)].D.36436._M_impl.D.35737._M_finish
	subs	r4, r4, r7	@ _37, MEM[(const struct vector *)this_11(D)].D.36436._M_impl.D.35737._M_finish, _36
	asrs	r3, r4, #2	@ _39, _37,
.LVL193:
	.loc 2 993 50 view .LVU484
.LBE1073:
.LBE1072:
@ C:/Users/andre/.platformio/packages/toolchain-rp2040-earlephilhower/arm-none-eabi/include/c++/14.2.0/bits/stl_vector.h:1908: 	if (max_size() - size() < __n)
	.loc 2 1908 2 discriminator 2 view .LVU485
	ldr	r2, .L93	@ tmp139,
	cmp	r3, r2	@ _39, tmp139
	beq	.L91		@,
.LVL194:
.LBB1074:
.LBI1074:
	.loc 3 257 5 is_stmt 1 view .LVU486
.LBB1075:
@ C:/Users/andre/.platformio/packages/toolchain-rp2040-earlephilhower/arm-none-eabi/include/c++/14.2.0/bits/stl_algobase.h:262:       if (__a < __b)
	.loc 3 262 7 is_stmt 0 view .LVU487
	subs	r5, r3, #0	@ _42, _39,
	bne	.L84		@,
	movs	r5, #1	@ _42,
.L84:
.LBE1075:
.LBE1074:
@ C:/Users/andre/.platformio/packages/toolchain-rp2040-earlephilhower/arm-none-eabi/include/c++/14.2.0/bits/stl_vector.h:1911: 	const size_type __len = size() + (std::max)(size(), __n);
	.loc 2 1911 18 discriminator 3 view .LVU488
	adds	r5, r5, r3	@ __len, _42, _39
.LVL195:
@ C:/Users/andre/.platformio/packages/toolchain-rp2040-earlephilhower/arm-none-eabi/include/c++/14.2.0/bits/stl_vector.h:1912: 	return (__len < size() || __len > max_size()) ? max_size() : __len;
	.loc 2 1912 48 discriminator 1 view .LVU489
	cmp	r3, r5	@ _39, __len
	bhi	.L90		@,
@ C:/Users/andre/.platformio/packages/toolchain-rp2040-earlephilhower/arm-none-eabi/include/c++/14.2.0/bits/stl_vector.h:1912: 	return (__len < size() || __len > max_size()) ? max_size() : __len;
	.loc 2 1912 25 discriminator 1 view .LVU490
	movs	r3, #128	@ tmp142,
	lsls	r3, r3, #22	@ tmp142, tmp142,
	cmp	r5, r3	@ _44, tmp142
	bcc	.L85		@,
	ldr	r5, .L93	@ _44,
.LVL196:
	.loc 2 1912 25 discriminator 1 view .LVU491
	b	.L85		@
.LVL197:
.L91:
@ C:/Users/andre/.platformio/packages/toolchain-rp2040-earlephilhower/arm-none-eabi/include/c++/14.2.0/bits/stl_vector.h:1909: 	  __throw_length_error(__N(__s));
	.loc 2 1909 24 view .LVU492
	ldr	r0, .L93+4	@ tmp140,
.LVL198:
	.loc 2 1909 24 view .LVU493
	bl	_ZSt20__throw_length_errorPKc		@
.LVL199:
.L90:
@ C:/Users/andre/.platformio/packages/toolchain-rp2040-earlephilhower/arm-none-eabi/include/c++/14.2.0/bits/stl_vector.h:1912: 	return (__len < size() || __len > max_size()) ? max_size() : __len;
	.loc 2 1912 58 discriminator 3 view .LVU494
	ldr	r5, .L93	@ _44,
.LVL200:
.L85:
	.loc 2 1912 58 discriminator 3 view .LVU495
.LBE1071:
.LBE1070:
.LBB1076:
.LBI1076:
	.loc 2 893 7 is_stmt 1 view .LVU496
.LBB1077:
.LBI1077:
	.file 10 "C:/Users/andre/.platformio/packages/toolchain-rp2040-earlephilhower/arm-none-eabi/include/c++/14.2.0/bits/stl_iterator.h"
	.loc 10 1067 7 view .LVU497
	.loc 10 1067 7 is_stmt 0 view .LVU498
.LBE1077:
.LBE1076:
.LBB1078:
.LBI1078:
	.loc 2 873 7 is_stmt 1 view .LVU499
.LBB1079:
.LBI1079:
	.loc 10 1067 7 view .LVU500
	.loc 10 1067 7 is_stmt 0 view .LVU501
.LBE1079:
.LBE1078:
.LBB1080:
.LBI1080:
	.loc 2 377 7 is_stmt 1 view .LVU502
.LBB1081:
.LBB1082:
.LBI1082:
	.loc 6 477 7 view .LVU503
.LBB1083:
.LBI1083:
	.loc 5 126 7 view .LVU504
.LBB1084:
@ C:/Users/andre/.platformio/packages/toolchain-rp2040-earlephilhower/arm-none-eabi/include/c++/14.2.0/bits/new_allocator.h:151: 	return static_cast<_Tp*>(_GLIBCXX_OPERATOR_NEW(__n * sizeof(_Tp)));
	.loc 5 151 48 is_stmt 0 view .LVU505
	lsls	r3, r5, #2	@ _49, _44,
	mov	r8, r3	@ _49, _49
	movs	r0, r3	@, _49
.LVL201:
	.loc 5 151 48 view .LVU506
	bl	_Znwj		@
.LVL202:
	.loc 5 151 48 view .LVU507
	movs	r5, r0	@ _50, tmp157
.LVL203:
	.loc 5 151 48 view .LVU508
.LBE1084:
.LBE1083:
.LBE1082:
.LBE1081:
.LBE1080:
.LBB1085:
.LBB1086:
.LBI1086:
	.loc 9 607 2 is_stmt 1 view .LVU509
	.loc 9 607 2 is_stmt 0 view .LVU510
.LBE1086:
.LBB1087:
.LBI1087:
	.loc 6 529 2 is_stmt 1 view .LVU511
.LBB1088:
.LBI1088:
	.loc 5 189 2 view .LVU512
.LBB1089:
@ C:/Users/andre/.platformio/packages/toolchain-rp2040-earlephilhower/arm-none-eabi/include/c++/14.2.0/bits/new_allocator.h:191: 	{ ::new((void *)__p) _Up(std::forward<_Args>(__args)...); }
	.loc 5 191 4 is_stmt 0 discriminator 1 view .LVU513
	mov	r3, r9	@ __args#0, __args#0
	ldr	r3, [r3]	@ *__args#0_17(D), *__args#0_17(D)
	str	r3, [r0, r4]	@ *__args#0_17(D), *_3
.LVL204:
	.loc 5 191 4 discriminator 1 view .LVU514
.LBE1089:
.LBE1088:
.LBE1087:
.LBB1090:
.LBI1090:
	.loc 2 504 7 is_stmt 1 view .LVU515
.LBB1091:
.LBI1091:
	.file 11 "C:/Users/andre/.platformio/packages/toolchain-rp2040-earlephilhower/arm-none-eabi/include/c++/14.2.0/bits/stl_uninitialized.h"
	.loc 11 1139 5 view .LVU516
.LBB1092:
.LBI1092:
	.loc 11 1112 5 view .LVU517
.LBB1093:
@ C:/Users/andre/.platformio/packages/toolchain-rp2040-earlephilhower/arm-none-eabi/include/c++/14.2.0/bits/stl_uninitialized.h:1117:       if (__count > 0)
	.loc 11 1117 7 is_stmt 0 view .LVU518
	cmp	r4, #0	@ _37,
	bgt	.L92		@,
.LVL205:
	.loc 11 1117 7 view .LVU519
.LBE1093:
.LBE1092:
.LBE1091:
.LBE1090:
@ C:/Users/andre/.platformio/packages/toolchain-rp2040-earlephilhower/arm-none-eabi/include/c++/14.2.0/bits/vector.tcc:649: 	    ++__new_finish;
	.loc 9 649 6 view .LVU520
	adds	r4, r4, #4	@ _34,
.LVL206:
	.loc 9 649 6 view .LVU521
	adds	r4, r0, r4	@ __new_finish, _50, _34
.LVL207:
.LBB1097:
.LBI1097:
	.loc 9 612 2 is_stmt 1 view .LVU522
.LBB1098:
@ C:/Users/andre/.platformio/packages/toolchain-rp2040-earlephilhower/arm-none-eabi/include/c++/14.2.0/bits/vector.tcc:614: 	  if (_M_storage)
	.loc 9 614 4 is_stmt 0 view .LVU523
	cmp	r7, #0	@ _36,
	beq	.L89		@,
.LBE1098:
.LBE1097:
@ C:/Users/andre/.platformio/packages/toolchain-rp2040-earlephilhower/arm-none-eabi/include/c++/14.2.0/bits/vector.tcc:687: 	__guard._M_len = this->_M_impl._M_end_of_storage - __old_start;
	.loc 9 687 51 view .LVU524
	ldr	r1, [r6, #8]	@ this_11(D)->D.36436._M_impl.D.35737._M_end_of_storage, this_11(D)->D.36436._M_impl.D.35737._M_end_of_storage
	subs	r1, r1, r7	@ _16, this_11(D)->D.36436._M_impl.D.35737._M_end_of_storage, _36
	b	.L88		@
.LVL208:
.L92:
.LBB1104:
.LBB1096:
.LBB1095:
.LBB1094:
@ C:/Users/andre/.platformio/packages/toolchain-rp2040-earlephilhower/arm-none-eabi/include/c++/14.2.0/bits/stl_uninitialized.h:1129: 	  __builtin_memcpy(__result, __first, __count * sizeof(_Tp));
	.loc 11 1129 20 view .LVU525
	movs	r2, r4	@, _37
	movs	r1, r7	@, _36
	bl	memcpy		@
.LVL209:
	.loc 11 1129 20 view .LVU526
.LBE1094:
.LBE1095:
.LBE1096:
.LBE1104:
@ C:/Users/andre/.platformio/packages/toolchain-rp2040-earlephilhower/arm-none-eabi/include/c++/14.2.0/bits/vector.tcc:649: 	    ++__new_finish;
	.loc 9 649 6 view .LVU527
	adds	r4, r4, #4	@ _23,
.LVL210:
	.loc 9 649 6 view .LVU528
	adds	r4, r5, r4	@ __new_finish, _50, _23
.LVL211:
@ C:/Users/andre/.platformio/packages/toolchain-rp2040-earlephilhower/arm-none-eabi/include/c++/14.2.0/bits/vector.tcc:687: 	__guard._M_len = this->_M_impl._M_end_of_storage - __old_start;
	.loc 9 687 51 view .LVU529
	ldr	r1, [r6, #8]	@ this_11(D)->D.36436._M_impl.D.35737._M_end_of_storage, this_11(D)->D.36436._M_impl.D.35737._M_end_of_storage
	subs	r1, r1, r7	@ _16, this_11(D)->D.36436._M_impl.D.35737._M_end_of_storage, _36
.LVL212:
.LBB1105:
	.loc 9 612 2 is_stmt 1 view .LVU530
.L88:
.LBB1103:
.LBB1099:
.LBI1099:
	.loc 6 512 7 view .LVU531
.LBB1100:
.LBB1101:
.LBI1101:
	.loc 5 156 7 view .LVU532
.LBB1102:
@ C:/Users/andre/.platformio/packages/toolchain-rp2040-earlephilhower/arm-none-eabi/include/c++/14.2.0/bits/new_allocator.h:172: 	_GLIBCXX_OPERATOR_DELETE(_GLIBCXX_SIZED_DEALLOC(__p, __n));
	.loc 5 172 26 is_stmt 0 view .LVU533
	movs	r0, r7	@, _36
	bl	_ZdlPvj		@
.LVL213:
.L89:
	.loc 5 172 26 view .LVU534
.LBE1102:
.LBE1101:
.LBE1100:
.LBE1099:
.LBE1103:
.LBE1105:
.LBE1085:
@ C:/Users/andre/.platformio/packages/toolchain-rp2040-earlephilhower/arm-none-eabi/include/c++/14.2.0/bits/vector.tcc:692:       this->_M_impl._M_start = __new_start;
	.loc 9 692 30 view .LVU535
	str	r5, [r6]	@ _50, this_11(D)->D.36436._M_impl.D.35737._M_start
@ C:/Users/andre/.platformio/packages/toolchain-rp2040-earlephilhower/arm-none-eabi/include/c++/14.2.0/bits/vector.tcc:693:       this->_M_impl._M_finish = __new_finish;
	.loc 9 693 31 view .LVU536
	str	r4, [r6, #4]	@ __new_finish, this_11(D)->D.36436._M_impl.D.35737._M_finish
@ C:/Users/andre/.platformio/packages/toolchain-rp2040-earlephilhower/arm-none-eabi/include/c++/14.2.0/bits/vector.tcc:694:       this->_M_impl._M_end_of_storage = __new_start + __len;
	.loc 9 694 53 view .LVU537
	add	r5, r5, r8	@ _9, _49
.LVL214:
@ C:/Users/andre/.platformio/packages/toolchain-rp2040-earlephilhower/arm-none-eabi/include/c++/14.2.0/bits/vector.tcc:694:       this->_M_impl._M_end_of_storage = __new_start + __len;
	.loc 9 694 39 view .LVU538
	str	r5, [r6, #8]	@ _9, this_11(D)->D.36436._M_impl.D.35737._M_end_of_storage
@ C:/Users/andre/.platformio/packages/toolchain-rp2040-earlephilhower/arm-none-eabi/include/c++/14.2.0/bits/vector.tcc:695:     }
	.loc 9 695 5 view .LVU539
	@ sp needed	@
.LVL215:
.LVL216:
.LVL217:
.LVL218:
	.loc 9 695 5 view .LVU540
	pop	{r6, r7}
	mov	r9, r7
	mov	r8, r6
	pop	{r3, r4, r5, r6, r7, pc}
.L94:
	.align	2
.L93:
	.word	536870911
	.word	.LC2
	.cfi_endproc
.LFE2348:
	.size	_ZNSt6vectorIlSaIlEE17_M_realloc_appendIJlEEEvDpOT_, .-_ZNSt6vectorIlSaIlEE17_M_realloc_appendIJlEEEvDpOT_
	.section	.text._ZN6filter9FIRFilter16set_coefficientsESt6vectorIfSaIfEEm,"ax",%progbits
	.align	1
	.global	_ZN6filter9FIRFilter16set_coefficientsESt6vectorIfSaIfEEm
	.syntax unified
	.code	16
	.thumb_func
	.type	_ZN6filter9FIRFilter16set_coefficientsESt6vectorIfSaIfEEm, %function
_ZN6filter9FIRFilter16set_coefficientsESt6vectorIfSaIfEEm:
.LVL219:
.LFB2071:
	.loc 1 45 87 is_stmt 1 view -0
	.cfi_startproc
	@ args = 0, pretend = 0, frame = 8
	@ frame_needed = 0, uses_anonymous_args = 0
	.loc 1 45 87 is_stmt 0 view .LVU542
	push	{r4, r5, r6, r7, lr}	@
	.cfi_def_cfa_offset 20
	.cfi_offset 4, -20
	.cfi_offset 5, -16
	.cfi_offset 6, -12
	.cfi_offset 7, -8
	.cfi_offset 14, -4
	mov	lr, fp	@,
	mov	r7, r10	@,
	mov	r6, r9	@,
	mov	r5, r8	@,
	push	{r5, r6, r7, lr}	@
	.cfi_def_cfa_offset 36
	.cfi_offset 8, -36
	.cfi_offset 9, -32
	.cfi_offset 10, -28
	.cfi_offset 11, -24
	sub	sp, sp, #12	@,,
	.cfi_def_cfa_offset 48
	movs	r4, r0	@ this, tmp179
	mov	r8, r1	@ coefficients, tmp180
	.loc 1 46 5 is_stmt 1 view .LVU543
	.loc 1 47 5 view .LVU544
@ lib/filter/src/filter.cpp:47:     int32_t gain = 1 << gain_bits;
	.loc 1 47 13 is_stmt 0 view .LVU545
	movs	r3, #1	@ tmp154,
	lsls	r3, r3, r2	@ tmp154, tmp154, tmp181
	mov	r9, r3	@ gain, tmp154
.LVL220:
	.loc 1 49 5 is_stmt 1 view .LVU546
	.loc 1 49 19 discriminator 1 view .LVU547
.LBB1128:
.LBI1128:
	.loc 2 992 7 view .LVU548
.LBB1129:
@ C:/Users/andre/.platformio/packages/toolchain-rp2040-earlephilhower/arm-none-eabi/include/c++/14.2.0/bits/stl_vector.h:993:       { return size_type(this->_M_impl._M_finish - this->_M_impl._M_start); }
	.loc 2 993 66 is_stmt 0 view .LVU549
	ldr	r7, [r1]	@ _33, MEM[(const struct vector *)coefficients_22(D)].D.38774._M_impl.D.38109._M_start
.LVL221:
	.loc 2 993 66 view .LVU550
.LBE1129:
.LBE1128:
@ lib/filter/src/filter.cpp:49:     for (n = 0; n < coefficients.size(); n++) {
	.loc 1 49 19 discriminator 1 view .LVU551
	ldr	r3, [r1, #4]	@ MEM[(const struct vector *)coefficients_22(D)].D.38774._M_impl.D.38109._M_finish, MEM[(const struct vector *)coefficients_22(D)].D.38774._M_impl.D.38109._M_finish
.LVL222:
	.loc 1 49 19 discriminator 1 view .LVU552
	cmp	r3, r7	@ MEM[(const struct vector *)coefficients_22(D)].D.38774._M_impl.D.38109._M_finish, _33
	beq	.L96		@,
@ lib/filter/src/filter.cpp:49:     for (n = 0; n < coefficients.size(); n++) {
	.loc 1 49 12 view .LVU553
	movs	r5, #0	@ n,
.LBB1131:
.LBB1132:
.LBB1133:
@ C:/Users/andre/.platformio/packages/toolchain-rp2040-earlephilhower/arm-none-eabi/include/c++/14.2.0/bits/vector.tcc:123: 	  _M_realloc_append(std::forward<_Args>(__args)...);
	.loc 9 123 21 view .LVU554
	add	r3, sp, #4	@ tmp177,,
	mov	fp, r3	@ tmp177, tmp177
.LBE1133:
.LBE1132:
.LBE1131:
@ lib/filter/src/filter.cpp:50:         m_coefficients.push_back(round(coefficients[n] * gain));
	.loc 1 50 33 view .LVU555
	movs	r3, #8	@ _1,
	mov	r10, r3	@ _1, _1
	add	r10, r10, r0	@ _1, this
	b	.L99		@
.LVL223:
.L97:
.LBB1146:
.LBB1144:
.LBB1142:
@ C:/Users/andre/.platformio/packages/toolchain-rp2040-earlephilhower/arm-none-eabi/include/c++/14.2.0/bits/vector.tcc:123: 	  _M_realloc_append(std::forward<_Args>(__args)...);
	.loc 9 123 21 view .LVU556
	mov	r1, fp	@, tmp177
	mov	r0, r10	@, _1
	bl	_ZNSt6vectorIlSaIlEE17_M_realloc_appendIJlEEEvDpOT_		@
.LVL224:
.L98:
.LBB1134:
.LBI1134:
	.loc 2 1235 7 is_stmt 1 view .LVU557
.LBB1135:
.LBI1135:
	.loc 2 893 7 view .LVU558
.LBB1136:
.LBI1136:
	.loc 10 1067 7 view .LVU559
	.loc 10 1067 7 is_stmt 0 view .LVU560
.LBE1136:
.LBE1135:
.LBB1137:
.LBI1137:
	.loc 10 1148 7 is_stmt 1 view .LVU561
.LBB1138:
.LBI1138:
	.loc 10 1067 7 view .LVU562
	.loc 10 1067 7 is_stmt 0 view .LVU563
.LBE1138:
.LBE1137:
.LBE1134:
.LBE1142:
.LBE1144:
.LBE1146:
	.loc 1 49 5 is_stmt 1 discriminator 3 view .LVU564
	adds	r5, r5, #1	@ n,
.LVL225:
	.loc 1 49 19 discriminator 1 view .LVU565
.LBB1147:
	.loc 2 992 7 view .LVU566
.LBB1130:
@ C:/Users/andre/.platformio/packages/toolchain-rp2040-earlephilhower/arm-none-eabi/include/c++/14.2.0/bits/stl_vector.h:993:       { return size_type(this->_M_impl._M_finish - this->_M_impl._M_start); }
	.loc 2 993 66 is_stmt 0 view .LVU567
	mov	r3, r8	@ coefficients, coefficients
	ldr	r7, [r3]	@ _33, MEM[(const struct vector *)coefficients_22(D)].D.38774._M_impl.D.38109._M_start
.LVL226:
@ C:/Users/andre/.platformio/packages/toolchain-rp2040-earlephilhower/arm-none-eabi/include/c++/14.2.0/bits/stl_vector.h:993:       { return size_type(this->_M_impl._M_finish - this->_M_impl._M_start); }
	.loc 2 993 50 view .LVU568
	ldr	r3, [r3, #4]	@ MEM[(const struct vector *)coefficients_22(D)].D.38774._M_impl.D.38109._M_finish, MEM[(const struct vector *)coefficients_22(D)].D.38774._M_impl.D.38109._M_finish
	subs	r3, r3, r7	@ _34, MEM[(const struct vector *)coefficients_22(D)].D.38774._M_impl.D.38109._M_finish, _33
	asrs	r3, r3, #2	@ _35, _34,
.LBE1130:
.LBE1147:
@ lib/filter/src/filter.cpp:49:     for (n = 0; n < coefficients.size(); n++) {
	.loc 1 49 19 discriminator 1 view .LVU569
	cmp	r5, r3	@ n, _35
	bcs	.L96		@,
.LVL227:
.L99:
	.loc 1 50 9 is_stmt 1 view .LVU570
.LBB1148:
.LBI1148:
	.loc 2 1128 7 view .LVU571
	.loc 2 1128 7 is_stmt 0 view .LVU572
.LBE1148:
.LBB1149:
.LBI1149:
	.file 12 "C:/Users/andre/.platformio/packages/toolchain-rp2040-earlephilhower/arm-none-eabi/include/c++/14.2.0/cmath"
	.loc 12 2687 3 is_stmt 1 view .LVU573
.LBB1150:
	.loc 12 2688 5 view .LVU574
.LBE1150:
.LBE1149:
@ lib/filter/src/filter.cpp:50:         m_coefficients.push_back(round(coefficients[n] * gain));
	.loc 1 50 39 is_stmt 0 discriminator 1 view .LVU575
	lsls	r6, r5, #2	@ tmp156, n,
	mov	r0, r9	@, gain
	bl	__aeabi_i2f		@
.LVL228:
	.loc 1 50 39 discriminator 1 view .LVU576
	ldr	r1, [r6, r7]	@, *_29
.LVL229:
	.loc 1 50 39 discriminator 1 view .LVU577
	bl	__aeabi_fmul		@
.LVL230:
.LBB1152:
.LBB1151:
@ C:/Users/andre/.platformio/packages/toolchain-rp2040-earlephilhower/arm-none-eabi/include/c++/14.2.0/cmath:2688:   { return __builtin_roundf(__x); }
	.loc 12 2688 28 view .LVU578
	bl	roundf		@
.LVL231:
	.loc 12 2688 28 view .LVU579
.LBE1151:
.LBE1152:
@ lib/filter/src/filter.cpp:50:         m_coefficients.push_back(round(coefficients[n] * gain));
	.loc 1 50 33 discriminator 2 view .LVU580
	bl	__aeabi_f2iz		@
.LVL232:
	str	r0, [sp, #4]	@ _5, D.39031
.LVL233:
.LBB1153:
.LBI1131:
	.loc 2 1300 7 is_stmt 1 view .LVU581
.LBB1145:
.LBI1132:
	.loc 9 111 7 view .LVU582
.LBB1143:
@ C:/Users/andre/.platformio/packages/toolchain-rp2040-earlephilhower/arm-none-eabi/include/c++/14.2.0/bits/vector.tcc:114: 	if (this->_M_impl._M_finish != this->_M_impl._M_end_of_storage)
	.loc 9 114 20 is_stmt 0 view .LVU583
	ldr	r3, [r4, #12]	@ _43, MEM[(struct vector *)this_24(D) + 8B].D.36436._M_impl.D.35737._M_finish
@ C:/Users/andre/.platformio/packages/toolchain-rp2040-earlephilhower/arm-none-eabi/include/c++/14.2.0/bits/vector.tcc:114: 	if (this->_M_impl._M_finish != this->_M_impl._M_end_of_storage)
	.loc 9 114 2 view .LVU584
	ldr	r2, [r4, #16]	@ MEM[(struct vector *)this_24(D) + 8B].D.36436._M_impl.D.35737._M_end_of_storage, MEM[(struct vector *)this_24(D) + 8B].D.36436._M_impl.D.35737._M_end_of_storage
	cmp	r3, r2	@ _43, MEM[(struct vector *)this_24(D) + 8B].D.36436._M_impl.D.35737._M_end_of_storage
	beq	.L97		@,
.LVL234:
.LBB1139:
.LBI1139:
	.loc 6 529 2 is_stmt 1 view .LVU585
.LBB1140:
.LBI1140:
	.loc 5 189 2 view .LVU586
.LBB1141:
@ C:/Users/andre/.platformio/packages/toolchain-rp2040-earlephilhower/arm-none-eabi/include/c++/14.2.0/bits/new_allocator.h:191: 	{ ::new((void *)__p) _Up(std::forward<_Args>(__args)...); }
	.loc 5 191 4 is_stmt 0 discriminator 1 view .LVU587
	str	r0, [r3]	@ _5, *_43
.LVL235:
	.loc 5 191 4 discriminator 1 view .LVU588
.LBE1141:
.LBE1140:
.LBE1139:
@ C:/Users/andre/.platformio/packages/toolchain-rp2040-earlephilhower/arm-none-eabi/include/c++/14.2.0/bits/vector.tcc:119: 	    ++this->_M_impl._M_finish;
	.loc 9 119 6 view .LVU589
	ldr	r3, [r4, #12]	@ MEM[(struct vector *)this_24(D) + 8B].D.36436._M_impl.D.35737._M_finish, MEM[(struct vector *)this_24(D) + 8B].D.36436._M_impl.D.35737._M_finish
	adds	r3, r3, #4	@ _47,
	str	r3, [r4, #12]	@ _47, MEM[(struct vector *)this_24(D) + 8B].D.36436._M_impl.D.35737._M_finish
	b	.L98		@
.LVL236:
.L96:
	.loc 9 119 6 view .LVU590
.LBE1143:
.LBE1145:
.LBE1153:
	.loc 1 53 5 is_stmt 1 view .LVU591
.LBB1154:
.LBI1154:
	.loc 2 992 7 view .LVU592
.LBB1155:
@ C:/Users/andre/.platformio/packages/toolchain-rp2040-earlephilhower/arm-none-eabi/include/c++/14.2.0/bits/stl_vector.h:993:       { return size_type(this->_M_impl._M_finish - this->_M_impl._M_start); }
	.loc 2 993 66 is_stmt 0 view .LVU593
	ldr	r5, [r4, #8]	@ _38, MEM[(const struct vector *)this_24(D) + 8B].D.36436._M_impl.D.35737._M_start
@ C:/Users/andre/.platformio/packages/toolchain-rp2040-earlephilhower/arm-none-eabi/include/c++/14.2.0/bits/stl_vector.h:993:       { return size_type(this->_M_impl._M_finish - this->_M_impl._M_start); }
	.loc 2 993 50 view .LVU594
	ldr	r2, [r4, #12]	@ MEM[(const struct vector *)this_24(D) + 8B].D.36436._M_impl.D.35737._M_finish, MEM[(const struct vector *)this_24(D) + 8B].D.36436._M_impl.D.35737._M_finish
	subs	r2, r2, r5	@ _39, MEM[(const struct vector *)this_24(D) + 8B].D.36436._M_impl.D.35737._M_finish, _38
.LVL237:
	.loc 2 993 50 view .LVU595
.LBE1155:
.LBE1154:
	.loc 1 54 5 is_stmt 1 view .LVU596
	.loc 1 55 5 view .LVU597
	.loc 1 58 5 view .LVU598
	.loc 1 58 19 discriminator 1 view .LVU599
.LBB1157:
.LBB1156:
@ C:/Users/andre/.platformio/packages/toolchain-rp2040-earlephilhower/arm-none-eabi/include/c++/14.2.0/bits/stl_vector.h:993:       { return size_type(this->_M_impl._M_finish - this->_M_impl._M_start); }
	.loc 2 993 50 is_stmt 0 view .LVU600
	asrs	r6, r2, #2	@ _40, _39,
.LBE1156:
.LBE1157:
@ lib/filter/src/filter.cpp:58:     for (n = 0; n < coeff_len/2; n++) {
	.loc 1 58 30 discriminator 1 view .LVU601
	lsrs	r6, r6, #1	@ _49, _40,
@ lib/filter/src/filter.cpp:58:     for (n = 0; n < coeff_len/2; n++) {
	.loc 1 58 19 discriminator 1 view .LVU602
	cmp	r2, #4	@ _39,
	bls	.L102		@,
	subs	r2, r2, #4	@ _16,
.LVL238:
	.loc 1 58 19 discriminator 1 view .LVU603
	adds	r2, r5, r2	@ ivtmp.398, _38, _16
.LVL239:
@ lib/filter/src/filter.cpp:58:     for (n = 0; n < coeff_len/2; n++) {
	.loc 1 58 12 view .LVU604
	movs	r3, #0	@ n,
.LVL240:
.L101:
	.loc 1 59 9 is_stmt 1 view .LVU605
@ lib/filter/src/filter.cpp:59:         if (coeff[n] != coeff[coeff_len - 1 - n]) {
	.loc 1 59 20 is_stmt 0 view .LVU606
	lsls	r1, r3, #2	@ _42, n,
@ lib/filter/src/filter.cpp:59:         if (coeff[n] != coeff[coeff_len - 1 - n]) {
	.loc 1 59 9 view .LVU607
	ldr	r0, [r5, r1]	@ MEM[(long int *)_38 + _42 * 1], MEM[(long int *)_38 + _42 * 1]
	ldr	r1, [r2]	@ MEM[(long int *)_45], MEM[(long int *)_45]
	cmp	r0, r1	@ MEM[(long int *)_38 + _42 * 1], MEM[(long int *)_45]
	bne	.L103		@,
	.loc 1 58 5 is_stmt 1 discriminator 2 view .LVU608
	adds	r3, r3, #1	@ n,
.LVL241:
	.loc 1 58 19 discriminator 1 view .LVU609
	subs	r2, r2, #4	@ ivtmp.398,
	cmp	r3, r6	@ n, _49
	bcc	.L101		@,
@ lib/filter/src/filter.cpp:55:     bool sym = true;
	.loc 1 55 10 is_stmt 0 view .LVU610
	movs	r2, #1	@ sym,
	b	.L100		@
.LVL242:
.L102:
	.loc 1 55 10 view .LVU611
	movs	r2, #1	@ sym,
.LVL243:
	.loc 1 55 10 view .LVU612
	b	.L100		@
.LVL244:
.L103:
@ lib/filter/src/filter.cpp:60:             sym = false;
	.loc 1 60 17 view .LVU613
	movs	r2, #0	@ sym,
.LVL245:
.L100:
	.loc 1 65 5 is_stmt 1 view .LVU614
@ lib/filter/src/filter.cpp:65:     m_is_symmetric = sym;
	.loc 1 65 20 is_stmt 0 view .LVU615
	movs	r3, #168	@ tmp175,
	lsls	r3, r3, #1	@ tmp175, tmp175,
	strb	r2, [r4, r3]	@ sym, this_24(D)->m_is_symmetric
.LVL246:
@ lib/filter/src/filter.cpp:66: }
	.loc 1 66 1 view .LVU616
	add	sp, sp, #12	@,,
	@ sp needed	@
.LVL247:
.LVL248:
.LVL249:
.LVL250:
	.loc 1 66 1 view .LVU617
	pop	{r4, r5, r6, r7}
	mov	fp, r7
	mov	r10, r6
	mov	r9, r5
	mov	r8, r4
	pop	{r4, r5, r6, r7, pc}
	.cfi_endproc
.LFE2071:
	.size	_ZN6filter9FIRFilter16set_coefficientsESt6vectorIfSaIfEEm, .-_ZN6filter9FIRFilter16set_coefficientsESt6vectorIfSaIfEEm
	.section	.text._ZSt23__copy_move_backward_a1ILb1EPllEN9__gnu_cxx11__enable_ifIXsrSt23__is_random_access_iterIT0_NSt15iterator_traitsIS4_E17iterator_categoryEE7__valueESt15_Deque_iteratorIT1_RSA_PSA_EE6__typeES4_S4_SD_,"axG",%progbits,_ZSt23__copy_move_backward_a1ILb1EPllEN9__gnu_cxx11__enable_ifIXsrSt23__is_random_access_iterIT0_NSt15iterator_traitsIS4_E17iterator_categoryEE7__valueESt15_Deque_iteratorIT1_RSA_PSA_EE6__typeES4_S4_SD_,comdat
	.align	1
	.weak	_ZSt23__copy_move_backward_a1ILb1EPllEN9__gnu_cxx11__enable_ifIXsrSt23__is_random_access_iterIT0_NSt15iterator_traitsIS4_E17iterator_categoryEE7__valueESt15_Deque_iteratorIT1_RSA_PSA_EE6__typeES4_S4_SD_
	.syntax unified
	.code	16
	.thumb_func
	.type	_ZSt23__copy_move_backward_a1ILb1EPllEN9__gnu_cxx11__enable_ifIXsrSt23__is_random_access_iterIT0_NSt15iterator_traitsIS4_E17iterator_categoryEE7__valueESt15_Deque_iteratorIT1_RSA_PSA_EE6__typeES4_S4_SD_, %function
_ZSt23__copy_move_backward_a1ILb1EPllEN9__gnu_cxx11__enable_ifIXsrSt23__is_random_access_iterIT0_NSt15iterator_traitsIS4_E17iterator_categoryEE7__valueESt15_Deque_iteratorIT1_RSA_PSA_EE6__typeES4_S4_SD_:
.LVL251:
.LFB2485:
	.loc 7 1171 5 is_stmt 1 view -0
	.cfi_startproc
	@ args = 0, pretend = 0, frame = 0
	@ frame_needed = 0, uses_anonymous_args = 0
	.loc 7 1171 5 is_stmt 0 view .LVU619
	push	{r4, r5, r6, r7, lr}	@
	.cfi_def_cfa_offset 20
	.cfi_offset 4, -20
	.cfi_offset 5, -16
	.cfi_offset 6, -12
	.cfi_offset 7, -8
	.cfi_offset 14, -4
	mov	lr, fp	@,
	mov	r7, r9	@,
	mov	r6, r8	@,
	push	{r6, r7, lr}	@
	.cfi_def_cfa_offset 32
	.cfi_offset 8, -32
	.cfi_offset 9, -28
	.cfi_offset 11, -24
	mov	r8, r0	@ <retval>, tmp193
	movs	r7, r2	@ __last, tmp195
	movs	r4, r3	@ __result, tmp196
@ C:/Users/andre/.platformio/packages/toolchain-rp2040-earlephilhower/arm-none-eabi/include/c++/14.2.0/bits/deque.tcc:1177:       difference_type __len = __last - __first;
	.loc 7 1177 38 view .LVU620
	subs	r1, r2, r1	@ _1, __last, tmp194
.LVL252:
	.loc 7 1177 38 view .LVU621
	asrs	r5, r1, #2	@ __len, _1,
.LVL253:
	.loc 7 1178 20 is_stmt 1 view .LVU622
	cmp	r1, #0	@ _1,
	ble	.L107		@,
.LBB1178:
.LBB1179:
.LBB1180:
.LBB1181:
.LBB1182:
.LBB1183:
@ C:/Users/andre/.platformio/packages/toolchain-rp2040-earlephilhower/arm-none-eabi/include/c++/14.2.0/bits/stl_deque.h:238: 	      __offset > 0 ? __offset / difference_type(_S_buffer_size())
	.loc 4 238 21 is_stmt 0 discriminator 1 view .LVU623
	movs	r3, #127	@ tmp192,
.LVL254:
	.loc 4 238 21 discriminator 1 view .LVU624
	mov	fp, r3	@ tmp192, tmp192
	b	.L117		@
.LVL255:
.L108:
	.loc 4 238 21 discriminator 1 view .LVU625
.LBE1183:
.LBE1182:
.LBE1181:
.LBE1180:
.LBE1179:
@ C:/Users/andre/.platformio/packages/toolchain-rp2040-earlephilhower/arm-none-eabi/include/c++/14.2.0/bits/deque.tcc:1185: 	      __rend = *(__result._M_node - 1) + __rlen;
	.loc 7 1185 41 view .LVU626
	ldr	r3, [r4, #12]	@ __result_24(D)->_M_node, __result_24(D)->_M_node
	subs	r3, r3, #4	@ tmp162,
@ C:/Users/andre/.platformio/packages/toolchain-rp2040-earlephilhower/arm-none-eabi/include/c++/14.2.0/bits/deque.tcc:1185: 	      __rend = *(__result._M_node - 1) + __rlen;
	.loc 7 1185 15 view .LVU627
	ldr	r0, [r3]	@ MEM[(long int * *)_7 + 4294967292B], MEM[(long int * *)_7 + 4294967292B]
.LVL256:
	.loc 7 1185 15 view .LVU628
	movs	r3, #128	@ tmp199,
	lsls	r3, r3, #2	@ tmp199, tmp199,
	mov	ip, r3	@ tmp199, tmp199
	add	r0, r0, ip	@ __rend, tmp199
.LVL257:
@ C:/Users/andre/.platformio/packages/toolchain-rp2040-earlephilhower/arm-none-eabi/include/c++/14.2.0/bits/deque.tcc:1184: 	      __rlen = _Iter::_S_buffer_size();
	.loc 7 1184 15 discriminator 1 view .LVU629
	subs	r3, r3, #129	@ __rlen,
	subs	r3, r3, #255	@ __rlen,
	b	.L109		@
.LVL258:
.L111:
.LBB1194:
.LBB1195:
.LBB1196:
.LBB1197:
.LBB1198:
@ C:/Users/andre/.platformio/packages/toolchain-rp2040-earlephilhower/arm-none-eabi/include/c++/14.2.0/bits/stl_algobase.h:767: 	  else if (_Num == 1)
	.loc 3 767 9 view .LVU630
	cmp	r2, #4	@ _70,
	bne	.L112		@,
.LVL259:
.LBB1199:
.LBI1199:
	.loc 3 437 2 is_stmt 1 view .LVU631
.LBB1200:
@ C:/Users/andre/.platformio/packages/toolchain-rp2040-earlephilhower/arm-none-eabi/include/c++/14.2.0/bits/stl_algobase.h:438: 	{ *__to = std::move(*__from); }
	.loc 3 438 10 is_stmt 0 view .LVU632
	ldr	r3, [r7]	@ _77, MEM[(type &)_12]
	subs	r0, r0, #4	@ tmp166,
.LVL260:
	.loc 3 438 10 view .LVU633
	str	r3, [r0]	@ _77, MEM[(long int *)__rend_16 + 4294967292B]
.LVL261:
@ C:/Users/andre/.platformio/packages/toolchain-rp2040-earlephilhower/arm-none-eabi/include/c++/14.2.0/bits/stl_algobase.h:438: 	{ *__to = std::move(*__from); }
	.loc 3 438 32 view .LVU634
	b	.L112		@
.LVL262:
.L114:
	.loc 3 438 32 view .LVU635
.LBE1200:
.LBE1199:
.LBE1198:
.LBE1197:
.LBE1196:
.LBE1195:
.LBE1194:
.LBB1205:
.LBB1192:
.LBB1190:
.LBB1188:
.LBB1186:
@ C:/Users/andre/.platformio/packages/toolchain-rp2040-earlephilhower/arm-none-eabi/include/c++/14.2.0/bits/stl_deque.h:238: 	      __offset > 0 ? __offset / difference_type(_S_buffer_size())
	.loc 4 238 21 discriminator 1 view .LVU636
	asrs	r2, r3, #31	@ tmp173, _94,
	mov	r1, fp	@ tmp192, tmp192
	ands	r2, r1	@ tmp175, tmp192
	adds	r2, r2, r3	@ tmp176, tmp175, _94
	asrs	r2, r2, #7	@ iftmp.33_52, tmp176,
.L116:
.LVL263:
@ C:/Users/andre/.platformio/packages/toolchain-rp2040-earlephilhower/arm-none-eabi/include/c++/14.2.0/bits/stl_deque.h:241: 	    _M_set_node(_M_node + __node_offset);
	.loc 4 241 26 view .LVU637
	lsls	r0, r2, #2	@ _61, iftmp.33_52,
@ C:/Users/andre/.platformio/packages/toolchain-rp2040-earlephilhower/arm-none-eabi/include/c++/14.2.0/bits/stl_deque.h:241: 	    _M_set_node(_M_node + __node_offset);
	.loc 4 241 17 view .LVU638
	ldr	r1, [r4, #12]	@ __result_24(D)->_M_node, __result_24(D)->_M_node
	adds	r1, r1, r0	@ _62, __result_24(D)->_M_node, _61
.LVL264:
.LBB1184:
.LBI1184:
	.loc 4 263 7 is_stmt 1 view .LVU639
.LBB1185:
@ C:/Users/andre/.platformio/packages/toolchain-rp2040-earlephilhower/arm-none-eabi/include/c++/14.2.0/bits/stl_deque.h:265: 	_M_node = __new_node;
	.loc 4 265 10 is_stmt 0 view .LVU640
	str	r1, [r4, #12]	@ _62, __result_24(D)->_M_node
@ C:/Users/andre/.platformio/packages/toolchain-rp2040-earlephilhower/arm-none-eabi/include/c++/14.2.0/bits/stl_deque.h:266: 	_M_first = *__new_node;
	.loc 4 266 11 view .LVU641
	ldr	r0, [r1]	@ _63, *_62
	str	r0, [r4, #4]	@ _63, __result_24(D)->_M_first
@ C:/Users/andre/.platformio/packages/toolchain-rp2040-earlephilhower/arm-none-eabi/include/c++/14.2.0/bits/stl_deque.h:267: 	_M_last = _M_first + difference_type(_S_buffer_size());
	.loc 4 267 21 discriminator 1 view .LVU642
	movs	r1, #128	@ tmp204,
.LVL265:
	.loc 4 267 21 discriminator 1 view .LVU643
	lsls	r1, r1, #2	@ tmp204, tmp204,
	adds	r1, r0, r1	@ _64, _63, tmp204
@ C:/Users/andre/.platformio/packages/toolchain-rp2040-earlephilhower/arm-none-eabi/include/c++/14.2.0/bits/stl_deque.h:267: 	_M_last = _M_first + difference_type(_S_buffer_size());
	.loc 4 267 10 discriminator 1 view .LVU644
	str	r1, [r4, #8]	@ _64, __result_24(D)->_M_last
.LVL266:
	.loc 4 267 10 discriminator 1 view .LVU645
.LBE1185:
.LBE1184:
@ C:/Users/andre/.platformio/packages/toolchain-rp2040-earlephilhower/arm-none-eabi/include/c++/14.2.0/bits/stl_deque.h:243: 				 * difference_type(_S_buffer_size()));
	.loc 4 243 6 discriminator 1 view .LVU646
	lsls	r2, r2, #7	@ _65, iftmp.33_52,
.LVL267:
@ C:/Users/andre/.platformio/packages/toolchain-rp2040-earlephilhower/arm-none-eabi/include/c++/14.2.0/bits/stl_deque.h:242: 	    _M_cur = _M_first + (__offset - __node_offset
	.loc 4 242 36 view .LVU647
	subs	r3, r3, r2	@ _66, _94, _65
.LVL268:
@ C:/Users/andre/.platformio/packages/toolchain-rp2040-earlephilhower/arm-none-eabi/include/c++/14.2.0/bits/stl_deque.h:242: 	    _M_cur = _M_first + (__offset - __node_offset
	.loc 4 242 24 view .LVU648
	lsls	r3, r3, #2	@ _68, _66,
	adds	r3, r0, r3	@ _69, _63, _68
.LVL269:
.L115:
	.loc 4 242 24 view .LVU649
.LBE1186:
@ C:/Users/andre/.platformio/packages/toolchain-rp2040-earlephilhower/arm-none-eabi/include/c++/14.2.0/bits/stl_deque.h:234: 	  _M_cur += __n;
	.loc 4 234 11 view .LVU650
	str	r3, [r4]	@ _69, __result_24(D)->_M_cur
.LVL270:
	.loc 4 234 11 view .LVU651
.LBE1188:
.LBE1190:
.LBE1192:
.LBE1205:
@ C:/Users/andre/.platformio/packages/toolchain-rp2040-earlephilhower/arm-none-eabi/include/c++/14.2.0/bits/deque.tcc:1193: 	  __len -= __clen;
	.loc 7 1193 10 view .LVU652
	subs	r5, r5, r6	@ __len, __len, _32
.LVL271:
	.loc 7 1193 10 view .LVU653
.LBE1178:
	.loc 7 1178 20 is_stmt 1 view .LVU654
	cmp	r5, #0	@ __len,
	ble	.L107		@,
.LVL272:
.L117:
.LBB1210:
@ C:/Users/andre/.platformio/packages/toolchain-rp2040-earlephilhower/arm-none-eabi/include/c++/14.2.0/bits/deque.tcc:1180: 	  difference_type __rlen = __result._M_cur - __result._M_first;
	.loc 7 1180 38 is_stmt 0 view .LVU655
	ldr	r0, [r4]	@ __rend, __result_24(D)->_M_cur
@ C:/Users/andre/.platformio/packages/toolchain-rp2040-earlephilhower/arm-none-eabi/include/c++/14.2.0/bits/deque.tcc:1180: 	  difference_type __rlen = __result._M_cur - __result._M_first;
	.loc 7 1180 56 view .LVU656
	ldr	r3, [r4, #4]	@ _4, __result_24(D)->_M_first
.LVL273:
@ C:/Users/andre/.platformio/packages/toolchain-rp2040-earlephilhower/arm-none-eabi/include/c++/14.2.0/bits/deque.tcc:1182: 	  if (!__rlen)
	.loc 7 1182 4 view .LVU657
	cmp	r0, r3	@ __rend, _4
	beq	.L108		@,
@ C:/Users/andre/.platformio/packages/toolchain-rp2040-earlephilhower/arm-none-eabi/include/c++/14.2.0/bits/deque.tcc:1180: 	  difference_type __rlen = __result._M_cur - __result._M_first;
	.loc 7 1180 45 view .LVU658
	subs	r3, r0, r3	@ _5, __rend, _4
.LVL274:
	.loc 7 1180 45 view .LVU659
	asrs	r3, r3, #2	@ __rlen, _5,
.LVL275:
.L109:
.LBB1206:
.LBI1206:
	.loc 3 233 5 is_stmt 1 view .LVU660
.LBB1207:
@ C:/Users/andre/.platformio/packages/toolchain-rp2040-earlephilhower/arm-none-eabi/include/c++/14.2.0/bits/stl_algobase.h:238:       if (__b < __a)
	.loc 3 238 7 is_stmt 0 view .LVU661
	movs	r6, r5	@ _32, __len
	cmp	r5, r3	@ __len, __rlen
	ble	.L110		@,
	.loc 3 238 7 view .LVU662
	movs	r6, r3	@ _32, __rlen
.L110:
.LVL276:
	.loc 3 238 7 view .LVU663
.LBE1207:
.LBE1206:
@ C:/Users/andre/.platformio/packages/toolchain-rp2040-earlephilhower/arm-none-eabi/include/c++/14.2.0/bits/deque.tcc:1189: 	  std::__copy_move_backward_a1<_IsMove>(__last - __clen, __last, __rend);
	.loc 7 1189 49 view .LVU664
	lsls	r2, r6, #2	@ _10, _32,
	rsbs	r3, r2, #0	@ _11, _10
.LVL277:
	.loc 7 1189 49 view .LVU665
	mov	r9, r3	@ _11, _11
@ C:/Users/andre/.platformio/packages/toolchain-rp2040-earlephilhower/arm-none-eabi/include/c++/14.2.0/bits/deque.tcc:1189: 	  std::__copy_move_backward_a1<_IsMove>(__last - __clen, __last, __rend);
	.loc 7 1189 41 view .LVU666
	subs	r7, r7, r2	@ __last, __last, _10
.LVL278:
.LBB1208:
.LBI1194:
	.loc 3 795 5 is_stmt 1 view .LVU667
.LBB1204:
.LBI1195:
	.loc 3 777 5 view .LVU668
.LBB1203:
.LBB1202:
.LBI1197:
	.loc 3 762 2 view .LVU669
.LBB1201:
@ C:/Users/andre/.platformio/packages/toolchain-rp2040-earlephilhower/arm-none-eabi/include/c++/14.2.0/bits/stl_algobase.h:765: 	  if (__builtin_expect(_Num > 1, true))
	.loc 3 765 4 is_stmt 0 discriminator 1 view .LVU670
	cmp	r2, #4	@ _10,
	ble	.L111		@,
@ C:/Users/andre/.platformio/packages/toolchain-rp2040-earlephilhower/arm-none-eabi/include/c++/14.2.0/bits/stl_algobase.h:766: 	    __builtin_memmove(__result - _Num, __first, sizeof(_Tp) * _Num);
	.loc 3 766 33 view .LVU671
	add	r0, r0, r9	@ _76, _11
.LVL279:
@ C:/Users/andre/.platformio/packages/toolchain-rp2040-earlephilhower/arm-none-eabi/include/c++/14.2.0/bits/stl_algobase.h:766: 	    __builtin_memmove(__result - _Num, __first, sizeof(_Tp) * _Num);
	.loc 3 766 23 view .LVU672
	movs	r1, r7	@, __last
	bl	memmove		@
.LVL280:
.L112:
	.loc 3 766 23 view .LVU673
.LBE1201:
.LBE1202:
.LBE1203:
.LBE1204:
.LBE1208:
.LBB1209:
.LBI1179:
	.loc 4 249 7 is_stmt 1 view .LVU674
.LBB1193:
.LBI1180:
	.loc 4 230 7 view .LVU675
.LBB1191:
@ C:/Users/andre/.platformio/packages/toolchain-rp2040-earlephilhower/arm-none-eabi/include/c++/14.2.0/bits/stl_deque.h:232: 	const difference_type __offset = __n + (_M_cur - _M_first);
	.loc 4 232 42 is_stmt 0 view .LVU676
	ldr	r2, [r4]	@ _44, __result_24(D)->_M_cur
@ C:/Users/andre/.platformio/packages/toolchain-rp2040-earlephilhower/arm-none-eabi/include/c++/14.2.0/bits/stl_deque.h:232: 	const difference_type __offset = __n + (_M_cur - _M_first);
	.loc 4 232 49 view .LVU677
	ldr	r3, [r4, #4]	@ __result_24(D)->_M_first, __result_24(D)->_M_first
	subs	r3, r2, r3	@ _46, _44, __result_24(D)->_M_first
	asrs	r3, r3, #2	@ _47, _46,
	subs	r3, r3, r6	@ _94, _47, _32
.LVL281:
.LBB1189:
@ C:/Users/andre/.platformio/packages/toolchain-rp2040-earlephilhower/arm-none-eabi/include/c++/14.2.0/bits/stl_deque.h:233: 	if (__offset >= 0 && __offset < difference_type(_S_buffer_size()))
	.loc 4 233 20 view .LVU678
	bmi	.L113		@,
@ C:/Users/andre/.platformio/packages/toolchain-rp2040-earlephilhower/arm-none-eabi/include/c++/14.2.0/bits/stl_deque.h:233: 	if (__offset >= 0 && __offset < difference_type(_S_buffer_size()))
	.loc 4 233 20 discriminator 1 view .LVU679
	cmp	r3, #127	@ _94,
	bgt	.L114		@,
@ C:/Users/andre/.platformio/packages/toolchain-rp2040-earlephilhower/arm-none-eabi/include/c++/14.2.0/bits/stl_deque.h:234: 	  _M_cur += __n;
	.loc 4 234 11 view .LVU680
	movs	r3, r2	@ _44, _44
.LVL282:
	.loc 4 234 11 view .LVU681
	add	r3, r3, r9	@ _44, _11
	b	.L115		@
.LVL283:
.L113:
.LBB1187:
@ C:/Users/andre/.platformio/packages/toolchain-rp2040-earlephilhower/arm-none-eabi/include/c++/14.2.0/bits/stl_deque.h:239: 			   : -difference_type((-__offset - 1)
	.loc 4 239 37 view .LVU682
	mvns	r2, r3	@ _54, _94
@ C:/Users/andre/.platformio/packages/toolchain-rp2040-earlephilhower/arm-none-eabi/include/c++/14.2.0/bits/stl_deque.h:240: 					      / _S_buffer_size()) - 1;
	.loc 4 240 12 discriminator 1 view .LVU683
	lsrs	r2, r2, #7	@ _55, _54,
@ C:/Users/andre/.platformio/packages/toolchain-rp2040-earlephilhower/arm-none-eabi/include/c++/14.2.0/bits/stl_deque.h:238: 	      __offset > 0 ? __offset / difference_type(_S_buffer_size())
	.loc 4 238 21 discriminator 2 view .LVU684
	mvns	r2, r2	@ iftmp.33_52, _55
	b	.L116		@
.LVL284:
.L107:
	.loc 4 238 21 discriminator 2 view .LVU685
.LBE1187:
.LBE1189:
.LBE1191:
.LBE1193:
.LBE1209:
.LBE1210:
.LBB1211:
.LBI1211:
	.loc 4 168 7 is_stmt 1 view .LVU686
.LBB1212:
@ C:/Users/andre/.platformio/packages/toolchain-rp2040-earlephilhower/arm-none-eabi/include/c++/14.2.0/bits/stl_deque.h:169:        : _M_cur(__x._M_cur), _M_first(__x._M_first),
	.loc 4 169 10 is_stmt 0 view .LVU687
	ldr	r3, [r4]	@ MEM[(const struct _Deque_iterator &)__result_24(D)]._M_cur, MEM[(const struct _Deque_iterator &)__result_24(D)]._M_cur
	mov	r2, r8	@ <retval>, <retval>
	str	r3, [r2]	@ MEM[(const struct _Deque_iterator &)__result_24(D)]._M_cur, MEM[(struct _Deque_iterator *)_23(D)]._M_cur
@ C:/Users/andre/.platformio/packages/toolchain-rp2040-earlephilhower/arm-none-eabi/include/c++/14.2.0/bits/stl_deque.h:169:        : _M_cur(__x._M_cur), _M_first(__x._M_first),
	.loc 4 169 30 view .LVU688
	ldr	r3, [r4, #4]	@ MEM[(const struct _Deque_iterator &)__result_24(D)]._M_first, MEM[(const struct _Deque_iterator &)__result_24(D)]._M_first
	str	r3, [r2, #4]	@ MEM[(const struct _Deque_iterator &)__result_24(D)]._M_first, MEM[(struct _Deque_iterator *)_23(D)]._M_first
@ C:/Users/andre/.platformio/packages/toolchain-rp2040-earlephilhower/arm-none-eabi/include/c++/14.2.0/bits/stl_deque.h:170: 	 _M_last(__x._M_last), _M_node(__x._M_node) { }
	.loc 4 170 3 view .LVU689
	ldr	r3, [r4, #8]	@ MEM[(const struct _Deque_iterator &)__result_24(D)]._M_last, MEM[(const struct _Deque_iterator &)__result_24(D)]._M_last
	str	r3, [r2, #8]	@ MEM[(const struct _Deque_iterator &)__result_24(D)]._M_last, MEM[(struct _Deque_iterator *)_23(D)]._M_last
@ C:/Users/andre/.platformio/packages/toolchain-rp2040-earlephilhower/arm-none-eabi/include/c++/14.2.0/bits/stl_deque.h:170: 	 _M_last(__x._M_last), _M_node(__x._M_node) { }
	.loc 4 170 25 view .LVU690
	ldr	r3, [r4, #12]	@ MEM[(const struct _Deque_iterator &)__result_24(D)]._M_node, MEM[(const struct _Deque_iterator &)__result_24(D)]._M_node
	str	r3, [r2, #12]	@ MEM[(const struct _Deque_iterator &)__result_24(D)]._M_node, MEM[(struct _Deque_iterator *)_23(D)]._M_node
.LVL285:
	.loc 4 170 25 view .LVU691
.LBE1212:
.LBE1211:
@ C:/Users/andre/.platformio/packages/toolchain-rp2040-earlephilhower/arm-none-eabi/include/c++/14.2.0/bits/deque.tcc:1197:     }
	.loc 7 1197 5 view .LVU692
	mov	r0, r8	@, <retval>
	@ sp needed	@
.LVL286:
.LVL287:
.LVL288:
	.loc 7 1197 5 view .LVU693
	pop	{r5, r6, r7}
	mov	fp, r7
	mov	r9, r6
	mov	r8, r5
	pop	{r4, r5, r6, r7, pc}
	.cfi_endproc
.LFE2485:
	.size	_ZSt23__copy_move_backward_a1ILb1EPllEN9__gnu_cxx11__enable_ifIXsrSt23__is_random_access_iterIT0_NSt15iterator_traitsIS4_E17iterator_categoryEE7__valueESt15_Deque_iteratorIT1_RSA_PSA_EE6__typeES4_S4_SD_, .-_ZSt23__copy_move_backward_a1ILb1EPllEN9__gnu_cxx11__enable_ifIXsrSt23__is_random_access_iterIT0_NSt15iterator_traitsIS4_E17iterator_categoryEE7__valueESt15_Deque_iteratorIT1_RSA_PSA_EE6__typeES4_S4_SD_
	.section	.text._ZSt14__copy_move_a1ILb1EPllEN9__gnu_cxx11__enable_ifIXsrSt23__is_random_access_iterIT0_NSt15iterator_traitsIS4_E17iterator_categoryEE7__valueESt15_Deque_iteratorIT1_RSA_PSA_EE6__typeES4_S4_SD_,"axG",%progbits,_ZSt14__copy_move_a1ILb1EPllEN9__gnu_cxx11__enable_ifIXsrSt23__is_random_access_iterIT0_NSt15iterator_traitsIS4_E17iterator_categoryEE7__valueESt15_Deque_iteratorIT1_RSA_PSA_EE6__typeES4_S4_SD_,comdat
	.align	1
	.weak	_ZSt14__copy_move_a1ILb1EPllEN9__gnu_cxx11__enable_ifIXsrSt23__is_random_access_iterIT0_NSt15iterator_traitsIS4_E17iterator_categoryEE7__valueESt15_Deque_iteratorIT1_RSA_PSA_EE6__typeES4_S4_SD_
	.syntax unified
	.code	16
	.thumb_func
	.type	_ZSt14__copy_move_a1ILb1EPllEN9__gnu_cxx11__enable_ifIXsrSt23__is_random_access_iterIT0_NSt15iterator_traitsIS4_E17iterator_categoryEE7__valueESt15_Deque_iteratorIT1_RSA_PSA_EE6__typeES4_S4_SD_, %function
_ZSt14__copy_move_a1ILb1EPllEN9__gnu_cxx11__enable_ifIXsrSt23__is_random_access_iterIT0_NSt15iterator_traitsIS4_E17iterator_categoryEE7__valueESt15_Deque_iteratorIT1_RSA_PSA_EE6__typeES4_S4_SD_:
.LVL289:
.LFB2487:
	.loc 7 1049 5 is_stmt 1 view -0
	.cfi_startproc
	@ args = 0, pretend = 0, frame = 0
	@ frame_needed = 0, uses_anonymous_args = 0
	.loc 7 1049 5 is_stmt 0 view .LVU695
	push	{r4, r5, r6, r7, lr}	@
	.cfi_def_cfa_offset 20
	.cfi_offset 4, -20
	.cfi_offset 5, -16
	.cfi_offset 6, -12
	.cfi_offset 7, -8
	.cfi_offset 14, -4
	mov	lr, r10	@,
	mov	r7, r9	@,
	mov	r6, r8	@,
	push	{r6, r7, lr}	@
	.cfi_def_cfa_offset 32
	.cfi_offset 8, -32
	.cfi_offset 9, -28
	.cfi_offset 10, -24
	mov	r8, r0	@ <retval>, tmp185
	mov	r10, r1	@ __first, tmp186
	movs	r5, r3	@ __result, tmp188
@ C:/Users/andre/.platformio/packages/toolchain-rp2040-earlephilhower/arm-none-eabi/include/c++/14.2.0/bits/deque.tcc:1055:       difference_type __len = __last - __first;
	.loc 7 1055 38 view .LVU696
	subs	r2, r2, r1	@ _1, tmp187, __first
.LVL290:
	.loc 7 1055 38 view .LVU697
	asrs	r6, r2, #2	@ __len, _1,
.LVL291:
	.loc 7 1056 20 is_stmt 1 view .LVU698
	cmp	r2, #0	@ _1,
	ble	.L120		@,
.LBB1231:
.LBB1232:
.LBB1233:
.LBB1234:
.LBB1235:
@ C:/Users/andre/.platformio/packages/toolchain-rp2040-earlephilhower/arm-none-eabi/include/c++/14.2.0/bits/stl_deque.h:238: 	      __offset > 0 ? __offset / difference_type(_S_buffer_size())
	.loc 4 238 21 is_stmt 0 discriminator 1 view .LVU699
	movs	r3, #127	@ tmp184,
.LVL292:
	.loc 4 238 21 discriminator 1 view .LVU700
	mov	r9, r3	@ tmp184, tmp184
	b	.L128		@
.LVL293:
.L122:
	.loc 4 238 21 discriminator 1 view .LVU701
.LBE1235:
.LBE1234:
.LBE1233:
.LBE1232:
.LBB1244:
.LBB1245:
.LBB1246:
.LBB1247:
.LBB1248:
@ C:/Users/andre/.platformio/packages/toolchain-rp2040-earlephilhower/arm-none-eabi/include/c++/14.2.0/bits/stl_algobase.h:453: 	  else if (_Num == 1)
	.loc 3 453 9 view .LVU702
	cmp	r7, #4	@ _78,
	bne	.L123		@,
.LVL294:
.LBB1249:
.LBI1249:
	.loc 3 437 2 is_stmt 1 view .LVU703
.LBB1250:
@ C:/Users/andre/.platformio/packages/toolchain-rp2040-earlephilhower/arm-none-eabi/include/c++/14.2.0/bits/stl_algobase.h:438: 	{ *__to = std::move(*__from); }
	.loc 3 438 10 is_stmt 0 view .LVU704
	ldr	r3, [r1]	@ _64, MEM[(type &)__first_75]
	str	r3, [r0]	@ _64, *_4
.LVL295:
@ C:/Users/andre/.platformio/packages/toolchain-rp2040-earlephilhower/arm-none-eabi/include/c++/14.2.0/bits/stl_algobase.h:438: 	{ *__to = std::move(*__from); }
	.loc 3 438 32 view .LVU705
	b	.L123		@
.LVL296:
.L130:
	.loc 3 438 32 view .LVU706
.LBE1250:
.LBE1249:
.LBE1248:
.LBE1247:
.LBE1246:
.LBE1245:
.LBE1244:
.LBB1255:
.LBB1242:
.LBB1240:
.LBB1238:
@ C:/Users/andre/.platformio/packages/toolchain-rp2040-earlephilhower/arm-none-eabi/include/c++/14.2.0/bits/stl_deque.h:238: 	      __offset > 0 ? __offset / difference_type(_S_buffer_size())
	.loc 4 238 21 discriminator 1 view .LVU707
	asrs	r3, r2, #31	@ tmp166, __offset,
	mov	r1, r9	@ tmp184, tmp184
	ands	r3, r1	@ tmp168, tmp184
	adds	r3, r3, r2	@ tmp169, tmp168, __offset
	asrs	r3, r3, #7	@ iftmp.33_41, tmp169,
.L127:
.LVL297:
@ C:/Users/andre/.platformio/packages/toolchain-rp2040-earlephilhower/arm-none-eabi/include/c++/14.2.0/bits/stl_deque.h:241: 	    _M_set_node(_M_node + __node_offset);
	.loc 4 241 26 view .LVU708
	lsls	r0, r3, #2	@ _50, iftmp.33_41,
@ C:/Users/andre/.platformio/packages/toolchain-rp2040-earlephilhower/arm-none-eabi/include/c++/14.2.0/bits/stl_deque.h:241: 	    _M_set_node(_M_node + __node_offset);
	.loc 4 241 17 view .LVU709
	ldr	r1, [r5, #12]	@ __result_19(D)->_M_node, __result_19(D)->_M_node
	adds	r1, r1, r0	@ _51, __result_19(D)->_M_node, _50
.LVL298:
.LBB1236:
.LBI1236:
	.loc 4 263 7 is_stmt 1 view .LVU710
.LBB1237:
@ C:/Users/andre/.platformio/packages/toolchain-rp2040-earlephilhower/arm-none-eabi/include/c++/14.2.0/bits/stl_deque.h:265: 	_M_node = __new_node;
	.loc 4 265 10 is_stmt 0 view .LVU711
	str	r1, [r5, #12]	@ _51, __result_19(D)->_M_node
@ C:/Users/andre/.platformio/packages/toolchain-rp2040-earlephilhower/arm-none-eabi/include/c++/14.2.0/bits/stl_deque.h:266: 	_M_first = *__new_node;
	.loc 4 266 11 view .LVU712
	ldr	r1, [r1]	@ _52, *_51
.LVL299:
	.loc 4 266 11 view .LVU713
	str	r1, [r5, #4]	@ _52, __result_19(D)->_M_first
@ C:/Users/andre/.platformio/packages/toolchain-rp2040-earlephilhower/arm-none-eabi/include/c++/14.2.0/bits/stl_deque.h:267: 	_M_last = _M_first + difference_type(_S_buffer_size());
	.loc 4 267 21 discriminator 1 view .LVU714
	movs	r0, #128	@ tmp194,
	lsls	r0, r0, #2	@ tmp194, tmp194,
	adds	r0, r1, r0	@ _53, _52, tmp194
@ C:/Users/andre/.platformio/packages/toolchain-rp2040-earlephilhower/arm-none-eabi/include/c++/14.2.0/bits/stl_deque.h:267: 	_M_last = _M_first + difference_type(_S_buffer_size());
	.loc 4 267 10 discriminator 1 view .LVU715
	str	r0, [r5, #8]	@ _53, __result_19(D)->_M_last
.LVL300:
	.loc 4 267 10 discriminator 1 view .LVU716
.LBE1237:
.LBE1236:
@ C:/Users/andre/.platformio/packages/toolchain-rp2040-earlephilhower/arm-none-eabi/include/c++/14.2.0/bits/stl_deque.h:243: 				 * difference_type(_S_buffer_size()));
	.loc 4 243 6 discriminator 1 view .LVU717
	lsls	r3, r3, #7	@ _54, iftmp.33_41,
.LVL301:
@ C:/Users/andre/.platformio/packages/toolchain-rp2040-earlephilhower/arm-none-eabi/include/c++/14.2.0/bits/stl_deque.h:242: 	    _M_cur = _M_first + (__offset - __node_offset
	.loc 4 242 36 view .LVU718
	subs	r2, r2, r3	@ _55, __offset, _54
.LVL302:
@ C:/Users/andre/.platformio/packages/toolchain-rp2040-earlephilhower/arm-none-eabi/include/c++/14.2.0/bits/stl_deque.h:242: 	    _M_cur = _M_first + (__offset - __node_offset
	.loc 4 242 24 view .LVU719
	lsls	r2, r2, #2	@ _57, _55,
	adds	r1, r1, r2	@ _58, _52, _57
.LVL303:
.L126:
	.loc 4 242 24 view .LVU720
.LBE1238:
@ C:/Users/andre/.platformio/packages/toolchain-rp2040-earlephilhower/arm-none-eabi/include/c++/14.2.0/bits/stl_deque.h:234: 	  _M_cur += __n;
	.loc 4 234 11 view .LVU721
	str	r1, [r5]	@ _58, __result_19(D)->_M_cur
.LVL304:
	.loc 4 234 11 view .LVU722
.LBE1240:
.LBE1242:
.LBE1255:
@ C:/Users/andre/.platformio/packages/toolchain-rp2040-earlephilhower/arm-none-eabi/include/c++/14.2.0/bits/deque.tcc:1065: 	  __len -= __clen;
	.loc 7 1065 10 view .LVU723
	subs	r6, r6, r4	@ __len, __len, _21
.LVL305:
	.loc 7 1065 10 view .LVU724
.LBE1231:
	.loc 7 1056 20 is_stmt 1 view .LVU725
	cmp	r6, #0	@ __len,
	ble	.L120		@,
.LVL306:
.L128:
.LBB1261:
@ C:/Users/andre/.platformio/packages/toolchain-rp2040-earlephilhower/arm-none-eabi/include/c++/14.2.0/bits/deque.tcc:1059: 	    = std::min(__len, __result._M_last - __result._M_cur);
	.loc 7 1059 52 is_stmt 0 view .LVU726
	ldr	r0, [r5]	@ _4, __result_19(D)->_M_cur
.LVL307:
.LBB1256:
.LBI1256:
	.loc 3 233 5 is_stmt 1 view .LVU727
.LBE1256:
@ C:/Users/andre/.platformio/packages/toolchain-rp2040-earlephilhower/arm-none-eabi/include/c++/14.2.0/bits/deque.tcc:1059: 	    = std::min(__len, __result._M_last - __result._M_cur);
	.loc 7 1059 41 is_stmt 0 view .LVU728
	ldr	r4, [r5, #8]	@ __result_19(D)->_M_last, __result_19(D)->_M_last
	subs	r4, r4, r0	@ _5, __result_19(D)->_M_last, _4
	asrs	r4, r4, #2	@ _21, _5,
.LBB1258:
.LBB1257:
@ C:/Users/andre/.platformio/packages/toolchain-rp2040-earlephilhower/arm-none-eabi/include/c++/14.2.0/bits/stl_algobase.h:238:       if (__b < __a)
	.loc 3 238 7 view .LVU729
	cmp	r4, r6	@ _21, __len
	ble	.L121		@,
	.loc 3 238 7 view .LVU730
	movs	r4, r6	@ _21, __len
.L121:
.LVL308:
	.loc 3 238 7 view .LVU731
.LBE1257:
.LBE1258:
@ C:/Users/andre/.platformio/packages/toolchain-rp2040-earlephilhower/arm-none-eabi/include/c++/14.2.0/bits/deque.tcc:1060: 	  std::__copy_move_a1<_IsMove>(__first, __first + __clen,
	.loc 7 1060 50 view .LVU732
	lsls	r7, r4, #2	@ _8, _21,
	mov	r1, r10	@ __first, __first
@ C:/Users/andre/.platformio/packages/toolchain-rp2040-earlephilhower/arm-none-eabi/include/c++/14.2.0/bits/deque.tcc:1060: 	  std::__copy_move_a1<_IsMove>(__first, __first + __clen,
	.loc 7 1060 32 view .LVU733
	add	r10, r10, r7	@ __first, _8
.LVL309:
.LBB1259:
.LBI1244:
	.loc 3 547 5 is_stmt 1 view .LVU734
.LBB1254:
.LBI1245:
	.loc 3 512 5 view .LVU735
.LBB1253:
.LBB1252:
.LBI1247:
	.loc 3 448 2 view .LVU736
.LBB1251:
@ C:/Users/andre/.platformio/packages/toolchain-rp2040-earlephilhower/arm-none-eabi/include/c++/14.2.0/bits/stl_algobase.h:451: 	  if (__builtin_expect(_Num > 1, true))
	.loc 3 451 4 is_stmt 0 discriminator 1 view .LVU737
	cmp	r7, #4	@ _8,
	ble	.L122		@,
@ C:/Users/andre/.platformio/packages/toolchain-rp2040-earlephilhower/arm-none-eabi/include/c++/14.2.0/bits/stl_algobase.h:452: 	    __builtin_memmove(__result, __first, sizeof(_Tp) * _Num);
	.loc 3 452 23 view .LVU738
	movs	r2, r7	@, _8
	bl	memmove		@
.LVL310:
.L123:
	.loc 3 452 23 view .LVU739
.LBE1251:
.LBE1252:
.LBE1253:
.LBE1254:
.LBE1259:
.LBB1260:
.LBI1232:
	.loc 4 230 7 is_stmt 1 view .LVU740
.LBB1243:
@ C:/Users/andre/.platformio/packages/toolchain-rp2040-earlephilhower/arm-none-eabi/include/c++/14.2.0/bits/stl_deque.h:232: 	const difference_type __offset = __n + (_M_cur - _M_first);
	.loc 4 232 42 is_stmt 0 view .LVU741
	ldr	r1, [r5]	@ _33, __result_19(D)->_M_cur
@ C:/Users/andre/.platformio/packages/toolchain-rp2040-earlephilhower/arm-none-eabi/include/c++/14.2.0/bits/stl_deque.h:232: 	const difference_type __offset = __n + (_M_cur - _M_first);
	.loc 4 232 49 view .LVU742
	ldr	r2, [r5, #4]	@ __result_19(D)->_M_first, __result_19(D)->_M_first
	subs	r2, r1, r2	@ _35, _33, __result_19(D)->_M_first
	asrs	r2, r2, #2	@ _36, _35,
.LVL311:
.LBB1241:
@ C:/Users/andre/.platformio/packages/toolchain-rp2040-earlephilhower/arm-none-eabi/include/c++/14.2.0/bits/stl_deque.h:233: 	if (__offset >= 0 && __offset < difference_type(_S_buffer_size()))
	.loc 4 233 20 view .LVU743
	adds	r2, r2, r4	@ __offset, _36, _21
	bmi	.L124		@,
.LVL312:
@ C:/Users/andre/.platformio/packages/toolchain-rp2040-earlephilhower/arm-none-eabi/include/c++/14.2.0/bits/stl_deque.h:234: 	  _M_cur += __n;
	.loc 4 234 11 view .LVU744
	adds	r1, r1, r7	@ _58, _33, _8
@ C:/Users/andre/.platformio/packages/toolchain-rp2040-earlephilhower/arm-none-eabi/include/c++/14.2.0/bits/stl_deque.h:233: 	if (__offset >= 0 && __offset < difference_type(_S_buffer_size()))
	.loc 4 233 20 discriminator 1 view .LVU745
	cmp	r2, #127	@ __offset,
	ble	.L126		@,
	b	.L130		@
.L124:
.LBB1239:
@ C:/Users/andre/.platformio/packages/toolchain-rp2040-earlephilhower/arm-none-eabi/include/c++/14.2.0/bits/stl_deque.h:239: 			   : -difference_type((-__offset - 1)
	.loc 4 239 37 view .LVU746
	mvns	r3, r2	@ _43, __offset
@ C:/Users/andre/.platformio/packages/toolchain-rp2040-earlephilhower/arm-none-eabi/include/c++/14.2.0/bits/stl_deque.h:240: 					      / _S_buffer_size()) - 1;
	.loc 4 240 12 discriminator 1 view .LVU747
	lsrs	r3, r3, #7	@ _44, _43,
@ C:/Users/andre/.platformio/packages/toolchain-rp2040-earlephilhower/arm-none-eabi/include/c++/14.2.0/bits/stl_deque.h:238: 	      __offset > 0 ? __offset / difference_type(_S_buffer_size())
	.loc 4 238 21 discriminator 2 view .LVU748
	mvns	r3, r3	@ iftmp.33_41, _44
	b	.L127		@
.LVL313:
.L120:
	.loc 4 238 21 discriminator 2 view .LVU749
.LBE1239:
.LBE1241:
.LBE1243:
.LBE1260:
.LBE1261:
.LBB1262:
.LBI1262:
	.loc 4 168 7 is_stmt 1 view .LVU750
.LBB1263:
@ C:/Users/andre/.platformio/packages/toolchain-rp2040-earlephilhower/arm-none-eabi/include/c++/14.2.0/bits/stl_deque.h:169:        : _M_cur(__x._M_cur), _M_first(__x._M_first),
	.loc 4 169 10 is_stmt 0 view .LVU751
	ldr	r3, [r5]	@ MEM[(const struct _Deque_iterator &)__result_19(D)]._M_cur, MEM[(const struct _Deque_iterator &)__result_19(D)]._M_cur
	mov	r2, r8	@ <retval>, <retval>
	str	r3, [r2]	@ MEM[(const struct _Deque_iterator &)__result_19(D)]._M_cur, MEM[(struct _Deque_iterator *)_18(D)]._M_cur
@ C:/Users/andre/.platformio/packages/toolchain-rp2040-earlephilhower/arm-none-eabi/include/c++/14.2.0/bits/stl_deque.h:169:        : _M_cur(__x._M_cur), _M_first(__x._M_first),
	.loc 4 169 30 view .LVU752
	ldr	r3, [r5, #4]	@ MEM[(const struct _Deque_iterator &)__result_19(D)]._M_first, MEM[(const struct _Deque_iterator &)__result_19(D)]._M_first
	str	r3, [r2, #4]	@ MEM[(const struct _Deque_iterator &)__result_19(D)]._M_first, MEM[(struct _Deque_iterator *)_18(D)]._M_first
@ C:/Users/andre/.platformio/packages/toolchain-rp2040-earlephilhower/arm-none-eabi/include/c++/14.2.0/bits/stl_deque.h:170: 	 _M_last(__x._M_last), _M_node(__x._M_node) { }
	.loc 4 170 3 view .LVU753
	ldr	r3, [r5, #8]	@ MEM[(const struct _Deque_iterator &)__result_19(D)]._M_last, MEM[(const struct _Deque_iterator &)__result_19(D)]._M_last
	str	r3, [r2, #8]	@ MEM[(const struct _Deque_iterator &)__result_19(D)]._M_last, MEM[(struct _Deque_iterator *)_18(D)]._M_last
@ C:/Users/andre/.platformio/packages/toolchain-rp2040-earlephilhower/arm-none-eabi/include/c++/14.2.0/bits/stl_deque.h:170: 	 _M_last(__x._M_last), _M_node(__x._M_node) { }
	.loc 4 170 25 view .LVU754
	ldr	r3, [r5, #12]	@ MEM[(const struct _Deque_iterator &)__result_19(D)]._M_node, MEM[(const struct _Deque_iterator &)__result_19(D)]._M_node
	str	r3, [r2, #12]	@ MEM[(const struct _Deque_iterator &)__result_19(D)]._M_node, MEM[(struct _Deque_iterator *)_18(D)]._M_node
.LVL314:
	.loc 4 170 25 view .LVU755
.LBE1263:
.LBE1262:
@ C:/Users/andre/.platformio/packages/toolchain-rp2040-earlephilhower/arm-none-eabi/include/c++/14.2.0/bits/deque.tcc:1069:     }
	.loc 7 1069 5 view .LVU756
	mov	r0, r8	@, <retval>
	@ sp needed	@
.LVL315:
.LVL316:
.LVL317:
	.loc 7 1069 5 view .LVU757
	pop	{r5, r6, r7}
	mov	r10, r7
	mov	r9, r6
	mov	r8, r5
	pop	{r4, r5, r6, r7, pc}
	.cfi_endproc
.LFE2487:
	.size	_ZSt14__copy_move_a1ILb1EPllEN9__gnu_cxx11__enable_ifIXsrSt23__is_random_access_iterIT0_NSt15iterator_traitsIS4_E17iterator_categoryEE7__valueESt15_Deque_iteratorIT1_RSA_PSA_EE6__typeES4_S4_SD_, .-_ZSt14__copy_move_a1ILb1EPllEN9__gnu_cxx11__enable_ifIXsrSt23__is_random_access_iterIT0_NSt15iterator_traitsIS4_E17iterator_categoryEE7__valueESt15_Deque_iteratorIT1_RSA_PSA_EE6__typeES4_S4_SD_
	.section	.text._ZNSt5dequeIlSaIlEE8_M_eraseESt15_Deque_iteratorIlRlPlES5_,"axG",%progbits,_ZNSt5dequeIlSaIlEE8_M_eraseESt15_Deque_iteratorIlRlPlES5_,comdat
	.align	1
	.weak	_ZNSt5dequeIlSaIlEE8_M_eraseESt15_Deque_iteratorIlRlPlES5_
	.syntax unified
	.code	16
	.thumb_func
	.type	_ZNSt5dequeIlSaIlEE8_M_eraseESt15_Deque_iteratorIlRlPlES5_, %function
_ZNSt5dequeIlSaIlEE8_M_eraseESt15_Deque_iteratorIlRlPlES5_:
.LVL318:
.LFB2278:
	.loc 7 258 5 is_stmt 1 view -0
	.cfi_startproc
	@ args = 0, pretend = 0, frame = 272
	@ frame_needed = 0, uses_anonymous_args = 0
	.loc 7 258 5 is_stmt 0 view .LVU759
	push	{r4, r5, r6, r7, lr}	@
	.cfi_def_cfa_offset 20
	.cfi_offset 4, -20
	.cfi_offset 5, -16
	.cfi_offset 6, -12
	.cfi_offset 7, -8
	.cfi_offset 14, -4
	mov	lr, fp	@,
	mov	r7, r10	@,
	mov	r6, r9	@,
	mov	r5, r8	@,
	push	{r5, r6, r7, lr}	@
	.cfi_def_cfa_offset 36
	.cfi_offset 8, -36
	.cfi_offset 9, -32
	.cfi_offset 10, -28
	.cfi_offset 11, -24
	sub	sp, sp, #276	@,,
	.cfi_def_cfa_offset 312
	movs	r6, r0	@ <retval>, tmp450
	movs	r4, r1	@ this, tmp451
	str	r3, [sp, #8]	@ __last, %sfp
.LVL319:
.LBB1509:
.LBB1510:
.LBI1510:
	.loc 4 272 7 is_stmt 1 view .LVU760
.LBB1511:
@ C:/Users/andre/.platformio/packages/toolchain-rp2040-earlephilhower/arm-none-eabi/include/c++/14.2.0/bits/stl_deque.h:273:       { return __x._M_cur == __y._M_cur; }
	.loc 4 273 20 is_stmt 0 view .LVU761
	ldr	r0, [r2]	@ _19, MEM[(const struct _Self &)__first_10(D)]._M_cur
.LVL320:
@ C:/Users/andre/.platformio/packages/toolchain-rp2040-earlephilhower/arm-none-eabi/include/c++/14.2.0/bits/stl_deque.h:273:       { return __x._M_cur == __y._M_cur; }
	.loc 4 273 34 view .LVU762
	ldr	r3, [r3]	@ _27, MEM[(const struct _Self &)__last_11(D)]._M_cur
.LVL321:
	.loc 4 273 34 view .LVU763
	str	r3, [sp, #12]	@ _27, %sfp
.LVL322:
	.loc 4 273 34 view .LVU764
.LBE1511:
.LBE1510:
@ C:/Users/andre/.platformio/packages/toolchain-rp2040-earlephilhower/arm-none-eabi/include/c++/14.2.0/bits/deque.tcc:261:       if (__first == __last)
	.loc 7 261 7 discriminator 1 view .LVU765
	cmp	r0, r3	@ _19, _27
	bne	.LCB3702	@
	b	.L160	@long jump	@
.LCB3702:
.LVL323:
.LBB1512:
.LBB1513:
.LBI1513:
	.loc 4 1151 7 is_stmt 1 view .LVU766
.LBB1514:
.LBI1514:
	.loc 4 168 7 view .LVU767
.LBB1515:
@ C:/Users/andre/.platformio/packages/toolchain-rp2040-earlephilhower/arm-none-eabi/include/c++/14.2.0/bits/stl_deque.h:169:        : _M_cur(__x._M_cur), _M_first(__x._M_first),
	.loc 4 169 21 is_stmt 0 view .LVU768
	ldr	r3, [r1, #8]	@ _37, MEM[(const struct _Deque_iterator &)this_12(D) + 8]._M_cur
	mov	fp, r3	@ _37, _37
@ C:/Users/andre/.platformio/packages/toolchain-rp2040-earlephilhower/arm-none-eabi/include/c++/14.2.0/bits/stl_deque.h:170: 	 _M_last(__x._M_last), _M_node(__x._M_node) { }
	.loc 4 170 15 view .LVU769
	ldr	r3, [r1, #16]	@ _39, MEM[(const struct _Deque_iterator &)this_12(D) + 8]._M_last
	str	r3, [sp, #28]	@ _39, %sfp
@ C:/Users/andre/.platformio/packages/toolchain-rp2040-earlephilhower/arm-none-eabi/include/c++/14.2.0/bits/stl_deque.h:170: 	 _M_last(__x._M_last), _M_node(__x._M_node) { }
	.loc 4 170 37 view .LVU770
	ldr	r3, [r1, #20]	@ _40, MEM[(const struct _Deque_iterator &)this_12(D) + 8]._M_node
	mov	r8, r3	@ _40, _40
.LVL324:
	.loc 4 170 37 view .LVU771
.LBE1515:
.LBE1514:
.LBE1513:
@ C:/Users/andre/.platformio/packages/toolchain-rp2040-earlephilhower/arm-none-eabi/include/c++/14.2.0/bits/deque.tcc:263:       else if (__first == begin() && __last == end())
	.loc 7 263 35 discriminator 2 view .LVU772
	cmp	r0, fp	@ _19, _37
	bne	.LCB3725	@
	b	.L161	@long jump	@
.LCB3725:
.L134:
.LVL325:
.LBB1518:
.LBB1519:
.LBI1519:
	.loc 4 370 7 is_stmt 1 view .LVU773
.LBB1520:
@ C:/Users/andre/.platformio/packages/toolchain-rp2040-earlephilhower/arm-none-eabi/include/c++/14.2.0/bits/stl_deque.h:373: 	  * (__x._M_node - __y._M_node - bool(__x._M_node))
	.loc 4 373 11 is_stmt 0 view .LVU774
	ldr	r1, [sp, #8]	@ __last, %sfp
.LVL326:
	.loc 4 373 11 view .LVU775
	ldr	r3, [r1, #12]	@ _179, MEM[(const struct _Self &)__last_11(D)]._M_node
	mov	r10, r3	@ _179, _179
@ C:/Users/andre/.platformio/packages/toolchain-rp2040-earlephilhower/arm-none-eabi/include/c++/14.2.0/bits/stl_deque.h:373: 	  * (__x._M_node - __y._M_node - bool(__x._M_node))
	.loc 4 373 25 view .LVU776
	ldr	r7, [r2, #12]	@ _180, MEM[(const struct _Self &)__first_10(D)]._M_node
	str	r7, [sp, #4]	@ _180, %sfp
@ C:/Users/andre/.platformio/packages/toolchain-rp2040-earlephilhower/arm-none-eabi/include/c++/14.2.0/bits/stl_deque.h:374: 	  + (__x._M_cur - __x._M_first)
	.loc 4 374 24 view .LVU777
	ldr	r5, [r1, #4]	@ _188, MEM[(const struct _Self &)__last_11(D)]._M_first
	str	r5, [sp, #32]	@ _188, %sfp
@ C:/Users/andre/.platformio/packages/toolchain-rp2040-earlephilhower/arm-none-eabi/include/c++/14.2.0/bits/stl_deque.h:375: 	  + (__y._M_last - __y._M_cur);
	.loc 4 375 11 view .LVU778
	ldr	r3, [r2, #8]	@ _192, MEM[(const struct _Self &)__first_10(D)]._M_last
	movs	r7, r3	@ _192, _192
	str	r3, [sp, #44]	@ _192, %sfp
@ C:/Users/andre/.platformio/packages/toolchain-rp2040-earlephilhower/arm-none-eabi/include/c++/14.2.0/bits/stl_deque.h:373: 	  * (__x._M_node - __y._M_node - bool(__x._M_node))
	.loc 4 373 19 view .LVU779
	mov	r1, r10	@ _179, _179
	ldr	r3, [sp, #4]	@ _180, %sfp
	subs	r5, r1, r3	@ _181, _179, _180
	asrs	r5, r5, #2	@ _182, _181,
@ C:/Users/andre/.platformio/packages/toolchain-rp2040-earlephilhower/arm-none-eabi/include/c++/14.2.0/bits/stl_deque.h:373: 	  * (__x._M_node - __y._M_node - bool(__x._M_node))
	.loc 4 373 35 view .LVU780
	mov	r3, r10	@ _183, _179
	subs	r1, r3, #1	@ tmp285, _183
	sbcs	r3, r3, r1	@ _183, _183, tmp285
@ C:/Users/andre/.platformio/packages/toolchain-rp2040-earlephilhower/arm-none-eabi/include/c++/14.2.0/bits/stl_deque.h:373: 	  * (__x._M_node - __y._M_node - bool(__x._M_node))
	.loc 4 373 33 view .LVU781
	subs	r5, r5, r3	@ _185, _182, _183
@ C:/Users/andre/.platformio/packages/toolchain-rp2040-earlephilhower/arm-none-eabi/include/c++/14.2.0/bits/stl_deque.h:373: 	  * (__x._M_node - __y._M_node - bool(__x._M_node))
	.loc 4 373 4 view .LVU782
	lsls	r5, r5, #7	@ _186, _185,
@ C:/Users/andre/.platformio/packages/toolchain-rp2040-earlephilhower/arm-none-eabi/include/c++/14.2.0/bits/stl_deque.h:374: 	  + (__x._M_cur - __x._M_first)
	.loc 4 374 18 view .LVU783
	ldr	r3, [sp, #32]	@ _188, %sfp
	ldr	r1, [sp, #12]	@ _27, %sfp
	subs	r1, r1, r3	@ _189, _27, _188
	asrs	r1, r1, #2	@ _190, _189,
	mov	ip, r1	@ _190, _190
@ C:/Users/andre/.platformio/packages/toolchain-rp2040-earlephilhower/arm-none-eabi/include/c++/14.2.0/bits/stl_deque.h:374: 	  + (__x._M_cur - __x._M_first)
	.loc 4 374 4 view .LVU784
	add	r5, r5, ip	@ _191, _190
@ C:/Users/andre/.platformio/packages/toolchain-rp2040-earlephilhower/arm-none-eabi/include/c++/14.2.0/bits/stl_deque.h:375: 	  + (__y._M_last - __y._M_cur);
	.loc 4 375 19 view .LVU785
	subs	r1, r7, r0	@ _194, _192, _19
	asrs	r1, r1, #2	@ _195, _194,
	mov	ip, r1	@ _195, _195
@ C:/Users/andre/.platformio/packages/toolchain-rp2040-earlephilhower/arm-none-eabi/include/c++/14.2.0/bits/stl_deque.h:375: 	  + (__y._M_last - __y._M_cur);
	.loc 4 375 31 view .LVU786
	add	r5, r5, ip	@ _191, _195
	str	r5, [sp, #20]	@ _191, %sfp
.LVL327:
	.loc 4 375 31 view .LVU787
.LBE1520:
.LBE1519:
.LBB1521:
.LBI1521:
	.loc 4 1151 7 is_stmt 1 view .LVU788
.LBB1522:
.LBI1522:
	.loc 4 168 7 view .LVU789
	.loc 4 168 7 is_stmt 0 view .LVU790
.LBE1522:
.LBE1521:
.LBB1523:
.LBI1523:
	.loc 4 370 7 is_stmt 1 view .LVU791
.LBB1524:
@ C:/Users/andre/.platformio/packages/toolchain-rp2040-earlephilhower/arm-none-eabi/include/c++/14.2.0/bits/stl_deque.h:374: 	  + (__x._M_cur - __x._M_first)
	.loc 4 374 24 is_stmt 0 view .LVU792
	ldr	r3, [r2, #4]	@ _170, MEM[(const struct _Self &)__first_10(D)]._M_first
@ C:/Users/andre/.platformio/packages/toolchain-rp2040-earlephilhower/arm-none-eabi/include/c++/14.2.0/bits/stl_deque.h:375: 	  + (__y._M_last - __y._M_cur);
	.loc 4 375 19 view .LVU793
	ldr	r1, [sp, #28]	@ _39, %sfp
	mov	r2, fp	@ _37, _37
.LVL328:
	.loc 4 375 19 view .LVU794
	subs	r2, r1, r2	@ _176, _39, _37
	asrs	r2, r2, #2	@ _177, _176,
@ C:/Users/andre/.platformio/packages/toolchain-rp2040-earlephilhower/arm-none-eabi/include/c++/14.2.0/bits/stl_deque.h:373: 	  * (__x._M_node - __y._M_node - bool(__x._M_node))
	.loc 4 373 19 view .LVU795
	mov	r1, r8	@ _40, _40
	ldr	r7, [sp, #4]	@ _180, %sfp
	subs	r5, r7, r1	@ _163, _180, _40
.LVL329:
	.loc 4 373 19 view .LVU796
	asrs	r5, r5, #2	@ _164, _163,
@ C:/Users/andre/.platformio/packages/toolchain-rp2040-earlephilhower/arm-none-eabi/include/c++/14.2.0/bits/stl_deque.h:373: 	  * (__x._M_node - __y._M_node - bool(__x._M_node))
	.loc 4 373 35 view .LVU797
	movs	r1, r7	@ _165, _180
	subs	r7, r1, #1	@ tmp302, _165
	sbcs	r1, r1, r7	@ _165, _165, tmp302
@ C:/Users/andre/.platformio/packages/toolchain-rp2040-earlephilhower/arm-none-eabi/include/c++/14.2.0/bits/stl_deque.h:373: 	  * (__x._M_node - __y._M_node - bool(__x._M_node))
	.loc 4 373 33 view .LVU798
	subs	r5, r5, r1	@ _167, _164, _165
@ C:/Users/andre/.platformio/packages/toolchain-rp2040-earlephilhower/arm-none-eabi/include/c++/14.2.0/bits/stl_deque.h:373: 	  * (__x._M_node - __y._M_node - bool(__x._M_node))
	.loc 4 373 4 view .LVU799
	lsls	r5, r5, #7	@ _168, _167,
@ C:/Users/andre/.platformio/packages/toolchain-rp2040-earlephilhower/arm-none-eabi/include/c++/14.2.0/bits/stl_deque.h:374: 	  + (__x._M_cur - __x._M_first)
	.loc 4 374 18 view .LVU800
	str	r3, [sp, #24]	@ _170, %sfp
	subs	r1, r0, r3	@ _171, _19, _170
	asrs	r1, r1, #2	@ _172, _171,
	mov	ip, r1	@ _172, _172
@ C:/Users/andre/.platformio/packages/toolchain-rp2040-earlephilhower/arm-none-eabi/include/c++/14.2.0/bits/stl_deque.h:374: 	  + (__x._M_cur - __x._M_first)
	.loc 4 374 4 view .LVU801
	add	r5, r5, ip	@ _173, _172
@ C:/Users/andre/.platformio/packages/toolchain-rp2040-earlephilhower/arm-none-eabi/include/c++/14.2.0/bits/stl_deque.h:375: 	  + (__y._M_last - __y._M_cur);
	.loc 4 375 31 view .LVU802
	adds	r1, r5, r2	@ _178, _173, _177
	str	r1, [sp, #16]	@ _178, %sfp
.LVL330:
	.loc 4 375 31 view .LVU803
.LBE1524:
.LBE1523:
.LBB1525:
.LBI1525:
	.loc 4 1268 7 is_stmt 1 view .LVU804
.LBB1526:
.LBB1527:
.LBI1527:
	.loc 4 370 7 view .LVU805
.LBB1528:
@ C:/Users/andre/.platformio/packages/toolchain-rp2040-earlephilhower/arm-none-eabi/include/c++/14.2.0/bits/stl_deque.h:373: 	  * (__x._M_node - __y._M_node - bool(__x._M_node))
	.loc 4 373 11 is_stmt 0 view .LVU806
	ldr	r1, [r4, #36]	@ _143, MEM[(const struct _Self &)this_12(D) + 24]._M_node
.LVL331:
	.loc 4 373 11 view .LVU807
	mov	r9, r1	@ _143, _143
@ C:/Users/andre/.platformio/packages/toolchain-rp2040-earlephilhower/arm-none-eabi/include/c++/14.2.0/bits/stl_deque.h:374: 	  + (__x._M_cur - __x._M_first)
	.loc 4 374 11 view .LVU808
	ldr	r5, [r4, #24]	@ _151, MEM[(const struct _Self &)this_12(D) + 24]._M_cur
	movs	r3, r5	@ _151, _151
	str	r5, [sp, #40]	@ _151, %sfp
@ C:/Users/andre/.platformio/packages/toolchain-rp2040-earlephilhower/arm-none-eabi/include/c++/14.2.0/bits/stl_deque.h:374: 	  + (__x._M_cur - __x._M_first)
	.loc 4 374 24 view .LVU809
	ldr	r5, [r4, #28]	@ _152, MEM[(const struct _Self &)this_12(D) + 24]._M_first
	str	r5, [sp, #36]	@ _152, %sfp
.LVL332:
@ C:/Users/andre/.platformio/packages/toolchain-rp2040-earlephilhower/arm-none-eabi/include/c++/14.2.0/bits/stl_deque.h:373: 	  * (__x._M_node - __y._M_node - bool(__x._M_node))
	.loc 4 373 19 view .LVU810
	mov	r5, r8	@ _40, _40
	subs	r5, r1, r5	@ _145, _143, _40
	asrs	r5, r5, #2	@ _146, _145,
@ C:/Users/andre/.platformio/packages/toolchain-rp2040-earlephilhower/arm-none-eabi/include/c++/14.2.0/bits/stl_deque.h:373: 	  * (__x._M_node - __y._M_node - bool(__x._M_node))
	.loc 4 373 35 view .LVU811
	subs	r7, r1, #1	@ tmp314, _147
	sbcs	r1, r1, r7	@ _147, _147, tmp314
@ C:/Users/andre/.platformio/packages/toolchain-rp2040-earlephilhower/arm-none-eabi/include/c++/14.2.0/bits/stl_deque.h:373: 	  * (__x._M_node - __y._M_node - bool(__x._M_node))
	.loc 4 373 33 view .LVU812
	subs	r5, r5, r1	@ _149, _146, _147
@ C:/Users/andre/.platformio/packages/toolchain-rp2040-earlephilhower/arm-none-eabi/include/c++/14.2.0/bits/stl_deque.h:373: 	  * (__x._M_node - __y._M_node - bool(__x._M_node))
	.loc 4 373 4 view .LVU813
	lsls	r5, r5, #7	@ _150, _149,
@ C:/Users/andre/.platformio/packages/toolchain-rp2040-earlephilhower/arm-none-eabi/include/c++/14.2.0/bits/stl_deque.h:374: 	  + (__x._M_cur - __x._M_first)
	.loc 4 374 18 view .LVU814
	ldr	r1, [sp, #36]	@ _152, %sfp
	subs	r1, r3, r1	@ _153, _151, _152
	asrs	r1, r1, #2	@ _154, _153,
	mov	ip, r1	@ _154, _154
@ C:/Users/andre/.platformio/packages/toolchain-rp2040-earlephilhower/arm-none-eabi/include/c++/14.2.0/bits/stl_deque.h:374: 	  + (__x._M_cur - __x._M_first)
	.loc 4 374 4 view .LVU815
	add	r5, r5, ip	@ _155, _154
@ C:/Users/andre/.platformio/packages/toolchain-rp2040-earlephilhower/arm-none-eabi/include/c++/14.2.0/bits/stl_deque.h:375: 	  + (__y._M_last - __y._M_cur);
	.loc 4 375 31 view .LVU816
	adds	r5, r5, r2	@ _160, _155, _177
.LBE1528:
.LBE1527:
.LBE1526:
.LBE1525:
@ C:/Users/andre/.platformio/packages/toolchain-rp2040-earlephilhower/arm-none-eabi/include/c++/14.2.0/bits/deque.tcc:272: 	  if (static_cast<size_type>(__elems_before) <= (size() - __n) / 2)
	.loc 7 272 58 discriminator 1 view .LVU817
	ldr	r2, [sp, #20]	@ _196, %sfp
	subs	r5, r5, r2	@ _2, _160, _196
@ C:/Users/andre/.platformio/packages/toolchain-rp2040-earlephilhower/arm-none-eabi/include/c++/14.2.0/bits/deque.tcc:272: 	  if (static_cast<size_type>(__elems_before) <= (size() - __n) / 2)
	.loc 7 272 65 discriminator 1 view .LVU818
	lsrs	r5, r5, #1	@ _3, _2,
@ C:/Users/andre/.platformio/packages/toolchain-rp2040-earlephilhower/arm-none-eabi/include/c++/14.2.0/bits/deque.tcc:272: 	  if (static_cast<size_type>(__elems_before) <= (size() - __n) / 2)
	.loc 7 272 4 discriminator 1 view .LVU819
	ldr	r1, [sp, #16]	@ _178, %sfp
	cmp	r5, r1	@ _3, _178
	bcs	.LCB3869	@
	b	.L135	@long jump	@
.LCB3869:
.LVL333:
.LBB1529:
.LBI1529:
	.loc 4 1151 7 is_stmt 1 view .LVU820
.LBB1530:
.LBI1530:
	.loc 4 168 7 view .LVU821
	.loc 4 168 7 is_stmt 0 view .LVU822
.LBE1530:
.LBE1529:
@ C:/Users/andre/.platformio/packages/toolchain-rp2040-earlephilhower/arm-none-eabi/include/c++/14.2.0/bits/deque.tcc:274: 	      if (__first != begin())
	.loc 7 274 8 discriminator 2 view .LVU823
	cmp	r0, fp	@ _19, _37
	beq	.L136		@,
.LVL334:
.LBB1531:
.LBI1531:
	.loc 4 1151 7 is_stmt 1 view .LVU824
.LBB1532:
.LBI1532:
	.loc 4 168 7 view .LVU825
	.loc 4 168 7 is_stmt 0 view .LVU826
.LBE1532:
.LBE1531:
.LBB1533:
.LBI1533:
	.loc 4 168 7 is_stmt 1 view .LVU827
	.loc 4 168 7 is_stmt 0 view .LVU828
.LBE1533:
.LBB1534:
.LBI1534:
	.loc 4 168 7 is_stmt 1 view .LVU829
.LBB1535:
@ C:/Users/andre/.platformio/packages/toolchain-rp2040-earlephilhower/arm-none-eabi/include/c++/14.2.0/bits/stl_deque.h:170: 	 _M_last(__x._M_last), _M_node(__x._M_node) { }
	.loc 4 170 15 is_stmt 0 view .LVU830
	ldr	r3, [sp, #8]	@ __last, %sfp
	ldr	r2, [r3, #8]	@ _51, MEM[(const struct _Deque_iterator &)__last_11(D)]._M_last
.LVL335:
	.loc 4 170 15 view .LVU831
.LBE1535:
.LBE1534:
.LBB1536:
.LBI1536:
	.loc 3 913 5 is_stmt 1 view .LVU832
.LBB1537:
.LBI1537:
	.loc 4 168 7 view .LVU833
	.loc 4 168 7 is_stmt 0 view .LVU834
.LBE1537:
.LBB1538:
.LBI1538:
	.file 13 "C:/Users/andre/.platformio/packages/toolchain-rp2040-earlephilhower/arm-none-eabi/include/c++/14.2.0/bits/cpp_type_traits.h"
	.loc 13 607 5 is_stmt 1 view .LVU835
.LBB1539:
.LBI1539:
	.loc 4 168 7 view .LVU836
	.loc 4 168 7 is_stmt 0 view .LVU837
.LBE1539:
.LBE1538:
.LBB1540:
.LBI1540:
	.loc 4 168 7 is_stmt 1 view .LVU838
	.loc 4 168 7 is_stmt 0 view .LVU839
.LBE1540:
.LBB1541:
.LBI1541:
	.loc 13 607 5 is_stmt 1 view .LVU840
.LBB1542:
.LBI1542:
	.loc 4 168 7 view .LVU841
	.loc 4 168 7 is_stmt 0 view .LVU842
.LBE1542:
.LBE1541:
.LBB1543:
.LBI1543:
	.loc 4 168 7 is_stmt 1 view .LVU843
	.loc 4 168 7 is_stmt 0 view .LVU844
.LBE1543:
.LBB1544:
.LBI1544:
	.loc 3 823 5 is_stmt 1 view .LVU845
.LBB1545:
.LBB1546:
.LBI1546:
	.loc 4 168 7 view .LVU846
	.loc 4 168 7 is_stmt 0 view .LVU847
.LBE1546:
.LBB1547:
.LBI1547:
	.loc 3 316 5 is_stmt 1 view .LVU848
.LBB1548:
.LBI1548:
	.loc 4 168 7 view .LVU849
	.loc 4 168 7 is_stmt 0 view .LVU850
.LBE1548:
.LBE1547:
.LBB1549:
.LBI1549:
	.loc 4 168 7 is_stmt 1 view .LVU851
	.loc 4 168 7 is_stmt 0 view .LVU852
.LBE1549:
.LBB1550:
.LBI1550:
	.loc 3 316 5 is_stmt 1 view .LVU853
.LBB1551:
.LBI1551:
	.loc 4 168 7 view .LVU854
	.loc 4 168 7 is_stmt 0 view .LVU855
.LBE1551:
.LBE1550:
.LBB1552:
.LBI1552:
	.loc 4 168 7 is_stmt 1 view .LVU856
	.loc 4 168 7 is_stmt 0 view .LVU857
.LBE1552:
.LBB1553:
.LBI1553:
	.loc 3 316 5 is_stmt 1 view .LVU858
.LBB1554:
.LBI1554:
	.loc 4 168 7 view .LVU859
	.loc 4 168 7 is_stmt 0 view .LVU860
.LBE1554:
.LBE1553:
.LBB1555:
.LBI1555:
	.loc 7 1161 5 is_stmt 1 view .LVU861
.LBB1556:
.LBI1556:
	.loc 4 168 7 view .LVU862
	.loc 4 168 7 is_stmt 0 view .LVU863
.LBE1556:
.LBB1557:
.LBI1557:
	.loc 4 168 7 is_stmt 1 view .LVU864
	.loc 4 168 7 is_stmt 0 view .LVU865
.LBE1557:
.LBB1558:
.LBI1558:
	.loc 4 168 7 is_stmt 1 view .LVU866
	.loc 4 168 7 is_stmt 0 view .LVU867
.LBE1558:
.LBB1559:
.LBI1559:
	.loc 7 1125 5 is_stmt 1 view .LVU868
.LBB1560:
.LBB1561:
@ C:/Users/andre/.platformio/packages/toolchain-rp2040-earlephilhower/arm-none-eabi/include/c++/14.2.0/bits/deque.tcc:1131:       if (__first._M_node != __last._M_node)
	.loc 7 1131 7 is_stmt 0 view .LVU869
	ldr	r7, [sp, #4]	@ _180, %sfp
	cmp	r8, r7	@ _40, _180
	beq	.L137		@,
.LVL336:
.LBB1562:
.LBB1563:
.LBI1563:
	.loc 4 168 7 is_stmt 1 view .LVU870
.LBB1564:
.LBB1565:
@ C:/Users/andre/.platformio/packages/toolchain-rp2040-earlephilhower/arm-none-eabi/include/c++/14.2.0/bits/stl_deque.h:169:        : _M_cur(__x._M_cur), _M_first(__x._M_first),
	.loc 4 169 10 is_stmt 0 view .LVU871
	add	r3, sp, #128	@ tmp324,,
.LVL337:
	.loc 4 169 10 view .LVU872
	ldr	r5, [sp, #12]	@ _27, %sfp
	str	r5, [sp, #128]	@ _27, D.46457._M_cur
@ C:/Users/andre/.platformio/packages/toolchain-rp2040-earlephilhower/arm-none-eabi/include/c++/14.2.0/bits/stl_deque.h:169:        : _M_cur(__x._M_cur), _M_first(__x._M_first),
	.loc 4 169 30 view .LVU873
	ldr	r5, [sp, #32]	@ _188, %sfp
	str	r5, [r3, #4]	@ _188, D.46457._M_first
@ C:/Users/andre/.platformio/packages/toolchain-rp2040-earlephilhower/arm-none-eabi/include/c++/14.2.0/bits/stl_deque.h:170: 	 _M_last(__x._M_last), _M_node(__x._M_node) { }
	.loc 4 170 3 view .LVU874
	str	r2, [r3, #8]	@ _51, D.46457._M_last
@ C:/Users/andre/.platformio/packages/toolchain-rp2040-earlephilhower/arm-none-eabi/include/c++/14.2.0/bits/stl_deque.h:170: 	 _M_last(__x._M_last), _M_node(__x._M_node) { }
	.loc 4 170 25 view .LVU875
	mov	r2, r10	@ _179, _179
	str	r2, [r3, #12]	@ _179, D.46457._M_node
.LVL338:
	.loc 4 170 25 view .LVU876
.LBE1565:
.LBE1564:
.LBE1563:
@ C:/Users/andre/.platformio/packages/toolchain-rp2040-earlephilhower/arm-none-eabi/include/c++/14.2.0/bits/deque.tcc:1133: 	  __result = std::__copy_move_backward_a1<_IsMove>(
	.loc 7 1133 52 discriminator 1 view .LVU877
	add	r5, sp, #144	@ tmp328,,
	movs	r2, r0	@, _19
	ldr	r1, [sp, #24]	@, %sfp
	movs	r0, r5	@, tmp328
	bl	_ZSt23__copy_move_backward_a1ILb1EPllEN9__gnu_cxx11__enable_ifIXsrSt23__is_random_access_iterIT0_NSt15iterator_traitsIS4_E17iterator_categoryEE7__valueESt15_Deque_iteratorIT1_RSA_PSA_EE6__typeES4_S4_SD_		@
.LVL339:
@ C:/Users/andre/.platformio/packages/toolchain-rp2040-earlephilhower/arm-none-eabi/include/c++/14.2.0/bits/deque.tcc:1133: 	  __result = std::__copy_move_backward_a1<_IsMove>(
	.loc 7 1133 4 discriminator 2 view .LVU878
	ldr	r3, [sp, #144]	@ SR.430, D.46458._M_cur
	mov	ip, r3	@ SR.430, SR.430
	ldr	r3, [sp, #148]	@ SR.431, D.46458._M_first
	ldr	r0, [sp, #152]	@ SR.432, D.46458._M_last
	ldr	r2, [sp, #156]	@ SR.433, D.46458._M_node
.LBB1566:
@ C:/Users/andre/.platformio/packages/toolchain-rp2040-earlephilhower/arm-none-eabi/include/c++/14.2.0/bits/deque.tcc:1136: 	  for (typename _Iter::_Map_pointer __node = __last._M_node - 1;
	.loc 7 1136 38 view .LVU879
	subs	r7, r7, #4	@ _180,
	movs	r1, r7	@ __node, _180
.LVL340:
	.loc 7 1137 16 is_stmt 1 view .LVU880
	cmp	r8, r7	@ _40, __node
	beq	.L138		@,
.LBB1567:
.LBB1568:
.LBB1569:
@ C:/Users/andre/.platformio/packages/toolchain-rp2040-earlephilhower/arm-none-eabi/include/c++/14.2.0/bits/stl_deque.h:169:        : _M_cur(__x._M_cur), _M_first(__x._M_first),
	.loc 4 169 10 is_stmt 0 view .LVU881
	add	r7, sp, #96	@ tmp334,,
.LBE1569:
.LBE1568:
.LBE1567:
@ C:/Users/andre/.platformio/packages/toolchain-rp2040-earlephilhower/arm-none-eabi/include/c++/14.2.0/bits/deque.tcc:1138: 	    __result = std::__copy_move_backward_a1<_IsMove>(
	.loc 7 1138 54 discriminator 1 view .LVU882
	add	r5, sp, #112	@ tmp338,,
	str	r0, [sp, #4]	@ SR.432, %sfp
	movs	r0, r3	@ SR.431, SR.431
	mov	r3, ip	@ SR.430, SR.430
	mov	r10, r6	@ <retval>, <retval>
	mov	r6, r8	@ _40, _40
.LVL341:
	.loc 7 1138 54 discriminator 1 view .LVU883
	mov	ip, r4	@ this, this
	movs	r4, r1	@ __node, __node
.LVL342:
	.loc 7 1138 54 discriminator 1 view .LVU884
	mov	r9, ip	@ this, this
	mov	r8, r10	@ <retval>, <retval>
	ldr	r1, [sp, #4]	@ SR.432, %sfp
.LVL343:
	.loc 7 1138 54 discriminator 1 view .LVU885
	mov	ip, r1	@ SR.432, SR.432
.LVL344:
.L139:
@ C:/Users/andre/.platformio/packages/toolchain-rp2040-earlephilhower/arm-none-eabi/include/c++/14.2.0/bits/deque.tcc:1138: 	    __result = std::__copy_move_backward_a1<_IsMove>(
	.loc 7 1138 54 view .LVU886
	ldr	r1, [r4]	@ _252, MEM[(long int * *)__node_628]
.LVL345:
.LBB1572:
.LBI1567:
	.loc 4 168 7 is_stmt 1 view .LVU887
.LBB1571:
.LBB1570:
@ C:/Users/andre/.platformio/packages/toolchain-rp2040-earlephilhower/arm-none-eabi/include/c++/14.2.0/bits/stl_deque.h:169:        : _M_cur(__x._M_cur), _M_first(__x._M_first),
	.loc 4 169 10 is_stmt 0 view .LVU888
	str	r3, [r7]	@ SR.430, D.46455._M_cur
@ C:/Users/andre/.platformio/packages/toolchain-rp2040-earlephilhower/arm-none-eabi/include/c++/14.2.0/bits/stl_deque.h:169:        : _M_cur(__x._M_cur), _M_first(__x._M_first),
	.loc 4 169 30 view .LVU889
	str	r0, [r7, #4]	@ SR.431, D.46455._M_first
@ C:/Users/andre/.platformio/packages/toolchain-rp2040-earlephilhower/arm-none-eabi/include/c++/14.2.0/bits/stl_deque.h:170: 	 _M_last(__x._M_last), _M_node(__x._M_node) { }
	.loc 4 170 3 view .LVU890
	mov	r3, ip	@ SR.432, SR.432
	str	r3, [r7, #8]	@ SR.432, D.46455._M_last
@ C:/Users/andre/.platformio/packages/toolchain-rp2040-earlephilhower/arm-none-eabi/include/c++/14.2.0/bits/stl_deque.h:170: 	 _M_last(__x._M_last), _M_node(__x._M_node) { }
	.loc 4 170 25 view .LVU891
	str	r2, [r7, #12]	@ SR.433, D.46455._M_node
.LVL346:
	.loc 4 170 25 view .LVU892
.LBE1570:
.LBE1571:
.LBE1572:
@ C:/Users/andre/.platformio/packages/toolchain-rp2040-earlephilhower/arm-none-eabi/include/c++/14.2.0/bits/deque.tcc:1138: 	    __result = std::__copy_move_backward_a1<_IsMove>(
	.loc 7 1138 54 view .LVU893
	movs	r3, #128	@ tmp539,
	lsls	r3, r3, #2	@ tmp539, tmp539,
	adds	r2, r1, r3	@ _253, _252, tmp539
@ C:/Users/andre/.platformio/packages/toolchain-rp2040-earlephilhower/arm-none-eabi/include/c++/14.2.0/bits/deque.tcc:1138: 	    __result = std::__copy_move_backward_a1<_IsMove>(
	.loc 7 1138 54 discriminator 1 view .LVU894
	movs	r3, r7	@, tmp334
	movs	r0, r5	@, tmp338
	bl	_ZSt23__copy_move_backward_a1ILb1EPllEN9__gnu_cxx11__enable_ifIXsrSt23__is_random_access_iterIT0_NSt15iterator_traitsIS4_E17iterator_categoryEE7__valueESt15_Deque_iteratorIT1_RSA_PSA_EE6__typeES4_S4_SD_		@
.LVL347:
@ C:/Users/andre/.platformio/packages/toolchain-rp2040-earlephilhower/arm-none-eabi/include/c++/14.2.0/bits/deque.tcc:1138: 	    __result = std::__copy_move_backward_a1<_IsMove>(
	.loc 7 1138 6 discriminator 2 view .LVU895
	ldr	r3, [r5]	@ SR.430, D.46456._M_cur
	ldr	r0, [r5, #4]	@ SR.431, D.46456._M_first
	ldr	r2, [r5, #8]	@ SR.432, D.46456._M_last
	mov	ip, r2	@ SR.432, SR.432
	ldr	r2, [r5, #12]	@ SR.433, D.46456._M_node
	.loc 7 1136 4 is_stmt 1 view .LVU896
	subs	r4, r4, #4	@ __node,
.LVL348:
	.loc 7 1137 16 view .LVU897
	cmp	r6, r4	@ _40, __node
	bne	.L139		@,
	mov	r1, ip	@ SR.432, SR.432
	mov	ip, r3	@ SR.430, SR.430
	movs	r3, r0	@ SR.431, SR.431
	mov	r6, r8	@ <retval>, <retval>
	mov	r4, r9	@ this, this
.LVL349:
	.loc 7 1137 16 is_stmt 0 view .LVU898
	movs	r0, r1	@ SR.432, SR.432
.LVL350:
.L138:
	.loc 7 1137 16 view .LVU899
.LBE1566:
.LBB1573:
.LBI1573:
	.loc 4 168 7 is_stmt 1 view .LVU900
.LBB1574:
.LBB1575:
@ C:/Users/andre/.platformio/packages/toolchain-rp2040-earlephilhower/arm-none-eabi/include/c++/14.2.0/bits/stl_deque.h:169:        : _M_cur(__x._M_cur), _M_first(__x._M_first),
	.loc 4 169 10 is_stmt 0 view .LVU901
	add	r1, sp, #80	@ tmp345,,
.LVL351:
	.loc 4 169 10 view .LVU902
	mov	r5, ip	@ SR.430, SR.430
	str	r5, [sp, #80]	@ SR.430, D.46454._M_cur
@ C:/Users/andre/.platformio/packages/toolchain-rp2040-earlephilhower/arm-none-eabi/include/c++/14.2.0/bits/stl_deque.h:169:        : _M_cur(__x._M_cur), _M_first(__x._M_first),
	.loc 4 169 30 view .LVU903
	str	r3, [sp, #84]	@ SR.431, D.46454._M_first
@ C:/Users/andre/.platformio/packages/toolchain-rp2040-earlephilhower/arm-none-eabi/include/c++/14.2.0/bits/stl_deque.h:170: 	 _M_last(__x._M_last), _M_node(__x._M_node) { }
	.loc 4 170 3 view .LVU904
	str	r0, [sp, #88]	@ SR.432, D.46454._M_last
@ C:/Users/andre/.platformio/packages/toolchain-rp2040-earlephilhower/arm-none-eabi/include/c++/14.2.0/bits/stl_deque.h:170: 	 _M_last(__x._M_last), _M_node(__x._M_node) { }
	.loc 4 170 25 view .LVU905
	str	r2, [sp, #92]	@ SR.433, D.46454._M_node
.LVL352:
	.loc 4 170 25 view .LVU906
.LBE1575:
.LBE1574:
.LBE1573:
@ C:/Users/andre/.platformio/packages/toolchain-rp2040-earlephilhower/arm-none-eabi/include/c++/14.2.0/bits/deque.tcc:1142: 			__first._M_cur, __first._M_last, __result);
	.loc 7 1142 45 view .LVU907
	movs	r3, r1	@, tmp345
	ldr	r2, [sp, #28]	@, %sfp
	mov	r1, fp	@, _37
	add	r0, sp, #48	@,,
	bl	_ZSt23__copy_move_backward_a1ILb1EPllEN9__gnu_cxx11__enable_ifIXsrSt23__is_random_access_iterIT0_NSt15iterator_traitsIS4_E17iterator_categoryEE7__valueESt15_Deque_iteratorIT1_RSA_PSA_EE6__typeES4_S4_SD_		@
.LVL353:
.L136:
	.loc 7 1142 45 view .LVU908
.LBE1562:
.LBE1561:
.LBE1560:
.LBE1559:
.LBE1555:
.LBE1545:
.LBE1544:
.LBE1536:
.LBB1586:
.LBI1586:
	.loc 4 1151 7 is_stmt 1 view .LVU909
.LBB1587:
.LBI1587:
	.loc 4 168 7 view .LVU910
.LBB1588:
@ C:/Users/andre/.platformio/packages/toolchain-rp2040-earlephilhower/arm-none-eabi/include/c++/14.2.0/bits/stl_deque.h:169:        : _M_cur(__x._M_cur), _M_first(__x._M_first),
	.loc 4 169 21 is_stmt 0 view .LVU911
	ldr	r2, [r4, #8]	@ _56, MEM[(const struct _Deque_iterator &)this_12(D) + 8]._M_cur
@ C:/Users/andre/.platformio/packages/toolchain-rp2040-earlephilhower/arm-none-eabi/include/c++/14.2.0/bits/stl_deque.h:169:        : _M_cur(__x._M_cur), _M_first(__x._M_first),
	.loc 4 169 43 view .LVU912
	ldr	r7, [r4, #12]	@ SR.419, MEM[(const struct _Deque_iterator &)this_12(D) + 8]._M_first
@ C:/Users/andre/.platformio/packages/toolchain-rp2040-earlephilhower/arm-none-eabi/include/c++/14.2.0/bits/stl_deque.h:170: 	 _M_last(__x._M_last), _M_node(__x._M_node) { }
	.loc 4 170 37 view .LVU913
	ldr	r1, [r4, #20]	@ _59, MEM[(const struct _Deque_iterator &)this_12(D) + 8]._M_node
.LVL354:
	.loc 4 170 37 view .LVU914
.LBE1588:
.LBE1587:
.LBE1586:
.LBB1591:
.LBI1591:
	.loc 4 397 7 is_stmt 1 view .LVU915
.LBB1592:
.LBB1593:
.LBI1593:
	.loc 4 168 7 view .LVU916
	.loc 4 168 7 is_stmt 0 view .LVU917
.LBE1593:
.LBB1595:
.LBI1595:
	.loc 4 230 7 is_stmt 1 view .LVU918
.LBB1596:
@ C:/Users/andre/.platformio/packages/toolchain-rp2040-earlephilhower/arm-none-eabi/include/c++/14.2.0/bits/stl_deque.h:232: 	const difference_type __offset = __n + (_M_cur - _M_first);
	.loc 4 232 49 is_stmt 0 view .LVU919
	subs	r3, r2, r7	@ _277, _56, SR.419
	asrs	r3, r3, #2	@ _278, _277,
.LVL355:
.LBB1597:
@ C:/Users/andre/.platformio/packages/toolchain-rp2040-earlephilhower/arm-none-eabi/include/c++/14.2.0/bits/stl_deque.h:233: 	if (__offset >= 0 && __offset < difference_type(_S_buffer_size()))
	.loc 4 233 20 view .LVU920
	ldr	r0, [sp, #20]	@ _196, %sfp
	adds	r3, r3, r0	@ __offset, _278, _196
	bmi	.L141		@,
.LVL356:
@ C:/Users/andre/.platformio/packages/toolchain-rp2040-earlephilhower/arm-none-eabi/include/c++/14.2.0/bits/stl_deque.h:233: 	if (__offset >= 0 && __offset < difference_type(_S_buffer_size()))
	.loc 4 233 20 discriminator 1 view .LVU921
	cmp	r3, #127	@ __offset,
	bgt	.L142		@,
.LBE1597:
.LBE1596:
.LBE1595:
.LBE1592:
.LBE1591:
.LBB1618:
.LBB1590:
.LBB1589:
@ C:/Users/andre/.platformio/packages/toolchain-rp2040-earlephilhower/arm-none-eabi/include/c++/14.2.0/bits/stl_deque.h:170: 	 _M_last(__x._M_last), _M_node(__x._M_node) { }
	.loc 4 170 15 view .LVU922
	ldr	r3, [r4, #16]	@ SR.420, MEM[(const struct _Deque_iterator &)this_12(D) + 8]._M_last
.LVL357:
	.loc 4 170 15 view .LVU923
	mov	r8, r3	@ SR.420, SR.420
.LBE1589:
.LBE1590:
.LBE1618:
.LBB1619:
.LBB1615:
.LBB1610:
.LBB1606:
.LBB1602:
@ C:/Users/andre/.platformio/packages/toolchain-rp2040-earlephilhower/arm-none-eabi/include/c++/14.2.0/bits/stl_deque.h:234: 	  _M_cur += __n;
	.loc 4 234 11 view .LVU924
	lsls	r5, r0, #2	@ _281, _196,
	adds	r5, r2, r5	@ SR.418, _56, _281
.LBE1602:
.LBE1606:
.LBE1610:
.LBB1611:
.LBB1594:
@ C:/Users/andre/.platformio/packages/toolchain-rp2040-earlephilhower/arm-none-eabi/include/c++/14.2.0/bits/stl_deque.h:170: 	 _M_last(__x._M_last), _M_node(__x._M_node) { }
	.loc 4 170 25 view .LVU925
	mov	r9, r1	@ SR.421, _59
.LBE1594:
.LBE1611:
.LBB1612:
.LBB1607:
.LBB1603:
	b	.L143		@
.LVL358:
.L160:
	.loc 4 170 25 view .LVU926
.LBE1603:
.LBE1607:
.LBE1612:
.LBE1615:
.LBE1619:
.LBE1518:
.LBE1512:
.LBB1781:
.LBI1781:
	.loc 4 168 7 is_stmt 1 view .LVU927
.LBB1782:
.LBB1783:
@ C:/Users/andre/.platformio/packages/toolchain-rp2040-earlephilhower/arm-none-eabi/include/c++/14.2.0/bits/stl_deque.h:169:        : _M_cur(__x._M_cur), _M_first(__x._M_first),
	.loc 4 169 10 is_stmt 0 view .LVU928
	str	r0, [r6]	@ _19, MEM[(struct _Deque_iterator *)_35(D)]._M_cur
@ C:/Users/andre/.platformio/packages/toolchain-rp2040-earlephilhower/arm-none-eabi/include/c++/14.2.0/bits/stl_deque.h:169:        : _M_cur(__x._M_cur), _M_first(__x._M_first),
	.loc 4 169 30 view .LVU929
	ldr	r3, [r2, #4]	@ MEM[(const struct _Deque_iterator &)__first_10(D)]._M_first, MEM[(const struct _Deque_iterator &)__first_10(D)]._M_first
	str	r3, [r6, #4]	@ MEM[(const struct _Deque_iterator &)__first_10(D)]._M_first, MEM[(struct _Deque_iterator *)_35(D)]._M_first
@ C:/Users/andre/.platformio/packages/toolchain-rp2040-earlephilhower/arm-none-eabi/include/c++/14.2.0/bits/stl_deque.h:170: 	 _M_last(__x._M_last), _M_node(__x._M_node) { }
	.loc 4 170 3 view .LVU930
	ldr	r3, [r2, #8]	@ MEM[(const struct _Deque_iterator &)__first_10(D)]._M_last, MEM[(const struct _Deque_iterator &)__first_10(D)]._M_last
	str	r3, [r6, #8]	@ MEM[(const struct _Deque_iterator &)__first_10(D)]._M_last, MEM[(struct _Deque_iterator *)_35(D)]._M_last
@ C:/Users/andre/.platformio/packages/toolchain-rp2040-earlephilhower/arm-none-eabi/include/c++/14.2.0/bits/stl_deque.h:170: 	 _M_last(__x._M_last), _M_node(__x._M_node) { }
	.loc 4 170 25 view .LVU931
	ldr	r3, [r2, #12]	@ MEM[(const struct _Deque_iterator &)__first_10(D)]._M_node, MEM[(const struct _Deque_iterator &)__first_10(D)]._M_node
	str	r3, [r6, #12]	@ MEM[(const struct _Deque_iterator &)__first_10(D)]._M_node, MEM[(struct _Deque_iterator *)_35(D)]._M_node
.LVL359:
	.loc 4 170 25 view .LVU932
.LBE1783:
@ C:/Users/andre/.platformio/packages/toolchain-rp2040-earlephilhower/arm-none-eabi/include/c++/14.2.0/bits/stl_deque.h:170: 	 _M_last(__x._M_last), _M_node(__x._M_node) { }
	.loc 4 170 48 view .LVU933
	b	.L131		@
.L161:
.LVL360:
	.loc 4 170 48 view .LVU934
.LBE1782:
.LBE1781:
.LBB1784:
.LBB1764:
.LBI1764:
	.loc 4 1170 7 is_stmt 1 view .LVU935
.LBB1765:
.LBI1765:
	.loc 4 168 7 view .LVU936
	.loc 4 168 7 is_stmt 0 view .LVU937
.LBE1765:
.LBE1764:
@ C:/Users/andre/.platformio/packages/toolchain-rp2040-earlephilhower/arm-none-eabi/include/c++/14.2.0/bits/deque.tcc:263:       else if (__first == begin() && __last == end())
	.loc 7 263 35 discriminator 2 view .LVU938
	ldr	r5, [r1, #24]	@ MEM[(const struct _Deque_iterator &)this_12(D) + 24]._M_cur, MEM[(const struct _Deque_iterator &)this_12(D) + 24]._M_cur
	ldr	r3, [sp, #12]	@ _27, %sfp
	cmp	r3, r5	@ _27, MEM[(const struct _Deque_iterator &)this_12(D) + 24]._M_cur
	beq	.LCB4335	@
	b	.L134	@long jump	@
.LCB4335:
.LBB1766:
.LBB1517:
.LBB1516:
@ C:/Users/andre/.platformio/packages/toolchain-rp2040-earlephilhower/arm-none-eabi/include/c++/14.2.0/bits/stl_deque.h:169:        : _M_cur(__x._M_cur), _M_first(__x._M_first),
	.loc 4 169 43 view .LVU939
	ldr	r5, [r1, #12]	@ _38, MEM[(const struct _Deque_iterator &)this_12(D) + 8]._M_first
.LVL361:
	.loc 4 169 43 view .LVU940
.LBE1516:
.LBE1517:
.LBE1766:
.LBB1767:
.LBI1767:
	.loc 4 1835 7 is_stmt 1 view .LVU941
.LBB1768:
.LBI1768:
	.loc 4 1151 7 view .LVU942
.LBB1769:
.LBI1769:
	.loc 4 168 7 view .LVU943
	.loc 4 168 7 is_stmt 0 view .LVU944
.LBE1769:
.LBE1768:
.LBB1770:
.LBI1770:
	.loc 4 2106 7 is_stmt 1 view .LVU945
.LBB1771:
.LBB1772:
.LBI1772:
	.loc 4 168 7 view .LVU946
	.loc 4 168 7 is_stmt 0 view .LVU947
.LBE1772:
.LBB1773:
.LBI1773:
	.loc 4 1170 7 is_stmt 1 view .LVU948
.LBB1774:
.LBI1774:
	.loc 4 168 7 view .LVU949
	.loc 4 168 7 is_stmt 0 view .LVU950
.LBE1774:
.LBE1773:
@ C:/Users/andre/.platformio/packages/toolchain-rp2040-earlephilhower/arm-none-eabi/include/c++/14.2.0/bits/stl_deque.h:2109: 	_M_destroy_nodes(__pos._M_node + 1,
	.loc 4 2109 18 view .LVU951
	ldr	r2, [r1, #36]	@ MEM[(const struct _Deque_iterator &)this_12(D) + 24]._M_node, MEM[(const struct _Deque_iterator &)this_12(D) + 24]._M_node
.LVL362:
	.loc 4 2109 18 view .LVU952
	adds	r2, r2, #4	@ _142,
	mov	r3, r8	@ _40, _40
	adds	r1, r3, #4	@ _141, _40,
.LVL363:
	.loc 4 2109 18 view .LVU953
	movs	r0, r4	@, this
	bl	_ZNSt11_Deque_baseIlSaIlEE16_M_destroy_nodesEPPlS3_		@
.LVL364:
@ C:/Users/andre/.platformio/packages/toolchain-rp2040-earlephilhower/arm-none-eabi/include/c++/14.2.0/bits/stl_deque.h:2111: 	this->_M_impl._M_finish = __pos;
	.loc 4 2111 2 view .LVU954
	mov	r3, fp	@ _37, _37
	str	r3, [r4, #24]	@ _37, this_12(D)->D.37667._M_impl.D.37034._M_finish._M_cur
	str	r5, [r4, #28]	@ _38, this_12(D)->D.37667._M_impl.D.37034._M_finish._M_first
	ldr	r3, [sp, #28]	@ _39, %sfp
	str	r3, [r4, #32]	@ _39, this_12(D)->D.37667._M_impl.D.37034._M_finish._M_last
	mov	r3, r8	@ _40, _40
	str	r3, [r4, #36]	@ _40, this_12(D)->D.37667._M_impl.D.37034._M_finish._M_node
.LVL365:
	.loc 4 2111 2 view .LVU955
.LBE1771:
.LBE1770:
.LBE1767:
.LBB1775:
.LBI1775:
	.loc 4 1170 7 is_stmt 1 view .LVU956
.LBB1776:
.LBB1777:
.LBI1777:
	.loc 4 168 7 view .LVU957
.LBB1778:
@ C:/Users/andre/.platformio/packages/toolchain-rp2040-earlephilhower/arm-none-eabi/include/c++/14.2.0/bits/stl_deque.h:169:        : _M_cur(__x._M_cur), _M_first(__x._M_first),
	.loc 4 169 10 is_stmt 0 view .LVU958
	mov	r3, fp	@ _37, _37
	str	r3, [r6]	@ _37, MEM[(struct _Deque_iterator *)_35(D)]._M_cur
@ C:/Users/andre/.platformio/packages/toolchain-rp2040-earlephilhower/arm-none-eabi/include/c++/14.2.0/bits/stl_deque.h:169:        : _M_cur(__x._M_cur), _M_first(__x._M_first),
	.loc 4 169 30 view .LVU959
	ldr	r3, [r4, #28]	@ MEM[(const struct _Deque_iterator &)this_12(D) + 24]._M_first, MEM[(const struct _Deque_iterator &)this_12(D) + 24]._M_first
	str	r3, [r6, #4]	@ MEM[(const struct _Deque_iterator &)this_12(D) + 24]._M_first, MEM[(struct _Deque_iterator *)_35(D)]._M_first
@ C:/Users/andre/.platformio/packages/toolchain-rp2040-earlephilhower/arm-none-eabi/include/c++/14.2.0/bits/stl_deque.h:170: 	 _M_last(__x._M_last), _M_node(__x._M_node) { }
	.loc 4 170 3 view .LVU960
	ldr	r3, [r4, #32]	@ MEM[(const struct _Deque_iterator &)this_12(D) + 24]._M_last, MEM[(const struct _Deque_iterator &)this_12(D) + 24]._M_last
	str	r3, [r6, #8]	@ MEM[(const struct _Deque_iterator &)this_12(D) + 24]._M_last, MEM[(struct _Deque_iterator *)_35(D)]._M_last
@ C:/Users/andre/.platformio/packages/toolchain-rp2040-earlephilhower/arm-none-eabi/include/c++/14.2.0/bits/stl_deque.h:170: 	 _M_last(__x._M_last), _M_node(__x._M_node) { }
	.loc 4 170 25 view .LVU961
	ldr	r3, [r4, #36]	@ MEM[(const struct _Deque_iterator &)this_12(D) + 24]._M_node, MEM[(const struct _Deque_iterator &)this_12(D) + 24]._M_node
	str	r3, [r6, #12]	@ MEM[(const struct _Deque_iterator &)this_12(D) + 24]._M_node, MEM[(struct _Deque_iterator *)_35(D)]._M_node
.LVL366:
	.loc 4 170 25 view .LVU962
.LBE1778:
.LBE1777:
@ C:/Users/andre/.platformio/packages/toolchain-rp2040-earlephilhower/arm-none-eabi/include/c++/14.2.0/bits/stl_deque.h:1171:       { return this->_M_impl._M_finish; }
	.loc 4 1171 30 view .LVU963
	b	.L131		@
.LVL367:
.L137:
	.loc 4 1171 30 view .LVU964
.LBE1776:
.LBE1775:
.LBB1779:
.LBB1620:
.LBB1585:
.LBB1584:
.LBB1581:
.LBB1580:
.LBB1579:
.LBB1576:
.LBI1576:
	.loc 4 168 7 is_stmt 1 view .LVU965
.LBB1577:
.LBB1578:
@ C:/Users/andre/.platformio/packages/toolchain-rp2040-earlephilhower/arm-none-eabi/include/c++/14.2.0/bits/stl_deque.h:169:        : _M_cur(__x._M_cur), _M_first(__x._M_first),
	.loc 4 169 10 is_stmt 0 view .LVU966
	add	r3, sp, #64	@ tmp351,,
.LVL368:
	.loc 4 169 10 view .LVU967
	ldr	r1, [sp, #12]	@ _27, %sfp
.LVL369:
	.loc 4 169 10 view .LVU968
	str	r1, [sp, #64]	@ _27, D.46453._M_cur
@ C:/Users/andre/.platformio/packages/toolchain-rp2040-earlephilhower/arm-none-eabi/include/c++/14.2.0/bits/stl_deque.h:169:        : _M_cur(__x._M_cur), _M_first(__x._M_first),
	.loc 4 169 30 view .LVU969
	ldr	r1, [sp, #32]	@ _188, %sfp
	str	r1, [r3, #4]	@ _188, D.46453._M_first
@ C:/Users/andre/.platformio/packages/toolchain-rp2040-earlephilhower/arm-none-eabi/include/c++/14.2.0/bits/stl_deque.h:170: 	 _M_last(__x._M_last), _M_node(__x._M_node) { }
	.loc 4 170 3 view .LVU970
	str	r2, [r3, #8]	@ _51, D.46453._M_last
@ C:/Users/andre/.platformio/packages/toolchain-rp2040-earlephilhower/arm-none-eabi/include/c++/14.2.0/bits/stl_deque.h:170: 	 _M_last(__x._M_last), _M_node(__x._M_node) { }
	.loc 4 170 25 view .LVU971
	mov	r2, r10	@ _179, _179
	str	r2, [r3, #12]	@ _179, D.46453._M_node
.LVL370:
	.loc 4 170 25 view .LVU972
.LBE1578:
.LBE1577:
.LBE1576:
@ C:/Users/andre/.platformio/packages/toolchain-rp2040-earlephilhower/arm-none-eabi/include/c++/14.2.0/bits/deque.tcc:1146: 		__first._M_cur, __last._M_cur, __result);
	.loc 7 1146 42 view .LVU973
	movs	r2, r0	@, _19
	mov	r1, fp	@, _37
	add	r0, sp, #48	@,,
	bl	_ZSt23__copy_move_backward_a1ILb1EPllEN9__gnu_cxx11__enable_ifIXsrSt23__is_random_access_iterIT0_NSt15iterator_traitsIS4_E17iterator_categoryEE7__valueESt15_Deque_iteratorIT1_RSA_PSA_EE6__typeES4_S4_SD_		@
.LVL371:
	.loc 7 1146 42 view .LVU974
.LBE1579:
.LBE1580:
.LBE1581:
.LBB1582:
.LBI1582:
	.loc 3 353 5 is_stmt 1 view .LVU975
.LBB1583:
.LBI1583:
	.loc 4 168 7 view .LVU976
	.loc 4 168 7 is_stmt 0 view .LVU977
	b	.L136		@
.LVL372:
.L142:
	.loc 4 168 7 view .LVU978
.LBE1583:
.LBE1582:
.LBE1584:
.LBE1585:
.LBE1620:
.LBB1621:
.LBB1616:
.LBB1613:
.LBB1608:
.LBB1604:
.LBB1598:
@ C:/Users/andre/.platformio/packages/toolchain-rp2040-earlephilhower/arm-none-eabi/include/c++/14.2.0/bits/stl_deque.h:238: 	      __offset > 0 ? __offset / difference_type(_S_buffer_size())
	.loc 4 238 21 discriminator 1 view .LVU979
	asrs	r0, r3, #31	@ tmp363, __offset,
.LVL373:
	.loc 4 238 21 discriminator 1 view .LVU980
	movs	r2, #127	@ tmp364,
	ands	r2, r0	@ tmp365, tmp363
	adds	r2, r2, r3	@ tmp366, tmp365, __offset
	asrs	r2, r2, #7	@ iftmp.33_283, tmp366,
.L144:
.LVL374:
@ C:/Users/andre/.platformio/packages/toolchain-rp2040-earlephilhower/arm-none-eabi/include/c++/14.2.0/bits/stl_deque.h:241: 	    _M_set_node(_M_node + __node_offset);
	.loc 4 241 26 view .LVU981
	lsls	r0, r2, #2	@ _292, iftmp.33_283,
@ C:/Users/andre/.platformio/packages/toolchain-rp2040-earlephilhower/arm-none-eabi/include/c++/14.2.0/bits/stl_deque.h:241: 	    _M_set_node(_M_node + __node_offset);
	.loc 4 241 17 view .LVU982
	mov	r9, r0	@ _292, _292
	add	r9, r9, r1	@ _292, _59
.LVL375:
.LBB1599:
.LBI1599:
	.loc 4 263 7 is_stmt 1 view .LVU983
.LBB1600:
@ C:/Users/andre/.platformio/packages/toolchain-rp2040-earlephilhower/arm-none-eabi/include/c++/14.2.0/bits/stl_deque.h:266: 	_M_first = *__new_node;
	.loc 4 266 11 is_stmt 0 view .LVU984
	mov	r0, r9	@ SR.421, SR.421
	ldr	r7, [r0]	@ SR.419, *_293
@ C:/Users/andre/.platformio/packages/toolchain-rp2040-earlephilhower/arm-none-eabi/include/c++/14.2.0/bits/stl_deque.h:267: 	_M_last = _M_first + difference_type(_S_buffer_size());
	.loc 4 267 21 discriminator 1 view .LVU985
	movs	r0, #128	@ SR.420,
	lsls	r0, r0, #2	@ SR.420, SR.420,
	mov	r8, r0	@ SR.420, SR.420
	add	r8, r8, r7	@ SR.420, SR.419
.LVL376:
	.loc 4 267 21 discriminator 1 view .LVU986
.LBE1600:
.LBE1599:
@ C:/Users/andre/.platformio/packages/toolchain-rp2040-earlephilhower/arm-none-eabi/include/c++/14.2.0/bits/stl_deque.h:243: 				 * difference_type(_S_buffer_size()));
	.loc 4 243 6 discriminator 1 view .LVU987
	lsls	r2, r2, #7	@ _296, iftmp.33_283,
.LVL377:
@ C:/Users/andre/.platformio/packages/toolchain-rp2040-earlephilhower/arm-none-eabi/include/c++/14.2.0/bits/stl_deque.h:242: 	    _M_cur = _M_first + (__offset - __node_offset
	.loc 4 242 36 view .LVU988
	subs	r5, r3, r2	@ _297, __offset, _296
@ C:/Users/andre/.platformio/packages/toolchain-rp2040-earlephilhower/arm-none-eabi/include/c++/14.2.0/bits/stl_deque.h:242: 	    _M_cur = _M_first + (__offset - __node_offset
	.loc 4 242 24 view .LVU989
	lsls	r5, r5, #2	@ _299, _297,
	adds	r5, r7, r5	@ SR.418, SR.419, _299
.LVL378:
.L143:
	.loc 4 242 24 view .LVU990
.LBE1598:
.LBE1604:
.LBE1608:
.LBE1613:
.LBE1616:
.LBE1621:
.LBB1622:
.LBI1622:
	.loc 4 2096 7 is_stmt 1 view .LVU991
.LBB1623:
.LBB1624:
.LBI1624:
	.loc 4 1151 7 view .LVU992
.LBB1625:
.LBI1625:
	.loc 4 168 7 view .LVU993
	.loc 4 168 7 is_stmt 0 view .LVU994
.LBE1625:
.LBE1624:
.LBB1626:
.LBI1626:
	.loc 4 168 7 is_stmt 1 view .LVU995
	.loc 4 168 7 is_stmt 0 view .LVU996
.LBE1626:
@ C:/Users/andre/.platformio/packages/toolchain-rp2040-earlephilhower/arm-none-eabi/include/c++/14.2.0/bits/stl_deque.h:2099: 	_M_destroy_nodes(this->_M_impl._M_start._M_node, __pos._M_node);
	.loc 4 2099 18 view .LVU997
	mov	r2, r9	@, SR.421
	movs	r0, r4	@, this
	bl	_ZNSt11_Deque_baseIlSaIlEE16_M_destroy_nodesEPPlS3_		@
.LVL379:
@ C:/Users/andre/.platformio/packages/toolchain-rp2040-earlephilhower/arm-none-eabi/include/c++/14.2.0/bits/stl_deque.h:2100: 	this->_M_impl._M_start = __pos;
	.loc 4 2100 2 view .LVU998
	str	r5, [r4, #8]	@ SR.418, this_12(D)->D.37667._M_impl.D.37034._M_start._M_cur
	str	r7, [r4, #12]	@ SR.419, this_12(D)->D.37667._M_impl.D.37034._M_start._M_first
	mov	r3, r8	@ SR.420, SR.420
	str	r3, [r4, #16]	@ SR.420, this_12(D)->D.37667._M_impl.D.37034._M_start._M_last
	mov	r3, r9	@ SR.421, SR.421
	str	r3, [r4, #20]	@ SR.421, this_12(D)->D.37667._M_impl.D.37034._M_start._M_node
.LVL380:
.L145:
	.loc 4 2100 2 view .LVU999
.LBE1623:
.LBE1622:
.LBB1627:
.LBI1627:
	.loc 4 1151 7 is_stmt 1 view .LVU1000
.LBB1628:
.LBI1628:
	.loc 4 168 7 view .LVU1001
.LBB1629:
@ C:/Users/andre/.platformio/packages/toolchain-rp2040-earlephilhower/arm-none-eabi/include/c++/14.2.0/bits/stl_deque.h:169:        : _M_cur(__x._M_cur), _M_first(__x._M_first),
	.loc 4 169 21 is_stmt 0 view .LVU1002
	ldr	r2, [r4, #8]	@ _75, MEM[(const struct _Deque_iterator &)this_12(D) + 8]._M_cur
@ C:/Users/andre/.platformio/packages/toolchain-rp2040-earlephilhower/arm-none-eabi/include/c++/14.2.0/bits/stl_deque.h:169:        : _M_cur(__x._M_cur), _M_first(__x._M_first),
	.loc 4 169 43 view .LVU1003
	ldr	r3, [r4, #12]	@ _76, MEM[(const struct _Deque_iterator &)this_12(D) + 8]._M_first
@ C:/Users/andre/.platformio/packages/toolchain-rp2040-earlephilhower/arm-none-eabi/include/c++/14.2.0/bits/stl_deque.h:170: 	 _M_last(__x._M_last), _M_node(__x._M_node) { }
	.loc 4 170 15 view .LVU1004
	ldr	r0, [r4, #16]	@ _77, MEM[(const struct _Deque_iterator &)this_12(D) + 8]._M_last
@ C:/Users/andre/.platformio/packages/toolchain-rp2040-earlephilhower/arm-none-eabi/include/c++/14.2.0/bits/stl_deque.h:170: 	 _M_last(__x._M_last), _M_node(__x._M_node) { }
	.loc 4 170 37 view .LVU1005
	ldr	r1, [r4, #20]	@ _78, MEM[(const struct _Deque_iterator &)this_12(D) + 8]._M_node
.LVL381:
	.loc 4 170 37 view .LVU1006
.LBE1629:
.LBE1628:
.LBE1627:
.LBB1630:
.LBI1630:
	.loc 4 397 7 is_stmt 1 view .LVU1007
.LBB1631:
.LBB1632:
.LBI1632:
	.loc 4 168 7 view .LVU1008
.LBB1633:
@ C:/Users/andre/.platformio/packages/toolchain-rp2040-earlephilhower/arm-none-eabi/include/c++/14.2.0/bits/stl_deque.h:169:        : _M_cur(__x._M_cur), _M_first(__x._M_first),
	.loc 4 169 10 is_stmt 0 view .LVU1009
	str	r2, [r6]	@ _75, MEM[(struct _Deque_iterator *)_35(D)]._M_cur
@ C:/Users/andre/.platformio/packages/toolchain-rp2040-earlephilhower/arm-none-eabi/include/c++/14.2.0/bits/stl_deque.h:169:        : _M_cur(__x._M_cur), _M_first(__x._M_first),
	.loc 4 169 30 view .LVU1010
	str	r3, [r6, #4]	@ _76, MEM[(struct _Deque_iterator *)_35(D)]._M_first
@ C:/Users/andre/.platformio/packages/toolchain-rp2040-earlephilhower/arm-none-eabi/include/c++/14.2.0/bits/stl_deque.h:170: 	 _M_last(__x._M_last), _M_node(__x._M_node) { }
	.loc 4 170 3 view .LVU1011
	str	r0, [r6, #8]	@ _77, MEM[(struct _Deque_iterator *)_35(D)]._M_last
@ C:/Users/andre/.platformio/packages/toolchain-rp2040-earlephilhower/arm-none-eabi/include/c++/14.2.0/bits/stl_deque.h:170: 	 _M_last(__x._M_last), _M_node(__x._M_node) { }
	.loc 4 170 25 view .LVU1012
	str	r1, [r6, #12]	@ _78, MEM[(struct _Deque_iterator *)_35(D)]._M_node
.LVL382:
	.loc 4 170 25 view .LVU1013
.LBE1633:
.LBE1632:
.LBB1634:
.LBI1634:
	.loc 4 230 7 is_stmt 1 view .LVU1014
.LBB1635:
@ C:/Users/andre/.platformio/packages/toolchain-rp2040-earlephilhower/arm-none-eabi/include/c++/14.2.0/bits/stl_deque.h:232: 	const difference_type __offset = __n + (_M_cur - _M_first);
	.loc 4 232 49 is_stmt 0 view .LVU1015
	subs	r3, r2, r3	@ _409, _75, _76
	asrs	r3, r3, #2	@ _410, _409,
.LVL383:
.LBB1636:
@ C:/Users/andre/.platformio/packages/toolchain-rp2040-earlephilhower/arm-none-eabi/include/c++/14.2.0/bits/stl_deque.h:233: 	if (__offset >= 0 && __offset < difference_type(_S_buffer_size()))
	.loc 4 233 20 view .LVU1016
	ldr	r0, [sp, #16]	@ _178, %sfp
	adds	r3, r3, r0	@ __offset, _410, _178
	bpl	.LCB4659	@
	b	.L155	@long jump	@
.LCB4659:
.LVL384:
@ C:/Users/andre/.platformio/packages/toolchain-rp2040-earlephilhower/arm-none-eabi/include/c++/14.2.0/bits/stl_deque.h:233: 	if (__offset >= 0 && __offset < difference_type(_S_buffer_size()))
	.loc 4 233 20 discriminator 1 view .LVU1017
	cmp	r3, #127	@ __offset,
	ble	.LCB4662	@
	b	.L156	@long jump	@
.LCB4662:
@ C:/Users/andre/.platformio/packages/toolchain-rp2040-earlephilhower/arm-none-eabi/include/c++/14.2.0/bits/stl_deque.h:234: 	  _M_cur += __n;
	.loc 4 234 11 view .LVU1018
	lsls	r3, r0, #2	@ _413, _178,
.LVL385:
	.loc 4 234 11 view .LVU1019
	adds	r2, r2, r3	@ _414, _75, _413
.LVL386:
	.loc 4 234 11 view .LVU1020
	str	r2, [r6]	@ _414, MEM[(struct _Deque_iterator *)_35(D)]._M_cur
.LVL387:
	.loc 4 234 11 view .LVU1021
	b	.L131		@
.LVL388:
.L141:
	.loc 4 234 11 view .LVU1022
.LBE1636:
.LBE1635:
.LBE1634:
.LBE1631:
.LBE1630:
.LBB1649:
.LBB1617:
.LBB1614:
.LBB1609:
.LBB1605:
.LBB1601:
@ C:/Users/andre/.platformio/packages/toolchain-rp2040-earlephilhower/arm-none-eabi/include/c++/14.2.0/bits/stl_deque.h:239: 			   : -difference_type((-__offset - 1)
	.loc 4 239 37 view .LVU1023
	mvns	r2, r3	@ _285, __offset
@ C:/Users/andre/.platformio/packages/toolchain-rp2040-earlephilhower/arm-none-eabi/include/c++/14.2.0/bits/stl_deque.h:240: 					      / _S_buffer_size()) - 1;
	.loc 4 240 12 discriminator 1 view .LVU1024
	lsrs	r2, r2, #7	@ _286, _285,
@ C:/Users/andre/.platformio/packages/toolchain-rp2040-earlephilhower/arm-none-eabi/include/c++/14.2.0/bits/stl_deque.h:238: 	      __offset > 0 ? __offset / difference_type(_S_buffer_size())
	.loc 4 238 21 discriminator 2 view .LVU1025
	mvns	r2, r2	@ iftmp.33_283, _286
	b	.L144		@
.LVL389:
.L135:
	.loc 4 238 21 discriminator 2 view .LVU1026
.LBE1601:
.LBE1605:
.LBE1609:
.LBE1614:
.LBE1617:
.LBE1649:
.LBB1650:
.LBI1650:
	.loc 4 1170 7 is_stmt 1 view .LVU1027
.LBB1651:
.LBI1651:
	.loc 4 168 7 view .LVU1028
	.loc 4 168 7 is_stmt 0 view .LVU1029
.LBE1651:
.LBE1650:
@ C:/Users/andre/.platformio/packages/toolchain-rp2040-earlephilhower/arm-none-eabi/include/c++/14.2.0/bits/deque.tcc:280: 	      if (__last != end())
	.loc 7 280 8 discriminator 2 view .LVU1030
	ldr	r3, [sp, #40]	@ _151, %sfp
	ldr	r7, [sp, #12]	@ _27, %sfp
	cmp	r7, r3	@ _27, _151
	beq	.L146		@,
.LVL390:
.LBB1652:
.LBI1652:
	.loc 4 168 7 is_stmt 1 view .LVU1031
	.loc 4 168 7 is_stmt 0 view .LVU1032
.LBE1652:
.LBB1654:
.LBI1654:
	.loc 4 1170 7 is_stmt 1 view .LVU1033
.LBB1655:
.LBI1655:
	.loc 4 168 7 view .LVU1034
	.loc 4 168 7 is_stmt 0 view .LVU1035
.LBE1655:
.LBE1654:
.LBB1656:
.LBI1656:
	.loc 4 168 7 is_stmt 1 view .LVU1036
	.loc 4 168 7 is_stmt 0 view .LVU1037
.LBE1656:
.LBB1657:
.LBI1657:
	.loc 3 675 5 is_stmt 1 view .LVU1038
.LBB1658:
.LBI1658:
	.loc 4 168 7 view .LVU1039
	.loc 4 168 7 is_stmt 0 view .LVU1040
.LBE1658:
.LBB1659:
.LBI1659:
	.loc 13 607 5 is_stmt 1 view .LVU1041
.LBB1660:
.LBI1660:
	.loc 4 168 7 view .LVU1042
	.loc 4 168 7 is_stmt 0 view .LVU1043
.LBE1660:
.LBE1659:
.LBB1661:
.LBI1661:
	.loc 4 168 7 is_stmt 1 view .LVU1044
	.loc 4 168 7 is_stmt 0 view .LVU1045
.LBE1661:
.LBB1662:
.LBI1662:
	.loc 13 607 5 is_stmt 1 view .LVU1046
.LBB1663:
.LBI1663:
	.loc 4 168 7 view .LVU1047
	.loc 4 168 7 is_stmt 0 view .LVU1048
.LBE1663:
.LBE1662:
.LBB1664:
.LBI1664:
	.loc 4 168 7 is_stmt 1 view .LVU1049
	.loc 4 168 7 is_stmt 0 view .LVU1050
.LBE1664:
.LBB1665:
.LBI1665:
	.loc 3 553 5 is_stmt 1 view .LVU1051
.LBB1666:
.LBB1667:
.LBI1667:
	.loc 4 168 7 view .LVU1052
	.loc 4 168 7 is_stmt 0 view .LVU1053
.LBE1667:
.LBB1668:
.LBI1668:
	.loc 3 316 5 is_stmt 1 view .LVU1054
.LBB1669:
.LBI1669:
	.loc 4 168 7 view .LVU1055
	.loc 4 168 7 is_stmt 0 view .LVU1056
.LBE1669:
.LBE1668:
.LBB1670:
.LBI1670:
	.loc 4 168 7 is_stmt 1 view .LVU1057
	.loc 4 168 7 is_stmt 0 view .LVU1058
.LBE1670:
.LBB1671:
.LBI1671:
	.loc 3 316 5 is_stmt 1 view .LVU1059
.LBB1672:
.LBI1672:
	.loc 4 168 7 view .LVU1060
	.loc 4 168 7 is_stmt 0 view .LVU1061
.LBE1672:
.LBE1671:
.LBB1673:
.LBI1673:
	.loc 4 168 7 is_stmt 1 view .LVU1062
	.loc 4 168 7 is_stmt 0 view .LVU1063
.LBE1673:
.LBB1674:
.LBI1674:
	.loc 3 316 5 is_stmt 1 view .LVU1064
.LBB1675:
.LBI1675:
	.loc 4 168 7 view .LVU1065
	.loc 4 168 7 is_stmt 0 view .LVU1066
.LBE1675:
.LBE1674:
.LBB1676:
.LBI1676:
	.loc 7 1040 5 is_stmt 1 view .LVU1067
.LBB1677:
.LBI1677:
	.loc 4 168 7 view .LVU1068
	.loc 4 168 7 is_stmt 0 view .LVU1069
.LBE1677:
.LBB1678:
.LBI1678:
	.loc 4 168 7 is_stmt 1 view .LVU1070
	.loc 4 168 7 is_stmt 0 view .LVU1071
.LBE1678:
.LBB1679:
.LBI1679:
	.loc 4 168 7 is_stmt 1 view .LVU1072
	.loc 4 168 7 is_stmt 0 view .LVU1073
.LBE1679:
.LBB1680:
.LBI1680:
	.loc 7 1003 5 is_stmt 1 view .LVU1074
.LBB1681:
.LBB1682:
@ C:/Users/andre/.platformio/packages/toolchain-rp2040-earlephilhower/arm-none-eabi/include/c++/14.2.0/bits/deque.tcc:1008:       if (__first._M_node != __last._M_node)
	.loc 7 1008 7 is_stmt 0 view .LVU1075
	cmp	r9, r10	@ _143, _179
	beq	.L147		@,
.LBE1682:
.LBE1681:
.LBE1680:
.LBE1676:
.LBE1666:
.LBE1665:
.LBE1657:
.LBB1713:
.LBB1653:
@ C:/Users/andre/.platformio/packages/toolchain-rp2040-earlephilhower/arm-none-eabi/include/c++/14.2.0/bits/stl_deque.h:170: 	 _M_last(__x._M_last), _M_node(__x._M_node) { }
	.loc 4 170 15 view .LVU1076
	ldr	r3, [sp, #8]	@ __last, %sfp
	ldr	r2, [r3, #8]	@ _68, MEM[(const struct _Deque_iterator &)__last_11(D)]._M_last
.LVL391:
	.loc 4 170 15 view .LVU1077
.LBE1653:
.LBE1713:
.LBB1714:
.LBB1711:
.LBB1709:
.LBB1705:
.LBB1703:
.LBB1701:
.LBB1697:
.LBB1683:
.LBB1684:
.LBI1684:
	.loc 4 168 7 is_stmt 1 view .LVU1078
.LBB1685:
.LBB1686:
@ C:/Users/andre/.platformio/packages/toolchain-rp2040-earlephilhower/arm-none-eabi/include/c++/14.2.0/bits/stl_deque.h:169:        : _M_cur(__x._M_cur), _M_first(__x._M_first),
	.loc 4 169 10 is_stmt 0 view .LVU1079
	add	r3, sp, #240	@ tmp374,,
.LVL392:
	.loc 4 169 10 view .LVU1080
	str	r0, [sp, #240]	@ _19, D.46550._M_cur
@ C:/Users/andre/.platformio/packages/toolchain-rp2040-earlephilhower/arm-none-eabi/include/c++/14.2.0/bits/stl_deque.h:169:        : _M_cur(__x._M_cur), _M_first(__x._M_first),
	.loc 4 169 30 view .LVU1081
	ldr	r1, [sp, #24]	@ _170, %sfp
.LVL393:
	.loc 4 169 30 view .LVU1082
	str	r1, [r3, #4]	@ _170, D.46550._M_first
@ C:/Users/andre/.platformio/packages/toolchain-rp2040-earlephilhower/arm-none-eabi/include/c++/14.2.0/bits/stl_deque.h:170: 	 _M_last(__x._M_last), _M_node(__x._M_node) { }
	.loc 4 170 3 view .LVU1083
	ldr	r1, [sp, #44]	@ _192, %sfp
	str	r1, [r3, #8]	@ _192, D.46550._M_last
@ C:/Users/andre/.platformio/packages/toolchain-rp2040-earlephilhower/arm-none-eabi/include/c++/14.2.0/bits/stl_deque.h:170: 	 _M_last(__x._M_last), _M_node(__x._M_node) { }
	.loc 4 170 25 view .LVU1084
	ldr	r1, [sp, #4]	@ _180, %sfp
	str	r1, [r3, #12]	@ _180, D.46550._M_node
.LVL394:
	.loc 4 170 25 view .LVU1085
.LBE1686:
.LBE1685:
.LBE1684:
@ C:/Users/andre/.platformio/packages/toolchain-rp2040-earlephilhower/arm-none-eabi/include/c++/14.2.0/bits/deque.tcc:1011: 	    = std::__copy_move_a1<_IsMove>(__first._M_cur, __first._M_last,
	.loc 7 1011 36 discriminator 1 view .LVU1086
	add	r5, sp, #256	@ tmp378,,
	movs	r1, r7	@, _27
	movs	r0, r5	@, tmp378
	bl	_ZSt14__copy_move_a1ILb1EPllEN9__gnu_cxx11__enable_ifIXsrSt23__is_random_access_iterIT0_NSt15iterator_traitsIS4_E17iterator_categoryEE7__valueESt15_Deque_iteratorIT1_RSA_PSA_EE6__typeES4_S4_SD_		@
.LVL395:
@ C:/Users/andre/.platformio/packages/toolchain-rp2040-earlephilhower/arm-none-eabi/include/c++/14.2.0/bits/deque.tcc:1010: 	  __result
	.loc 7 1010 4 view .LVU1087
	ldr	r3, [sp, #256]	@ SR.434, D.46551._M_cur
	mov	ip, r3	@ SR.434, SR.434
	ldr	r3, [sp, #260]	@ SR.435, D.46551._M_first
	ldr	r0, [sp, #264]	@ SR.436, D.46551._M_last
	ldr	r2, [sp, #268]	@ SR.437, D.46551._M_node
.LBB1687:
@ C:/Users/andre/.platformio/packages/toolchain-rp2040-earlephilhower/arm-none-eabi/include/c++/14.2.0/bits/deque.tcc:1014: 	  for (typename _Iter::_Map_pointer __node = __first._M_node + 1;
	.loc 7 1014 38 view .LVU1088
	mov	r5, r10	@ _179, _179
	adds	r5, r5, #4	@ _179,
.LVL396:
	.loc 7 1015 16 is_stmt 1 view .LVU1089
	cmp	r9, r5	@ _143, __node
	beq	.L148		@,
.LBB1688:
.LBB1689:
.LBB1690:
@ C:/Users/andre/.platformio/packages/toolchain-rp2040-earlephilhower/arm-none-eabi/include/c++/14.2.0/bits/stl_deque.h:169:        : _M_cur(__x._M_cur), _M_first(__x._M_first),
	.loc 4 169 10 is_stmt 0 view .LVU1090
	add	r1, sp, #208	@ tmp384,,
	mov	r8, r1	@ tmp384, tmp384
.LBE1690:
.LBE1689:
.LBE1688:
@ C:/Users/andre/.platformio/packages/toolchain-rp2040-earlephilhower/arm-none-eabi/include/c++/14.2.0/bits/deque.tcc:1017: 	      = std::__copy_move_a1<_IsMove>(*__node,
	.loc 7 1017 38 discriminator 1 view .LVU1091
	add	r7, sp, #224	@ tmp388,,
	mov	r10, r6	@ <retval>, <retval>
	movs	r6, r0	@ SR.436, SR.436
.LVL397:
	.loc 7 1017 38 discriminator 1 view .LVU1092
	movs	r0, r2	@ SR.437, SR.437
	mov	r2, ip	@ SR.434, SR.434
	mov	fp, r9	@ _143, _143
	mov	r9, r4	@ this, this
.LVL398:
.L149:
@ C:/Users/andre/.platformio/packages/toolchain-rp2040-earlephilhower/arm-none-eabi/include/c++/14.2.0/bits/deque.tcc:1017: 	      = std::__copy_move_a1<_IsMove>(*__node,
	.loc 7 1017 38 view .LVU1093
	ldmia	r5!, {r1}	@ MEM[(long int * *)__node_627], _356
.LVL399:
.LBB1693:
.LBI1688:
	.loc 4 168 7 is_stmt 1 view .LVU1094
.LBB1692:
.LBB1691:
@ C:/Users/andre/.platformio/packages/toolchain-rp2040-earlephilhower/arm-none-eabi/include/c++/14.2.0/bits/stl_deque.h:169:        : _M_cur(__x._M_cur), _M_first(__x._M_first),
	.loc 4 169 10 is_stmt 0 view .LVU1095
	mov	r4, r8	@ tmp384, tmp384
	str	r2, [r4]	@ SR.434, D.46548._M_cur
@ C:/Users/andre/.platformio/packages/toolchain-rp2040-earlephilhower/arm-none-eabi/include/c++/14.2.0/bits/stl_deque.h:169:        : _M_cur(__x._M_cur), _M_first(__x._M_first),
	.loc 4 169 30 view .LVU1096
	str	r3, [r4, #4]	@ SR.435, D.46548._M_first
@ C:/Users/andre/.platformio/packages/toolchain-rp2040-earlephilhower/arm-none-eabi/include/c++/14.2.0/bits/stl_deque.h:170: 	 _M_last(__x._M_last), _M_node(__x._M_node) { }
	.loc 4 170 3 view .LVU1097
	str	r6, [r4, #8]	@ SR.436, D.46548._M_last
@ C:/Users/andre/.platformio/packages/toolchain-rp2040-earlephilhower/arm-none-eabi/include/c++/14.2.0/bits/stl_deque.h:170: 	 _M_last(__x._M_last), _M_node(__x._M_node) { }
	.loc 4 170 25 view .LVU1098
	str	r0, [r4, #12]	@ SR.437, D.46548._M_node
.LVL400:
	.loc 4 170 25 view .LVU1099
.LBE1691:
.LBE1692:
.LBE1693:
@ C:/Users/andre/.platformio/packages/toolchain-rp2040-earlephilhower/arm-none-eabi/include/c++/14.2.0/bits/deque.tcc:1017: 	      = std::__copy_move_a1<_IsMove>(*__node,
	.loc 7 1017 38 view .LVU1100
	movs	r3, #128	@ tmp565,
	lsls	r3, r3, #2	@ tmp565, tmp565,
	adds	r2, r1, r3	@ _357, _356, tmp565
@ C:/Users/andre/.platformio/packages/toolchain-rp2040-earlephilhower/arm-none-eabi/include/c++/14.2.0/bits/deque.tcc:1017: 	      = std::__copy_move_a1<_IsMove>(*__node,
	.loc 7 1017 38 discriminator 1 view .LVU1101
	mov	r3, r8	@, tmp384
	movs	r0, r7	@, tmp388
	bl	_ZSt14__copy_move_a1ILb1EPllEN9__gnu_cxx11__enable_ifIXsrSt23__is_random_access_iterIT0_NSt15iterator_traitsIS4_E17iterator_categoryEE7__valueESt15_Deque_iteratorIT1_RSA_PSA_EE6__typeES4_S4_SD_		@
.LVL401:
@ C:/Users/andre/.platformio/packages/toolchain-rp2040-earlephilhower/arm-none-eabi/include/c++/14.2.0/bits/deque.tcc:1016: 	    __result
	.loc 7 1016 6 view .LVU1102
	ldr	r2, [r7]	@ SR.434, D.46549._M_cur
	ldr	r3, [r7, #4]	@ SR.435, D.46549._M_first
	ldr	r6, [r7, #8]	@ SR.436, D.46549._M_last
	ldr	r0, [r7, #12]	@ SR.437, D.46549._M_node
	.loc 7 1014 4 is_stmt 1 view .LVU1103
.LVL402:
	.loc 7 1015 16 view .LVU1104
	cmp	fp, r5	@ _143, __node
	bne	.L149		@,
	mov	ip, r2	@ SR.434, SR.434
	movs	r2, r0	@ SR.437, SR.437
	movs	r0, r6	@ SR.436, SR.436
	mov	r6, r10	@ <retval>, <retval>
	mov	r4, r9	@ this, this
.LVL403:
.L148:
	.loc 7 1015 16 is_stmt 0 view .LVU1105
.LBE1687:
.LBB1694:
.LBI1694:
	.loc 4 168 7 is_stmt 1 view .LVU1106
.LBB1695:
.LBB1696:
@ C:/Users/andre/.platformio/packages/toolchain-rp2040-earlephilhower/arm-none-eabi/include/c++/14.2.0/bits/stl_deque.h:169:        : _M_cur(__x._M_cur), _M_first(__x._M_first),
	.loc 4 169 10 is_stmt 0 view .LVU1107
	add	r1, sp, #192	@ tmp395,,
.LVL404:
	.loc 4 169 10 view .LVU1108
	mov	r5, ip	@ SR.434, SR.434
.LVL405:
	.loc 4 169 10 view .LVU1109
	str	r5, [sp, #192]	@ SR.434, D.46547._M_cur
@ C:/Users/andre/.platformio/packages/toolchain-rp2040-earlephilhower/arm-none-eabi/include/c++/14.2.0/bits/stl_deque.h:169:        : _M_cur(__x._M_cur), _M_first(__x._M_first),
	.loc 4 169 30 view .LVU1110
	str	r3, [sp, #196]	@ SR.435, D.46547._M_first
@ C:/Users/andre/.platformio/packages/toolchain-rp2040-earlephilhower/arm-none-eabi/include/c++/14.2.0/bits/stl_deque.h:170: 	 _M_last(__x._M_last), _M_node(__x._M_node) { }
	.loc 4 170 3 view .LVU1111
	str	r0, [sp, #200]	@ SR.436, D.46547._M_last
@ C:/Users/andre/.platformio/packages/toolchain-rp2040-earlephilhower/arm-none-eabi/include/c++/14.2.0/bits/stl_deque.h:170: 	 _M_last(__x._M_last), _M_node(__x._M_node) { }
	.loc 4 170 25 view .LVU1112
	str	r2, [sp, #204]	@ SR.437, D.46547._M_node
.LVL406:
	.loc 4 170 25 view .LVU1113
.LBE1696:
.LBE1695:
.LBE1694:
@ C:/Users/andre/.platformio/packages/toolchain-rp2040-earlephilhower/arm-none-eabi/include/c++/14.2.0/bits/deque.tcc:1022: 					      __result);
	.loc 7 1022 20 view .LVU1114
	movs	r3, r1	@, tmp395
	ldr	r2, [sp, #40]	@, %sfp
	ldr	r1, [sp, #36]	@, %sfp
	add	r0, sp, #160	@,,
	bl	_ZSt14__copy_move_a1ILb1EPllEN9__gnu_cxx11__enable_ifIXsrSt23__is_random_access_iterIT0_NSt15iterator_traitsIS4_E17iterator_categoryEE7__valueESt15_Deque_iteratorIT1_RSA_PSA_EE6__typeES4_S4_SD_		@
.LVL407:
.L146:
	.loc 7 1022 20 view .LVU1115
.LBE1683:
.LBE1697:
.LBE1701:
.LBE1703:
.LBE1705:
.LBE1709:
.LBE1711:
.LBE1714:
.LBB1715:
.LBI1715:
	.loc 4 1170 7 is_stmt 1 view .LVU1116
.LBB1716:
.LBI1716:
	.loc 4 168 7 view .LVU1117
.LBB1717:
@ C:/Users/andre/.platformio/packages/toolchain-rp2040-earlephilhower/arm-none-eabi/include/c++/14.2.0/bits/stl_deque.h:169:        : _M_cur(__x._M_cur), _M_first(__x._M_first),
	.loc 4 169 21 is_stmt 0 view .LVU1118
	ldr	r1, [r4, #24]	@ _71, MEM[(const struct _Deque_iterator &)this_12(D) + 24]._M_cur
@ C:/Users/andre/.platformio/packages/toolchain-rp2040-earlephilhower/arm-none-eabi/include/c++/14.2.0/bits/stl_deque.h:169:        : _M_cur(__x._M_cur), _M_first(__x._M_first),
	.loc 4 169 43 view .LVU1119
	ldr	r7, [r4, #28]	@ SR.423, MEM[(const struct _Deque_iterator &)this_12(D) + 24]._M_first
@ C:/Users/andre/.platformio/packages/toolchain-rp2040-earlephilhower/arm-none-eabi/include/c++/14.2.0/bits/stl_deque.h:170: 	 _M_last(__x._M_last), _M_node(__x._M_node) { }
	.loc 4 170 37 view .LVU1120
	ldr	r2, [r4, #36]	@ _74, MEM[(const struct _Deque_iterator &)this_12(D) + 24]._M_node
.LVL408:
	.loc 4 170 37 view .LVU1121
.LBE1717:
.LBE1716:
.LBE1715:
.LBB1720:
.LBI1720:
	.loc 4 406 7 is_stmt 1 view .LVU1122
.LBB1721:
.LBB1722:
.LBI1722:
	.loc 4 168 7 view .LVU1123
	.loc 4 168 7 is_stmt 0 view .LVU1124
.LBE1722:
.LBB1724:
.LBI1724:
	.loc 4 249 7 is_stmt 1 view .LVU1125
.LBB1725:
.LBI1725:
	.loc 4 230 7 view .LVU1126
.LBB1726:
@ C:/Users/andre/.platformio/packages/toolchain-rp2040-earlephilhower/arm-none-eabi/include/c++/14.2.0/bits/stl_deque.h:232: 	const difference_type __offset = __n + (_M_cur - _M_first);
	.loc 4 232 49 is_stmt 0 view .LVU1127
	subs	r5, r1, r7	@ _383, _71, SR.423
	asrs	r5, r5, #2	@ _384, _383,
	ldr	r3, [sp, #20]	@ _196, %sfp
	subs	r5, r5, r3	@ _449, _384, _196
.LVL409:
.LBB1727:
@ C:/Users/andre/.platformio/packages/toolchain-rp2040-earlephilhower/arm-none-eabi/include/c++/14.2.0/bits/stl_deque.h:233: 	if (__offset >= 0 && __offset < difference_type(_S_buffer_size()))
	.loc 4 233 20 view .LVU1128
	bmi	.L151		@,
@ C:/Users/andre/.platformio/packages/toolchain-rp2040-earlephilhower/arm-none-eabi/include/c++/14.2.0/bits/stl_deque.h:233: 	if (__offset >= 0 && __offset < difference_type(_S_buffer_size()))
	.loc 4 233 20 discriminator 1 view .LVU1129
	cmp	r5, #127	@ _449,
	bgt	.L152		@,
.LBE1727:
.LBE1726:
.LBE1725:
.LBE1724:
.LBE1721:
.LBE1720:
.LBB1752:
.LBB1719:
.LBB1718:
@ C:/Users/andre/.platformio/packages/toolchain-rp2040-earlephilhower/arm-none-eabi/include/c++/14.2.0/bits/stl_deque.h:170: 	 _M_last(__x._M_last), _M_node(__x._M_node) { }
	.loc 4 170 15 view .LVU1130
	ldr	r0, [r4, #32]	@ SR.424, MEM[(const struct _Deque_iterator &)this_12(D) + 24]._M_last
	mov	r8, r0	@ SR.424, SR.424
.LBE1718:
.LBE1719:
.LBE1752:
.LBB1753:
.LBB1749:
.LBB1744:
.LBB1740:
.LBB1736:
.LBB1732:
@ C:/Users/andre/.platformio/packages/toolchain-rp2040-earlephilhower/arm-none-eabi/include/c++/14.2.0/bits/stl_deque.h:234: 	  _M_cur += __n;
	.loc 4 234 11 view .LVU1131
	lsls	r5, r3, #2	@ _387, _196,
.LVL410:
	.loc 4 234 11 view .LVU1132
	subs	r5, r1, r5	@ SR.422, _71, _387
.LBE1732:
.LBE1736:
.LBE1740:
.LBE1744:
.LBB1745:
.LBB1723:
@ C:/Users/andre/.platformio/packages/toolchain-rp2040-earlephilhower/arm-none-eabi/include/c++/14.2.0/bits/stl_deque.h:170: 	 _M_last(__x._M_last), _M_node(__x._M_node) { }
	.loc 4 170 25 view .LVU1133
	mov	r9, r2	@ SR.425, _74
.LBE1723:
.LBE1745:
.LBB1746:
.LBB1741:
.LBB1737:
.LBB1733:
	b	.L153		@
.LVL411:
.L147:
	.loc 4 170 25 view .LVU1134
.LBE1733:
.LBE1737:
.LBE1741:
.LBE1746:
.LBE1749:
.LBE1753:
.LBB1754:
.LBB1712:
.LBB1710:
.LBB1706:
.LBB1704:
.LBB1702:
.LBB1698:
.LBI1698:
	.loc 4 168 7 is_stmt 1 view .LVU1135
.LBB1699:
.LBB1700:
@ C:/Users/andre/.platformio/packages/toolchain-rp2040-earlephilhower/arm-none-eabi/include/c++/14.2.0/bits/stl_deque.h:169:        : _M_cur(__x._M_cur), _M_first(__x._M_first),
	.loc 4 169 10 is_stmt 0 view .LVU1136
	add	r3, sp, #176	@ tmp401,,
.LVL412:
	.loc 4 169 10 view .LVU1137
	str	r0, [sp, #176]	@ _19, D.46546._M_cur
@ C:/Users/andre/.platformio/packages/toolchain-rp2040-earlephilhower/arm-none-eabi/include/c++/14.2.0/bits/stl_deque.h:169:        : _M_cur(__x._M_cur), _M_first(__x._M_first),
	.loc 4 169 30 view .LVU1138
	ldr	r2, [sp, #24]	@ _170, %sfp
.LVL413:
	.loc 4 169 30 view .LVU1139
	str	r2, [r3, #4]	@ _170, D.46546._M_first
@ C:/Users/andre/.platformio/packages/toolchain-rp2040-earlephilhower/arm-none-eabi/include/c++/14.2.0/bits/stl_deque.h:170: 	 _M_last(__x._M_last), _M_node(__x._M_node) { }
	.loc 4 170 3 view .LVU1140
	ldr	r2, [sp, #44]	@ _192, %sfp
	str	r2, [r3, #8]	@ _192, D.46546._M_last
@ C:/Users/andre/.platformio/packages/toolchain-rp2040-earlephilhower/arm-none-eabi/include/c++/14.2.0/bits/stl_deque.h:170: 	 _M_last(__x._M_last), _M_node(__x._M_node) { }
	.loc 4 170 25 view .LVU1141
	ldr	r2, [sp, #4]	@ _180, %sfp
	str	r2, [r3, #12]	@ _180, D.46546._M_node
.LVL414:
	.loc 4 170 25 view .LVU1142
.LBE1700:
.LBE1699:
.LBE1698:
@ C:/Users/andre/.platformio/packages/toolchain-rp2040-earlephilhower/arm-none-eabi/include/c++/14.2.0/bits/deque.tcc:1026: 					  __result);
	.loc 7 1026 16 view .LVU1143
	ldr	r2, [sp, #40]	@, %sfp
	ldr	r1, [sp, #12]	@, %sfp
.LVL415:
	.loc 7 1026 16 view .LVU1144
	add	r0, sp, #160	@,,
	bl	_ZSt14__copy_move_a1ILb1EPllEN9__gnu_cxx11__enable_ifIXsrSt23__is_random_access_iterIT0_NSt15iterator_traitsIS4_E17iterator_categoryEE7__valueESt15_Deque_iteratorIT1_RSA_PSA_EE6__typeES4_S4_SD_		@
.LVL416:
	.loc 7 1026 16 view .LVU1145
.LBE1702:
.LBE1704:
.LBE1706:
.LBB1707:
.LBI1707:
	.loc 3 353 5 is_stmt 1 view .LVU1146
.LBB1708:
.LBI1708:
	.loc 4 168 7 view .LVU1147
	.loc 4 168 7 is_stmt 0 view .LVU1148
	b	.L146		@
.LVL417:
.L152:
	.loc 4 168 7 view .LVU1149
.LBE1708:
.LBE1707:
.LBE1710:
.LBE1712:
.LBE1754:
.LBB1755:
.LBB1750:
.LBB1747:
.LBB1742:
.LBB1738:
.LBB1734:
.LBB1728:
@ C:/Users/andre/.platformio/packages/toolchain-rp2040-earlephilhower/arm-none-eabi/include/c++/14.2.0/bits/stl_deque.h:238: 	      __offset > 0 ? __offset / difference_type(_S_buffer_size())
	.loc 4 238 21 discriminator 1 view .LVU1150
	asrs	r1, r5, #31	@ tmp416, _449,
	movs	r3, #127	@ tmp417,
.LVL418:
	.loc 4 238 21 discriminator 1 view .LVU1151
	ands	r3, r1	@ tmp418, tmp416
	adds	r3, r3, r5	@ tmp419, tmp418, _449
	asrs	r3, r3, #7	@ iftmp.33_389, tmp419,
.L154:
.LVL419:
@ C:/Users/andre/.platformio/packages/toolchain-rp2040-earlephilhower/arm-none-eabi/include/c++/14.2.0/bits/stl_deque.h:241: 	    _M_set_node(_M_node + __node_offset);
	.loc 4 241 26 view .LVU1152
	lsls	r1, r3, #2	@ _398, iftmp.33_389,
@ C:/Users/andre/.platformio/packages/toolchain-rp2040-earlephilhower/arm-none-eabi/include/c++/14.2.0/bits/stl_deque.h:241: 	    _M_set_node(_M_node + __node_offset);
	.loc 4 241 17 view .LVU1153
	mov	r9, r1	@ _398, _398
	add	r9, r9, r2	@ _398, _74
.LVL420:
.LBB1729:
.LBI1729:
	.loc 4 263 7 is_stmt 1 view .LVU1154
.LBB1730:
@ C:/Users/andre/.platformio/packages/toolchain-rp2040-earlephilhower/arm-none-eabi/include/c++/14.2.0/bits/stl_deque.h:266: 	_M_first = *__new_node;
	.loc 4 266 11 is_stmt 0 view .LVU1155
	mov	r1, r9	@ SR.425, SR.425
	ldr	r7, [r1]	@ SR.423, *_399
@ C:/Users/andre/.platformio/packages/toolchain-rp2040-earlephilhower/arm-none-eabi/include/c++/14.2.0/bits/stl_deque.h:267: 	_M_last = _M_first + difference_type(_S_buffer_size());
	.loc 4 267 21 discriminator 1 view .LVU1156
	movs	r1, #128	@ SR.424,
	lsls	r1, r1, #2	@ SR.424, SR.424,
	mov	r8, r1	@ SR.424, SR.424
	add	r8, r8, r7	@ SR.424, SR.423
.LVL421:
	.loc 4 267 21 discriminator 1 view .LVU1157
.LBE1730:
.LBE1729:
@ C:/Users/andre/.platformio/packages/toolchain-rp2040-earlephilhower/arm-none-eabi/include/c++/14.2.0/bits/stl_deque.h:243: 				 * difference_type(_S_buffer_size()));
	.loc 4 243 6 discriminator 1 view .LVU1158
	lsls	r3, r3, #7	@ _402, iftmp.33_389,
.LVL422:
@ C:/Users/andre/.platformio/packages/toolchain-rp2040-earlephilhower/arm-none-eabi/include/c++/14.2.0/bits/stl_deque.h:242: 	    _M_cur = _M_first + (__offset - __node_offset
	.loc 4 242 36 view .LVU1159
	subs	r5, r5, r3	@ _403, _449, _402
.LVL423:
@ C:/Users/andre/.platformio/packages/toolchain-rp2040-earlephilhower/arm-none-eabi/include/c++/14.2.0/bits/stl_deque.h:242: 	    _M_cur = _M_first + (__offset - __node_offset
	.loc 4 242 24 view .LVU1160
	lsls	r5, r5, #2	@ _405, _403,
	adds	r5, r7, r5	@ SR.422, SR.423, _405
.LVL424:
.L153:
	.loc 4 242 24 view .LVU1161
.LBE1728:
.LBE1734:
.LBE1738:
.LBE1742:
.LBE1747:
.LBE1750:
.LBE1755:
.LBB1756:
.LBI1756:
	.loc 4 2106 7 is_stmt 1 view .LVU1162
.LBB1757:
.LBB1758:
.LBI1758:
	.loc 4 168 7 view .LVU1163
	.loc 4 168 7 is_stmt 0 view .LVU1164
.LBE1758:
.LBB1759:
.LBI1759:
	.loc 4 1170 7 is_stmt 1 view .LVU1165
.LBB1760:
.LBI1760:
	.loc 4 168 7 view .LVU1166
	.loc 4 168 7 is_stmt 0 view .LVU1167
.LBE1760:
.LBE1759:
@ C:/Users/andre/.platformio/packages/toolchain-rp2040-earlephilhower/arm-none-eabi/include/c++/14.2.0/bits/stl_deque.h:2109: 	_M_destroy_nodes(__pos._M_node + 1,
	.loc 4 2109 18 view .LVU1168
	adds	r2, r2, #4	@ _380,
	mov	r3, r9	@ SR.425, SR.425
	adds	r1, r3, #4	@ _379, SR.425,
	movs	r0, r4	@, this
	bl	_ZNSt11_Deque_baseIlSaIlEE16_M_destroy_nodesEPPlS3_		@
.LVL425:
@ C:/Users/andre/.platformio/packages/toolchain-rp2040-earlephilhower/arm-none-eabi/include/c++/14.2.0/bits/stl_deque.h:2111: 	this->_M_impl._M_finish = __pos;
	.loc 4 2111 2 view .LVU1169
	str	r5, [r4, #24]	@ SR.422, this_12(D)->D.37667._M_impl.D.37034._M_finish._M_cur
	str	r7, [r4, #28]	@ SR.423, this_12(D)->D.37667._M_impl.D.37034._M_finish._M_first
	mov	r3, r8	@ SR.424, SR.424
	str	r3, [r4, #32]	@ SR.424, this_12(D)->D.37667._M_impl.D.37034._M_finish._M_last
	mov	r3, r9	@ SR.425, SR.425
	str	r3, [r4, #36]	@ SR.425, this_12(D)->D.37667._M_impl.D.37034._M_finish._M_node
.LVL426:
	.loc 4 2111 2 view .LVU1170
	b	.L145		@
.LVL427:
.L151:
	.loc 4 2111 2 view .LVU1171
.LBE1757:
.LBE1756:
.LBB1761:
.LBB1751:
.LBB1748:
.LBB1743:
.LBB1739:
.LBB1735:
.LBB1731:
@ C:/Users/andre/.platformio/packages/toolchain-rp2040-earlephilhower/arm-none-eabi/include/c++/14.2.0/bits/stl_deque.h:239: 			   : -difference_type((-__offset - 1)
	.loc 4 239 37 view .LVU1172
	mvns	r3, r5	@ _391, _449
.LVL428:
@ C:/Users/andre/.platformio/packages/toolchain-rp2040-earlephilhower/arm-none-eabi/include/c++/14.2.0/bits/stl_deque.h:240: 					      / _S_buffer_size()) - 1;
	.loc 4 240 12 discriminator 1 view .LVU1173
	lsrs	r3, r3, #7	@ _392, _391,
@ C:/Users/andre/.platformio/packages/toolchain-rp2040-earlephilhower/arm-none-eabi/include/c++/14.2.0/bits/stl_deque.h:238: 	      __offset > 0 ? __offset / difference_type(_S_buffer_size())
	.loc 4 238 21 discriminator 2 view .LVU1174
	mvns	r3, r3	@ iftmp.33_389, _392
	b	.L154		@
.LVL429:
.L156:
	.loc 4 238 21 discriminator 2 view .LVU1175
.LBE1731:
.LBE1735:
.LBE1739:
.LBE1743:
.LBE1748:
.LBE1751:
.LBE1761:
.LBB1762:
.LBB1647:
.LBB1645:
.LBB1643:
.LBB1641:
.LBB1637:
@ C:/Users/andre/.platformio/packages/toolchain-rp2040-earlephilhower/arm-none-eabi/include/c++/14.2.0/bits/stl_deque.h:238: 	      __offset > 0 ? __offset / difference_type(_S_buffer_size())
	.loc 4 238 21 discriminator 1 view .LVU1176
	asrs	r0, r3, #31	@ tmp436, __offset,
.LVL430:
	.loc 4 238 21 discriminator 1 view .LVU1177
	movs	r2, #127	@ tmp437,
	ands	r2, r0	@ tmp438, tmp436
	adds	r2, r2, r3	@ tmp439, tmp438, __offset
	asrs	r2, r2, #7	@ iftmp.33_415, tmp439,
.L157:
.LVL431:
@ C:/Users/andre/.platformio/packages/toolchain-rp2040-earlephilhower/arm-none-eabi/include/c++/14.2.0/bits/stl_deque.h:241: 	    _M_set_node(_M_node + __node_offset);
	.loc 4 241 26 view .LVU1178
	lsls	r0, r2, #2	@ _424, iftmp.33_415,
@ C:/Users/andre/.platformio/packages/toolchain-rp2040-earlephilhower/arm-none-eabi/include/c++/14.2.0/bits/stl_deque.h:241: 	    _M_set_node(_M_node + __node_offset);
	.loc 4 241 17 view .LVU1179
	adds	r1, r1, r0	@ _425, _78, _424
.LVL432:
.LBB1638:
.LBI1638:
	.loc 4 263 7 is_stmt 1 view .LVU1180
.LBB1639:
@ C:/Users/andre/.platformio/packages/toolchain-rp2040-earlephilhower/arm-none-eabi/include/c++/14.2.0/bits/stl_deque.h:265: 	_M_node = __new_node;
	.loc 4 265 10 is_stmt 0 view .LVU1181
	str	r1, [r6, #12]	@ _425, MEM[(struct _Deque_iterator *)_35(D)]._M_node
@ C:/Users/andre/.platformio/packages/toolchain-rp2040-earlephilhower/arm-none-eabi/include/c++/14.2.0/bits/stl_deque.h:266: 	_M_first = *__new_node;
	.loc 4 266 11 view .LVU1182
	ldr	r1, [r1]	@ _426, *_425
.LVL433:
	.loc 4 266 11 view .LVU1183
	str	r1, [r6, #4]	@ _426, MEM[(struct _Deque_iterator *)_35(D)]._M_first
@ C:/Users/andre/.platformio/packages/toolchain-rp2040-earlephilhower/arm-none-eabi/include/c++/14.2.0/bits/stl_deque.h:267: 	_M_last = _M_first + difference_type(_S_buffer_size());
	.loc 4 267 21 discriminator 1 view .LVU1184
	movs	r0, #128	@ tmp581,
	lsls	r0, r0, #2	@ tmp581, tmp581,
	adds	r0, r1, r0	@ _427, _426, tmp581
@ C:/Users/andre/.platformio/packages/toolchain-rp2040-earlephilhower/arm-none-eabi/include/c++/14.2.0/bits/stl_deque.h:267: 	_M_last = _M_first + difference_type(_S_buffer_size());
	.loc 4 267 10 discriminator 1 view .LVU1185
	str	r0, [r6, #8]	@ _427, MEM[(struct _Deque_iterator *)_35(D)]._M_last
.LVL434:
	.loc 4 267 10 discriminator 1 view .LVU1186
.LBE1639:
.LBE1638:
@ C:/Users/andre/.platformio/packages/toolchain-rp2040-earlephilhower/arm-none-eabi/include/c++/14.2.0/bits/stl_deque.h:243: 				 * difference_type(_S_buffer_size()));
	.loc 4 243 6 discriminator 1 view .LVU1187
	lsls	r2, r2, #7	@ _428, iftmp.33_415,
.LVL435:
@ C:/Users/andre/.platformio/packages/toolchain-rp2040-earlephilhower/arm-none-eabi/include/c++/14.2.0/bits/stl_deque.h:242: 	    _M_cur = _M_first + (__offset - __node_offset
	.loc 4 242 36 view .LVU1188
	subs	r3, r3, r2	@ _429, __offset, _428
.LVL436:
@ C:/Users/andre/.platformio/packages/toolchain-rp2040-earlephilhower/arm-none-eabi/include/c++/14.2.0/bits/stl_deque.h:242: 	    _M_cur = _M_first + (__offset - __node_offset
	.loc 4 242 24 view .LVU1189
	lsls	r3, r3, #2	@ _431, _429,
	adds	r1, r1, r3	@ _432, _426, _431
@ C:/Users/andre/.platformio/packages/toolchain-rp2040-earlephilhower/arm-none-eabi/include/c++/14.2.0/bits/stl_deque.h:242: 	    _M_cur = _M_first + (__offset - __node_offset
	.loc 4 242 13 view .LVU1190
	str	r1, [r6]	@ _432, MEM[(struct _Deque_iterator *)_35(D)]._M_cur
.LVL437:
.L131:
	.loc 4 242 13 view .LVU1191
.LBE1637:
.LBE1641:
.LBE1643:
.LBE1645:
.LBE1647:
.LBE1762:
.LBE1779:
.LBE1784:
.LBE1509:
@ C:/Users/andre/.platformio/packages/toolchain-rp2040-earlephilhower/arm-none-eabi/include/c++/14.2.0/bits/deque.tcc:286:     }
	.loc 7 286 5 view .LVU1192
	movs	r0, r6	@, <retval>
	add	sp, sp, #276	@,,
	@ sp needed	@
.LVL438:
.LVL439:
	.loc 7 286 5 view .LVU1193
	pop	{r4, r5, r6, r7}
	mov	fp, r7
	mov	r10, r6
	mov	r9, r5
	mov	r8, r4
	pop	{r4, r5, r6, r7, pc}
.LVL440:
.L155:
.LBB1786:
.LBB1785:
.LBB1780:
.LBB1763:
.LBB1648:
.LBB1646:
.LBB1644:
.LBB1642:
.LBB1640:
@ C:/Users/andre/.platformio/packages/toolchain-rp2040-earlephilhower/arm-none-eabi/include/c++/14.2.0/bits/stl_deque.h:239: 			   : -difference_type((-__offset - 1)
	.loc 4 239 37 view .LVU1194
	mvns	r2, r3	@ _417, __offset
@ C:/Users/andre/.platformio/packages/toolchain-rp2040-earlephilhower/arm-none-eabi/include/c++/14.2.0/bits/stl_deque.h:240: 					      / _S_buffer_size()) - 1;
	.loc 4 240 12 discriminator 1 view .LVU1195
	lsrs	r2, r2, #7	@ _418, _417,
@ C:/Users/andre/.platformio/packages/toolchain-rp2040-earlephilhower/arm-none-eabi/include/c++/14.2.0/bits/stl_deque.h:238: 	      __offset > 0 ? __offset / difference_type(_S_buffer_size())
	.loc 4 238 21 discriminator 2 view .LVU1196
	mvns	r2, r2	@ iftmp.33_415, _418
	b	.L157		@
.LBE1640:
.LBE1642:
.LBE1644:
.LBE1646:
.LBE1648:
.LBE1763:
.LBE1780:
.LBE1785:
.LBE1786:
	.cfi_endproc
.LFE2278:
	.size	_ZNSt5dequeIlSaIlEE8_M_eraseESt15_Deque_iteratorIlRlPlES5_, .-_ZNSt5dequeIlSaIlEE8_M_eraseESt15_Deque_iteratorIlRlPlES5_
	.section	.text._ZN6filter9FIRFilter4readEPtj,"ax",%progbits
	.align	1
	.global	_ZN6filter9FIRFilter4readEPtj
	.syntax unified
	.code	16
	.thumb_func
	.type	_ZN6filter9FIRFilter4readEPtj, %function
_ZN6filter9FIRFilter4readEPtj:
.LVL441:
.LFB2075:
	.loc 1 138 58 is_stmt 1 view -0
	.cfi_startproc
	@ args = 0, pretend = 0, frame = 48
	@ frame_needed = 0, uses_anonymous_args = 0
	.loc 1 138 58 is_stmt 0 view .LVU1198
	push	{r4, r5, r6, r7, lr}	@
	.cfi_def_cfa_offset 20
	.cfi_offset 4, -20
	.cfi_offset 5, -16
	.cfi_offset 6, -12
	.cfi_offset 7, -8
	.cfi_offset 14, -4
	mov	lr, r9	@,
	mov	r7, r8	@,
	push	{r7, lr}	@
	.cfi_def_cfa_offset 28
	.cfi_offset 8, -28
	.cfi_offset 9, -24
	sub	sp, sp, #52	@,,
	.cfi_def_cfa_offset 80
	.loc 1 139 5 is_stmt 1 view .LVU1199
.LVL442:
.LBB1844:
.LBI1844:
	.loc 4 1268 7 view .LVU1200
.LBB1845:
.LBB1846:
.LBI1846:
	.loc 4 370 7 view .LVU1201
.LBB1847:
@ C:/Users/andre/.platformio/packages/toolchain-rp2040-earlephilhower/arm-none-eabi/include/c++/14.2.0/bits/stl_deque.h:373: 	  * (__x._M_node - __y._M_node - bool(__x._M_node))
	.loc 4 373 11 is_stmt 0 view .LVU1202
	ldr	r3, [r0, #56]	@ _53, MEM[(const struct _Self &)this_9(D) + 44]._M_node
.LVL443:
	.loc 4 373 11 view .LVU1203
.LBE1847:
.LBE1846:
.LBE1845:
.LBE1844:
.LBB1851:
.LBI1851:
	.loc 3 233 5 is_stmt 1 view .LVU1204
.LBE1851:
.LBB1853:
.LBB1850:
.LBB1849:
.LBB1848:
@ C:/Users/andre/.platformio/packages/toolchain-rp2040-earlephilhower/arm-none-eabi/include/c++/14.2.0/bits/stl_deque.h:373: 	  * (__x._M_node - __y._M_node - bool(__x._M_node))
	.loc 4 373 19 is_stmt 0 view .LVU1205
	ldr	r4, [r0, #40]	@ MEM[(const struct _Self &)this_9(D) + 28]._M_node, MEM[(const struct _Self &)this_9(D) + 28]._M_node
	subs	r4, r3, r4	@ _55, _53, MEM[(const struct _Self &)this_9(D) + 28]._M_node
	asrs	r4, r4, #2	@ _56, _55,
@ C:/Users/andre/.platformio/packages/toolchain-rp2040-earlephilhower/arm-none-eabi/include/c++/14.2.0/bits/stl_deque.h:373: 	  * (__x._M_node - __y._M_node - bool(__x._M_node))
	.loc 4 373 35 view .LVU1206
	subs	r5, r3, #1	@ tmp198, _53
	sbcs	r3, r3, r5	@ _57, _53, tmp198
@ C:/Users/andre/.platformio/packages/toolchain-rp2040-earlephilhower/arm-none-eabi/include/c++/14.2.0/bits/stl_deque.h:373: 	  * (__x._M_node - __y._M_node - bool(__x._M_node))
	.loc 4 373 33 view .LVU1207
	subs	r4, r4, r3	@ _59, _56, _57
@ C:/Users/andre/.platformio/packages/toolchain-rp2040-earlephilhower/arm-none-eabi/include/c++/14.2.0/bits/stl_deque.h:373: 	  * (__x._M_node - __y._M_node - bool(__x._M_node))
	.loc 4 373 4 view .LVU1208
	lsls	r4, r4, #7	@ _60, _59,
@ C:/Users/andre/.platformio/packages/toolchain-rp2040-earlephilhower/arm-none-eabi/include/c++/14.2.0/bits/stl_deque.h:374: 	  + (__x._M_cur - __x._M_first)
	.loc 4 374 18 view .LVU1209
	ldr	r3, [r0, #44]	@ MEM[(const struct _Self &)this_9(D) + 44]._M_cur, MEM[(const struct _Self &)this_9(D) + 44]._M_cur
	ldr	r5, [r0, #48]	@ MEM[(const struct _Self &)this_9(D) + 44]._M_first, MEM[(const struct _Self &)this_9(D) + 44]._M_first
	subs	r3, r3, r5	@ _63, MEM[(const struct _Self &)this_9(D) + 44]._M_cur, MEM[(const struct _Self &)this_9(D) + 44]._M_first
	asrs	r3, r3, #2	@ _64, _63,
@ C:/Users/andre/.platformio/packages/toolchain-rp2040-earlephilhower/arm-none-eabi/include/c++/14.2.0/bits/stl_deque.h:374: 	  + (__x._M_cur - __x._M_first)
	.loc 4 374 4 view .LVU1210
	adds	r4, r4, r3	@ _65, _60, _64
@ C:/Users/andre/.platformio/packages/toolchain-rp2040-earlephilhower/arm-none-eabi/include/c++/14.2.0/bits/stl_deque.h:375: 	  + (__y._M_last - __y._M_cur);
	.loc 4 375 19 view .LVU1211
	ldr	r3, [r0, #36]	@ MEM[(const struct _Self &)this_9(D) + 28]._M_last, MEM[(const struct _Self &)this_9(D) + 28]._M_last
	ldr	r5, [r0, #28]	@ MEM[(const struct _Self &)this_9(D) + 28]._M_cur, MEM[(const struct _Self &)this_9(D) + 28]._M_cur
	subs	r3, r3, r5	@ _68, MEM[(const struct _Self &)this_9(D) + 28]._M_last, MEM[(const struct _Self &)this_9(D) + 28]._M_cur
	asrs	r3, r3, #2	@ _69, _68,
@ C:/Users/andre/.platformio/packages/toolchain-rp2040-earlephilhower/arm-none-eabi/include/c++/14.2.0/bits/stl_deque.h:375: 	  + (__y._M_last - __y._M_cur);
	.loc 4 375 31 view .LVU1212
	adds	r4, r4, r3	@ <retval>, _65, _69
.LBE1848:
.LBE1849:
.LBE1850:
.LBE1853:
.LBB1854:
.LBB1852:
@ C:/Users/andre/.platformio/packages/toolchain-rp2040-earlephilhower/arm-none-eabi/include/c++/14.2.0/bits/stl_algobase.h:238:       if (__b < __a)
	.loc 3 238 7 view .LVU1213
	cmp	r4, r2	@ <retval>, max_length
	bls	.L163		@,
	movs	r4, r2	@ <retval>, max_length
.L163:
.LVL444:
	.loc 3 238 7 view .LVU1214
.LBE1852:
.LBE1854:
	.loc 1 140 5 is_stmt 1 view .LVU1215
	cmp	r4, #0	@ <retval>,
	beq	.L162		@,
.LBB1855:
@ lib/filter/src/filter.cpp:143:     for (size_t n = 0; n < output_size; n++) {
	.loc 1 143 17 is_stmt 0 view .LVU1216
	movs	r5, #0	@ n,
.LBB1856:
.LBB1857:
.LBB1858:
.LBB1859:
.LBB1860:
.LBB1861:
.LBB1862:
.LBB1863:
.LBB1864:
.LBB1865:
@ C:/Users/andre/.platformio/packages/toolchain-rp2040-earlephilhower/arm-none-eabi/include/c++/14.2.0/bits/stl_deque.h:238: 	      __offset > 0 ? __offset / difference_type(_S_buffer_size())
	.loc 4 238 21 discriminator 1 view .LVU1217
	movs	r3, #127	@ tmp272,
	mov	ip, r3	@ tmp272, tmp272
.LBE1865:
.LBE1864:
.LBE1863:
.LBE1862:
.LBE1861:
.LBE1860:
.LBE1859:
.LBE1858:
.LBE1857:
@ lib/filter/src/filter.cpp:147:         if (val > UINT16_MAX) 
	.loc 1 147 9 view .LVU1218
	movs	r3, #128	@ tmp235,
	lsls	r3, r3, #9	@ tmp235, tmp235,
	mov	r9, r3	@ tmp235, tmp235
	b	.L171		@
.LVL445:
.L166:
.LBB1886:
.LBB1884:
.LBB1882:
.LBB1880:
.LBB1878:
.LBB1874:
.LBB1872:
.LBB1870:
.LBB1868:
@ C:/Users/andre/.platformio/packages/toolchain-rp2040-earlephilhower/arm-none-eabi/include/c++/14.2.0/bits/stl_deque.h:238: 	      __offset > 0 ? __offset / difference_type(_S_buffer_size())
	.loc 4 238 21 discriminator 1 view .LVU1219
	asrs	r2, r3, #31	@ tmp220, __offset,
	mov	r6, ip	@ tmp272, tmp272
	ands	r2, r6	@ tmp222, tmp272
	adds	r2, r2, r3	@ tmp223, tmp222, __offset
	asrs	r2, r2, #7	@ iftmp.33_84, tmp223,
.L168:
.LVL446:
.LBB1866:
.LBI1866:
	.loc 4 263 7 is_stmt 1 view .LVU1220
.LBB1867:
@ C:/Users/andre/.platformio/packages/toolchain-rp2040-earlephilhower/arm-none-eabi/include/c++/14.2.0/bits/stl_deque.h:266: 	_M_first = *__new_node;
	.loc 4 266 11 is_stmt 0 view .LVU1221
	ldr	r7, [r0, #40]	@ MEM[(const struct _Deque_iterator &)this_9(D) + 28]._M_node, MEM[(const struct _Deque_iterator &)this_9(D) + 28]._M_node
	lsls	r6, r2, #2	@ tmp228, iftmp.33_84,
.LBE1867:
.LBE1866:
@ C:/Users/andre/.platformio/packages/toolchain-rp2040-earlephilhower/arm-none-eabi/include/c++/14.2.0/bits/stl_deque.h:243: 				 * difference_type(_S_buffer_size()));
	.loc 4 243 6 discriminator 1 view .LVU1222
	lsls	r2, r2, #7	@ _97, iftmp.33_84,
.LVL447:
@ C:/Users/andre/.platformio/packages/toolchain-rp2040-earlephilhower/arm-none-eabi/include/c++/14.2.0/bits/stl_deque.h:242: 	    _M_cur = _M_first + (__offset - __node_offset
	.loc 4 242 36 view .LVU1223
	subs	r3, r3, r2	@ _98, __offset, _97
.LVL448:
@ C:/Users/andre/.platformio/packages/toolchain-rp2040-earlephilhower/arm-none-eabi/include/c++/14.2.0/bits/stl_deque.h:242: 	    _M_cur = _M_first + (__offset - __node_offset
	.loc 4 242 24 view .LVU1224
	lsls	r3, r3, #2	@ _100, _98,
	ldr	r2, [r6, r7]	@ *_94, *_94
	adds	r2, r2, r3	@ SR.453, *_94, _100
.LVL449:
.L167:
	.loc 4 242 24 view .LVU1225
.LBE1868:
.LBE1870:
.LBE1872:
.LBE1874:
.LBE1878:
.LBE1880:
.LBE1882:
.LBE1884:
.LBE1886:
	.loc 1 145 9 is_stmt 1 view .LVU1226
	.loc 1 149 9 view .LVU1227
@ lib/filter/src/filter.cpp:149:         out[n] = val;
	.loc 1 149 16 is_stmt 0 view .LVU1228
	lsls	r7, r5, #1	@ _75, n,
@ lib/filter/src/filter.cpp:147:         if (val > UINT16_MAX) 
	.loc 1 147 9 view .LVU1229
	ldr	r3, [r2]	@ _12, MEM[(value_type &)SR.453_17]
	cmp	r3, r9	@ _12, tmp235
	blt	.L169		@,
	.loc 1 147 9 view .LVU1230
	ldr	r3, .L178	@ _12,
.L169:
@ lib/filter/src/filter.cpp:145:         if (val < 0)
	.loc 1 145 9 view .LVU1231
	mvns	r2, r3	@ tmp271, _12
.LVL450:
	.loc 1 145 9 view .LVU1232
	asrs	r2, r2, #31	@ tmp270, tmp271,
	ands	r3, r2	@ _12, tmp270
@ lib/filter/src/filter.cpp:149:         out[n] = val;
	.loc 1 149 16 view .LVU1233
	strh	r3, [r1, r7]	@ _12, MEM[(uint16_t *)out_21(D) + _75 * 1]
	.loc 1 149 16 view .LVU1234
.LBE1856:
	.loc 1 143 5 is_stmt 1 discriminator 2 view .LVU1235
	adds	r5, r5, #1	@ n,
.LVL451:
	.loc 1 143 26 discriminator 1 view .LVU1236
	cmp	r4, r5	@ <retval>, n
	beq	.L177		@,
.LVL452:
.L171:
.LBB1888:
	.loc 1 144 9 view .LVU1237
.LBB1887:
.LBI1857:
	.loc 4 1364 7 view .LVU1238
.LBB1885:
.LBB1883:
.LBI1859:
	.loc 4 254 7 view .LVU1239
.LBB1881:
.LBI1860:
	.loc 4 397 7 view .LVU1240
.LBB1879:
.LBB1875:
.LBI1875:
	.loc 4 168 7 view .LVU1241
.LBB1876:
@ C:/Users/andre/.platformio/packages/toolchain-rp2040-earlephilhower/arm-none-eabi/include/c++/14.2.0/bits/stl_deque.h:169:        : _M_cur(__x._M_cur), _M_first(__x._M_first),
	.loc 4 169 21 is_stmt 0 view .LVU1242
	ldr	r2, [r0, #28]	@ _71, MEM[(const struct _Deque_iterator &)this_9(D) + 28]._M_cur
.LVL453:
	.loc 4 169 21 view .LVU1243
.LBE1876:
.LBE1875:
.LBB1877:
.LBI1862:
	.loc 4 230 7 is_stmt 1 view .LVU1244
.LBB1873:
@ C:/Users/andre/.platformio/packages/toolchain-rp2040-earlephilhower/arm-none-eabi/include/c++/14.2.0/bits/stl_deque.h:232: 	const difference_type __offset = __n + (_M_cur - _M_first);
	.loc 4 232 49 is_stmt 0 view .LVU1245
	ldr	r3, [r0, #32]	@ MEM[(const struct _Deque_iterator &)this_9(D) + 28]._M_first, MEM[(const struct _Deque_iterator &)this_9(D) + 28]._M_first
	subs	r3, r2, r3	@ _78, _71, MEM[(const struct _Deque_iterator &)this_9(D) + 28]._M_first
	asrs	r3, r3, #2	@ _79, _78,
.LVL454:
.LBB1871:
@ C:/Users/andre/.platformio/packages/toolchain-rp2040-earlephilhower/arm-none-eabi/include/c++/14.2.0/bits/stl_deque.h:233: 	if (__offset >= 0 && __offset < difference_type(_S_buffer_size()))
	.loc 4 233 20 view .LVU1246
	adds	r3, r3, r5	@ __offset, _79, n
	bmi	.L165		@,
.LVL455:
@ C:/Users/andre/.platformio/packages/toolchain-rp2040-earlephilhower/arm-none-eabi/include/c++/14.2.0/bits/stl_deque.h:233: 	if (__offset >= 0 && __offset < difference_type(_S_buffer_size()))
	.loc 4 233 20 discriminator 1 view .LVU1247
	cmp	r3, #127	@ __offset,
	bgt	.L166		@,
@ C:/Users/andre/.platformio/packages/toolchain-rp2040-earlephilhower/arm-none-eabi/include/c++/14.2.0/bits/stl_deque.h:234: 	  _M_cur += __n;
	.loc 4 234 11 view .LVU1248
	lsls	r3, r5, #2	@ _45, n,
.LVL456:
	.loc 4 234 11 view .LVU1249
	adds	r2, r2, r3	@ SR.453, _71, _45
.LVL457:
	.loc 4 234 11 view .LVU1250
	b	.L167		@
.LVL458:
.L165:
.LBB1869:
@ C:/Users/andre/.platformio/packages/toolchain-rp2040-earlephilhower/arm-none-eabi/include/c++/14.2.0/bits/stl_deque.h:239: 			   : -difference_type((-__offset - 1)
	.loc 4 239 37 view .LVU1251
	mvns	r2, r3	@ _86, __offset
@ C:/Users/andre/.platformio/packages/toolchain-rp2040-earlephilhower/arm-none-eabi/include/c++/14.2.0/bits/stl_deque.h:240: 					      / _S_buffer_size()) - 1;
	.loc 4 240 12 discriminator 1 view .LVU1252
	lsrs	r2, r2, #7	@ _87, _86,
@ C:/Users/andre/.platformio/packages/toolchain-rp2040-earlephilhower/arm-none-eabi/include/c++/14.2.0/bits/stl_deque.h:238: 	      __offset > 0 ? __offset / difference_type(_S_buffer_size())
	.loc 4 238 21 discriminator 2 view .LVU1253
	mvns	r2, r2	@ iftmp.33_84, _87
	b	.L168		@
.LVL459:
.L177:
	.loc 4 238 21 discriminator 2 view .LVU1254
.LBE1869:
.LBE1871:
.LBE1873:
.LBE1877:
.LBE1879:
.LBE1881:
.LBE1883:
.LBE1885:
.LBE1887:
.LBE1888:
.LBE1855:
	.loc 1 152 5 is_stmt 1 view .LVU1255
@ lib/filter/src/filter.cpp:152:     m_values.erase(m_values.begin(), m_values.begin() + output_size);
	.loc 1 152 19 is_stmt 0 view .LVU1256
	movs	r1, r0	@ _4, this
.LVL460:
	.loc 1 152 19 view .LVU1257
	adds	r1, r1, #20	@ _4,
.LVL461:
.LBB1889:
.LBI1889:
	.loc 4 1151 7 is_stmt 1 view .LVU1258
.LBB1890:
.LBI1890:
	.loc 4 168 7 view .LVU1259
.LBB1891:
@ C:/Users/andre/.platformio/packages/toolchain-rp2040-earlephilhower/arm-none-eabi/include/c++/14.2.0/bits/stl_deque.h:169:        : _M_cur(__x._M_cur), _M_first(__x._M_first),
	.loc 4 169 21 is_stmt 0 view .LVU1260
	ldr	r6, [r0, #28]	@ _34, MEM[(const struct _Deque_iterator &)this_9(D) + 28]._M_cur
@ C:/Users/andre/.platformio/packages/toolchain-rp2040-earlephilhower/arm-none-eabi/include/c++/14.2.0/bits/stl_deque.h:170: 	 _M_last(__x._M_last), _M_node(__x._M_node) { }
	.loc 4 170 37 view .LVU1261
	ldr	r5, [r0, #40]	@ _37, MEM[(const struct _Deque_iterator &)this_9(D) + 28]._M_node
.LVL462:
	.loc 4 170 37 view .LVU1262
.LBE1891:
.LBE1890:
.LBE1889:
.LBB1892:
.LBI1892:
	.loc 4 164 8 is_stmt 1 view .LVU1263
	.loc 4 164 8 is_stmt 0 view .LVU1264
.LBE1892:
.LBB1893:
.LBI1893:
	.loc 4 1151 7 is_stmt 1 view .LVU1265
.LBB1894:
.LBI1894:
	.loc 4 168 7 view .LVU1266
	.loc 4 168 7 is_stmt 0 view .LVU1267
.LBE1894:
.LBE1893:
.LBB1895:
.LBI1895:
	.loc 4 397 7 is_stmt 1 view .LVU1268
.LBB1896:
.LBB1897:
.LBI1897:
	.loc 4 168 7 view .LVU1269
	.loc 4 168 7 is_stmt 0 view .LVU1270
.LBE1897:
.LBB1899:
.LBI1899:
	.loc 4 230 7 is_stmt 1 view .LVU1271
.LBB1900:
@ C:/Users/andre/.platformio/packages/toolchain-rp2040-earlephilhower/arm-none-eabi/include/c++/14.2.0/bits/stl_deque.h:232: 	const difference_type __offset = __n + (_M_cur - _M_first);
	.loc 4 232 49 is_stmt 0 view .LVU1272
	ldr	r3, [r0, #32]	@ MEM[(const struct _Deque_iterator &)this_9(D) + 28]._M_first, MEM[(const struct _Deque_iterator &)this_9(D) + 28]._M_first
	subs	r3, r6, r3	@ _113, _34, MEM[(const struct _Deque_iterator &)this_9(D) + 28]._M_first
	asrs	r3, r3, #2	@ _114, _113,
.LVL463:
.LBB1901:
@ C:/Users/andre/.platformio/packages/toolchain-rp2040-earlephilhower/arm-none-eabi/include/c++/14.2.0/bits/stl_deque.h:233: 	if (__offset >= 0 && __offset < difference_type(_S_buffer_size()))
	.loc 4 233 20 view .LVU1273
	adds	r3, r3, r4	@ __offset, _114, <retval>
	bmi	.L172		@,
.LVL464:
@ C:/Users/andre/.platformio/packages/toolchain-rp2040-earlephilhower/arm-none-eabi/include/c++/14.2.0/bits/stl_deque.h:233: 	if (__offset >= 0 && __offset < difference_type(_S_buffer_size()))
	.loc 4 233 20 discriminator 1 view .LVU1274
	cmp	r3, #127	@ __offset,
	bgt	.L173		@,
@ C:/Users/andre/.platformio/packages/toolchain-rp2040-earlephilhower/arm-none-eabi/include/c++/14.2.0/bits/stl_deque.h:234: 	  _M_cur += __n;
	.loc 4 234 11 view .LVU1275
	lsls	r7, r4, #2	@ _117, <retval>,
	adds	r7, r6, r7	@ SR.451, _34, _117
.LBE1901:
.LBE1900:
.LBE1899:
.LBB1909:
.LBB1898:
@ C:/Users/andre/.platformio/packages/toolchain-rp2040-earlephilhower/arm-none-eabi/include/c++/14.2.0/bits/stl_deque.h:170: 	 _M_last(__x._M_last), _M_node(__x._M_node) { }
	.loc 4 170 25 view .LVU1276
	movs	r0, r5	@ SR.452, _37
.LVL465:
	.loc 4 170 25 view .LVU1277
.LBE1898:
.LBE1909:
.LBB1910:
.LBB1907:
.LBB1905:
	b	.L174		@
.LVL466:
.L173:
.LBB1902:
@ C:/Users/andre/.platformio/packages/toolchain-rp2040-earlephilhower/arm-none-eabi/include/c++/14.2.0/bits/stl_deque.h:238: 	      __offset > 0 ? __offset / difference_type(_S_buffer_size())
	.loc 4 238 21 discriminator 1 view .LVU1278
	asrs	r0, r3, #31	@ tmp244, __offset,
.LVL467:
	.loc 4 238 21 discriminator 1 view .LVU1279
	movs	r2, #127	@ tmp245,
	ands	r2, r0	@ tmp246, tmp244
	adds	r2, r2, r3	@ tmp247, tmp246, __offset
	asrs	r2, r2, #7	@ iftmp.33_119, tmp247,
.L175:
.LVL468:
@ C:/Users/andre/.platformio/packages/toolchain-rp2040-earlephilhower/arm-none-eabi/include/c++/14.2.0/bits/stl_deque.h:241: 	    _M_set_node(_M_node + __node_offset);
	.loc 4 241 26 view .LVU1280
	lsls	r0, r2, #2	@ _128, iftmp.33_119,
@ C:/Users/andre/.platformio/packages/toolchain-rp2040-earlephilhower/arm-none-eabi/include/c++/14.2.0/bits/stl_deque.h:241: 	    _M_set_node(_M_node + __node_offset);
	.loc 4 241 17 view .LVU1281
	adds	r0, r5, r0	@ SR.452, _37, _128
.LVL469:
.LBB1903:
.LBI1903:
	.loc 4 263 7 is_stmt 1 view .LVU1282
	.loc 4 263 7 is_stmt 0 view .LVU1283
.LBE1903:
@ C:/Users/andre/.platformio/packages/toolchain-rp2040-earlephilhower/arm-none-eabi/include/c++/14.2.0/bits/stl_deque.h:243: 				 * difference_type(_S_buffer_size()));
	.loc 4 243 6 discriminator 1 view .LVU1284
	lsls	r2, r2, #7	@ _132, iftmp.33_119,
.LVL470:
@ C:/Users/andre/.platformio/packages/toolchain-rp2040-earlephilhower/arm-none-eabi/include/c++/14.2.0/bits/stl_deque.h:242: 	    _M_cur = _M_first + (__offset - __node_offset
	.loc 4 242 36 view .LVU1285
	subs	r3, r3, r2	@ _133, __offset, _132
.LVL471:
@ C:/Users/andre/.platformio/packages/toolchain-rp2040-earlephilhower/arm-none-eabi/include/c++/14.2.0/bits/stl_deque.h:242: 	    _M_cur = _M_first + (__offset - __node_offset
	.loc 4 242 24 view .LVU1286
	lsls	r3, r3, #2	@ _135, _133,
	ldr	r7, [r0]	@ *_129, *_129
	adds	r7, r7, r3	@ SR.451, *_129, _135
.LVL472:
.L174:
	.loc 4 242 24 view .LVU1287
.LBE1902:
.LBE1905:
.LBE1907:
.LBE1910:
.LBE1896:
.LBE1895:
.LBB1913:
.LBI1913:
	.loc 4 164 8 is_stmt 1 view .LVU1288
	.loc 4 164 8 is_stmt 0 view .LVU1289
.LBE1913:
.LBB1914:
.LBI1914:
	.loc 4 1799 7 is_stmt 1 view .LVU1290
.LBB1915:
.LBB1916:
.LBI1916:
	.loc 4 176 7 view .LVU1291
.LBB1917:
.LBI1917:
	.loc 4 147 7 view .LVU1292
.LBB1918:
@ C:/Users/andre/.platformio/packages/toolchain-rp2040-earlephilhower/arm-none-eabi/include/c++/14.2.0/bits/stl_deque.h:148:       : _M_cur(__x), _M_first(*__y),
	.loc 4 148 9 is_stmt 0 view .LVU1293
	add	r2, sp, #32	@ tmp256,,
.LVL473:
	.loc 4 148 9 view .LVU1294
	str	r6, [sp, #32]	@ _34, MEM[(struct _Deque_iterator *)&D.46649]._M_cur
@ C:/Users/andre/.platformio/packages/toolchain-rp2040-earlephilhower/arm-none-eabi/include/c++/14.2.0/bits/stl_deque.h:148:       : _M_cur(__x), _M_first(*__y),
	.loc 4 148 22 view .LVU1295
	ldr	r3, [r5]	@ _105, *_37
	str	r3, [r2, #4]	@ _105, MEM[(struct _Deque_iterator *)&D.46649]._M_first
.LBB1919:
.LBI1919:
	.loc 4 131 21 is_stmt 1 view .LVU1296
.LBE1919:
@ C:/Users/andre/.platformio/packages/toolchain-rp2040-earlephilhower/arm-none-eabi/include/c++/14.2.0/bits/stl_deque.h:149: 	_M_last(*__y + _S_buffer_size()), _M_node(__y) { }
	.loc 4 149 15 is_stmt 0 discriminator 1 view .LVU1297
	movs	r6, #128	@ tmp285,
.LVL474:
	.loc 4 149 15 discriminator 1 view .LVU1298
	lsls	r6, r6, #2	@ tmp285, tmp285,
	mov	ip, r6	@ tmp285, tmp285
	add	r3, r3, ip	@ _106, tmp285
@ C:/Users/andre/.platformio/packages/toolchain-rp2040-earlephilhower/arm-none-eabi/include/c++/14.2.0/bits/stl_deque.h:149: 	_M_last(*__y + _S_buffer_size()), _M_node(__y) { }
	.loc 4 149 2 discriminator 1 view .LVU1299
	str	r3, [r2, #8]	@ _106, MEM[(struct _Deque_iterator *)&D.46649]._M_last
@ C:/Users/andre/.platformio/packages/toolchain-rp2040-earlephilhower/arm-none-eabi/include/c++/14.2.0/bits/stl_deque.h:149: 	_M_last(*__y + _S_buffer_size()), _M_node(__y) { }
	.loc 4 149 36 discriminator 1 view .LVU1300
	str	r5, [r2, #12]	@ _37, MEM[(struct _Deque_iterator *)&D.46649]._M_node
.LVL475:
	.loc 4 149 36 discriminator 1 view .LVU1301
.LBE1918:
.LBE1917:
.LBE1916:
.LBB1920:
.LBI1920:
	.loc 4 176 7 is_stmt 1 view .LVU1302
.LBB1921:
.LBI1921:
	.loc 4 147 7 view .LVU1303
.LBB1922:
@ C:/Users/andre/.platformio/packages/toolchain-rp2040-earlephilhower/arm-none-eabi/include/c++/14.2.0/bits/stl_deque.h:148:       : _M_cur(__x), _M_first(*__y),
	.loc 4 148 9 is_stmt 0 view .LVU1304
	add	r3, sp, #16	@ tmp261,,
.LVL476:
	.loc 4 148 9 view .LVU1305
	str	r7, [sp, #16]	@ SR.451, MEM[(struct _Deque_iterator *)&D.46648]._M_cur
@ C:/Users/andre/.platformio/packages/toolchain-rp2040-earlephilhower/arm-none-eabi/include/c++/14.2.0/bits/stl_deque.h:148:       : _M_cur(__x), _M_first(*__y),
	.loc 4 148 22 view .LVU1306
	ldr	r5, [r0]	@ _109, *SR.452_6
	str	r5, [r3, #4]	@ _109, MEM[(struct _Deque_iterator *)&D.46648]._M_first
.LBB1923:
.LBI1923:
	.loc 4 131 21 is_stmt 1 view .LVU1307
.LBE1923:
@ C:/Users/andre/.platformio/packages/toolchain-rp2040-earlephilhower/arm-none-eabi/include/c++/14.2.0/bits/stl_deque.h:149: 	_M_last(*__y + _S_buffer_size()), _M_node(__y) { }
	.loc 4 149 15 is_stmt 0 discriminator 1 view .LVU1308
	add	r5, r5, ip	@ _110, tmp287
@ C:/Users/andre/.platformio/packages/toolchain-rp2040-earlephilhower/arm-none-eabi/include/c++/14.2.0/bits/stl_deque.h:149: 	_M_last(*__y + _S_buffer_size()), _M_node(__y) { }
	.loc 4 149 2 discriminator 1 view .LVU1309
	str	r5, [r3, #8]	@ _110, MEM[(struct _Deque_iterator *)&D.46648]._M_last
@ C:/Users/andre/.platformio/packages/toolchain-rp2040-earlephilhower/arm-none-eabi/include/c++/14.2.0/bits/stl_deque.h:149: 	_M_last(*__y + _S_buffer_size()), _M_node(__y) { }
	.loc 4 149 36 discriminator 1 view .LVU1310
	str	r0, [r3, #12]	@ SR.452, MEM[(struct _Deque_iterator *)&D.46648]._M_node
.LVL477:
	.loc 4 149 36 discriminator 1 view .LVU1311
.LBE1922:
.LBE1921:
.LBE1920:
@ C:/Users/andre/.platformio/packages/toolchain-rp2040-earlephilhower/arm-none-eabi/include/c++/14.2.0/bits/stl_deque.h:1803:       { return _M_erase(__first._M_const_cast(), __last._M_const_cast()); }
	.loc 4 1803 72 discriminator 2 view .LVU1312
	mov	r0, sp	@,
	bl	_ZNSt5dequeIlSaIlEE8_M_eraseESt15_Deque_iteratorIlRlPlES5_		@
.LVL478:
	.loc 4 1803 72 discriminator 2 view .LVU1313
.LBE1915:
.LBE1914:
	.loc 1 154 5 is_stmt 1 view .LVU1314
.L162:
@ lib/filter/src/filter.cpp:155: }
	.loc 1 155 1 is_stmt 0 view .LVU1315
	movs	r0, r4	@, <retval>
	add	sp, sp, #52	@,,
	@ sp needed	@
	pop	{r6, r7}
	mov	r9, r7
	mov	r8, r6
	pop	{r4, r5, r6, r7, pc}
.LVL479:
.L172:
.LBB1924:
.LBB1912:
.LBB1911:
.LBB1908:
.LBB1906:
.LBB1904:
@ C:/Users/andre/.platformio/packages/toolchain-rp2040-earlephilhower/arm-none-eabi/include/c++/14.2.0/bits/stl_deque.h:239: 			   : -difference_type((-__offset - 1)
	.loc 4 239 37 view .LVU1316
	mvns	r2, r3	@ _121, __offset
@ C:/Users/andre/.platformio/packages/toolchain-rp2040-earlephilhower/arm-none-eabi/include/c++/14.2.0/bits/stl_deque.h:240: 					      / _S_buffer_size()) - 1;
	.loc 4 240 12 discriminator 1 view .LVU1317
	lsrs	r2, r2, #7	@ _122, _121,
@ C:/Users/andre/.platformio/packages/toolchain-rp2040-earlephilhower/arm-none-eabi/include/c++/14.2.0/bits/stl_deque.h:238: 	      __offset > 0 ? __offset / difference_type(_S_buffer_size())
	.loc 4 238 21 discriminator 2 view .LVU1318
	mvns	r2, r2	@ iftmp.33_119, _122
	b	.L175		@
.L179:
	.align	2
.L178:
	.word	65535
.LBE1904:
.LBE1906:
.LBE1908:
.LBE1911:
.LBE1912:
.LBE1924:
	.cfi_endproc
.LFE2075:
	.size	_ZN6filter9FIRFilter4readEPtj, .-_ZN6filter9FIRFilter4readEPtj
	.section	.text._ZN6filter9FIRFilter4readEPlj,"ax",%progbits
	.align	1
	.global	_ZN6filter9FIRFilter4readEPlj
	.syntax unified
	.code	16
	.thumb_func
	.type	_ZN6filter9FIRFilter4readEPlj, %function
_ZN6filter9FIRFilter4readEPlj:
.LVL480:
.LFB2074:
	.loc 1 124 57 is_stmt 1 view -0
	.cfi_startproc
	@ args = 0, pretend = 0, frame = 48
	@ frame_needed = 0, uses_anonymous_args = 0
	.loc 1 124 57 is_stmt 0 view .LVU1320
	push	{r4, r5, r6, r7, lr}	@
	.cfi_def_cfa_offset 20
	.cfi_offset 4, -20
	.cfi_offset 5, -16
	.cfi_offset 6, -12
	.cfi_offset 7, -8
	.cfi_offset 14, -4
	mov	lr, r9	@,
	mov	r7, r8	@,
	push	{r7, lr}	@
	.cfi_def_cfa_offset 28
	.cfi_offset 8, -28
	.cfi_offset 9, -24
	sub	sp, sp, #52	@,,
	.cfi_def_cfa_offset 80
	mov	r9, r1	@ out, tmp263
	.loc 1 125 5 is_stmt 1 view .LVU1321
.LVL481:
.LBB1981:
.LBI1981:
	.loc 4 1268 7 view .LVU1322
.LBB1982:
.LBB1983:
.LBI1983:
	.loc 4 370 7 view .LVU1323
.LBB1984:
@ C:/Users/andre/.platformio/packages/toolchain-rp2040-earlephilhower/arm-none-eabi/include/c++/14.2.0/bits/stl_deque.h:373: 	  * (__x._M_node - __y._M_node - bool(__x._M_node))
	.loc 4 373 11 is_stmt 0 view .LVU1324
	ldr	r3, [r0, #56]	@ _50, MEM[(const struct _Self &)this_9(D) + 44]._M_node
.LVL482:
	.loc 4 373 11 view .LVU1325
.LBE1984:
.LBE1983:
.LBE1982:
.LBE1981:
.LBB1988:
.LBI1988:
	.loc 3 233 5 is_stmt 1 view .LVU1326
.LBE1988:
.LBB1990:
.LBB1987:
.LBB1986:
.LBB1985:
@ C:/Users/andre/.platformio/packages/toolchain-rp2040-earlephilhower/arm-none-eabi/include/c++/14.2.0/bits/stl_deque.h:373: 	  * (__x._M_node - __y._M_node - bool(__x._M_node))
	.loc 4 373 19 is_stmt 0 view .LVU1327
	ldr	r4, [r0, #40]	@ MEM[(const struct _Self &)this_9(D) + 28]._M_node, MEM[(const struct _Self &)this_9(D) + 28]._M_node
	subs	r4, r3, r4	@ _52, _50, MEM[(const struct _Self &)this_9(D) + 28]._M_node
	asrs	r4, r4, #2	@ _53, _52,
@ C:/Users/andre/.platformio/packages/toolchain-rp2040-earlephilhower/arm-none-eabi/include/c++/14.2.0/bits/stl_deque.h:373: 	  * (__x._M_node - __y._M_node - bool(__x._M_node))
	.loc 4 373 35 view .LVU1328
	subs	r5, r3, #1	@ tmp194, _50
	sbcs	r3, r3, r5	@ _54, _50, tmp194
@ C:/Users/andre/.platformio/packages/toolchain-rp2040-earlephilhower/arm-none-eabi/include/c++/14.2.0/bits/stl_deque.h:373: 	  * (__x._M_node - __y._M_node - bool(__x._M_node))
	.loc 4 373 33 view .LVU1329
	subs	r4, r4, r3	@ _56, _53, _54
@ C:/Users/andre/.platformio/packages/toolchain-rp2040-earlephilhower/arm-none-eabi/include/c++/14.2.0/bits/stl_deque.h:373: 	  * (__x._M_node - __y._M_node - bool(__x._M_node))
	.loc 4 373 4 view .LVU1330
	lsls	r4, r4, #7	@ _57, _56,
@ C:/Users/andre/.platformio/packages/toolchain-rp2040-earlephilhower/arm-none-eabi/include/c++/14.2.0/bits/stl_deque.h:374: 	  + (__x._M_cur - __x._M_first)
	.loc 4 374 18 view .LVU1331
	ldr	r3, [r0, #44]	@ MEM[(const struct _Self &)this_9(D) + 44]._M_cur, MEM[(const struct _Self &)this_9(D) + 44]._M_cur
	ldr	r5, [r0, #48]	@ MEM[(const struct _Self &)this_9(D) + 44]._M_first, MEM[(const struct _Self &)this_9(D) + 44]._M_first
	subs	r3, r3, r5	@ _60, MEM[(const struct _Self &)this_9(D) + 44]._M_cur, MEM[(const struct _Self &)this_9(D) + 44]._M_first
	asrs	r3, r3, #2	@ _61, _60,
@ C:/Users/andre/.platformio/packages/toolchain-rp2040-earlephilhower/arm-none-eabi/include/c++/14.2.0/bits/stl_deque.h:374: 	  + (__x._M_cur - __x._M_first)
	.loc 4 374 4 view .LVU1332
	adds	r4, r4, r3	@ _62, _57, _61
@ C:/Users/andre/.platformio/packages/toolchain-rp2040-earlephilhower/arm-none-eabi/include/c++/14.2.0/bits/stl_deque.h:375: 	  + (__y._M_last - __y._M_cur);
	.loc 4 375 19 view .LVU1333
	ldr	r3, [r0, #36]	@ MEM[(const struct _Self &)this_9(D) + 28]._M_last, MEM[(const struct _Self &)this_9(D) + 28]._M_last
	ldr	r5, [r0, #28]	@ MEM[(const struct _Self &)this_9(D) + 28]._M_cur, MEM[(const struct _Self &)this_9(D) + 28]._M_cur
	subs	r3, r3, r5	@ _65, MEM[(const struct _Self &)this_9(D) + 28]._M_last, MEM[(const struct _Self &)this_9(D) + 28]._M_cur
	asrs	r3, r3, #2	@ _66, _65,
@ C:/Users/andre/.platformio/packages/toolchain-rp2040-earlephilhower/arm-none-eabi/include/c++/14.2.0/bits/stl_deque.h:375: 	  + (__y._M_last - __y._M_cur);
	.loc 4 375 31 view .LVU1334
	adds	r4, r4, r3	@ <retval>, _62, _66
.LBE1985:
.LBE1986:
.LBE1987:
.LBE1990:
.LBB1991:
.LBB1989:
@ C:/Users/andre/.platformio/packages/toolchain-rp2040-earlephilhower/arm-none-eabi/include/c++/14.2.0/bits/stl_algobase.h:238:       if (__b < __a)
	.loc 3 238 7 view .LVU1335
	cmp	r4, r2	@ <retval>, max_length
	bls	.L181		@,
	movs	r4, r2	@ <retval>, max_length
.L181:
.LVL483:
	.loc 3 238 7 view .LVU1336
.LBE1989:
.LBE1991:
	.loc 1 126 5 is_stmt 1 view .LVU1337
	cmp	r4, #0	@ <retval>,
	beq	.L180		@,
	movs	r6, #0	@ ivtmp.467,
.LBB1992:
@ lib/filter/src/filter.cpp:129:     for (size_t n = 0; n < output_size; n++)
	.loc 1 129 17 is_stmt 0 view .LVU1338
	movs	r5, #0	@ n,
.LBB1993:
.LBB1994:
.LBB1995:
.LBB1996:
.LBB1997:
.LBB1998:
.LBB1999:
.LBB2000:
.LBB2001:
@ C:/Users/andre/.platformio/packages/toolchain-rp2040-earlephilhower/arm-none-eabi/include/c++/14.2.0/bits/stl_deque.h:238: 	      __offset > 0 ? __offset / difference_type(_S_buffer_size())
	.loc 4 238 21 discriminator 1 view .LVU1339
	movs	r3, #127	@ tmp261,
	mov	ip, r3	@ tmp261, tmp261
	b	.L187		@
.LVL484:
.L194:
	.loc 4 238 21 discriminator 1 view .LVU1340
	asrs	r2, r3, #31	@ tmp215, __offset,
	mov	r1, ip	@ tmp261, tmp261
	ands	r2, r1	@ tmp217, tmp261
	adds	r2, r2, r3	@ tmp218, tmp217, __offset
	asrs	r2, r2, #7	@ iftmp.33_81, tmp218,
.L186:
.LVL485:
.LBB2002:
.LBI2002:
	.loc 4 263 7 is_stmt 1 view .LVU1341
.LBB2003:
@ C:/Users/andre/.platformio/packages/toolchain-rp2040-earlephilhower/arm-none-eabi/include/c++/14.2.0/bits/stl_deque.h:266: 	_M_first = *__new_node;
	.loc 4 266 11 is_stmt 0 view .LVU1342
	ldr	r7, [r0, #40]	@ MEM[(const struct _Deque_iterator &)this_9(D) + 28]._M_node, MEM[(const struct _Deque_iterator &)this_9(D) + 28]._M_node
	lsls	r1, r2, #2	@ tmp223, iftmp.33_81,
.LBE2003:
.LBE2002:
@ C:/Users/andre/.platformio/packages/toolchain-rp2040-earlephilhower/arm-none-eabi/include/c++/14.2.0/bits/stl_deque.h:243: 				 * difference_type(_S_buffer_size()));
	.loc 4 243 6 discriminator 1 view .LVU1343
	lsls	r2, r2, #7	@ _94, iftmp.33_81,
.LVL486:
@ C:/Users/andre/.platformio/packages/toolchain-rp2040-earlephilhower/arm-none-eabi/include/c++/14.2.0/bits/stl_deque.h:242: 	    _M_cur = _M_first + (__offset - __node_offset
	.loc 4 242 36 view .LVU1344
	subs	r3, r3, r2	@ _95, __offset, _94
.LVL487:
@ C:/Users/andre/.platformio/packages/toolchain-rp2040-earlephilhower/arm-none-eabi/include/c++/14.2.0/bits/stl_deque.h:242: 	    _M_cur = _M_first + (__offset - __node_offset
	.loc 4 242 24 view .LVU1345
	lsls	r3, r3, #2	@ _97, _95,
	ldr	r2, [r1, r7]	@ *_91, *_91
	adds	r2, r2, r3	@ SR.463, *_91, _97
.LVL488:
.L185:
	.loc 4 242 24 view .LVU1346
.LBE2001:
.LBE2000:
.LBE1999:
.LBE1998:
.LBE1997:
.LBE1996:
.LBE1995:
.LBE1994:
.LBE1993:
@ lib/filter/src/filter.cpp:130:         out[n] = m_values[n];
	.loc 1 130 16 discriminator 1 view .LVU1347
	ldr	r3, [r2]	@ _3, MEM[(value_type &)SR.463_15]
	mov	r2, r9	@ out, out
	str	r3, [r2, r6]	@ _3, MEM[(int32_t *)out_18(D) + ivtmp.467_72 * 1]
	.loc 1 129 5 is_stmt 1 discriminator 3 view .LVU1348
	adds	r5, r5, #1	@ n,
.LVL489:
	.loc 1 129 26 discriminator 1 view .LVU1349
	adds	r6, r6, #4	@ ivtmp.467,
	cmp	r4, r5	@ <retval>, n
	beq	.L193		@,
.LVL490:
.L187:
	.loc 1 130 9 view .LVU1350
.LBB2014:
.LBI1993:
	.loc 4 1364 7 view .LVU1351
.LBB2013:
.LBB2012:
.LBI1995:
	.loc 4 254 7 view .LVU1352
.LBB2011:
.LBI1996:
	.loc 4 397 7 view .LVU1353
.LBB2010:
.LBB2007:
.LBI2007:
	.loc 4 168 7 view .LVU1354
.LBB2008:
@ C:/Users/andre/.platformio/packages/toolchain-rp2040-earlephilhower/arm-none-eabi/include/c++/14.2.0/bits/stl_deque.h:169:        : _M_cur(__x._M_cur), _M_first(__x._M_first),
	.loc 4 169 21 is_stmt 0 view .LVU1355
	ldr	r2, [r0, #28]	@ _68, MEM[(const struct _Deque_iterator &)this_9(D) + 28]._M_cur
.LVL491:
	.loc 4 169 21 view .LVU1356
.LBE2008:
.LBE2007:
.LBB2009:
.LBI1998:
	.loc 4 230 7 is_stmt 1 view .LVU1357
.LBB2006:
@ C:/Users/andre/.platformio/packages/toolchain-rp2040-earlephilhower/arm-none-eabi/include/c++/14.2.0/bits/stl_deque.h:232: 	const difference_type __offset = __n + (_M_cur - _M_first);
	.loc 4 232 49 is_stmt 0 view .LVU1358
	ldr	r3, [r0, #32]	@ MEM[(const struct _Deque_iterator &)this_9(D) + 28]._M_first, MEM[(const struct _Deque_iterator &)this_9(D) + 28]._M_first
	subs	r3, r2, r3	@ _75, _68, MEM[(const struct _Deque_iterator &)this_9(D) + 28]._M_first
	asrs	r3, r3, #2	@ _76, _75,
.LVL492:
.LBB2005:
@ C:/Users/andre/.platformio/packages/toolchain-rp2040-earlephilhower/arm-none-eabi/include/c++/14.2.0/bits/stl_deque.h:233: 	if (__offset >= 0 && __offset < difference_type(_S_buffer_size()))
	.loc 4 233 20 view .LVU1359
	adds	r3, r3, r5	@ __offset, _76, n
	bmi	.L183		@,
.LVL493:
@ C:/Users/andre/.platformio/packages/toolchain-rp2040-earlephilhower/arm-none-eabi/include/c++/14.2.0/bits/stl_deque.h:234: 	  _M_cur += __n;
	.loc 4 234 11 view .LVU1360
	adds	r2, r2, r6	@ SR.463, _68, ivtmp.467
@ C:/Users/andre/.platformio/packages/toolchain-rp2040-earlephilhower/arm-none-eabi/include/c++/14.2.0/bits/stl_deque.h:233: 	if (__offset >= 0 && __offset < difference_type(_S_buffer_size()))
	.loc 4 233 20 discriminator 1 view .LVU1361
	cmp	r3, #127	@ __offset,
	ble	.L185		@,
	b	.L194		@
.L183:
.LBB2004:
@ C:/Users/andre/.platformio/packages/toolchain-rp2040-earlephilhower/arm-none-eabi/include/c++/14.2.0/bits/stl_deque.h:239: 			   : -difference_type((-__offset - 1)
	.loc 4 239 37 view .LVU1362
	mvns	r2, r3	@ _83, __offset
@ C:/Users/andre/.platformio/packages/toolchain-rp2040-earlephilhower/arm-none-eabi/include/c++/14.2.0/bits/stl_deque.h:240: 					      / _S_buffer_size()) - 1;
	.loc 4 240 12 discriminator 1 view .LVU1363
	lsrs	r2, r2, #7	@ _84, _83,
@ C:/Users/andre/.platformio/packages/toolchain-rp2040-earlephilhower/arm-none-eabi/include/c++/14.2.0/bits/stl_deque.h:238: 	      __offset > 0 ? __offset / difference_type(_S_buffer_size())
	.loc 4 238 21 discriminator 2 view .LVU1364
	mvns	r2, r2	@ iftmp.33_81, _84
	b	.L186		@
.LVL494:
.L193:
	.loc 4 238 21 discriminator 2 view .LVU1365
.LBE2004:
.LBE2005:
.LBE2006:
.LBE2009:
.LBE2010:
.LBE2011:
.LBE2012:
.LBE2013:
.LBE2014:
.LBE1992:
	.loc 1 132 5 is_stmt 1 view .LVU1366
@ lib/filter/src/filter.cpp:132:     m_values.erase(m_values.begin(), m_values.begin() + output_size);
	.loc 1 132 19 is_stmt 0 view .LVU1367
	movs	r1, r0	@ _4, this
	adds	r1, r1, #20	@ _4,
.LVL495:
.LBB2015:
.LBI2015:
	.loc 4 1151 7 is_stmt 1 view .LVU1368
.LBB2016:
.LBI2016:
	.loc 4 168 7 view .LVU1369
.LBB2017:
@ C:/Users/andre/.platformio/packages/toolchain-rp2040-earlephilhower/arm-none-eabi/include/c++/14.2.0/bits/stl_deque.h:169:        : _M_cur(__x._M_cur), _M_first(__x._M_first),
	.loc 4 169 21 is_stmt 0 view .LVU1370
	ldr	r6, [r0, #28]	@ _31, MEM[(const struct _Deque_iterator &)this_9(D) + 28]._M_cur
@ C:/Users/andre/.platformio/packages/toolchain-rp2040-earlephilhower/arm-none-eabi/include/c++/14.2.0/bits/stl_deque.h:170: 	 _M_last(__x._M_last), _M_node(__x._M_node) { }
	.loc 4 170 37 view .LVU1371
	ldr	r5, [r0, #40]	@ _34, MEM[(const struct _Deque_iterator &)this_9(D) + 28]._M_node
.LVL496:
	.loc 4 170 37 view .LVU1372
.LBE2017:
.LBE2016:
.LBE2015:
.LBB2018:
.LBI2018:
	.loc 4 164 8 is_stmt 1 view .LVU1373
	.loc 4 164 8 is_stmt 0 view .LVU1374
.LBE2018:
.LBB2019:
.LBI2019:
	.loc 4 1151 7 is_stmt 1 view .LVU1375
.LBB2020:
.LBI2020:
	.loc 4 168 7 view .LVU1376
	.loc 4 168 7 is_stmt 0 view .LVU1377
.LBE2020:
.LBE2019:
.LBB2021:
.LBI2021:
	.loc 4 397 7 is_stmt 1 view .LVU1378
.LBB2022:
.LBB2023:
.LBI2023:
	.loc 4 168 7 view .LVU1379
	.loc 4 168 7 is_stmt 0 view .LVU1380
.LBE2023:
.LBB2025:
.LBI2025:
	.loc 4 230 7 is_stmt 1 view .LVU1381
.LBB2026:
@ C:/Users/andre/.platformio/packages/toolchain-rp2040-earlephilhower/arm-none-eabi/include/c++/14.2.0/bits/stl_deque.h:232: 	const difference_type __offset = __n + (_M_cur - _M_first);
	.loc 4 232 49 is_stmt 0 view .LVU1382
	ldr	r3, [r0, #32]	@ MEM[(const struct _Deque_iterator &)this_9(D) + 28]._M_first, MEM[(const struct _Deque_iterator &)this_9(D) + 28]._M_first
	subs	r3, r6, r3	@ _110, _31, MEM[(const struct _Deque_iterator &)this_9(D) + 28]._M_first
	asrs	r3, r3, #2	@ _111, _110,
.LVL497:
.LBB2027:
@ C:/Users/andre/.platformio/packages/toolchain-rp2040-earlephilhower/arm-none-eabi/include/c++/14.2.0/bits/stl_deque.h:233: 	if (__offset >= 0 && __offset < difference_type(_S_buffer_size()))
	.loc 4 233 20 view .LVU1383
	adds	r3, r3, r4	@ __offset, _111, <retval>
	bmi	.L188		@,
.LVL498:
@ C:/Users/andre/.platformio/packages/toolchain-rp2040-earlephilhower/arm-none-eabi/include/c++/14.2.0/bits/stl_deque.h:233: 	if (__offset >= 0 && __offset < difference_type(_S_buffer_size()))
	.loc 4 233 20 discriminator 1 view .LVU1384
	cmp	r3, #127	@ __offset,
	bgt	.L189		@,
@ C:/Users/andre/.platformio/packages/toolchain-rp2040-earlephilhower/arm-none-eabi/include/c++/14.2.0/bits/stl_deque.h:234: 	  _M_cur += __n;
	.loc 4 234 11 view .LVU1385
	lsls	r7, r4, #2	@ _114, <retval>,
	adds	r7, r6, r7	@ SR.461, _31, _114
.LBE2027:
.LBE2026:
.LBE2025:
.LBB2035:
.LBB2024:
@ C:/Users/andre/.platformio/packages/toolchain-rp2040-earlephilhower/arm-none-eabi/include/c++/14.2.0/bits/stl_deque.h:170: 	 _M_last(__x._M_last), _M_node(__x._M_node) { }
	.loc 4 170 25 view .LVU1386
	movs	r0, r5	@ SR.462, _34
.LVL499:
	.loc 4 170 25 view .LVU1387
.LBE2024:
.LBE2035:
.LBB2036:
.LBB2033:
.LBB2031:
	b	.L190		@
.LVL500:
.L189:
.LBB2028:
@ C:/Users/andre/.platformio/packages/toolchain-rp2040-earlephilhower/arm-none-eabi/include/c++/14.2.0/bits/stl_deque.h:238: 	      __offset > 0 ? __offset / difference_type(_S_buffer_size())
	.loc 4 238 21 discriminator 1 view .LVU1388
	asrs	r0, r3, #31	@ tmp235, __offset,
.LVL501:
	.loc 4 238 21 discriminator 1 view .LVU1389
	movs	r2, #127	@ tmp236,
.LVL502:
	.loc 4 238 21 discriminator 1 view .LVU1390
	ands	r2, r0	@ tmp237, tmp235
	adds	r2, r2, r3	@ tmp238, tmp237, __offset
	asrs	r2, r2, #7	@ iftmp.33_116, tmp238,
.L191:
.LVL503:
@ C:/Users/andre/.platformio/packages/toolchain-rp2040-earlephilhower/arm-none-eabi/include/c++/14.2.0/bits/stl_deque.h:241: 	    _M_set_node(_M_node + __node_offset);
	.loc 4 241 26 view .LVU1391
	lsls	r0, r2, #2	@ _125, iftmp.33_116,
@ C:/Users/andre/.platformio/packages/toolchain-rp2040-earlephilhower/arm-none-eabi/include/c++/14.2.0/bits/stl_deque.h:241: 	    _M_set_node(_M_node + __node_offset);
	.loc 4 241 17 view .LVU1392
	adds	r0, r5, r0	@ SR.462, _34, _125
