	.cpu cortex-m0plus
	.arch armv6s-m
	.fpu softvfp
	.eabi_attribute 20, 1	@ Tag_ABI_FP_denormal
	.eabi_attribute 21, 1	@ Tag_ABI_FP_exceptions
	.eabi_attribute 23, 3	@ Tag_ABI_FP_number_model
	.eabi_attribute 24, 1	@ Tag_ABI_align8_needed
	.eabi_attribute 25, 1	@ Tag_ABI_align8_preserved
	.eabi_attribute 26, 1	@ Tag_ABI_enum_size
	.eabi_attribute 30, 1	@ Tag_ABI_optimization_goals
	.eabi_attribute 34, 0	@ Tag_CPU_unaligned_access
	.eabi_attribute 18, 4	@ Tag_ABI_PCS_wchar_t
	.file	"filter.cpp"
@ GNU C++17 (GCC) version 14.2.0 (arm-none-eabi)
@	compiled by GNU C version 9.3-win32 20200320, GMP version 6.1.2, MPFR version 3.1.4, MPC version 1.0.3, isl version isl-0.18-GMP

@ GGC heuristics: --param ggc-min-expand=100 --param ggc-min-heapsize=131072
@ options passed: -mcpu=cortex-m0plus -mthumb -march=armv6-m -g -O1 -std=gnu++17 -fno-exceptions -fno-rtti -ffunction-sections -fdata-sections
	.text
.Ltext0:
	.cfi_sections	.debug_frame
	.file 1 "lib/filter/src/filter.cpp"
	.section	.text._ZN6filter9FIRFilter15process_one_symEv,"ax",%progbits
	.align	1
	.global	_ZN6filter9FIRFilter15process_one_symEv
	.syntax unified
	.code	16
	.thumb_func
	.type	_ZN6filter9FIRFilter15process_one_symEv, %function
_ZN6filter9FIRFilter15process_one_symEv:
.LVL0:
.LFB2073:
	.loc 1 88 38 view -0
	.cfi_startproc
	@ args = 0, pretend = 0, frame = 0
	@ frame_needed = 0, uses_anonymous_args = 0
	.loc 1 88 38 is_stmt 0 view .LVU1
	push	{r4, r5, r6, r7, lr}	@
	.cfi_def_cfa_offset 20
	.cfi_offset 4, -20
	.cfi_offset 5, -16
	.cfi_offset 6, -12
	.cfi_offset 7, -8
	.cfi_offset 14, -4
	movs	r6, r0	@ this, tmp175
	.loc 1 89 5 is_stmt 1 view .LVU2
.LVL1:
.LBB766:
.LBI766:
	.file 2 "C:/Users/andre/.platformio/packages/toolchain-rp2040-earlephilhower/arm-none-eabi/include/c++/14.2.0/bits/stl_vector.h"
	.loc 2 992 7 view .LVU3
.LBB767:
@ C:/Users/andre/.platformio/packages/toolchain-rp2040-earlephilhower/arm-none-eabi/include/c++/14.2.0/bits/stl_vector.h:993:       { return size_type(this->_M_impl._M_finish - this->_M_impl._M_start); }
	.loc 2 993 66 is_stmt 0 view .LVU4
	ldr	r7, [r0, #8]	@ _48, MEM[(const struct vector *)this_34(D) + 8B].D.36436._M_impl.D.35737._M_start
@ C:/Users/andre/.platformio/packages/toolchain-rp2040-earlephilhower/arm-none-eabi/include/c++/14.2.0/bits/stl_vector.h:993:       { return size_type(this->_M_impl._M_finish - this->_M_impl._M_start); }
	.loc 2 993 50 view .LVU5
	ldr	r1, [r0, #12]	@ MEM[(const struct vector *)this_34(D) + 8B].D.36436._M_impl.D.35737._M_finish, MEM[(const struct vector *)this_34(D) + 8B].D.36436._M_impl.D.35737._M_finish
	subs	r1, r1, r7	@ _49, MEM[(const struct vector *)this_34(D) + 8B].D.36436._M_impl.D.35737._M_finish, _48
	asrs	r0, r1, #2	@ _50, _49,
.LVL2:
	.loc 2 993 50 view .LVU6
.LBE767:
.LBE766:
	.loc 1 90 5 is_stmt 1 view .LVU7
	.loc 1 101 5 view .LVU8
	.loc 1 103 5 view .LVU9
@ lib/filter/src/filter.cpp:103:     int p_data1 = m_buffer_pos - 1;
	.loc 1 103 19 is_stmt 0 view .LVU10
	movs	r3, #160	@ tmp154,
	lsls	r3, r3, #1	@ tmp154, tmp154,
	ldr	r2, [r6, r3]	@ _1, this_34(D)->m_buffer_pos
@ lib/filter/src/filter.cpp:103:     int p_data1 = m_buffer_pos - 1;
	.loc 1 103 32 view .LVU11
	subs	r3, r2, #1	@ p_data1, _1,
.LVL3:
	.loc 1 104 5 is_stmt 1 view .LVU12
@ lib/filter/src/filter.cpp:104:     int p_data2 = m_buffer_pos - coeff_len;
	.loc 1 104 32 is_stmt 0 view .LVU13
	subs	r2, r2, r0	@ p_data2, _1, _50
.LVL4:
	.loc 1 105 5 is_stmt 1 view .LVU14
.LBB768:
	.loc 1 105 26 discriminator 1 view .LVU15
@ lib/filter/src/filter.cpp:105:     for (size_t n = 0; n < coeff_len/2; n++) {
	.loc 1 105 37 is_stmt 0 discriminator 1 view .LVU16
	lsrs	r0, r0, #1	@ _56, _50,
.LVL5:
	.loc 1 105 37 discriminator 1 view .LVU17
	mov	ip, r0	@ _56, _56
@ lib/filter/src/filter.cpp:105:     for (size_t n = 0; n < coeff_len/2; n++) {
	.loc 1 105 26 discriminator 1 view .LVU18
	cmp	r1, #4	@ _49,
	bls	.L7		@,
@ lib/filter/src/filter.cpp:105:     for (size_t n = 0; n < coeff_len/2; n++) {
	.loc 1 105 17 view .LVU19
	movs	r1, #0	@ n,
.LVL6:
	.loc 1 105 17 view .LVU20
.LBE768:
@ lib/filter/src/filter.cpp:101:     int32_t result = 0;
	.loc 1 101 13 view .LVU21
	movs	r0, #0	@ result,
	b	.L5		@
.LVL7:
.L9:
.LBB769:
	.loc 1 108 13 is_stmt 1 view .LVU22
@ lib/filter/src/filter.cpp:108:             p_data1 += FILTER_BUFFER_SIZE;
	.loc 1 108 21 is_stmt 0 view .LVU23
	adds	r3, r3, #128	@ p_data1,
.LVL8:
	.loc 1 108 21 view .LVU24
	b	.L3		@
.LVL9:
.L10:
	.loc 1 110 13 is_stmt 1 view .LVU25
@ lib/filter/src/filter.cpp:110:             p_data2 += FILTER_BUFFER_SIZE;
	.loc 1 110 21 is_stmt 0 view .LVU26
	adds	r2, r2, #128	@ p_data2,
.LVL10:
.L4:
	.loc 1 111 9 is_stmt 1 view .LVU27
@ lib/filter/src/filter.cpp:111:         result += ((int32_t)m_buffer[p_data1] + (int32_t)m_buffer[p_data2])  * coeff[n];
	.loc 1 111 45 is_stmt 0 view .LVU28
	movs	r4, r3	@ tmp155, p_data1
	adds	r4, r4, #32	@ tmp155,
	lsls	r4, r4, #1	@ tmp156, tmp155,
@ lib/filter/src/filter.cpp:111:         result += ((int32_t)m_buffer[p_data1] + (int32_t)m_buffer[p_data2])  * coeff[n];
	.loc 1 111 20 view .LVU29
	ldrh	r5, [r4, r6]	@ _9, *this_34(D)
@ lib/filter/src/filter.cpp:111:         result += ((int32_t)m_buffer[p_data1] + (int32_t)m_buffer[p_data2])  * coeff[n];
	.loc 1 111 74 view .LVU30
	movs	r4, r2	@ tmp158, p_data2
	adds	r4, r4, #32	@ tmp158,
	lsls	r4, r4, #1	@ tmp159, tmp158,
@ lib/filter/src/filter.cpp:111:         result += ((int32_t)m_buffer[p_data1] + (int32_t)m_buffer[p_data2])  * coeff[n];
	.loc 1 111 49 view .LVU31
	ldrh	r4, [r4, r6]	@ _11, *this_34(D)
@ lib/filter/src/filter.cpp:111:         result += ((int32_t)m_buffer[p_data1] + (int32_t)m_buffer[p_data2])  * coeff[n];
	.loc 1 111 47 view .LVU32
	adds	r5, r5, r4	@ _12, _9, _11
@ lib/filter/src/filter.cpp:111:         result += ((int32_t)m_buffer[p_data1] + (int32_t)m_buffer[p_data2])  * coeff[n];
	.loc 1 111 87 view .LVU33
	lsls	r4, r1, #2	@ _32, n,
@ lib/filter/src/filter.cpp:111:         result += ((int32_t)m_buffer[p_data1] + (int32_t)m_buffer[p_data2])  * coeff[n];
	.loc 1 111 78 view .LVU34
	ldr	r4, [r7, r4]	@ MEM[(long int *)_48 + _32 * 1], MEM[(long int *)_48 + _32 * 1]
	muls	r4, r5	@ _16, _12
@ lib/filter/src/filter.cpp:111:         result += ((int32_t)m_buffer[p_data1] + (int32_t)m_buffer[p_data2])  * coeff[n];
	.loc 1 111 16 view .LVU35
	adds	r0, r0, r4	@ result, result, _16
.LVL11:
	.loc 1 112 9 is_stmt 1 view .LVU36
@ lib/filter/src/filter.cpp:112:         p_data1--;
	.loc 1 112 16 is_stmt 0 view .LVU37
	subs	r3, r3, #1	@ p_data1,
.LVL12:
	.loc 1 113 9 is_stmt 1 view .LVU38
@ lib/filter/src/filter.cpp:113:         p_data2++;
	.loc 1 113 16 is_stmt 0 view .LVU39
	adds	r2, r2, #1	@ p_data2,
.LVL13:
	.loc 1 105 5 is_stmt 1 discriminator 2 view .LVU40
	adds	r1, r1, #1	@ n,
.LVL14:
	.loc 1 105 26 discriminator 1 view .LVU41
	cmp	r1, ip	@ n, _56
	bcs	.L2		@,
.LVL15:
.L5:
	.loc 1 107 9 view .LVU42
	cmp	r3, #0	@ p_data1,
	blt	.L9		@,
.LVL16:
.L3:
	.loc 1 109 9 view .LVU43
	cmp	r2, #0	@ p_data2,
	bge	.L4		@,
	b	.L10		@
.LVL17:
.L7:
	.loc 1 109 9 is_stmt 0 view .LVU44
.LBE769:
@ lib/filter/src/filter.cpp:101:     int32_t result = 0;
	.loc 1 101 13 view .LVU45
	movs	r0, #0	@ result,
.LVL18:
.L2:
	.loc 1 116 5 is_stmt 1 view .LVU46
	cmp	r3, #0	@ p_data1,
	blt	.L11		@,
.LVL19:
.L6:
	.loc 1 118 5 view .LVU47
	.loc 1 120 5 view .LVU48
@ lib/filter/src/filter.cpp:118:     result += (int32_t)m_buffer[p_data1] * coeff[coeff_len/2];
	.loc 1 118 61 is_stmt 0 view .LVU49
	mov	r2, ip	@ _56, _56
.LVL20:
	.loc 1 118 61 view .LVU50
	lsls	r2, r2, #2	@ tmp166, _56,
.LVL21:
@ lib/filter/src/filter.cpp:118:     result += (int32_t)m_buffer[p_data1] * coeff[coeff_len/2];
	.loc 1 118 40 view .LVU51
	adds	r3, r3, #32	@ tmp167,
.LVL22:
	.loc 1 118 40 view .LVU52
	lsls	r3, r3, #1	@ tmp168, tmp167,
.LVL23:
@ lib/filter/src/filter.cpp:118:     result += (int32_t)m_buffer[p_data1] * coeff[coeff_len/2];
	.loc 1 118 15 view .LVU53
	ldrh	r1, [r3, r6]	@ _21, *this_34(D)
@ lib/filter/src/filter.cpp:118:     result += (int32_t)m_buffer[p_data1] * coeff[coeff_len/2];
	.loc 1 118 42 view .LVU54
	ldr	r3, [r2, r7]	@ *_23, *_23
	muls	r3, r1	@ _25, _21
@ lib/filter/src/filter.cpp:118:     result += (int32_t)m_buffer[p_data1] * coeff[coeff_len/2];
	.loc 1 118 12 view .LVU55
	adds	r0, r3, r0	@ result_40, _25, result
@ lib/filter/src/filter.cpp:120:     return result >> m_gain_bits;
	.loc 1 120 22 view .LVU56
	movs	r3, #170	@ tmp173,
	lsls	r3, r3, #1	@ tmp173, tmp173,
	ldr	r3, [r6, r3]	@ this_34(D)->m_gain_bits, this_34(D)->m_gain_bits
	asrs	r0, r0, r3	@ _41, result_40, this_34(D)->m_gain_bits
@ lib/filter/src/filter.cpp:121: }
	.loc 1 121 1 view .LVU57
	@ sp needed	@
.LVL24:
.LVL25:
	.loc 1 121 1 view .LVU58
	pop	{r4, r5, r6, r7, pc}
.LVL26:
.L11:
	.loc 1 117 9 is_stmt 1 view .LVU59
@ lib/filter/src/filter.cpp:117:         p_data1 += FILTER_BUFFER_SIZE;
	.loc 1 117 17 is_stmt 0 view .LVU60
	adds	r3, r3, #128	@ p_data1,
.LVL27:
	.loc 1 117 17 view .LVU61
	b	.L6		@
	.cfi_endproc
.LFE2073:
	.size	_ZN6filter9FIRFilter15process_one_symEv, .-_ZN6filter9FIRFilter15process_one_symEv
	.section	.text._ZN6filter9FIRFilter11process_oneEv,"ax",%progbits
	.align	1
	.global	_ZN6filter9FIRFilter11process_oneEv
	.syntax unified
	.code	16
	.thumb_func
	.type	_ZN6filter9FIRFilter11process_oneEv, %function
_ZN6filter9FIRFilter11process_oneEv:
.LVL28:
.LFB2072:
	.loc 1 70 34 is_stmt 1 view -0
	.cfi_startproc
	@ args = 0, pretend = 0, frame = 0
	@ frame_needed = 0, uses_anonymous_args = 0
	.loc 1 70 34 is_stmt 0 view .LVU63
	push	{r3, r4, r5, r6, r7, lr}	@
	.cfi_def_cfa_offset 24
	.cfi_offset 3, -24
	.cfi_offset 4, -20
	.cfi_offset 5, -16
	.cfi_offset 6, -12
	.cfi_offset 7, -8
	.cfi_offset 14, -4
	.loc 1 71 5 is_stmt 1 view .LVU64
@ lib/filter/src/filter.cpp:71:     if (m_is_symmetric)
	.loc 1 71 9 is_stmt 0 view .LVU65
	movs	r3, #168	@ tmp135,
	lsls	r3, r3, #1	@ tmp135, tmp135,
@ lib/filter/src/filter.cpp:71:     if (m_is_symmetric)
	.loc 1 71 5 view .LVU66
	ldrb	r3, [r0, r3]	@ tmp136,
	cmp	r3, #0	@ tmp136,
	beq	.L13		@,
	.loc 1 72 9 is_stmt 1 view .LVU67
@ lib/filter/src/filter.cpp:72:         return process_one_sym();
	.loc 1 72 31 is_stmt 0 view .LVU68
	bl	_ZN6filter9FIRFilter15process_one_symEv		@
.LVL29:
@ lib/filter/src/filter.cpp:72:         return process_one_sym();
	.loc 1 72 32 view .LVU69
	b	.L12		@
.LVL30:
.L13:
	.loc 1 74 5 is_stmt 1 view .LVU70
.LBB770:
.LBI770:
	.loc 2 992 7 view .LVU71
.LBB771:
@ C:/Users/andre/.platformio/packages/toolchain-rp2040-earlephilhower/arm-none-eabi/include/c++/14.2.0/bits/stl_vector.h:993:       { return size_type(this->_M_impl._M_finish - this->_M_impl._M_start); }
	.loc 2 993 40 is_stmt 0 view .LVU72
	ldr	r2, [r0, #12]	@ _20, MEM[(const struct vector *)this_19(D) + 8B].D.36436._M_impl.D.35737._M_finish
@ C:/Users/andre/.platformio/packages/toolchain-rp2040-earlephilhower/arm-none-eabi/include/c++/14.2.0/bits/stl_vector.h:993:       { return size_type(this->_M_impl._M_finish - this->_M_impl._M_start); }
	.loc 2 993 66 view .LVU73
	ldr	r7, [r0, #8]	@ _27, MEM[(const struct vector *)this_19(D) + 8B].D.36436._M_impl.D.35737._M_start
@ C:/Users/andre/.platformio/packages/toolchain-rp2040-earlephilhower/arm-none-eabi/include/c++/14.2.0/bits/stl_vector.h:993:       { return size_type(this->_M_impl._M_finish - this->_M_impl._M_start); }
	.loc 2 993 50 view .LVU74
	subs	r3, r2, r7	@ _29, _20, _27
	asrs	r3, r3, #2	@ _31, _29,
	mov	ip, r3	@ _31, _31
.LVL31:
	.loc 2 993 50 view .LVU75
.LBE771:
.LBE770:
	.loc 1 75 5 is_stmt 1 view .LVU76
	.loc 1 77 5 view .LVU77
	.loc 1 78 5 view .LVU78
@ lib/filter/src/filter.cpp:78:     int p_data = m_buffer_pos - 1;
	.loc 1 78 18 is_stmt 0 view .LVU79
	movs	r3, #160	@ tmp139,
.LVL32:
	.loc 1 78 18 view .LVU80
	lsls	r3, r3, #1	@ tmp139, tmp139,
@ lib/filter/src/filter.cpp:78:     int p_data = m_buffer_pos - 1;
	.loc 1 78 31 view .LVU81
	ldr	r3, [r0, r3]	@ this_19(D)->m_buffer_pos, this_19(D)->m_buffer_pos
	subs	r3, r3, #1	@ p_data,
.LVL33:
	.loc 1 79 5 is_stmt 1 view .LVU82
.LBB772:
	.loc 1 79 26 discriminator 1 view .LVU83
	cmp	r2, r7	@ _20, _27
	beq	.L18		@,
@ lib/filter/src/filter.cpp:79:     for (size_t n = 0; n < coeff_len; n++) {
	.loc 1 79 17 is_stmt 0 view .LVU84
	movs	r2, #0	@ n,
.LBE772:
@ lib/filter/src/filter.cpp:77:     int32_t result = 0;
	.loc 1 77 13 view .LVU85
	movs	r4, #0	@ result,
	b	.L17		@
.LVL34:
.L20:
.LBB773:
	.loc 1 81 13 is_stmt 1 view .LVU86
@ lib/filter/src/filter.cpp:81:             p_data += FILTER_BUFFER_SIZE;
	.loc 1 81 20 is_stmt 0 view .LVU87
	adds	r3, r3, #128	@ p_data,
.LVL35:
.L16:
	.loc 1 82 9 is_stmt 1 view .LVU88
@ lib/filter/src/filter.cpp:82:         result += (int32_t)m_buffer[p_data] * coeff[n];
	.loc 1 82 54 is_stmt 0 view .LVU89
	lsls	r6, r2, #2	@ _16, n,
@ lib/filter/src/filter.cpp:82:         result += (int32_t)m_buffer[p_data] * coeff[n];
	.loc 1 82 43 view .LVU90
	movs	r1, r3	@ tmp142, p_data
	adds	r1, r1, #32	@ tmp142,
	lsls	r1, r1, #1	@ tmp143, tmp142,
@ lib/filter/src/filter.cpp:82:         result += (int32_t)m_buffer[p_data] * coeff[n];
	.loc 1 82 19 view .LVU91
	ldrh	r5, [r1, r0]	@ _7, *this_19(D)
@ lib/filter/src/filter.cpp:82:         result += (int32_t)m_buffer[p_data] * coeff[n];
	.loc 1 82 45 view .LVU92
	ldr	r1, [r7, r6]	@ MEM[(long int *)_27 + _16 * 1], MEM[(long int *)_27 + _16 * 1]
	muls	r1, r5	@ _11, _7
@ lib/filter/src/filter.cpp:82:         result += (int32_t)m_buffer[p_data] * coeff[n];
	.loc 1 82 16 view .LVU93
	adds	r4, r4, r1	@ result, result, _11
.LVL36:
	.loc 1 83 9 is_stmt 1 view .LVU94
@ lib/filter/src/filter.cpp:83:         p_data--;
	.loc 1 83 15 is_stmt 0 view .LVU95
	subs	r3, r3, #1	@ p_data,
.LVL37:
	.loc 1 79 5 is_stmt 1 discriminator 2 view .LVU96
	adds	r2, r2, #1	@ n,
.LVL38:
	.loc 1 79 26 discriminator 1 view .LVU97
	cmp	r2, ip	@ n, _31
	bcs	.L15		@,
.LVL39:
.L17:
	.loc 1 80 9 view .LVU98
	cmp	r3, #0	@ p_data,
	bge	.L16		@,
	.loc 1 80 9 is_stmt 0 view .LVU99
	b	.L20		@
.LVL40:
.L18:
	.loc 1 80 9 view .LVU100
.LBE773:
@ lib/filter/src/filter.cpp:77:     int32_t result = 0;
	.loc 1 77 13 view .LVU101
	movs	r4, #0	@ result,
.LVL41:
.L15:
	.loc 1 85 5 is_stmt 1 view .LVU102
@ lib/filter/src/filter.cpp:85:     return result >> m_gain_bits;
	.loc 1 85 22 is_stmt 0 view .LVU103
	movs	r3, #170	@ tmp147,
.LVL42:
	.loc 1 85 22 view .LVU104
	lsls	r3, r3, #1	@ tmp147, tmp147,
	ldr	r3, [r0, r3]	@ this_19(D)->m_gain_bits, this_19(D)->m_gain_bits
	movs	r0, r4	@ result, result
.LVL43:
	.loc 1 85 22 view .LVU105
	asrs	r0, r0, r3	@ result, result, this_19(D)->m_gain_bits
.LVL44:
.L12:
@ lib/filter/src/filter.cpp:86: }
	.loc 1 86 1 view .LVU106
	@ sp needed	@
	pop	{r3, r4, r5, r6, r7, pc}
	.cfi_endproc
.LFE2072:
	.size	_ZN6filter9FIRFilter11process_oneEv, .-_ZN6filter9FIRFilter11process_oneEv
	.section	.text._ZN6filter9CICFilter5writeEPKtjj,"ax",%progbits
	.align	1
	.global	_ZN6filter9CICFilter5writeEPKtjj
	.syntax unified
	.code	16
	.thumb_func
	.type	_ZN6filter9CICFilter5writeEPKtjj, %function
_ZN6filter9CICFilter5writeEPKtjj:
.LVL45:
.LFB2076:
	.loc 1 157 73 is_stmt 1 view -0
	.cfi_startproc
	@ args = 0, pretend = 0, frame = 8
	@ frame_needed = 0, uses_anonymous_args = 0
	.loc 1 157 73 is_stmt 0 view .LVU108
	push	{r4, r5, r6, r7, lr}	@
	.cfi_def_cfa_offset 20
	.cfi_offset 4, -20
	.cfi_offset 5, -16
	.cfi_offset 6, -12
	.cfi_offset 7, -8
	.cfi_offset 14, -4
	mov	lr, fp	@,
	mov	r7, r10	@,
	mov	r6, r9	@,
	mov	r5, r8	@,
	push	{r5, r6, r7, lr}	@
	.cfi_def_cfa_offset 36
	.cfi_offset 8, -36
	.cfi_offset 9, -32
	.cfi_offset 10, -28
	.cfi_offset 11, -24
	sub	sp, sp, #12	@,,
	.cfi_def_cfa_offset 48
	movs	r6, r0	@ this, tmp173
	mov	fp, r1	@ data, tmp174
	mov	ip, r2	@ length, tmp175
	mov	r8, r3	@ step, tmp176
	.loc 1 158 5 is_stmt 1 view .LVU109
	.loc 1 159 5 view .LVU110
	.loc 1 160 5 view .LVU111
.LVL46:
	.loc 1 161 5 view .LVU112
@ lib/filter/src/filter.cpp:161:     auto data_counter = m_data_counter;
	.loc 1 161 10 is_stmt 0 view .LVU113
	ldr	r7, [r0, #80]	@ data_counter, this_31(D)->m_data_counter
.LVL47:
	.loc 1 163 5 is_stmt 1 view .LVU114
.LBB774:
	.loc 1 163 19 discriminator 1 view .LVU115
	cmp	r2, #0	@ length,
	beq	.L30		@,
.LBE774:
@ lib/filter/src/filter.cpp:160:     uint32_t err_cnt{0};
	.loc 1 160 14 is_stmt 0 view .LVU116
	movs	r3, #0	@ err_cnt,
.LVL48:
	.loc 1 160 14 view .LVU117
	mov	r10, r3	@ err_cnt, err_cnt
.LBB778:
@ lib/filter/src/filter.cpp:163:     for (n = 0; n < length; n += step) {
	.loc 1 163 12 view .LVU118
	movs	r0, #0	@ n,
.LVL49:
	.loc 1 163 12 view .LVU119
	adds	r3, r3, #12	@ _29,
	mov	r9, r3	@ _29, _29
	add	r9, r9, r6	@ _29, this
	mov	r3, r9	@ _29, _29
	str	r3, [sp, #4]	@ _29, %sfp
	b	.L29		@
.LVL50:
.L28:
.LBB775:
	.loc 1 193 13 is_stmt 1 view .LVU120
@ lib/filter/src/filter.cpp:193:             err_cnt++;
	.loc 1 193 20 is_stmt 0 view .LVU121
	movs	r3, #1	@ tmp188,
	mov	r9, r3	@ tmp188, tmp188
	add	r10, r10, r9	@ err_cnt, tmp188
.LVL51:
@ lib/filter/src/filter.cpp:179:             data_counter = 0;
	.loc 1 179 26 view .LVU122
	movs	r7, #0	@ data_counter,
.L25:
.LVL52:
	.loc 1 179 26 view .LVU123
.LBE775:
	.loc 1 163 5 is_stmt 1 discriminator 2 view .LVU124
@ lib/filter/src/filter.cpp:163:     for (n = 0; n < length; n += step) {
	.loc 1 163 31 is_stmt 0 discriminator 2 view .LVU125
	add	r0, r0, r8	@ n, step
.LVL53:
	.loc 1 163 19 is_stmt 1 discriminator 1 view .LVU126
	cmp	ip, r0	@ length, n
	bls	.L22		@,
.LVL54:
.L29:
.LBB776:
	.loc 1 164 9 view .LVU127
	.loc 1 167 9 view .LVU128
@ lib/filter/src/filter.cpp:167:         stage_in = data[n];
	.loc 1 167 26 is_stmt 0 view .LVU129
	lsls	r3, r0, #1	@ _60, n,
@ lib/filter/src/filter.cpp:167:         stage_in = data[n];
	.loc 1 167 18 view .LVU130
	mov	r2, fp	@ data, data
	ldrh	r3, [r2, r3]	@ stage_out, MEM[(const uint16_t *)data_39(D) + _60 * 1]
.LVL55:
	.loc 1 168 9 is_stmt 1 view .LVU131
@ lib/filter/src/filter.cpp:168:         ord = m_order;
	.loc 1 168 13 is_stmt 0 view .LVU132
	ldr	r2, [r6, #88]	@ ord, this_31(D)->m_order
.LVL56:
	.loc 1 169 9 is_stmt 1 view .LVU133
	.loc 1 169 19 view .LVU134
	subs	r1, r2, #1	@ ord, ord,
.LVL57:
	.loc 1 169 19 is_stmt 0 view .LVU135
	cmp	r2, #0	@ ord,
	beq	.L23		@,
	.loc 1 169 19 view .LVU136
	movs	r4, r6	@ ivtmp.362, this
	adds	r4, r4, #8	@ ivtmp.362,
.LVL58:
	.loc 1 169 19 view .LVU137
	movs	r2, r1	@ ord, ord
.LVL59:
.L24:
	.loc 1 170 13 is_stmt 1 view .LVU138
@ lib/filter/src/filter.cpp:170:             stage_out = stage_in + *state;
	.loc 1 170 23 is_stmt 0 view .LVU139
	ldr	r5, [r4]	@ MEM[(int32_t *)_66], MEM[(int32_t *)_66]
	adds	r3, r3, r5	@ stage_out, stage_out, MEM[(int32_t *)_66]
.LVL60:
	.loc 1 171 13 is_stmt 1 view .LVU140
@ lib/filter/src/filter.cpp:171:             *state++ = stage_out;
	.loc 1 171 22 is_stmt 0 view .LVU141
	stmia	r4!, {r3}	@ MEM[(int32_t *)_66], stage_out
.LVL61:
	.loc 1 172 13 is_stmt 1 view .LVU142
	.loc 1 169 19 view .LVU143
	.loc 1 169 19 is_stmt 0 view .LVU144
	subs	r2, r2, #1	@ ord, ord
	bcs	.L24		@,
.LVL62:
	.loc 1 176 9 is_stmt 1 view .LVU145
@ lib/filter/src/filter.cpp:176:         if (++data_counter < m_decimation_factor)
	.loc 1 176 28 is_stmt 0 view .LVU146
	adds	r7, r7, #1	@ data_counter,
.LVL63:
@ lib/filter/src/filter.cpp:176:         if (++data_counter < m_decimation_factor)
	.loc 1 176 9 view .LVU147
	ldr	r2, [r6, #84]	@ this_31(D)->m_decimation_factor, this_31(D)->m_decimation_factor
.LVL64:
	.loc 1 176 9 view .LVU148
	cmp	r2, r7	@ this_31(D)->m_decimation_factor, data_counter
	bhi	.L25		@,
	.loc 1 179 13 is_stmt 1 view .LVU149
.LVL65:
	.loc 1 182 9 view .LVU150
@ lib/filter/src/filter.cpp:182:         ord = m_order;
	.loc 1 182 13 is_stmt 0 view .LVU151
	ldr	r4, [r6, #88]	@ ord, this_31(D)->m_order
.LVL66:
	.loc 1 183 9 is_stmt 1 view .LVU152
	.loc 1 183 19 view .LVU153
	subs	r2, r4, #1	@ ord, ord,
.LVL67:
	.loc 1 183 19 is_stmt 0 view .LVU154
	cmp	r4, #0	@ ord,
	beq	.L26		@,
	lsls	r4, r1, #2	@ _63, ord,
.LVL68:
	.loc 1 183 19 view .LVU155
	ldr	r1, [sp, #4]	@ _29, %sfp
	mov	r9, r1	@ _29, _29
	add	r4, r4, r9	@ state, _29
.LVL69:
.L27:
	.loc 1 184 13 is_stmt 1 view .LVU156
	movs	r1, r3	@ stage_in, stage_out
@ lib/filter/src/filter.cpp:184:             stage_out = stage_in - *state;
	.loc 1 184 23 is_stmt 0 view .LVU157
	ldr	r5, [r4]	@ *state_81, *state_81
	subs	r3, r3, r5	@ stage_out, stage_out, *state_81
.LVL70:
	.loc 1 185 13 is_stmt 1 view .LVU158
@ lib/filter/src/filter.cpp:185:             *state++ = stage_in;
	.loc 1 185 22 is_stmt 0 view .LVU159
	str	r1, [r4]	@ stage_in, *state_23
	adds	r4, r4, #4	@ state,
.LVL71:
	.loc 1 186 13 is_stmt 1 view .LVU160
	.loc 1 183 19 view .LVU161
	.loc 1 183 19 is_stmt 0 view .LVU162
	subs	r2, r2, #1	@ ord, ord
	bcs	.L27		@,
.LVL72:
.L26:
	.loc 1 190 9 is_stmt 1 view .LVU163
@ lib/filter/src/filter.cpp:190:         if (m_out_cnt < FILTER_OUTPUT_LEN) {
	.loc 1 190 13 is_stmt 0 view .LVU164
	ldr	r2, [r6, #92]	@ _7, this_31(D)->m_out_cnt
@ lib/filter/src/filter.cpp:190:         if (m_out_cnt < FILTER_OUTPUT_LEN) {
	.loc 1 190 9 view .LVU165
	cmp	r2, #127	@ _7,
	bhi	.L28		@,
	.loc 1 191 13 is_stmt 1 view .LVU166
@ lib/filter/src/filter.cpp:191:             m_out_buf[m_out_cnt++] = stage_in;
	.loc 1 191 32 is_stmt 0 view .LVU167
	adds	r4, r2, #1	@ _8, _7,
	str	r4, [r6, #92]	@ _8, this_31(D)->m_out_cnt
@ lib/filter/src/filter.cpp:191:             m_out_buf[m_out_cnt++] = stage_in;
	.loc 1 191 36 view .LVU168
	adds	r2, r2, #24	@ tmp160,
	lsls	r2, r2, #2	@ tmp161, tmp160,
	str	r3, [r2, r6]	@ stage_out, this_31(D)->m_out_buf[_7]
@ lib/filter/src/filter.cpp:179:             data_counter = 0;
	.loc 1 179 26 view .LVU169
	movs	r7, #0	@ data_counter,
	b	.L25		@
.LVL73:
.L30:
	.loc 1 179 26 view .LVU170
.LBE776:
.LBE778:
@ lib/filter/src/filter.cpp:160:     uint32_t err_cnt{0};
	.loc 1 160 14 view .LVU171
	mov	r10, r2	@ err_cnt, length
.LVL74:
.L22:
	.loc 1 196 5 is_stmt 1 view .LVU172
@ lib/filter/src/filter.cpp:196:     m_data_counter = data_counter;
	.loc 1 196 20 is_stmt 0 view .LVU173
	str	r7, [r6, #80]	@ data_counter, this_31(D)->m_data_counter
	.loc 1 197 5 is_stmt 1 view .LVU174
@ lib/filter/src/filter.cpp:197:     overflow_cnt += err_cnt;
	.loc 1 197 18 is_stmt 0 view .LVU175
	ldr	r3, [r6]	@ this_31(D)->overflow_cnt, this_31(D)->overflow_cnt
	add	r3, r3, r10	@ _10, err_cnt
	str	r3, [r6]	@ _10, this_31(D)->overflow_cnt
	.loc 1 198 5 is_stmt 1 view .LVU176
@ lib/filter/src/filter.cpp:198:     samples_out_cnt += length/step - err_cnt;
	.loc 1 198 30 is_stmt 0 view .LVU177
	mov	r1, r8	@, step
	mov	r0, ip	@, length
	bl	__aeabi_uidiv		@
.LVL75:
@ lib/filter/src/filter.cpp:198:     samples_out_cnt += length/step - err_cnt;
	.loc 1 198 21 view .LVU178
	ldr	r3, [r6, #4]	@ this_31(D)->samples_out_cnt, this_31(D)->samples_out_cnt
	adds	r3, r0, r3	@ _72, tmp177, this_31(D)->samples_out_cnt
	mov	r2, r10	@ err_cnt, err_cnt
	subs	r3, r3, r2	@ _14, _72, err_cnt
	str	r3, [r6, #4]	@ _14, this_31(D)->samples_out_cnt
@ lib/filter/src/filter.cpp:199: }
	.loc 1 199 1 view .LVU179
	add	sp, sp, #12	@,,
	@ sp needed	@
.LVL76:
.LVL77:
.LVL78:
.LVL79:
	.loc 1 199 1 view .LVU180
	pop	{r4, r5, r6, r7}
	mov	fp, r7
	mov	r10, r6
	mov	r9, r5
	mov	r8, r4
	pop	{r4, r5, r6, r7, pc}
.LVL80:
.L23:
.LBB779:
.LBB777:
	.loc 1 176 9 is_stmt 1 view .LVU181
@ lib/filter/src/filter.cpp:176:         if (++data_counter < m_decimation_factor)
	.loc 1 176 28 is_stmt 0 view .LVU182
	adds	r7, r7, #1	@ data_counter,
.LVL81:
@ lib/filter/src/filter.cpp:176:         if (++data_counter < m_decimation_factor)
	.loc 1 176 9 view .LVU183
	ldr	r2, [r6, #84]	@ this_31(D)->m_decimation_factor, this_31(D)->m_decimation_factor
	cmp	r2, r7	@ this_31(D)->m_decimation_factor, data_counter
	bhi	.L25		@,
	b	.L26		@
.LBE777:
.LBE779:
	.cfi_endproc
.LFE2076:
	.size	_ZN6filter9CICFilter5writeEPKtjj, .-_ZN6filter9CICFilter5writeEPKtjj
	.section	.text._ZN6filter9CICFilter4readEPtj,"ax",%progbits
	.align	1
	.global	_ZN6filter9CICFilter4readEPtj
	.syntax unified
	.code	16
	.thumb_func
	.type	_ZN6filter9CICFilter4readEPtj, %function
_ZN6filter9CICFilter4readEPtj:
.LVL82:
.LFB2077:
	.loc 1 202 58 is_stmt 1 view -0
	.cfi_startproc
	@ args = 0, pretend = 0, frame = 0
	@ frame_needed = 0, uses_anonymous_args = 0
	.loc 1 202 58 is_stmt 0 view .LVU185
	push	{r3, r4, r5, r6, r7, lr}	@
	.cfi_def_cfa_offset 24
	.cfi_offset 3, -24
	.cfi_offset 4, -20
	.cfi_offset 5, -16
	.cfi_offset 6, -12
	.cfi_offset 7, -8
	.cfi_offset 14, -4
	movs	r6, r0	@ this, tmp159
	.loc 1 203 5 is_stmt 1 view .LVU186
.LVL83:
.LBB780:
.LBI780:
	.file 3 "C:/Users/andre/.platformio/packages/toolchain-rp2040-earlephilhower/arm-none-eabi/include/c++/14.2.0/bits/stl_algobase.h"
	.loc 3 233 5 view .LVU187
.LBB781:
@ C:/Users/andre/.platformio/packages/toolchain-rp2040-earlephilhower/arm-none-eabi/include/c++/14.2.0/bits/stl_algobase.h:238:       if (__b < __a)
	.loc 3 238 7 is_stmt 0 view .LVU188
	ldr	r7, [r0, #92]	@ <retval>, MEM[(const unsigned int &)this_16(D) + 92]
	cmp	r7, r2	@ <retval>, max_length
	bls	.L38		@,
	movs	r7, r2	@ <retval>, max_length
.L38:
.LVL84:
	.loc 3 238 7 view .LVU189
.LBE781:
.LBE780:
	.loc 1 204 5 is_stmt 1 view .LVU190
	cmp	r7, #0	@ <retval>,
	beq	.L37		@,
	movs	r5, r6	@ ivtmp.374, this
	adds	r5, r5, #96	@ ivtmp.374,
	movs	r2, r1	@ ivtmp.376, out
.LVL85:
	.loc 1 204 5 is_stmt 0 view .LVU191
	lsls	r3, r7, #1	@ _40, <retval>,
	adds	r1, r1, r3	@ _42, out, _40
.LVL86:
.LBB782:
.LBB783:
@ lib/filter/src/filter.cpp:210:         if (val > UINT16_MAX) 
	.loc 1 210 9 view .LVU192
	movs	r3, #128	@ tmp143,
	lsls	r3, r3, #9	@ tmp143, tmp143,
	mov	ip, r3	@ tmp143, tmp143
	b	.L42		@
.LVL87:
.L40:
@ lib/filter/src/filter.cpp:208:         if (val < 0)
	.loc 1 208 9 view .LVU193
	mvns	r4, r3	@ tmp158, val_22
	asrs	r4, r4, #31	@ tmp157, tmp158,
	ands	r3, r4	@ val_22, tmp157
@ lib/filter/src/filter.cpp:212:         out[n] = val;
	.loc 1 212 16 view .LVU194
	strh	r3, [r2]	@ val_22, MEM[(uint16_t *)_39]
.LVL88:
	.loc 1 212 16 view .LVU195
.LBE783:
	.loc 1 206 5 is_stmt 1 discriminator 2 view .LVU196
	.loc 1 206 26 discriminator 1 view .LVU197
	adds	r5, r5, #4	@ ivtmp.374,
	adds	r2, r2, #2	@ ivtmp.376,
	cmp	r2, r1	@ ivtmp.376, _42
	beq	.L45		@,
.LVL89:
.L42:
.LBB784:
	.loc 1 207 9 view .LVU198
	.loc 1 208 9 view .LVU199
	.loc 1 212 9 view .LVU200
@ lib/filter/src/filter.cpp:207:         auto val = m_out_buf[n] >> m_attenuate_shift;
	.loc 1 207 14 is_stmt 0 view .LVU201
	ldr	r3, [r5]	@ MEM[(long int *)_38], MEM[(long int *)_38]
	ldr	r0, [r6, #72]	@ this_16(D)->m_attenuate_shift, this_16(D)->m_attenuate_shift
	asrs	r3, r3, r0	@ val_22, MEM[(long int *)_38], this_16(D)->m_attenuate_shift
@ lib/filter/src/filter.cpp:210:         if (val > UINT16_MAX) 
	.loc 1 210 9 view .LVU202
	cmp	r3, ip	@ val_22, tmp143
	blt	.L40		@,
	ldr	r3, .L46	@ val_22,
	b	.L40		@
.LVL90:
.L45:
	.loc 1 210 9 view .LVU203
.LBE784:
.LBE782:
	.loc 1 214 5 is_stmt 1 view .LVU204
@ lib/filter/src/filter.cpp:214:     if (output_size == m_out_cnt)
	.loc 1 214 24 is_stmt 0 view .LVU205
	ldr	r4, [r6, #92]	@ _7, this_16(D)->m_out_cnt
@ lib/filter/src/filter.cpp:214:     if (output_size == m_out_cnt)
	.loc 1 214 5 view .LVU206
	cmp	r4, r7	@ _7, <retval>
	bne	.L43		@,
	.loc 1 215 9 is_stmt 1 view .LVU207
@ lib/filter/src/filter.cpp:215:         m_out_cnt = 0;
	.loc 1 215 19 is_stmt 0 view .LVU208
	movs	r3, #0	@ tmp145,
	str	r3, [r6, #92]	@ tmp145, this_16(D)->m_out_cnt
.LVL91:
.L37:
@ lib/filter/src/filter.cpp:222: }
	.loc 1 222 1 view .LVU209
	movs	r0, r7	@, <retval>
	@ sp needed	@
.LVL92:
	.loc 1 222 1 view .LVU210
	pop	{r3, r4, r5, r6, r7, pc}
.LVL93:
.L43:
	.loc 1 217 9 is_stmt 1 view .LVU211
@ lib/filter/src/filter.cpp:217:         memmove(m_out_buf, &m_out_buf[output_size], sizeof(m_out_buf[0]) * (m_out_cnt - output_size));
	.loc 1 217 87 is_stmt 0 view .LVU212
	subs	r4, r4, r7	@ _10, _7, <retval>
@ lib/filter/src/filter.cpp:217:         memmove(m_out_buf, &m_out_buf[output_size], sizeof(m_out_buf[0]) * (m_out_cnt - output_size));
	.loc 1 217 16 view .LVU213
	lsls	r2, r4, #2	@ _11, _10,
@ lib/filter/src/filter.cpp:217:         memmove(m_out_buf, &m_out_buf[output_size], sizeof(m_out_buf[0]) * (m_out_cnt - output_size));
	.loc 1 217 28 view .LVU214
	movs	r1, r7	@ _32, <retval>
	adds	r1, r1, #24	@ _32,
	lsls	r1, r1, #2	@ _29, _32,
	adds	r1, r6, r1	@ _9, this, _29
@ lib/filter/src/filter.cpp:217:         memmove(m_out_buf, &m_out_buf[output_size], sizeof(m_out_buf[0]) * (m_out_cnt - output_size));
	.loc 1 217 16 view .LVU215
	movs	r0, r6	@ tmp155, this
	adds	r0, r0, #96	@ tmp155,
	bl	memmove		@
.LVL94:
	.loc 1 218 9 is_stmt 1 view .LVU216
@ lib/filter/src/filter.cpp:218:         m_out_cnt = m_out_cnt - output_size;
	.loc 1 218 19 is_stmt 0 view .LVU217
	str	r4, [r6, #92]	@ _10, this_16(D)->m_out_cnt
	b	.L37		@
.L47:
	.align	2
.L46:
	.word	65535
	.cfi_endproc
.LFE2077:
	.size	_ZN6filter9CICFilter4readEPtj, .-_ZN6filter9CICFilter4readEPtj
	.section	.text._ZNSt11_Deque_baseIlSaIlEE16_M_destroy_nodesEPPlS3_,"axG",%progbits,_ZNSt11_Deque_baseIlSaIlEE16_M_destroy_nodesEPPlS3_,comdat
	.align	1
	.weak	_ZNSt11_Deque_baseIlSaIlEE16_M_destroy_nodesEPPlS3_
	.syntax unified
	.code	16
	.thumb_func
	.type	_ZNSt11_Deque_baseIlSaIlEE16_M_destroy_nodesEPPlS3_, %function
_ZNSt11_Deque_baseIlSaIlEE16_M_destroy_nodesEPPlS3_:
.LVL95:
.LFB2242:
	.file 4 "C:/Users/andre/.platformio/packages/toolchain-rp2040-earlephilhower/arm-none-eabi/include/c++/14.2.0/bits/stl_deque.h"
	.loc 4 695 5 is_stmt 1 view -0
	.cfi_startproc
	@ args = 0, pretend = 0, frame = 0
	@ frame_needed = 0, uses_anonymous_args = 0
	.loc 4 695 5 is_stmt 0 view .LVU219
	push	{r4, r5, r6, lr}	@
	.cfi_def_cfa_offset 16
	.cfi_offset 4, -16
	.cfi_offset 5, -12
	.cfi_offset 6, -8
	.cfi_offset 14, -4
	movs	r4, r1	@ __nstart, tmp120
	movs	r5, r2	@ __nfinish, tmp121
.LVL96:
.LBB785:
	.loc 4 699 45 is_stmt 1 discriminator 1 view .LVU220
	cmp	r1, r2	@ __nstart, __nfinish
	bcs	.L48		@,
.LBB786:
.LBB787:
.LBB788:
.LBB789:
.LBB790:
@ C:/Users/andre/.platformio/packages/toolchain-rp2040-earlephilhower/arm-none-eabi/include/c++/14.2.0/bits/new_allocator.h:172: 	_GLIBCXX_OPERATOR_DELETE(_GLIBCXX_SIZED_DEALLOC(__p, __n));
	.file 5 "C:/Users/andre/.platformio/packages/toolchain-rp2040-earlephilhower/arm-none-eabi/include/c++/14.2.0/bits/new_allocator.h"
	.loc 5 172 26 is_stmt 0 view .LVU221
	movs	r6, #128	@ tmp118,
	lsls	r6, r6, #2	@ tmp118, tmp118,
.LVL97:
.L50:
	.loc 5 172 26 view .LVU222
.LBE790:
.LBE789:
.LBE788:
.LBE787:
.LBI786:
	.loc 4 587 7 is_stmt 1 view .LVU223
.LBB794:
.LBB793:
.LBI788:
	.file 6 "C:/Users/andre/.platformio/packages/toolchain-rp2040-earlephilhower/arm-none-eabi/include/c++/14.2.0/bits/alloc_traits.h"
	.loc 6 512 7 view .LVU224
.LBB792:
.LBI789:
	.loc 5 156 7 view .LVU225
.LBB791:
@ C:/Users/andre/.platformio/packages/toolchain-rp2040-earlephilhower/arm-none-eabi/include/c++/14.2.0/bits/new_allocator.h:172: 	_GLIBCXX_OPERATOR_DELETE(_GLIBCXX_SIZED_DEALLOC(__p, __n));
	.loc 5 172 26 is_stmt 0 view .LVU226
	ldmia	r4!, {r0}	@ MEM[(long int * *)__n_12], MEM[(long int * *)__n_12]
.LVL98:
	.loc 5 172 26 view .LVU227
	movs	r1, r6	@, tmp118
	bl	_ZdlPvj		@
.LVL99:
	.loc 5 172 26 view .LVU228
.LBE791:
.LBE792:
.LBE793:
.LBE794:
.LBE786:
	.loc 4 699 7 is_stmt 1 discriminator 3 view .LVU229
	.loc 4 699 45 discriminator 1 view .LVU230
	cmp	r5, r4	@ __nfinish, __nstart
	bhi	.L50		@,
.L48:
	.loc 4 699 45 is_stmt 0 discriminator 1 view .LVU231
.LBE785:
@ C:/Users/andre/.platformio/packages/toolchain-rp2040-earlephilhower/arm-none-eabi/include/c++/14.2.0/bits/stl_deque.h:701:     }
	.loc 4 701 5 view .LVU232
	@ sp needed	@
.LVL100:
.LVL101:
	.loc 4 701 5 view .LVU233
	pop	{r4, r5, r6, pc}
	.cfi_endproc
.LFE2242:
	.size	_ZNSt11_Deque_baseIlSaIlEE16_M_destroy_nodesEPPlS3_, .-_ZNSt11_Deque_baseIlSaIlEE16_M_destroy_nodesEPPlS3_
	.section	.rodata._ZNSt5dequeIlSaIlEE16_M_push_back_auxIJlEEEvDpOT_.str1.4,"aMS",%progbits,1
	.align	2
.LC0:
	.ascii	"cannot create std::deque larger than max_size()\000"
	.section	.text._ZNSt5dequeIlSaIlEE16_M_push_back_auxIJlEEEvDpOT_,"axG",%progbits,_ZNSt5dequeIlSaIlEE16_M_push_back_auxIJlEEEvDpOT_,comdat
	.align	1
	.weak	_ZNSt5dequeIlSaIlEE16_M_push_back_auxIJlEEEvDpOT_
	.syntax unified
	.code	16
	.thumb_func
	.type	_ZNSt5dequeIlSaIlEE16_M_push_back_auxIJlEEEvDpOT_, %function
_ZNSt5dequeIlSaIlEE16_M_push_back_auxIJlEEEvDpOT_:
.LVL102:
.LFB2346:
	.file 7 "C:/Users/andre/.platformio/packages/toolchain-rp2040-earlephilhower/arm-none-eabi/include/c++/14.2.0/bits/deque.tcc"
	.loc 7 484 7 is_stmt 1 view -0
	.cfi_startproc
	@ args = 0, pretend = 0, frame = 0
	@ frame_needed = 0, uses_anonymous_args = 0
	.loc 7 484 7 is_stmt 0 view .LVU235
	push	{r3, r4, r5, r6, r7, lr}	@
	.cfi_def_cfa_offset 24
	.cfi_offset 3, -24
	.cfi_offset 4, -20
	.cfi_offset 5, -16
	.cfi_offset 6, -12
	.cfi_offset 7, -8
	.cfi_offset 14, -4
	mov	lr, fp	@,
	mov	r7, r10	@,
	mov	r6, r9	@,
	mov	r5, r8	@,
	push	{r5, r6, r7, lr}	@
	.cfi_def_cfa_offset 40
	.cfi_offset 8, -40
	.cfi_offset 9, -36
	.cfi_offset 10, -32
	.cfi_offset 11, -28
	movs	r4, r0	@ this, tmp244
	mov	fp, r1	@ __args#0, tmp245
.LVL103:
.LBB871:
.LBI871:
	.loc 4 1268 7 is_stmt 1 view .LVU236
.LBB872:
.LBI872:
	.loc 4 370 7 view .LVU237
.LBB873:
@ C:/Users/andre/.platformio/packages/toolchain-rp2040-earlephilhower/arm-none-eabi/include/c++/14.2.0/bits/stl_deque.h:373: 	  * (__x._M_node - __y._M_node - bool(__x._M_node))
	.loc 4 373 11 is_stmt 0 view .LVU238
	ldr	r2, [r0, #36]	@ _24, MEM[(const struct _Self &)this_6(D) + 24]._M_node
@ C:/Users/andre/.platformio/packages/toolchain-rp2040-earlephilhower/arm-none-eabi/include/c++/14.2.0/bits/stl_deque.h:373: 	  * (__x._M_node - __y._M_node - bool(__x._M_node))
	.loc 4 373 25 view .LVU239
	ldr	r1, [r0, #20]	@ _25, MEM[(const struct _Self &)this_6(D) + 8]._M_node
.LVL104:
@ C:/Users/andre/.platformio/packages/toolchain-rp2040-earlephilhower/arm-none-eabi/include/c++/14.2.0/bits/stl_deque.h:373: 	  * (__x._M_node - __y._M_node - bool(__x._M_node))
	.loc 4 373 19 view .LVU240
	subs	r6, r2, r1	@ _26, _24, _25
	asrs	r7, r6, #2	@ _27, _26,
.LVL105:
@ C:/Users/andre/.platformio/packages/toolchain-rp2040-earlephilhower/arm-none-eabi/include/c++/14.2.0/bits/stl_deque.h:374: 	  + (__x._M_cur - __x._M_first)
	.loc 4 374 18 view .LVU241
	ldr	r3, [r0, #24]	@ MEM[(const struct _Self &)this_6(D) + 24]._M_cur, MEM[(const struct _Self &)this_6(D) + 24]._M_cur
	ldr	r0, [r0, #28]	@ MEM[(const struct _Self &)this_6(D) + 24]._M_first, MEM[(const struct _Self &)this_6(D) + 24]._M_first
.LVL106:
	.loc 4 374 18 view .LVU242
	subs	r3, r3, r0	@ _34, MEM[(const struct _Self &)this_6(D) + 24]._M_cur, MEM[(const struct _Self &)this_6(D) + 24]._M_first
	asrs	r3, r3, #2	@ _35, _34,
@ C:/Users/andre/.platformio/packages/toolchain-rp2040-earlephilhower/arm-none-eabi/include/c++/14.2.0/bits/stl_deque.h:373: 	  * (__x._M_node - __y._M_node - bool(__x._M_node))
	.loc 4 373 35 view .LVU243
	movs	r0, r2	@ _28, _24
	subs	r5, r0, #1	@ tmp199, _28
	sbcs	r0, r0, r5	@ _28, _28, tmp199
@ C:/Users/andre/.platformio/packages/toolchain-rp2040-earlephilhower/arm-none-eabi/include/c++/14.2.0/bits/stl_deque.h:373: 	  * (__x._M_node - __y._M_node - bool(__x._M_node))
	.loc 4 373 33 view .LVU244
	subs	r0, r7, r0	@ _30, _27, _28
@ C:/Users/andre/.platformio/packages/toolchain-rp2040-earlephilhower/arm-none-eabi/include/c++/14.2.0/bits/stl_deque.h:373: 	  * (__x._M_node - __y._M_node - bool(__x._M_node))
	.loc 4 373 4 view .LVU245
	lsls	r0, r0, #7	@ _31, _30,
@ C:/Users/andre/.platformio/packages/toolchain-rp2040-earlephilhower/arm-none-eabi/include/c++/14.2.0/bits/stl_deque.h:374: 	  + (__x._M_cur - __x._M_first)
	.loc 4 374 4 view .LVU246
	adds	r3, r3, r0	@ _36, _35, _31
@ C:/Users/andre/.platformio/packages/toolchain-rp2040-earlephilhower/arm-none-eabi/include/c++/14.2.0/bits/stl_deque.h:375: 	  + (__y._M_last - __y._M_cur);
	.loc 4 375 19 view .LVU247
	ldr	r0, [r4, #16]	@ MEM[(const struct _Self &)this_6(D) + 8]._M_last, MEM[(const struct _Self &)this_6(D) + 8]._M_last
	ldr	r5, [r4, #8]	@ MEM[(const struct _Self &)this_6(D) + 8]._M_cur, MEM[(const struct _Self &)this_6(D) + 8]._M_cur
	subs	r0, r0, r5	@ _39, MEM[(const struct _Self &)this_6(D) + 8]._M_last, MEM[(const struct _Self &)this_6(D) + 8]._M_cur
	asrs	r0, r0, #2	@ _40, _39,
@ C:/Users/andre/.platformio/packages/toolchain-rp2040-earlephilhower/arm-none-eabi/include/c++/14.2.0/bits/stl_deque.h:375: 	  + (__y._M_last - __y._M_cur);
	.loc 4 375 31 view .LVU248
	adds	r3, r3, r0	@ _41, _36, _40
.LBE873:
.LBE872:
.LBE871:
@ C:/Users/andre/.platformio/packages/toolchain-rp2040-earlephilhower/arm-none-eabi/include/c++/14.2.0/bits/deque.tcc:492: 	if (size() == max_size())
	.loc 7 492 2 discriminator 2 view .LVU249
	ldr	r0, .L68	@ tmp209,
	cmp	r3, r0	@ _41, tmp209
	beq	.L65		@,
.LVL107:
.LBB874:
.LBI874:
	.loc 4 2168 7 is_stmt 1 view .LVU250
.LBB875:
@ C:/Users/andre/.platformio/packages/toolchain-rp2040-earlephilhower/arm-none-eabi/include/c++/14.2.0/bits/stl_deque.h:2170: 	if (__nodes_to_add + 1 > this->_M_impl._M_map_size
	.loc 4 2170 41 is_stmt 0 view .LVU251
	ldr	r0, [r4, #4]	@ _43, this_6(D)->D.37667._M_impl.D.37034._M_map_size
@ C:/Users/andre/.platformio/packages/toolchain-rp2040-earlephilhower/arm-none-eabi/include/c++/14.2.0/bits/stl_deque.h:2171: 	    - (this->_M_impl._M_finish._M_node - this->_M_impl._M_map))
	.loc 4 2171 57 view .LVU252
	ldr	r3, [r4]	@ _45, this_6(D)->D.37667._M_impl.D.37034._M_map
	mov	ip, r3	@ _45, _45
@ C:/Users/andre/.platformio/packages/toolchain-rp2040-earlephilhower/arm-none-eabi/include/c++/14.2.0/bits/stl_deque.h:2171: 	    - (this->_M_impl._M_finish._M_node - this->_M_impl._M_map))
	.loc 4 2171 41 view .LVU253
	subs	r3, r2, r3	@ _46, _24, _45
	asrs	r3, r3, #2	@ _47, _46,
@ C:/Users/andre/.platformio/packages/toolchain-rp2040-earlephilhower/arm-none-eabi/include/c++/14.2.0/bits/stl_deque.h:2171: 	    - (this->_M_impl._M_finish._M_node - this->_M_impl._M_map))
	.loc 4 2171 6 view .LVU254
	subs	r3, r0, r3	@ _49, _43, _47
@ C:/Users/andre/.platformio/packages/toolchain-rp2040-earlephilhower/arm-none-eabi/include/c++/14.2.0/bits/stl_deque.h:2170: 	if (__nodes_to_add + 1 > this->_M_impl._M_map_size
	.loc 4 2170 2 view .LVU255
	cmp	r3, #1	@ _49,
	bls	.L66		@,
.L54:
.LVL108:
	.loc 4 2170 2 view .LVU256
.LBE875:
.LBE874:
@ C:/Users/andre/.platformio/packages/toolchain-rp2040-earlephilhower/arm-none-eabi/include/c++/14.2.0/bits/deque.tcc:497: 	*(this->_M_impl._M_finish._M_node + 1) = this->_M_allocate_node();
	.loc 7 497 28 view .LVU257
	ldr	r6, [r4, #36]	@ _1, this_6(D)->D.37667._M_impl.D.37034._M_finish._M_node
.LVL109:
.LBB974:
.LBI974:
	.loc 4 580 7 is_stmt 1 view .LVU258
.LBB975:
.LBB976:
.LBI976:
	.loc 6 477 7 view .LVU259
.LBB977:
.LBI977:
	.loc 5 126 7 view .LVU260
.LBB978:
@ C:/Users/andre/.platformio/packages/toolchain-rp2040-earlephilhower/arm-none-eabi/include/c++/14.2.0/bits/new_allocator.h:151: 	return static_cast<_Tp*>(_GLIBCXX_OPERATOR_NEW(__n * sizeof(_Tp)));
	.loc 5 151 48 is_stmt 0 view .LVU261
	movs	r0, #128	@ tmp248,
	lsls	r0, r0, #2	@, tmp248,
	bl	_Znwj		@
.LVL110:
	.loc 5 151 48 view .LVU262
.LBE978:
.LBE977:
.LBE976:
.LBE975:
.LBE974:
@ C:/Users/andre/.platformio/packages/toolchain-rp2040-earlephilhower/arm-none-eabi/include/c++/14.2.0/bits/deque.tcc:497: 	*(this->_M_impl._M_finish._M_node + 1) = this->_M_allocate_node();
	.loc 7 497 41 discriminator 1 view .LVU263
	str	r0, [r6, #4]	@ tmp247, MEM[(long int * *)_1 + 4B]
@ C:/Users/andre/.platformio/packages/toolchain-rp2040-earlephilhower/arm-none-eabi/include/c++/14.2.0/bits/deque.tcc:501: 	    _Alloc_traits::construct(this->_M_impl,
	.loc 7 501 30 view .LVU264
	ldr	r3, [r4, #24]	@ _2, this_6(D)->D.37667._M_impl.D.37034._M_finish._M_cur
.LVL111:
.LBB979:
.LBI979:
	.loc 6 529 2 is_stmt 1 view .LVU265
.LBB980:
.LBI980:
	.loc 5 189 2 view .LVU266
.LBB981:
@ C:/Users/andre/.platformio/packages/toolchain-rp2040-earlephilhower/arm-none-eabi/include/c++/14.2.0/bits/new_allocator.h:191: 	{ ::new((void *)__p) _Up(std::forward<_Args>(__args)...); }
	.loc 5 191 4 is_stmt 0 discriminator 1 view .LVU267
	mov	r2, fp	@ __args#0, __args#0
	ldr	r2, [r2]	@ _8, *__args#0_11(D)
	str	r2, [r3]	@ _8, *_2
.LVL112:
	.loc 5 191 4 discriminator 1 view .LVU268
.LBE981:
.LBE980:
.LBE979:
@ C:/Users/andre/.platformio/packages/toolchain-rp2040-earlephilhower/arm-none-eabi/include/c++/14.2.0/bits/deque.tcc:507: 	    this->_M_impl._M_finish._M_set_node(this->_M_impl._M_finish._M_node
	.loc 7 507 66 view .LVU269
	ldr	r3, [r4, #36]	@ _3, this_6(D)->D.37667._M_impl.D.37034._M_finish._M_node
.LVL113:
.LBB982:
.LBI982:
	.loc 4 263 7 is_stmt 1 view .LVU270
.LBE982:
@ C:/Users/andre/.platformio/packages/toolchain-rp2040-earlephilhower/arm-none-eabi/include/c++/14.2.0/bits/deque.tcc:507: 	    this->_M_impl._M_finish._M_set_node(this->_M_impl._M_finish._M_node
	.loc 7 507 41 is_stmt 0 view .LVU271
	adds	r2, r3, #4	@ _4, _3,
.LVL114:
.LBB984:
.LBB983:
@ C:/Users/andre/.platformio/packages/toolchain-rp2040-earlephilhower/arm-none-eabi/include/c++/14.2.0/bits/stl_deque.h:265: 	_M_node = __new_node;
	.loc 4 265 10 view .LVU272
	str	r2, [r4, #36]	@ _4, MEM[(struct _Deque_iterator *)this_6(D) + 24B]._M_node
@ C:/Users/andre/.platformio/packages/toolchain-rp2040-earlephilhower/arm-none-eabi/include/c++/14.2.0/bits/stl_deque.h:266: 	_M_first = *__new_node;
	.loc 4 266 11 view .LVU273
	ldr	r3, [r3, #4]	@ _17, MEM[(long int * *)_3 + 4B]
	str	r3, [r4, #28]	@ _17, MEM[(struct _Deque_iterator *)this_6(D) + 24B]._M_first
@ C:/Users/andre/.platformio/packages/toolchain-rp2040-earlephilhower/arm-none-eabi/include/c++/14.2.0/bits/stl_deque.h:267: 	_M_last = _M_first + difference_type(_S_buffer_size());
	.loc 4 267 21 discriminator 1 view .LVU274
	movs	r2, #128	@ tmp269,
.LVL115:
	.loc 4 267 21 discriminator 1 view .LVU275
	lsls	r2, r2, #2	@ tmp269, tmp269,
	adds	r2, r3, r2	@ _18, _17, tmp269
@ C:/Users/andre/.platformio/packages/toolchain-rp2040-earlephilhower/arm-none-eabi/include/c++/14.2.0/bits/stl_deque.h:267: 	_M_last = _M_first + difference_type(_S_buffer_size());
	.loc 4 267 10 discriminator 1 view .LVU276
	str	r2, [r4, #32]	@ _18, MEM[(struct _Deque_iterator *)this_6(D) + 24B]._M_last
.LVL116:
	.loc 4 267 10 discriminator 1 view .LVU277
.LBE983:
.LBE984:
@ C:/Users/andre/.platformio/packages/toolchain-rp2040-earlephilhower/arm-none-eabi/include/c++/14.2.0/bits/deque.tcc:509: 	    this->_M_impl._M_finish._M_cur = this->_M_impl._M_finish._M_first;
	.loc 7 509 37 view .LVU278
	str	r3, [r4, #24]	@ _17, this_6(D)->D.37667._M_impl.D.37034._M_finish._M_cur
@ C:/Users/andre/.platformio/packages/toolchain-rp2040-earlephilhower/arm-none-eabi/include/c++/14.2.0/bits/deque.tcc:516:       }
	.loc 7 516 7 view .LVU279
	@ sp needed	@
.LVL117:
.LVL118:
	.loc 7 516 7 view .LVU280
	pop	{r4, r5, r6, r7}
	mov	fp, r7
	mov	r10, r6
	mov	r9, r5
	mov	r8, r4
	pop	{r3, r4, r5, r6, r7, pc}
.LVL119:
.L65:
@ C:/Users/andre/.platformio/packages/toolchain-rp2040-earlephilhower/arm-none-eabi/include/c++/14.2.0/bits/deque.tcc:493: 	  __throw_length_error(
	.loc 7 493 24 view .LVU281
	ldr	r0, .L68+4	@ tmp210,
	bl	_ZSt20__throw_length_errorPKc		@
.LVL120:
.L66:
.LBB985:
.LBB973:
.LBB876:
.LBI876:
	.loc 7 931 5 is_stmt 1 view .LVU282
.LBB877:
@ C:/Users/andre/.platformio/packages/toolchain-rp2040-earlephilhower/arm-none-eabi/include/c++/14.2.0/bits/deque.tcc:936:       const size_type __new_num_nodes = __old_num_nodes + __nodes_to_add;
	.loc 7 936 23 is_stmt 0 view .LVU283
	adds	r3, r7, #2	@ __new_num_nodes, _27,
.LVL121:
.LBB878:
@ C:/Users/andre/.platformio/packages/toolchain-rp2040-earlephilhower/arm-none-eabi/include/c++/14.2.0/bits/deque.tcc:939:       if (this->_M_impl._M_map_size > 2 * __new_num_nodes)
	.loc 7 939 41 view .LVU284
	lsls	r5, r3, #1	@ _59, __new_num_nodes,
@ C:/Users/andre/.platformio/packages/toolchain-rp2040-earlephilhower/arm-none-eabi/include/c++/14.2.0/bits/deque.tcc:939:       if (this->_M_impl._M_map_size > 2 * __new_num_nodes)
	.loc 7 939 7 view .LVU285
	cmp	r0, r5	@ _43, _59
	bls	.L55		@,
@ C:/Users/andre/.platformio/packages/toolchain-rp2040-earlephilhower/arm-none-eabi/include/c++/14.2.0/bits/deque.tcc:942: 					 - __new_num_nodes) / 2
	.loc 7 942 7 view .LVU286
	subs	r7, r0, r3	@ _61, _43, __new_num_nodes
.LVL122:
@ C:/Users/andre/.platformio/packages/toolchain-rp2040-earlephilhower/arm-none-eabi/include/c++/14.2.0/bits/deque.tcc:942: 					 - __new_num_nodes) / 2
	.loc 7 942 26 view .LVU287
	lsrs	r7, r7, #1	@ _62, _61,
@ C:/Users/andre/.platformio/packages/toolchain-rp2040-earlephilhower/arm-none-eabi/include/c++/14.2.0/bits/deque.tcc:941: 	  __new_nstart = this->_M_impl._M_map + (this->_M_impl._M_map_size
	.loc 7 941 40 view .LVU288
	lsls	r7, r7, #2	@ _63, _62,
@ C:/Users/andre/.platformio/packages/toolchain-rp2040-earlephilhower/arm-none-eabi/include/c++/14.2.0/bits/deque.tcc:941: 	  __new_nstart = this->_M_impl._M_map + (this->_M_impl._M_map_size
	.loc 7 941 17 view .LVU289
	add	r7, r7, ip	@ __new_nstart, _45
.LVL123:
@ C:/Users/andre/.platformio/packages/toolchain-rp2040-earlephilhower/arm-none-eabi/include/c++/14.2.0/bits/deque.tcc:944: 	  if (__new_nstart < this->_M_impl._M_start._M_node)
	.loc 7 944 4 view .LVU290
	cmp	r1, r7	@ _25, __new_nstart
	bls	.L56		@,
.LVL124:
.LBB879:
.LBI879:
	.loc 3 642 5 is_stmt 1 view .LVU291
.LBB880:
.LBI880:
	.loc 3 553 5 view .LVU292
.LBB881:
.LBI881:
	.loc 3 547 5 view .LVU293
.LBB882:
.LBI882:
	.loc 3 512 5 view .LVU294
.LBB883:
.LBB884:
.LBI884:
	.loc 3 448 2 view .LVU295
.LBE884:
.LBE883:
.LBE882:
.LBE881:
.LBE880:
.LBE879:
@ C:/Users/andre/.platformio/packages/toolchain-rp2040-earlephilhower/arm-none-eabi/include/c++/14.2.0/bits/deque.tcc:945: 	    std::copy(this->_M_impl._M_start._M_node,
	.loc 7 945 15 is_stmt 0 view .LVU296
	adds	r2, r2, #4	@ _68,
.LVL125:
.LBB899:
.LBB897:
.LBB895:
.LBB893:
.LBB891:
.LBB889:
.LBB885:
@ C:/Users/andre/.platformio/packages/toolchain-rp2040-earlephilhower/arm-none-eabi/include/c++/14.2.0/bits/stl_algobase.h:450: 	  const ptrdiff_t _Num = __last - __first;
	.loc 3 450 34 view .LVU297
	subs	r2, r2, r1	@ _97, _68, _25
.LVL126:
@ C:/Users/andre/.platformio/packages/toolchain-rp2040-earlephilhower/arm-none-eabi/include/c++/14.2.0/bits/stl_algobase.h:451: 	  if (__builtin_expect(_Num > 1, true))
	.loc 3 451 4 discriminator 1 view .LVU298
	cmp	r2, #4	@ _97,
	ble	.L57		@,
@ C:/Users/andre/.platformio/packages/toolchain-rp2040-earlephilhower/arm-none-eabi/include/c++/14.2.0/bits/stl_algobase.h:452: 	    __builtin_memmove(__result, __first, sizeof(_Tp) * _Num);
	.loc 3 452 23 view .LVU299
	movs	r0, r7	@, __new_nstart
	bl	memmove		@
.LVL127:
.L58:
	.loc 3 452 23 view .LVU300
.LBE885:
.LBE889:
.LBE891:
.LBE893:
.LBE895:
.LBE897:
.LBE899:
.LBE878:
.LBB966:
.LBI966:
	.loc 4 263 7 is_stmt 1 view .LVU301
.LBB967:
@ C:/Users/andre/.platformio/packages/toolchain-rp2040-earlephilhower/arm-none-eabi/include/c++/14.2.0/bits/stl_deque.h:265: 	_M_node = __new_node;
	.loc 4 265 10 is_stmt 0 view .LVU302
	str	r7, [r4, #20]	@ __new_nstart, MEM[(struct _Deque_iterator *)this_6(D) + 8B]._M_node
@ C:/Users/andre/.platformio/packages/toolchain-rp2040-earlephilhower/arm-none-eabi/include/c++/14.2.0/bits/stl_deque.h:266: 	_M_first = *__new_node;
	.loc 4 266 11 view .LVU303
	ldr	r3, [r7]	@ _91, *__new_nstart_90
	str	r3, [r4, #12]	@ _91, MEM[(struct _Deque_iterator *)this_6(D) + 8B]._M_first
@ C:/Users/andre/.platformio/packages/toolchain-rp2040-earlephilhower/arm-none-eabi/include/c++/14.2.0/bits/stl_deque.h:267: 	_M_last = _M_first + difference_type(_S_buffer_size());
	.loc 4 267 21 discriminator 1 view .LVU304
	movs	r2, #128	@ tmp265,
	lsls	r2, r2, #2	@ tmp265, tmp265,
	mov	ip, r2	@ tmp265, tmp265
	add	r3, r3, ip	@ _92, tmp265
@ C:/Users/andre/.platformio/packages/toolchain-rp2040-earlephilhower/arm-none-eabi/include/c++/14.2.0/bits/stl_deque.h:267: 	_M_last = _M_first + difference_type(_S_buffer_size());
	.loc 4 267 10 discriminator 1 view .LVU305
	str	r3, [r4, #16]	@ _92, MEM[(struct _Deque_iterator *)this_6(D) + 8B]._M_last
.LVL128:
	.loc 4 267 10 discriminator 1 view .LVU306
.LBE967:
.LBE966:
@ C:/Users/andre/.platformio/packages/toolchain-rp2040-earlephilhower/arm-none-eabi/include/c++/14.2.0/bits/deque.tcc:972:       this->_M_impl._M_finish._M_set_node(__new_nstart + __old_num_nodes - 1);
	.loc 7 972 42 view .LVU307
	adds	r7, r7, r6	@ _94, __new_nstart, _26
.LVL129:
.LBB968:
.LBI968:
	.loc 4 263 7 is_stmt 1 view .LVU308
.LBB969:
@ C:/Users/andre/.platformio/packages/toolchain-rp2040-earlephilhower/arm-none-eabi/include/c++/14.2.0/bits/stl_deque.h:265: 	_M_node = __new_node;
	.loc 4 265 10 is_stmt 0 view .LVU309
	str	r7, [r4, #36]	@ _94, MEM[(struct _Deque_iterator *)this_6(D) + 24B]._M_node
@ C:/Users/andre/.platformio/packages/toolchain-rp2040-earlephilhower/arm-none-eabi/include/c++/14.2.0/bits/stl_deque.h:266: 	_M_first = *__new_node;
	.loc 4 266 11 view .LVU310
	ldr	r3, [r7]	@ _95, *_94
	str	r3, [r4, #28]	@ _95, MEM[(struct _Deque_iterator *)this_6(D) + 24B]._M_first
@ C:/Users/andre/.platformio/packages/toolchain-rp2040-earlephilhower/arm-none-eabi/include/c++/14.2.0/bits/stl_deque.h:267: 	_M_last = _M_first + difference_type(_S_buffer_size());
	.loc 4 267 21 discriminator 1 view .LVU311
	add	r3, r3, ip	@ _96, tmp267
@ C:/Users/andre/.platformio/packages/toolchain-rp2040-earlephilhower/arm-none-eabi/include/c++/14.2.0/bits/stl_deque.h:267: 	_M_last = _M_first + difference_type(_S_buffer_size());
	.loc 4 267 10 discriminator 1 view .LVU312
	str	r3, [r4, #32]	@ _96, MEM[(struct _Deque_iterator *)this_6(D) + 24B]._M_last
.LVL130:
	.loc 4 267 10 discriminator 1 view .LVU313
.LBE969:
.LBE968:
.LBE877:
.LBE876:
	b	.L54		@
.LVL131:
.L57:
.LBB972:
.LBB971:
.LBB970:
.LBB900:
.LBB898:
.LBB896:
.LBB894:
.LBB892:
.LBB890:
.LBB888:
@ C:/Users/andre/.platformio/packages/toolchain-rp2040-earlephilhower/arm-none-eabi/include/c++/14.2.0/bits/stl_algobase.h:453: 	  else if (_Num == 1)
	.loc 3 453 9 view .LVU314
	cmp	r2, #4	@ _97,
	bne	.L58		@,
.LVL132:
.LBB886:
.LBI886:
	.loc 3 412 2 is_stmt 1 view .LVU315
.LBB887:
@ C:/Users/andre/.platformio/packages/toolchain-rp2040-earlephilhower/arm-none-eabi/include/c++/14.2.0/bits/stl_algobase.h:413: 	{ *__to = *__from; }
	.loc 3 413 10 is_stmt 0 view .LVU316
	ldr	r3, [r1]	@ _102, *_25
.LVL133:
	.loc 3 413 10 view .LVU317
	str	r3, [r7]	@ _102, *__new_nstart_67
.LVL134:
@ C:/Users/andre/.platformio/packages/toolchain-rp2040-earlephilhower/arm-none-eabi/include/c++/14.2.0/bits/stl_algobase.h:413: 	{ *__to = *__from; }
	.loc 3 413 21 view .LVU318
	b	.L58		@
.LVL135:
.L56:
	.loc 3 413 21 view .LVU319
.LBE887:
.LBE886:
.LBE888:
.LBE890:
.LBE892:
.LBE894:
.LBE896:
.LBE898:
.LBE900:
@ C:/Users/andre/.platformio/packages/toolchain-rp2040-earlephilhower/arm-none-eabi/include/c++/14.2.0/bits/deque.tcc:949: 	    std::copy_backward(this->_M_impl._M_start._M_node,
	.loc 7 949 24 view .LVU320
	adds	r0, r6, #4	@ _71, _26,
	adds	r0, r7, r0	@ _72, __new_nstart, _71
.LVL136:
.LBB901:
.LBI901:
	.loc 3 878 5 is_stmt 1 view .LVU321
.LBB902:
.LBI902:
	.loc 3 823 5 view .LVU322
.LBB903:
.LBI903:
	.loc 3 795 5 view .LVU323
.LBB904:
.LBI904:
	.loc 3 777 5 view .LVU324
.LBB905:
.LBB906:
.LBI906:
	.loc 3 762 2 view .LVU325
.LBE906:
.LBE905:
.LBE904:
.LBE903:
.LBE902:
.LBE901:
@ C:/Users/andre/.platformio/packages/toolchain-rp2040-earlephilhower/arm-none-eabi/include/c++/14.2.0/bits/deque.tcc:949: 	    std::copy_backward(this->_M_impl._M_start._M_node,
	.loc 7 949 24 is_stmt 0 view .LVU326
	adds	r2, r2, #4	@ _69,
.LVL137:
.LBB915:
.LBB914:
.LBB913:
.LBB912:
.LBB911:
.LBB910:
.LBB907:
@ C:/Users/andre/.platformio/packages/toolchain-rp2040-earlephilhower/arm-none-eabi/include/c++/14.2.0/bits/stl_algobase.h:764: 	  const ptrdiff_t _Num = __last - __first;
	.loc 3 764 34 view .LVU327
	subs	r2, r2, r1	@ _105, _69, _25
.LVL138:
@ C:/Users/andre/.platformio/packages/toolchain-rp2040-earlephilhower/arm-none-eabi/include/c++/14.2.0/bits/stl_algobase.h:765: 	  if (__builtin_expect(_Num > 1, true))
	.loc 3 765 4 discriminator 1 view .LVU328
	cmp	r2, #4	@ _105,
	ble	.L59		@,
@ C:/Users/andre/.platformio/packages/toolchain-rp2040-earlephilhower/arm-none-eabi/include/c++/14.2.0/bits/stl_algobase.h:766: 	    __builtin_memmove(__result - _Num, __first, sizeof(_Tp) * _Num);
	.loc 3 766 33 view .LVU329
	subs	r0, r0, r2	@ _111, _72, _105
.LVL139:
@ C:/Users/andre/.platformio/packages/toolchain-rp2040-earlephilhower/arm-none-eabi/include/c++/14.2.0/bits/stl_algobase.h:766: 	    __builtin_memmove(__result - _Num, __first, sizeof(_Tp) * _Num);
	.loc 3 766 23 view .LVU330
	bl	memmove		@
.LVL140:
	.loc 3 766 23 view .LVU331
	b	.L58		@
.LVL141:
.L59:
@ C:/Users/andre/.platformio/packages/toolchain-rp2040-earlephilhower/arm-none-eabi/include/c++/14.2.0/bits/stl_algobase.h:767: 	  else if (_Num == 1)
	.loc 3 767 9 view .LVU332
	cmp	r2, #4	@ _105,
	bne	.L58		@,
.LVL142:
.LBB908:
.LBI908:
	.loc 3 412 2 is_stmt 1 view .LVU333
.LBB909:
@ C:/Users/andre/.platformio/packages/toolchain-rp2040-earlephilhower/arm-none-eabi/include/c++/14.2.0/bits/stl_algobase.h:413: 	{ *__to = *__from; }
	.loc 3 413 10 is_stmt 0 view .LVU334
	ldr	r3, [r1]	@ _112, *_25
.LVL143:
	.loc 3 413 10 view .LVU335
	subs	r0, r0, #4	@ tmp224,
.LVL144:
	.loc 3 413 10 view .LVU336
	str	r3, [r0]	@ _112, MEM[(long int * *)_72 + 4294967292B]
.LVL145:
@ C:/Users/andre/.platformio/packages/toolchain-rp2040-earlephilhower/arm-none-eabi/include/c++/14.2.0/bits/stl_algobase.h:413: 	{ *__to = *__from; }
	.loc 3 413 21 view .LVU337
	b	.L58		@
.LVL146:
.L55:
	.loc 3 413 21 view .LVU338
.LBE909:
.LBE908:
.LBE907:
.LBE910:
.LBE911:
.LBE912:
.LBE913:
.LBE914:
.LBE915:
.LBB916:
.LBB917:
.LBI917:
	.loc 3 257 5 is_stmt 1 view .LVU339
.LBB918:
@ C:/Users/andre/.platformio/packages/toolchain-rp2040-earlephilhower/arm-none-eabi/include/c++/14.2.0/bits/stl_algobase.h:262:       if (__a < __b)
	.loc 3 262 7 is_stmt 0 view .LVU340
	subs	r3, r0, #0	@ _73, _43,
.LVL147:
	.loc 3 262 7 view .LVU341
	bne	.L60		@,
	movs	r3, #1	@ _73,
.L60:
	.loc 3 262 7 view .LVU342
.LBE918:
.LBE917:
@ C:/Users/andre/.platformio/packages/toolchain-rp2040-earlephilhower/arm-none-eabi/include/c++/14.2.0/bits/deque.tcc:956: 				     + std::max(this->_M_impl._M_map_size,
	.loc 7 956 10 discriminator 1 view .LVU343
	mov	r8, r3	@ _73, _73
	add	r8, r8, r0	@ _73, _43
@ C:/Users/andre/.platformio/packages/toolchain-rp2040-earlephilhower/arm-none-eabi/include/c++/14.2.0/bits/deque.tcc:955: 	  size_type __new_map_size = this->_M_impl._M_map_size
	.loc 7 955 14 view .LVU344
	movs	r3, #2	@ __new_map_size,
	add	r3, r3, r8	@ __new_map_size, _74
	mov	r10, r3	@ __new_map_size, __new_map_size
.LVL148:
.LBB919:
.LBI919:
	.loc 4 594 7 is_stmt 1 view .LVU345
.LBB920:
.LBB921:
.LBI921:
	.loc 4 576 7 view .LVU346
.LBB922:
.LBI922:
	.file 8 "C:/Users/andre/.platformio/packages/toolchain-rp2040-earlephilhower/arm-none-eabi/include/c++/14.2.0/bits/allocator.h"
	.loc 8 176 2 view .LVU347
.LBB923:
.LBI923:
	.loc 5 88 7 view .LVU348
	.loc 5 88 7 is_stmt 0 view .LVU349
.LBE923:
.LBE922:
.LBE921:
.LBB924:
.LBI924:
	.loc 6 477 7 is_stmt 1 view .LVU350
.LBB925:
.LBI925:
	.loc 5 126 7 view .LVU351
.LBB926:
@ C:/Users/andre/.platformio/packages/toolchain-rp2040-earlephilhower/arm-none-eabi/include/c++/14.2.0/bits/new_allocator.h:134: 	if (__builtin_expect(__n > this->_M_max_size(), false))
	.loc 5 134 2 is_stmt 0 discriminator 1 view .LVU352
	movs	r3, #128	@ tmp226,
.LVL149:
	.loc 5 134 2 discriminator 1 view .LVU353
	lsls	r3, r3, #22	@ tmp226, tmp226,
	cmp	r10, r3	@ __new_map_size, tmp226
	bcs	.L67		@,
@ C:/Users/andre/.platformio/packages/toolchain-rp2040-earlephilhower/arm-none-eabi/include/c++/14.2.0/bits/new_allocator.h:151: 	return static_cast<_Tp*>(_GLIBCXX_OPERATOR_NEW(__n * sizeof(_Tp)));
	.loc 5 151 48 view .LVU354
	mov	r3, r10	@ __new_map_size, __new_map_size
	lsls	r0, r3, #2	@ _119, __new_map_size,
	bl	_Znwj		@
.LVL150:
	mov	r9, r0	@ _120, tmp246
.LVL151:
	.loc 5 151 48 view .LVU355
.LBE926:
.LBE925:
.LBE924:
.LBB929:
.LBI929:
	.loc 8 182 7 is_stmt 1 view .LVU356
.LBB930:
.LBI930:
	.loc 5 104 7 view .LVU357
	.loc 5 104 7 is_stmt 0 view .LVU358
.LBE930:
.LBE929:
.LBE920:
.LBE919:
@ C:/Users/andre/.platformio/packages/toolchain-rp2040-earlephilhower/arm-none-eabi/include/c++/14.2.0/bits/deque.tcc:960: 	  __new_nstart = __new_map + (__new_map_size - __new_num_nodes) / 2
	.loc 7 960 47 view .LVU359
	mov	r3, r8	@ _74, _74
	subs	r7, r3, r7	@ _77, _74, _27
.LVL152:
@ C:/Users/andre/.platformio/packages/toolchain-rp2040-earlephilhower/arm-none-eabi/include/c++/14.2.0/bits/deque.tcc:960: 	  __new_nstart = __new_map + (__new_map_size - __new_num_nodes) / 2
	.loc 7 960 66 view .LVU360
	lsrs	r7, r7, #1	@ _78, _77,
@ C:/Users/andre/.platformio/packages/toolchain-rp2040-earlephilhower/arm-none-eabi/include/c++/14.2.0/bits/deque.tcc:960: 	  __new_nstart = __new_map + (__new_map_size - __new_num_nodes) / 2
	.loc 7 960 29 view .LVU361
	lsls	r7, r7, #2	@ _79, _78,
@ C:/Users/andre/.platformio/packages/toolchain-rp2040-earlephilhower/arm-none-eabi/include/c++/14.2.0/bits/deque.tcc:960: 	  __new_nstart = __new_map + (__new_map_size - __new_num_nodes) / 2
	.loc 7 960 17 view .LVU362
	add	r7, r7, r9	@ __new_nstart, _120
.LVL153:
@ C:/Users/andre/.platformio/packages/toolchain-rp2040-earlephilhower/arm-none-eabi/include/c++/14.2.0/bits/deque.tcc:962: 	  std::copy(this->_M_impl._M_start._M_node,
	.loc 7 962 13 view .LVU363
	ldr	r1, [r4, #20]	@ _84, this_6(D)->D.37667._M_impl.D.37034._M_start._M_node
.LVL154:
.LBB933:
.LBI933:
	.loc 3 642 5 is_stmt 1 view .LVU364
.LBB934:
.LBI934:
	.loc 3 553 5 view .LVU365
.LBB935:
.LBI935:
	.loc 3 547 5 view .LVU366
.LBB936:
.LBI936:
	.loc 3 512 5 view .LVU367
.LBB937:
.LBB938:
.LBI938:
	.loc 3 448 2 view .LVU368
.LBE938:
.LBE937:
.LBE936:
.LBE935:
.LBE934:
.LBE933:
@ C:/Users/andre/.platformio/packages/toolchain-rp2040-earlephilhower/arm-none-eabi/include/c++/14.2.0/bits/deque.tcc:962: 	  std::copy(this->_M_impl._M_start._M_node,
	.loc 7 962 13 is_stmt 0 view .LVU369
	ldr	r2, [r4, #36]	@ this_6(D)->D.37667._M_impl.D.37034._M_finish._M_node, this_6(D)->D.37667._M_impl.D.37034._M_finish._M_node
	adds	r2, r2, #4	@ _86,
.LVL155:
.LBB953:
.LBB951:
.LBB949:
.LBB947:
.LBB945:
.LBB943:
.LBB939:
@ C:/Users/andre/.platformio/packages/toolchain-rp2040-earlephilhower/arm-none-eabi/include/c++/14.2.0/bits/stl_algobase.h:450: 	  const ptrdiff_t _Num = __last - __first;
	.loc 3 450 34 view .LVU370
	subs	r2, r2, r1	@ _121, _86, _84
.LVL156:
@ C:/Users/andre/.platformio/packages/toolchain-rp2040-earlephilhower/arm-none-eabi/include/c++/14.2.0/bits/stl_algobase.h:451: 	  if (__builtin_expect(_Num > 1, true))
	.loc 3 451 4 discriminator 1 view .LVU371
	cmp	r2, #4	@ _121,
	ble	.L63		@,
@ C:/Users/andre/.platformio/packages/toolchain-rp2040-earlephilhower/arm-none-eabi/include/c++/14.2.0/bits/stl_algobase.h:452: 	    __builtin_memmove(__result, __first, sizeof(_Tp) * _Num);
	.loc 3 452 23 view .LVU372
	movs	r0, r7	@, __new_nstart
.LVL157:
	.loc 3 452 23 view .LVU373
	bl	memmove		@
.LVL158:
.L64:
	.loc 3 452 23 view .LVU374
.LBE939:
.LBE943:
.LBE945:
.LBE947:
.LBE949:
.LBE951:
.LBE953:
.LBB954:
.LBI954:
	.loc 4 601 7 is_stmt 1 view .LVU375
.LBB955:
.LBB956:
.LBI956:
	.loc 4 576 7 view .LVU376
.LBB957:
.LBI957:
	.loc 8 176 2 view .LVU377
.LBB958:
.LBI958:
	.loc 5 88 7 view .LVU378
	.loc 5 88 7 is_stmt 0 view .LVU379
.LBE958:
.LBE957:
.LBE956:
.LBB959:
.LBI959:
	.loc 6 512 7 is_stmt 1 view .LVU380
.LBB960:
.LBI960:
	.loc 5 156 7 view .LVU381
.LBB961:
@ C:/Users/andre/.platformio/packages/toolchain-rp2040-earlephilhower/arm-none-eabi/include/c++/14.2.0/bits/new_allocator.h:172: 	_GLIBCXX_OPERATOR_DELETE(_GLIBCXX_SIZED_DEALLOC(__p, __n));
	.loc 5 172 26 is_stmt 0 view .LVU382
	ldr	r1, [r4, #4]	@ this_6(D)->D.37667._M_impl.D.37034._M_map_size, this_6(D)->D.37667._M_impl.D.37034._M_map_size
	lsls	r1, r1, #2	@ _89, this_6(D)->D.37667._M_impl.D.37034._M_map_size,
	ldr	r0, [r4]	@ this_6(D)->D.37667._M_impl.D.37034._M_map, this_6(D)->D.37667._M_impl.D.37034._M_map
	bl	_ZdlPvj		@
.LVL159:
	.loc 5 172 26 view .LVU383
.LBE961:
.LBE960:
.LBE959:
.LBB962:
.LBI962:
	.loc 8 182 7 is_stmt 1 view .LVU384
.LBB963:
.LBI963:
	.loc 5 104 7 view .LVU385
	.loc 5 104 7 is_stmt 0 view .LVU386
.LBE963:
.LBE962:
.LBE955:
.LBE954:
@ C:/Users/andre/.platformio/packages/toolchain-rp2040-earlephilhower/arm-none-eabi/include/c++/14.2.0/bits/deque.tcc:967: 	  this->_M_impl._M_map = __new_map;
	.loc 7 967 25 view .LVU387
	mov	r3, r9	@ _120, _120
	str	r3, [r4]	@ _120, this_6(D)->D.37667._M_impl.D.37034._M_map
@ C:/Users/andre/.platformio/packages/toolchain-rp2040-earlephilhower/arm-none-eabi/include/c++/14.2.0/bits/deque.tcc:968: 	  this->_M_impl._M_map_size = __new_map_size;
	.loc 7 968 30 view .LVU388
	mov	r3, r10	@ __new_map_size, __new_map_size
	str	r3, [r4, #4]	@ __new_map_size, this_6(D)->D.37667._M_impl.D.37034._M_map_size
	b	.L58		@
.LVL160:
.L67:
.LBB964:
.LBB932:
.LBB931:
.LBB928:
.LBB927:
@ C:/Users/andre/.platformio/packages/toolchain-rp2040-earlephilhower/arm-none-eabi/include/c++/14.2.0/bits/new_allocator.h:138: 	    if (__n > (std::size_t(-1) / sizeof(_Tp)))
	.loc 5 138 6 view .LVU389
	movs	r3, #128	@ tmp227,
	lsls	r3, r3, #23	@ tmp227, tmp227,
	cmp	r10, r3	@ __new_map_size, tmp227
	bcc	.L62		@,
@ C:/Users/andre/.platformio/packages/toolchain-rp2040-earlephilhower/arm-none-eabi/include/c++/14.2.0/bits/new_allocator.h:139: 	      std::__throw_bad_array_new_length();
	.loc 5 139 41 view .LVU390
	bl	_ZSt28__throw_bad_array_new_lengthv		@
.LVL161:
.L62:
@ C:/Users/andre/.platformio/packages/toolchain-rp2040-earlephilhower/arm-none-eabi/include/c++/14.2.0/bits/new_allocator.h:140: 	    std::__throw_bad_alloc();
	.loc 5 140 28 view .LVU391
	bl	_ZSt17__throw_bad_allocv		@
.LVL162:
.L63:
	.loc 5 140 28 view .LVU392
.LBE927:
.LBE928:
.LBE931:
.LBE932:
.LBE964:
.LBB965:
.LBB952:
.LBB950:
.LBB948:
.LBB946:
.LBB944:
.LBB942:
@ C:/Users/andre/.platformio/packages/toolchain-rp2040-earlephilhower/arm-none-eabi/include/c++/14.2.0/bits/stl_algobase.h:453: 	  else if (_Num == 1)
	.loc 3 453 9 view .LVU393
	cmp	r2, #4	@ _121,
	bne	.L64		@,
.LVL163:
.LBB940:
.LBI940:
	.loc 3 412 2 is_stmt 1 view .LVU394
.LBB941:
@ C:/Users/andre/.platformio/packages/toolchain-rp2040-earlephilhower/arm-none-eabi/include/c++/14.2.0/bits/stl_algobase.h:413: 	{ *__to = *__from; }
	.loc 3 413 10 is_stmt 0 view .LVU395
	ldr	r3, [r1]	@ _126, *_84
	str	r3, [r7]	@ _126, *__new_nstart_83
.LVL164:
@ C:/Users/andre/.platformio/packages/toolchain-rp2040-earlephilhower/arm-none-eabi/include/c++/14.2.0/bits/stl_algobase.h:413: 	{ *__to = *__from; }
	.loc 3 413 21 view .LVU396
	b	.L64		@
.L69:
	.align	2
.L68:
	.word	536870911
	.word	.LC0
.LBE941:
.LBE940:
.LBE942:
.LBE944:
.LBE946:
.LBE948:
.LBE950:
.LBE952:
.LBE965:
.LBE916:
.LBE970:
.LBE971:
.LBE972:
.LBE973:
.LBE985:
	.cfi_endproc
.LFE2346:
	.size	_ZNSt5dequeIlSaIlEE16_M_push_back_auxIJlEEEvDpOT_, .-_ZNSt5dequeIlSaIlEE16_M_push_back_auxIJlEEEvDpOT_
	.section	.text._ZN6filter9FIRFilter5writeEPKtjj,"ax",%progbits
	.align	1
	.global	_ZN6filter9FIRFilter5writeEPKtjj
	.syntax unified
	.code	16
	.thumb_func
	.type	_ZN6filter9FIRFilter5writeEPKtjj, %function
_ZN6filter9FIRFilter5writeEPKtjj:
.LVL165:
.LFB2070:
	.loc 1 8 73 is_stmt 1 view -0
	.cfi_startproc
	@ args = 0, pretend = 0, frame = 16
	@ frame_needed = 0, uses_anonymous_args = 0
	.loc 1 8 73 is_stmt 0 view .LVU398
	push	{r4, r5, r6, r7, lr}	@
	.cfi_def_cfa_offset 20
	.cfi_offset 4, -20
	.cfi_offset 5, -16
	.cfi_offset 6, -12
	.cfi_offset 7, -8
	.cfi_offset 14, -4
	mov	lr, fp	@,
	mov	r7, r10	@,
	mov	r6, r9	@,
	mov	r5, r8	@,
	push	{r5, r6, r7, lr}	@
	.cfi_def_cfa_offset 36
	.cfi_offset 8, -36
	.cfi_offset 9, -32
	.cfi_offset 10, -28
	.cfi_offset 11, -24
	sub	sp, sp, #20	@,,
	.cfi_def_cfa_offset 56
	movs	r4, r0	@ this, tmp225
	str	r1, [sp]	@ tmp226, %sfp
	mov	r9, r2	@ length, tmp227
	mov	r10, r3	@ step, tmp228
	.loc 1 9 5 is_stmt 1 view .LVU399
.LVL166:
.LBB1012:
.LBI1012:
	.loc 2 992 7 view .LVU400
.LBB1013:
@ C:/Users/andre/.platformio/packages/toolchain-rp2040-earlephilhower/arm-none-eabi/include/c++/14.2.0/bits/stl_vector.h:993:       { return size_type(this->_M_impl._M_finish - this->_M_impl._M_start); }
	.loc 2 993 50 is_stmt 0 view .LVU401
	ldr	r3, [r0, #12]	@ MEM[(const struct vector *)this_25(D) + 8B].D.36436._M_impl.D.35737._M_finish, MEM[(const struct vector *)this_25(D) + 8B].D.36436._M_impl.D.35737._M_finish
.LVL167:
	.loc 2 993 50 view .LVU402
	ldr	r2, [r0, #8]	@ MEM[(const struct vector *)this_25(D) + 8B].D.36436._M_impl.D.35737._M_start, MEM[(const struct vector *)this_25(D) + 8B].D.36436._M_impl.D.35737._M_start
.LVL168:
	.loc 2 993 50 view .LVU403
	subs	r3, r3, r2	@ _27, MEM[(const struct vector *)this_25(D) + 8B].D.36436._M_impl.D.35737._M_finish, MEM[(const struct vector *)this_25(D) + 8B].D.36436._M_impl.D.35737._M_start
	asrs	r3, r3, #2	@ _45, _27,
	str	r3, [sp, #4]	@ _45, %sfp
.LVL169:
	.loc 2 993 50 view .LVU404
.LBE1013:
.LBE1012:
	.loc 1 11 5 is_stmt 1 view .LVU405
.LBB1014:
	.loc 1 11 36 discriminator 1 view .LVU406
	mov	r3, r9	@ length, length
.LVL170:
	.loc 1 11 36 is_stmt 0 discriminator 1 view .LVU407
	cmp	r3, #0	@ length,
	beq	.L70		@,
@ lib/filter/src/filter.cpp:11:     for (size_t in_ptr = 0; in_ptr < length; in_ptr += step) {
	.loc 1 11 17 view .LVU408
	movs	r5, #0	@ in_ptr,
.LBB1015:
@ lib/filter/src/filter.cpp:13:         m_buffer[m_buffer_pos++] = data[in_ptr];
	.loc 1 13 18 view .LVU409
	movs	r3, #160	@ tmp169,
	lsls	r3, r3, #1	@ tmp169, tmp169,
	mov	r8, r3	@ tmp169, tmp169
@ lib/filter/src/filter.cpp:17:         if (m_buffer_fill < FILTER_BUFFER_SIZE)
	.loc 1 17 13 view .LVU410
	movs	r6, #162	@ tmp174,
	lsls	r6, r6, #1	@ tmp174, tmp174,
@ lib/filter/src/filter.cpp:21:         bool sample_output = m_input_cnt == 0;
	.loc 1 21 30 view .LVU411
	movs	r7, #164	@ tmp177,
	lsls	r7, r7, #1	@ tmp177, tmp177,
	b	.L79		@
.LVL171:
.L81:
	.loc 1 37 13 is_stmt 1 view .LVU412
@ lib/filter/src/filter.cpp:37:             m_values.push_back(process_one());
	.loc 1 37 43 is_stmt 0 view .LVU413
	movs	r0, r4	@, this
	bl	_ZN6filter9FIRFilter11process_oneEv		@
.LVL172:
@ lib/filter/src/filter.cpp:37:             m_values.push_back(process_one());
	.loc 1 37 43 discriminator 1 view .LVU414
	str	r0, [sp, #12]	@ _14, D.39018
.LVL173:
.LBB1016:
.LBI1016:
	.loc 4 1553 7 is_stmt 1 view .LVU415
.LBB1017:
.LBI1017:
	.loc 7 164 7 view .LVU416
.LBB1018:
@ C:/Users/andre/.platformio/packages/toolchain-rp2040-earlephilhower/arm-none-eabi/include/c++/14.2.0/bits/deque.tcc:168: 	    != this->_M_impl._M_finish._M_last - 1)
	.loc 7 168 41 is_stmt 0 view .LVU417
	ldr	r3, [r4, #52]	@ MEM[(struct deque *)this_25(D) + 20B].D.37667._M_impl.D.37034._M_finish._M_last, MEM[(struct deque *)this_25(D) + 20B].D.37667._M_impl.D.37034._M_finish._M_last
	subs	r3, r3, #4	@ _71,
@ C:/Users/andre/.platformio/packages/toolchain-rp2040-earlephilhower/arm-none-eabi/include/c++/14.2.0/bits/deque.tcc:167: 	if (this->_M_impl._M_finish._M_cur
	.loc 7 167 2 view .LVU418
	cmp	fp, r3	@ _59, _71
	beq	.L77		@,
.LVL174:
.LBB1019:
.LBI1019:
	.loc 6 529 2 is_stmt 1 view .LVU419
.LBB1020:
.LBI1020:
	.loc 5 189 2 view .LVU420
.LBB1021:
@ C:/Users/andre/.platformio/packages/toolchain-rp2040-earlephilhower/arm-none-eabi/include/c++/14.2.0/bits/new_allocator.h:191: 	{ ::new((void *)__p) _Up(std::forward<_Args>(__args)...); }
	.loc 5 191 4 is_stmt 0 discriminator 1 view .LVU421
	mov	r3, fp	@ _59, _59
	str	r0, [r3]	@ _14, *_59
.LVL175:
	.loc 5 191 4 discriminator 1 view .LVU422
.LBE1021:
.LBE1020:
.LBE1019:
@ C:/Users/andre/.platformio/packages/toolchain-rp2040-earlephilhower/arm-none-eabi/include/c++/14.2.0/bits/deque.tcc:173: 	    ++this->_M_impl._M_finish._M_cur;
	.loc 7 173 6 view .LVU423
	ldr	r3, [r4, #44]	@ MEM[(struct deque *)this_25(D) + 20B].D.37667._M_impl.D.37034._M_finish._M_cur, MEM[(struct deque *)this_25(D) + 20B].D.37667._M_impl.D.37034._M_finish._M_cur
	adds	r3, r3, #4	@ _74,
	str	r3, [r4, #44]	@ _74, MEM[(struct deque *)this_25(D) + 20B].D.37667._M_impl.D.37034._M_finish._M_cur
.L78:
.LVL176:
.LBB1022:
.LBI1022:
	.loc 4 1468 7 is_stmt 1 view .LVU424
.LBB1023:
.LBB1024:
.LBI1024:
	.loc 4 1170 7 view .LVU425
.LBB1025:
.LBI1025:
	.loc 4 168 7 view .LVU426
	.loc 4 168 7 is_stmt 0 view .LVU427
.LBE1025:
.LBE1024:
.LBE1023:
.LBE1022:
.LBE1018:
.LBE1017:
.LBE1016:
	.loc 1 38 13 is_stmt 1 view .LVU428
@ lib/filter/src/filter.cpp:38:             samples_out_cnt++;
	.loc 1 38 28 is_stmt 0 view .LVU429
	ldr	r3, [r4, #4]	@ this_25(D)->samples_out_cnt, this_25(D)->samples_out_cnt
	adds	r3, r3, #1	@ _16,
	str	r3, [r4, #4]	@ _16, this_25(D)->samples_out_cnt
.L75:
	.loc 1 38 28 view .LVU430
.LBE1015:
	.loc 1 11 5 is_stmt 1 discriminator 2 view .LVU431
@ lib/filter/src/filter.cpp:11:     for (size_t in_ptr = 0; in_ptr < length; in_ptr += step) {
	.loc 1 11 53 is_stmt 0 discriminator 2 view .LVU432
	add	r5, r5, r10	@ in_ptr, step
.LVL177:
	.loc 1 11 36 is_stmt 1 discriminator 1 view .LVU433
	cmp	r9, r5	@ length, in_ptr
	bls	.L70		@,
.LVL178:
.L79:
.LBB1033:
	.loc 1 13 9 view .LVU434
@ lib/filter/src/filter.cpp:13:         m_buffer[m_buffer_pos++] = data[in_ptr];
	.loc 1 13 47 is_stmt 0 view .LVU435
	lsls	r3, r5, #1	@ _34, in_ptr,
	ldr	r2, [sp]	@ data, %sfp
	ldrh	r0, [r2, r3]	@ _3, MEM[(const uint16_t *)data_29(D) + _34 * 1]
@ lib/filter/src/filter.cpp:13:         m_buffer[m_buffer_pos++] = data[in_ptr];
	.loc 1 13 18 view .LVU436
	mov	r3, r8	@ tmp169, tmp169
	ldr	r3, [r4, r3]	@ _4, this_25(D)->m_buffer_pos
@ lib/filter/src/filter.cpp:13:         m_buffer[m_buffer_pos++] = data[in_ptr];
	.loc 1 13 30 view .LVU437
	adds	r2, r3, #1	@ _5, _4,
@ lib/filter/src/filter.cpp:13:         m_buffer[m_buffer_pos++] = data[in_ptr];
	.loc 1 13 34 view .LVU438
	movs	r1, r3	@ tmp170, _4
	adds	r1, r1, #32	@ tmp170,
	lsls	r1, r1, #1	@ tmp171, tmp170,
	strh	r0, [r1, r4]	@ _3, this_25(D)->m_buffer[_4]
	.loc 1 14 9 is_stmt 1 view .LVU439
@ lib/filter/src/filter.cpp:15:             m_buffer_pos = 0;
	.loc 1 15 26 is_stmt 0 view .LVU440
	subs	r3, r3, #127	@ tmp216,
	subs	r1, r3, #1	@ tmp217, tmp216
	sbcs	r3, r3, r1	@ tmp215, tmp216, tmp217
	rsbs	r3, r3, #0	@ tmp218, tmp215
	ands	r2, r3	@ _5, tmp218
	mov	r3, r8	@ tmp169, tmp169
	str	r2, [r4, r3]	@ _5, MEM <struct FIRFilter> [(void *)this_25(D)].m_buffer_pos
	.loc 1 17 9 is_stmt 1 view .LVU441
@ lib/filter/src/filter.cpp:17:         if (m_buffer_fill < FILTER_BUFFER_SIZE)
	.loc 1 17 13 is_stmt 0 view .LVU442
	ldr	r3, [r4, r6]	@ _6, this_25(D)->m_buffer_fill
@ lib/filter/src/filter.cpp:17:         if (m_buffer_fill < FILTER_BUFFER_SIZE)
	.loc 1 17 9 view .LVU443
	cmp	r3, #127	@ _6,
	bhi	.L73		@,
	.loc 1 18 13 is_stmt 1 view .LVU444
@ lib/filter/src/filter.cpp:18:             m_buffer_fill++;
	.loc 1 18 26 is_stmt 0 view .LVU445
	adds	r3, r3, #1	@ _7,
	str	r3, [r4, r6]	@ _7, this_25(D)->m_buffer_fill
.L73:
	.loc 1 21 9 is_stmt 1 view .LVU446
@ lib/filter/src/filter.cpp:21:         bool sample_output = m_input_cnt == 0;
	.loc 1 21 30 is_stmt 0 view .LVU447
	ldr	r1, [r4, r7]	@ _8, this_25(D)->m_input_cnt
.LVL179:
	.loc 1 23 9 is_stmt 1 view .LVU448
@ lib/filter/src/filter.cpp:23:         m_input_cnt++;
	.loc 1 23 20 is_stmt 0 view .LVU449
	adds	r2, r1, #1	@ _9, _8,
	.loc 1 24 9 is_stmt 1 view .LVU450
	ldr	r3, [r4, #60]	@ this_25(D)->m_decimation_factor, this_25(D)->m_decimation_factor
@ lib/filter/src/filter.cpp:25:             m_input_cnt = 0;
	.loc 1 25 25 is_stmt 0 view .LVU451
	subs	r3, r2, r3	@ tmp221, _9, this_25(D)->m_decimation_factor
	subs	r0, r3, #1	@ tmp222, tmp221
	sbcs	r3, r3, r0	@ tmp220, tmp221, tmp222
	rsbs	r3, r3, #0	@ tmp223, tmp220
	ands	r2, r3	@ _9, tmp223
	str	r2, [r4, r7]	@ _9, MEM <struct FIRFilter> [(void *)this_25(D)].m_input_cnt
	.loc 1 27 9 is_stmt 1 view .LVU452
	cmp	r1, #0	@ _8,
	bne	.L75		@,
	.loc 1 31 9 view .LVU453
	ldr	r3, [r4, r6]	@ this_25(D)->m_buffer_fill, this_25(D)->m_buffer_fill
	ldr	r2, [sp, #4]	@ _45, %sfp
	cmp	r3, r2	@ this_25(D)->m_buffer_fill, _45
	bcc	.L75		@,
	.loc 1 35 9 view .LVU454
.LVL180:
.LBB1028:
.LBI1028:
	.loc 4 1268 7 view .LVU455
.LBB1029:
.LBB1030:
.LBI1030:
	.loc 4 370 7 view .LVU456
.LBB1031:
@ C:/Users/andre/.platformio/packages/toolchain-rp2040-earlephilhower/arm-none-eabi/include/c++/14.2.0/bits/stl_deque.h:373: 	  * (__x._M_node - __y._M_node - bool(__x._M_node))
	.loc 4 373 11 is_stmt 0 view .LVU457
	ldr	r2, [r4, #56]	@ _51, MEM[(const struct _Self &)this_25(D) + 44]._M_node
@ C:/Users/andre/.platformio/packages/toolchain-rp2040-earlephilhower/arm-none-eabi/include/c++/14.2.0/bits/stl_deque.h:374: 	  + (__x._M_cur - __x._M_first)
	.loc 4 374 11 view .LVU458
	ldr	r3, [r4, #44]	@ _59, MEM[(const struct _Self &)this_25(D) + 44]._M_cur
	mov	fp, r3	@ _59, _59
.LVL181:
@ C:/Users/andre/.platformio/packages/toolchain-rp2040-earlephilhower/arm-none-eabi/include/c++/14.2.0/bits/stl_deque.h:373: 	  * (__x._M_node - __y._M_node - bool(__x._M_node))
	.loc 4 373 19 view .LVU459
	ldr	r3, [r4, #40]	@ MEM[(const struct _Self &)this_25(D) + 28]._M_node, MEM[(const struct _Self &)this_25(D) + 28]._M_node
	subs	r3, r2, r3	@ _53, _51, MEM[(const struct _Self &)this_25(D) + 28]._M_node
	asrs	r3, r3, #2	@ _54, _53,
@ C:/Users/andre/.platformio/packages/toolchain-rp2040-earlephilhower/arm-none-eabi/include/c++/14.2.0/bits/stl_deque.h:373: 	  * (__x._M_node - __y._M_node - bool(__x._M_node))
	.loc 4 373 35 view .LVU460
	subs	r1, r2, #1	@ tmp189, _51
	sbcs	r2, r2, r1	@ _55, _51, tmp189
.LVL182:
@ C:/Users/andre/.platformio/packages/toolchain-rp2040-earlephilhower/arm-none-eabi/include/c++/14.2.0/bits/stl_deque.h:373: 	  * (__x._M_node - __y._M_node - bool(__x._M_node))
	.loc 4 373 33 view .LVU461
	subs	r3, r3, r2	@ _57, _54, _55
@ C:/Users/andre/.platformio/packages/toolchain-rp2040-earlephilhower/arm-none-eabi/include/c++/14.2.0/bits/stl_deque.h:373: 	  * (__x._M_node - __y._M_node - bool(__x._M_node))
	.loc 4 373 4 view .LVU462
	lsls	r3, r3, #7	@ _58, _57,
@ C:/Users/andre/.platformio/packages/toolchain-rp2040-earlephilhower/arm-none-eabi/include/c++/14.2.0/bits/stl_deque.h:374: 	  + (__x._M_cur - __x._M_first)
	.loc 4 374 18 view .LVU463
	ldr	r2, [r4, #48]	@ MEM[(const struct _Self &)this_25(D) + 44]._M_first, MEM[(const struct _Self &)this_25(D) + 44]._M_first
	mov	r1, fp	@ _59, _59
	subs	r2, r1, r2	@ _61, _59, MEM[(const struct _Self &)this_25(D) + 44]._M_first
	asrs	r2, r2, #2	@ _62, _61,
@ C:/Users/andre/.platformio/packages/toolchain-rp2040-earlephilhower/arm-none-eabi/include/c++/14.2.0/bits/stl_deque.h:374: 	  + (__x._M_cur - __x._M_first)
	.loc 4 374 4 view .LVU464
	adds	r3, r3, r2	@ _63, _58, _62
@ C:/Users/andre/.platformio/packages/toolchain-rp2040-earlephilhower/arm-none-eabi/include/c++/14.2.0/bits/stl_deque.h:375: 	  + (__y._M_last - __y._M_cur);
	.loc 4 375 19 view .LVU465
	ldr	r2, [r4, #36]	@ MEM[(const struct _Self &)this_25(D) + 28]._M_last, MEM[(const struct _Self &)this_25(D) + 28]._M_last
	ldr	r1, [r4, #28]	@ MEM[(const struct _Self &)this_25(D) + 28]._M_cur, MEM[(const struct _Self &)this_25(D) + 28]._M_cur
	subs	r2, r2, r1	@ _66, MEM[(const struct _Self &)this_25(D) + 28]._M_last, MEM[(const struct _Self &)this_25(D) + 28]._M_cur
	asrs	r2, r2, #2	@ _67, _66,
@ C:/Users/andre/.platformio/packages/toolchain-rp2040-earlephilhower/arm-none-eabi/include/c++/14.2.0/bits/stl_deque.h:375: 	  + (__y._M_last - __y._M_cur);
	.loc 4 375 31 view .LVU466
	adds	r3, r3, r2	@ _68, _63, _67
.LBE1031:
.LBE1030:
.LBE1029:
.LBE1028:
@ lib/filter/src/filter.cpp:35:         if (m_values.size() < m_max_values) {
	.loc 1 35 9 discriminator 1 view .LVU467
	movs	r2, #166	@ tmp182,
	lsls	r2, r2, #1	@ tmp182, tmp182,
	ldr	r2, [r4, r2]	@ this_25(D)->m_max_values, this_25(D)->m_max_values
	cmp	r2, r3	@ this_25(D)->m_max_values, _68
	bhi	.L81		@,
	.loc 1 40 13 is_stmt 1 view .LVU468
@ lib/filter/src/filter.cpp:40:             overflow_cnt++;
	.loc 1 40 25 is_stmt 0 view .LVU469
	ldr	r3, [r4]	@ this_25(D)->overflow_cnt, this_25(D)->overflow_cnt
	adds	r3, r3, #1	@ _18,
	str	r3, [r4]	@ _18, this_25(D)->overflow_cnt
	b	.L75		@
.LVL183:
.L77:
@ lib/filter/src/filter.cpp:37:             m_values.push_back(process_one());
	.loc 1 37 31 view .LVU470
	movs	r0, r4	@ _13, this
	adds	r0, r0, #20	@ _13,
.LBB1032:
.LBB1027:
.LBB1026:
@ C:/Users/andre/.platformio/packages/toolchain-rp2040-earlephilhower/arm-none-eabi/include/c++/14.2.0/bits/deque.tcc:176: 	  _M_push_back_aux(std::forward<_Args>(__args)...);
	.loc 7 176 20 view .LVU471
	add	r1, sp, #12	@,,
.LVL184:
	.loc 7 176 20 view .LVU472
	bl	_ZNSt5dequeIlSaIlEE16_M_push_back_auxIJlEEEvDpOT_		@
.LVL185:
	.loc 7 176 20 view .LVU473
	b	.L78		@
.LVL186:
.L70:
	.loc 7 176 20 view .LVU474
.LBE1026:
.LBE1027:
.LBE1032:
.LBE1033:
.LBE1014:
@ lib/filter/src/filter.cpp:43: }
	.loc 1 43 1 view .LVU475
	add	sp, sp, #20	@,,
.LVL187:
	.loc 1 43 1 view .LVU476
	@ sp needed	@
.LVL188:
.LVL189:
.LVL190:
	.loc 1 43 1 view .LVU477
	pop	{r4, r5, r6, r7}
	mov	fp, r7
	mov	r10, r6
	mov	r9, r5
	mov	r8, r4
	pop	{r4, r5, r6, r7, pc}
	.cfi_endproc
.LFE2070:
	.size	_ZN6filter9FIRFilter5writeEPKtjj, .-_ZN6filter9FIRFilter5writeEPKtjj
	.section	.rodata._ZNSt6vectorIlSaIlEE17_M_realloc_appendIJlEEEvDpOT_.str1.4,"aMS",%progbits,1
	.align	2
.LC2:
	.ascii	"vector::_M_realloc_append\000"
	.section	.text._ZNSt6vectorIlSaIlEE17_M_realloc_appendIJlEEEvDpOT_,"axG",%progbits,_ZNSt6vectorIlSaIlEE17_M_realloc_appendIJlEEEvDpOT_,comdat
	.align	1
	.weak	_ZNSt6vectorIlSaIlEE17_M_realloc_appendIJlEEEvDpOT_
	.syntax unified
	.code	16
	.thumb_func
	.type	_ZNSt6vectorIlSaIlEE17_M_realloc_appendIJlEEEvDpOT_, %function
_ZNSt6vectorIlSaIlEE17_M_realloc_appendIJlEEEvDpOT_:
.LVL191:
.LFB2348:
	.file 9 "C:/Users/andre/.platformio/packages/toolchain-rp2040-earlephilhower/arm-none-eabi/include/c++/14.2.0/bits/vector.tcc"
	.loc 9 581 7 is_stmt 1 view -0
	.cfi_startproc
	@ args = 0, pretend = 0, frame = 0
	@ frame_needed = 0, uses_anonymous_args = 0
	.loc 9 581 7 is_stmt 0 view .LVU479
	push	{r3, r4, r5, r6, r7, lr}	@
	.cfi_def_cfa_offset 24
	.cfi_offset 3, -24
	.cfi_offset 4, -20
	.cfi_offset 5, -16
	.cfi_offset 6, -12
	.cfi_offset 7, -8
	.cfi_offset 14, -4
	mov	lr, r9	@,
	mov	r7, r8	@,
	push	{r7, lr}	@
	.cfi_def_cfa_offset 32
	.cfi_offset 8, -32
	.cfi_offset 9, -28
	movs	r6, r0	@ this, tmp155
	mov	r9, r1	@ __args#0, tmp156
.LVL192:
.LBB1070:
.LBI1070:
	.loc 2 1906 7 is_stmt 1 view .LVU480
.LBB1071:
.LBB1072:
.LBI1072:
	.loc 2 992 7 view .LVU481
.LBB1073:
@ C:/Users/andre/.platformio/packages/toolchain-rp2040-earlephilhower/arm-none-eabi/include/c++/14.2.0/bits/stl_vector.h:993:       { return size_type(this->_M_impl._M_finish - this->_M_impl._M_start); }
	.loc 2 993 66 is_stmt 0 view .LVU482
	ldr	r7, [r0]	@ _36, MEM[(const struct vector *)this_11(D)].D.36436._M_impl.D.35737._M_start
@ C:/Users/andre/.platformio/packages/toolchain-rp2040-earlephilhower/arm-none-eabi/include/c++/14.2.0/bits/stl_vector.h:993:       { return size_type(this->_M_impl._M_finish - this->_M_impl._M_start); }
	.loc 2 993 50 view .LVU483
	ldr	r4, [r0, #4]	@ MEM[(const struct vector *)this_11(D)].D.36436._M_impl.D.35737._M_finish, MEM[(const struct vector *)this_11(D)].D.36436._M_impl.D.35737._M_finish
	subs	r4, r4, r7	@ _37, MEM[(const struct vector *)this_11(D)].D.36436._M_impl.D.35737._M_finish, _36
	asrs	r3, r4, #2	@ _39, _37,
.LVL193:
	.loc 2 993 50 view .LVU484
.LBE1073:
.LBE1072:
@ C:/Users/andre/.platformio/packages/toolchain-rp2040-earlephilhower/arm-none-eabi/include/c++/14.2.0/bits/stl_vector.h:1908: 	if (max_size() - size() < __n)
	.loc 2 1908 2 discriminator 2 view .LVU485
	ldr	r2, .L93	@ tmp139,
	cmp	r3, r2	@ _39, tmp139
	beq	.L91		@,
.LVL194:
.LBB1074:
.LBI1074:
	.loc 3 257 5 is_stmt 1 view .LVU486
.LBB1075:
@ C:/Users/andre/.platformio/packages/toolchain-rp2040-earlephilhower/arm-none-eabi/include/c++/14.2.0/bits/stl_algobase.h:262:       if (__a < __b)
	.loc 3 262 7 is_stmt 0 view .LVU487
	subs	r5, r3, #0	@ _42, _39,
	bne	.L84		@,
	movs	r5, #1	@ _42,
.L84:
.LBE1075:
.LBE1074:
@ C:/Users/andre/.platformio/packages/toolchain-rp2040-earlephilhower/arm-none-eabi/include/c++/14.2.0/bits/stl_vector.h:1911: 	const size_type __len = size() + (std::max)(size(), __n);
	.loc 2 1911 18 discriminator 3 view .LVU488
	adds	r5, r5, r3	@ __len, _42, _39
.LVL195:
@ C:/Users/andre/.platformio/packages/toolchain-rp2040-earlephilhower/arm-none-eabi/include/c++/14.2.0/bits/stl_vector.h:1912: 	return (__len < size() || __len > max_size()) ? max_size() : __len;
	.loc 2 1912 48 discriminator 1 view .LVU489
	cmp	r3, r5	@ _39, __len
	bhi	.L90		@,
@ C:/Users/andre/.platformio/packages/toolchain-rp2040-earlephilhower/arm-none-eabi/include/c++/14.2.0/bits/stl_vector.h:1912: 	return (__len < size() || __len > max_size()) ? max_size() : __len;
	.loc 2 1912 25 discriminator 1 view .LVU490
	movs	r3, #128	@ tmp142,
	lsls	r3, r3, #22	@ tmp142, tmp142,
	cmp	r5, r3	@ _44, tmp142
	bcc	.L85		@,
	ldr	r5, .L93	@ _44,
.LVL196:
	.loc 2 1912 25 discriminator 1 view .LVU491
	b	.L85		@
.LVL197:
.L91:
@ C:/Users/andre/.platformio/packages/toolchain-rp2040-earlephilhower/arm-none-eabi/include/c++/14.2.0/bits/stl_vector.h:1909: 	  __throw_length_error(__N(__s));
	.loc 2 1909 24 view .LVU492
	ldr	r0, .L93+4	@ tmp140,
.LVL198:
	.loc 2 1909 24 view .LVU493
	bl	_ZSt20__throw_length_errorPKc		@
.LVL199:
.L90:
@ C:/Users/andre/.platformio/packages/toolchain-rp2040-earlephilhower/arm-none-eabi/include/c++/14.2.0/bits/stl_vector.h:1912: 	return (__len < size() || __len > max_size()) ? max_size() : __len;
	.loc 2 1912 58 discriminator 3 view .LVU494
	ldr	r5, .L93	@ _44,
.LVL200:
.L85:
	.loc 2 1912 58 discriminator 3 view .LVU495
.LBE1071:
.LBE1070:
.LBB1076:
.LBI1076:
	.loc 2 893 7 is_stmt 1 view .LVU496
.LBB1077:
.LBI1077:
	.file 10 "C:/Users/andre/.platformio/packages/toolchain-rp2040-earlephilhower/arm-none-eabi/include/c++/14.2.0/bits/stl_iterator.h"
	.loc 10 1067 7 view .LVU497
	.loc 10 1067 7 is_stmt 0 view .LVU498
.LBE1077:
.LBE1076:
.LBB1078:
.LBI1078:
	.loc 2 873 7 is_stmt 1 view .LVU499
.LBB1079:
.LBI1079:
	.loc 10 1067 7 view .LVU500
	.loc 10 1067 7 is_stmt 0 view .LVU501
.LBE1079:
.LBE1078:
.LBB1080:
.LBI1080:
	.loc 2 377 7 is_stmt 1 view .LVU502
.LBB1081:
.LBB1082:
.LBI1082:
	.loc 6 477 7 view .LVU503
.LBB1083:
.LBI1083:
	.loc 5 126 7 view .LVU504
.LBB1084:
@ C:/Users/andre/.platformio/packages/toolchain-rp2040-earlephilhower/arm-none-eabi/include/c++/14.2.0/bits/new_allocator.h:151: 	return static_cast<_Tp*>(_GLIBCXX_OPERATOR_NEW(__n * sizeof(_Tp)));
	.loc 5 151 48 is_stmt 0 view .LVU505
	lsls	r3, r5, #2	@ _49, _44,
	mov	r8, r3	@ _49, _49
	movs	r0, r3	@, _49
.LVL201:
	.loc 5 151 48 view .LVU506
	bl	_Znwj		@
.LVL202:
	.loc 5 151 48 view .LVU507
	movs	r5, r0	@ _50, tmp157
.LVL203:
	.loc 5 151 48 view .LVU508
.LBE1084:
.LBE1083:
.LBE1082:
.LBE1081:
.LBE1080:
.LBB1085:
.LBB1086:
.LBI1086:
	.loc 9 607 2 is_stmt 1 view .LVU509
	.loc 9 607 2 is_stmt 0 view .LVU510
.LBE1086:
.LBB1087:
.LBI1087:
	.loc 6 529 2 is_stmt 1 view .LVU511
.LBB1088:
.LBI1088:
	.loc 5 189 2 view .LVU512
.LBB1089:
@ C:/Users/andre/.platformio/packages/toolchain-rp2040-earlephilhower/arm-none-eabi/include/c++/14.2.0/bits/new_allocator.h:191: 	{ ::new((void *)__p) _Up(std::forward<_Args>(__args)...); }
	.loc 5 191 4 is_stmt 0 discriminator 1 view .LVU513
	mov	r3, r9	@ __args#0, __args#0
	ldr	r3, [r3]	@ *__args#0_17(D), *__args#0_17(D)
	str	r3, [r0, r4]	@ *__args#0_17(D), *_3
.LVL204:
	.loc 5 191 4 discriminator 1 view .LVU514
.LBE1089:
.LBE1088:
.LBE1087:
.LBB1090:
.LBI1090:
	.loc 2 504 7 is_stmt 1 view .LVU515
.LBB1091:
.LBI1091:
	.file 11 "C:/Users/andre/.platformio/packages/toolchain-rp2040-earlephilhower/arm-none-eabi/include/c++/14.2.0/bits/stl_uninitialized.h"
	.loc 11 1139 5 view .LVU516
.LBB1092:
.LBI1092:
	.loc 11 1112 5 view .LVU517
.LBB1093:
@ C:/Users/andre/.platformio/packages/toolchain-rp2040-earlephilhower/arm-none-eabi/include/c++/14.2.0/bits/stl_uninitialized.h:1117:       if (__count > 0)
	.loc 11 1117 7 is_stmt 0 view .LVU518
	cmp	r4, #0	@ _37,
	bgt	.L92		@,
.LVL205:
	.loc 11 1117 7 view .LVU519
.LBE1093:
.LBE1092:
.LBE1091:
.LBE1090:
@ C:/Users/andre/.platformio/packages/toolchain-rp2040-earlephilhower/arm-none-eabi/include/c++/14.2.0/bits/vector.tcc:649: 	    ++__new_finish;
	.loc 9 649 6 view .LVU520
	adds	r4, r4, #4	@ _34,
.LVL206:
	.loc 9 649 6 view .LVU521
	adds	r4, r0, r4	@ __new_finish, _50, _34
.LVL207:
.LBB1097:
.LBI1097:
	.loc 9 612 2 is_stmt 1 view .LVU522
.LBB1098:
@ C:/Users/andre/.platformio/packages/toolchain-rp2040-earlephilhower/arm-none-eabi/include/c++/14.2.0/bits/vector.tcc:614: 	  if (_M_storage)
	.loc 9 614 4 is_stmt 0 view .LVU523
	cmp	r7, #0	@ _36,
	beq	.L89		@,
.LBE1098:
.LBE1097:
@ C:/Users/andre/.platformio/packages/toolchain-rp2040-earlephilhower/arm-none-eabi/include/c++/14.2.0/bits/vector.tcc:687: 	__guard._M_len = this->_M_impl._M_end_of_storage - __old_start;
	.loc 9 687 51 view .LVU524
	ldr	r1, [r6, #8]	@ this_11(D)->D.36436._M_impl.D.35737._M_end_of_storage, this_11(D)->D.36436._M_impl.D.35737._M_end_of_storage
	subs	r1, r1, r7	@ _16, this_11(D)->D.36436._M_impl.D.35737._M_end_of_storage, _36
	b	.L88		@
.LVL208:
.L92:
.LBB1104:
.LBB1096:
.LBB1095:
.LBB1094:
@ C:/Users/andre/.platformio/packages/toolchain-rp2040-earlephilhower/arm-none-eabi/include/c++/14.2.0/bits/stl_uninitialized.h:1129: 	  __builtin_memcpy(__result, __first, __count * sizeof(_Tp));
	.loc 11 1129 20 view .LVU525
	movs	r2, r4	@, _37
	movs	r1, r7	@, _36
	bl	memcpy		@
.LVL209:
	.loc 11 1129 20 view .LVU526
.LBE1094:
.LBE1095:
.LBE1096:
.LBE1104:
@ C:/Users/andre/.platformio/packages/toolchain-rp2040-earlephilhower/arm-none-eabi/include/c++/14.2.0/bits/vector.tcc:649: 	    ++__new_finish;
	.loc 9 649 6 view .LVU527
	adds	r4, r4, #4	@ _23,
.LVL210:
	.loc 9 649 6 view .LVU528
	adds	r4, r5, r4	@ __new_finish, _50, _23
.LVL211:
@ C:/Users/andre/.platformio/packages/toolchain-rp2040-earlephilhower/arm-none-eabi/include/c++/14.2.0/bits/vector.tcc:687: 	__guard._M_len = this->_M_impl._M_end_of_storage - __old_start;
	.loc 9 687 51 view .LVU529
	ldr	r1, [r6, #8]	@ this_11(D)->D.36436._M_impl.D.35737._M_end_of_storage, this_11(D)->D.36436._M_impl.D.35737._M_end_of_storage
	subs	r1, r1, r7	@ _16, this_11(D)->D.36436._M_impl.D.35737._M_end_of_storage, _36
.LVL212:
.LBB1105:
	.loc 9 612 2 is_stmt 1 view .LVU530
.L88:
.LBB1103:
.LBB1099:
.LBI1099:
	.loc 6 512 7 view .LVU531
.LBB1100:
.LBB1101:
.LBI1101:
	.loc 5 156 7 view .LVU532
.LBB1102:
@ C:/Users/andre/.platformio/packages/toolchain-rp2040-earlephilhower/arm-none-eabi/include/c++/14.2.0/bits/new_allocator.h:172: 	_GLIBCXX_OPERATOR_DELETE(_GLIBCXX_SIZED_DEALLOC(__p, __n));
	.loc 5 172 26 is_stmt 0 view .LVU533
	movs	r0, r7	@, _36
	bl	_ZdlPvj		@
.LVL213:
.L89:
	.loc 5 172 26 view .LVU534
.LBE1102:
.LBE1101:
.LBE1100:
.LBE1099:
.LBE1103:
.LBE1105:
.LBE1085:
@ C:/Users/andre/.platformio/packages/toolchain-rp2040-earlephilhower/arm-none-eabi/include/c++/14.2.0/bits/vector.tcc:692:       this->_M_impl._M_start = __new_start;
	.loc 9 692 30 view .LVU535
	str	r5, [r6]	@ _50, this_11(D)->D.36436._M_impl.D.35737._M_start
@ C:/Users/andre/.platformio/packages/toolchain-rp2040-earlephilhower/arm-none-eabi/include/c++/14.2.0/bits/vector.tcc:693:       this->_M_impl._M_finish = __new_finish;
	.loc 9 693 31 view .LVU536
	str	r4, [r6, #4]	@ __new_finish, this_11(D)->D.36436._M_impl.D.35737._M_finish
@ C:/Users/andre/.platformio/packages/toolchain-rp2040-earlephilhower/arm-none-eabi/include/c++/14.2.0/bits/vector.tcc:694:       this->_M_impl._M_end_of_storage = __new_start + __len;
	.loc 9 694 53 view .LVU537
	add	r5, r5, r8	@ _9, _49
.LVL214:
@ C:/Users/andre/.platformio/packages/toolchain-rp2040-earlephilhower/arm-none-eabi/include/c++/14.2.0/bits/vector.tcc:694:       this->_M_impl._M_end_of_storage = __new_start + __len;
	.loc 9 694 39 view .LVU538
	str	r5, [r6, #8]	@ _9, this_11(D)->D.36436._M_impl.D.35737._M_end_of_storage
@ C:/Users/andre/.platformio/packages/toolchain-rp2040-earlephilhower/arm-none-eabi/include/c++/14.2.0/bits/vector.tcc:695:     }
	.loc 9 695 5 view .LVU539
	@ sp needed	@
.LVL215:
.LVL216:
.LVL217:
.LVL218:
	.loc 9 695 5 view .LVU540
	pop	{r6, r7}
	mov	r9, r7
	mov	r8, r6
	pop	{r3, r4, r5, r6, r7, pc}
.L94:
	.align	2
.L93:
	.word	536870911
	.word	.LC2
	.cfi_endproc
.LFE2348:
	.size	_ZNSt6vectorIlSaIlEE17_M_realloc_appendIJlEEEvDpOT_, .-_ZNSt6vectorIlSaIlEE17_M_realloc_appendIJlEEEvDpOT_
	.section	.text._ZN6filter9FIRFilter16set_coefficientsESt6vectorIfSaIfEEm,"ax",%progbits
	.align	1
	.global	_ZN6filter9FIRFilter16set_coefficientsESt6vectorIfSaIfEEm
	.syntax unified
	.code	16
	.thumb_func
	.type	_ZN6filter9FIRFilter16set_coefficientsESt6vectorIfSaIfEEm, %function
_ZN6filter9FIRFilter16set_coefficientsESt6vectorIfSaIfEEm:
.LVL219:
.LFB2071:
	.loc 1 45 87 is_stmt 1 view -0
	.cfi_startproc
	@ args = 0, pretend = 0, frame = 8
	@ frame_needed = 0, uses_anonymous_args = 0
	.loc 1 45 87 is_stmt 0 view .LVU542
	push	{r4, r5, r6, r7, lr}	@
	.cfi_def_cfa_offset 20
	.cfi_offset 4, -20
	.cfi_offset 5, -16
	.cfi_offset 6, -12
	.cfi_offset 7, -8
	.cfi_offset 14, -4
	mov	lr, fp	@,
	mov	r7, r10	@,
	mov	r6, r9	@,
	mov	r5, r8	@,
	push	{r5, r6, r7, lr}	@
	.cfi_def_cfa_offset 36
	.cfi_offset 8, -36
	.cfi_offset 9, -32
	.cfi_offset 10, -28
	.cfi_offset 11, -24
	sub	sp, sp, #12	@,,
	.cfi_def_cfa_offset 48
	movs	r4, r0	@ this, tmp179
	mov	r8, r1	@ coefficients, tmp180
	.loc 1 46 5 is_stmt 1 view .LVU543
	.loc 1 47 5 view .LVU544
@ lib/filter/src/filter.cpp:47:     int32_t gain = 1 << gain_bits;
	.loc 1 47 13 is_stmt 0 view .LVU545
	movs	r3, #1	@ tmp154,
	lsls	r3, r3, r2	@ tmp154, tmp154, tmp181
	mov	r9, r3	@ gain, tmp154
.LVL220:
	.loc 1 49 5 is_stmt 1 view .LVU546
	.loc 1 49 19 discriminator 1 view .LVU547
.LBB1128:
.LBI1128:
	.loc 2 992 7 view .LVU548
.LBB1129:
@ C:/Users/andre/.platformio/packages/toolchain-rp2040-earlephilhower/arm-none-eabi/include/c++/14.2.0/bits/stl_vector.h:993:       { return size_type(this->_M_impl._M_finish - this->_M_impl._M_start); }
	.loc 2 993 66 is_stmt 0 view .LVU549
	ldr	r7, [r1]	@ _33, MEM[(const struct vector *)coefficients_22(D)].D.38774._M_impl.D.38109._M_start
.LVL221:
	.loc 2 993 66 view .LVU550
.LBE1129:
.LBE1128:
@ lib/filter/src/filter.cpp:49:     for (n = 0; n < coefficients.size(); n++) {
	.loc 1 49 19 discriminator 1 view .LVU551
	ldr	r3, [r1, #4]	@ MEM[(const struct vector *)coefficients_22(D)].D.38774._M_impl.D.38109._M_finish, MEM[(const struct vector *)coefficients_22(D)].D.38774._M_impl.D.38109._M_finish
.LVL222:
	.loc 1 49 19 discriminator 1 view .LVU552
	cmp	r3, r7	@ MEM[(const struct vector *)coefficients_22(D)].D.38774._M_impl.D.38109._M_finish, _33
	beq	.L96		@,
@ lib/filter/src/filter.cpp:49:     for (n = 0; n < coefficients.size(); n++) {
	.loc 1 49 12 view .LVU553
	movs	r5, #0	@ n,
.LBB1131:
.LBB1132:
.LBB1133:
@ C:/Users/andre/.platformio/packages/toolchain-rp2040-earlephilhower/arm-none-eabi/include/c++/14.2.0/bits/vector.tcc:123: 	  _M_realloc_append(std::forward<_Args>(__args)...);
	.loc 9 123 21 view .LVU554
	add	r3, sp, #4	@ tmp177,,
	mov	fp, r3	@ tmp177, tmp177
.LBE1133:
.LBE1132:
.LBE1131:
@ lib/filter/src/filter.cpp:50:         m_coefficients.push_back(round(coefficients[n] * gain));
	.loc 1 50 33 view .LVU555
	movs	r3, #8	@ _1,
	mov	r10, r3	@ _1, _1
	add	r10, r10, r0	@ _1, this
	b	.L99		@
.LVL223:
.L97:
.LBB1146:
.LBB1144:
.LBB1142:
@ C:/Users/andre/.platformio/packages/toolchain-rp2040-earlephilhower/arm-none-eabi/include/c++/14.2.0/bits/vector.tcc:123: 	  _M_realloc_append(std::forward<_Args>(__args)...);
	.loc 9 123 21 view .LVU556
	mov	r1, fp	@, tmp177
	mov	r0, r10	@, _1
	bl	_ZNSt6vectorIlSaIlEE17_M_realloc_appendIJlEEEvDpOT_		@
.LVL224:
.L98:
.LBB1134:
.LBI1134:
	.loc 2 1235 7 is_stmt 1 view .LVU557
.LBB1135:
.LBI1135:
	.loc 2 893 7 view .LVU558
.LBB1136:
.LBI1136:
	.loc 10 1067 7 view .LVU559
	.loc 10 1067 7 is_stmt 0 view .LVU560
.LBE1136:
.LBE1135:
.LBB1137:
.LBI1137:
	.loc 10 1148 7 is_stmt 1 view .LVU561
.LBB1138:
.LBI1138:
	.loc 10 1067 7 view .LVU562
	.loc 10 1067 7 is_stmt 0 view .LVU563
.LBE1138:
.LBE1137:
.LBE1134:
.LBE1142:
.LBE1144:
.LBE1146:
	.loc 1 49 5 is_stmt 1 discriminator 3 view .LVU564
	adds	r5, r5, #1	@ n,
.LVL225:
	.loc 1 49 19 discriminator 1 view .LVU565
.LBB1147:
	.loc 2 992 7 view .LVU566
.LBB1130:
@ C:/Users/andre/.platformio/packages/toolchain-rp2040-earlephilhower/arm-none-eabi/include/c++/14.2.0/bits/stl_vector.h:993:       { return size_type(this->_M_impl._M_finish - this->_M_impl._M_start); }
	.loc 2 993 66 is_stmt 0 view .LVU567
	mov	r3, r8	@ coefficients, coefficients
	ldr	r7, [r3]	@ _33, MEM[(const struct vector *)coefficients_22(D)].D.38774._M_impl.D.38109._M_start
.LVL226:
@ C:/Users/andre/.platformio/packages/toolchain-rp2040-earlephilhower/arm-none-eabi/include/c++/14.2.0/bits/stl_vector.h:993:       { return size_type(this->_M_impl._M_finish - this->_M_impl._M_start); }
	.loc 2 993 50 view .LVU568
	ldr	r3, [r3, #4]	@ MEM[(const struct vector *)coefficients_22(D)].D.38774._M_impl.D.38109._M_finish, MEM[(const struct vector *)coefficients_22(D)].D.38774._M_impl.D.38109._M_finish
	subs	r3, r3, r7	@ _34, MEM[(const struct vector *)coefficients_22(D)].D.38774._M_impl.D.38109._M_finish, _33
	asrs	r3, r3, #2	@ _35, _34,
.LBE1130:
.LBE1147:
@ lib/filter/src/filter.cpp:49:     for (n = 0; n < coefficients.size(); n++) {
	.loc 1 49 19 discriminator 1 view .LVU569
	cmp	r5, r3	@ n, _35
	bcs	.L96		@,
.LVL227:
.L99:
	.loc 1 50 9 is_stmt 1 view .LVU570
.LBB1148:
.LBI1148:
	.loc 2 1128 7 view .LVU571
	.loc 2 1128 7 is_stmt 0 view .LVU572
.LBE1148:
.LBB1149:
.LBI1149:
	.file 12 "C:/Users/andre/.platformio/packages/toolchain-rp2040-earlephilhower/arm-none-eabi/include/c++/14.2.0/cmath"
	.loc 12 2687 3 is_stmt 1 view .LVU573
.LBB1150:
	.loc 12 2688 5 view .LVU574
.LBE1150:
.LBE1149:
@ lib/filter/src/filter.cpp:50:         m_coefficients.push_back(round(coefficients[n] * gain));
	.loc 1 50 39 is_stmt 0 discriminator 1 view .LVU575
	lsls	r6, r5, #2	@ tmp156, n,
	mov	r0, r9	@, gain
	bl	__aeabi_i2f		@
.LVL228:
	.loc 1 50 39 discriminator 1 view .LVU576
	ldr	r1, [r6, r7]	@, *_29
.LVL229:
	.loc 1 50 39 discriminator 1 view .LVU577
	bl	__aeabi_fmul		@
.LVL230:
.LBB1152:
.LBB1151:
@ C:/Users/andre/.platformio/packages/toolchain-rp2040-earlephilhower/arm-none-eabi/include/c++/14.2.0/cmath:2688:   { return __builtin_roundf(__x); }
	.loc 12 2688 28 view .LVU578
	bl	roundf		@
.LVL231:
	.loc 12 2688 28 view .LVU579
.LBE1151:
.LBE1152:
@ lib/filter/src/filter.cpp:50:         m_coefficients.push_back(round(coefficients[n] * gain));
	.loc 1 50 33 discriminator 2 view .LVU580
	bl	__aeabi_f2iz		@
.LVL232:
	str	r0, [sp, #4]	@ _5, D.39031
.LVL233:
.LBB1153:
.LBI1131:
	.loc 2 1300 7 is_stmt 1 view .LVU581
.LBB1145:
.LBI1132:
	.loc 9 111 7 view .LVU582
.LBB1143:
@ C:/Users/andre/.platformio/packages/toolchain-rp2040-earlephilhower/arm-none-eabi/include/c++/14.2.0/bits/vector.tcc:114: 	if (this->_M_impl._M_finish != this->_M_impl._M_end_of_storage)
	.loc 9 114 20 is_stmt 0 view .LVU583
	ldr	r3, [r4, #12]	@ _43, MEM[(struct vector *)this_24(D) + 8B].D.36436._M_impl.D.35737._M_finish
@ C:/Users/andre/.platformio/packages/toolchain-rp2040-earlephilhower/arm-none-eabi/include/c++/14.2.0/bits/vector.tcc:114: 	if (this->_M_impl._M_finish != this->_M_impl._M_end_of_storage)
	.loc 9 114 2 view .LVU584
	ldr	r2, [r4, #16]	@ MEM[(struct vector *)this_24(D) + 8B].D.36436._M_impl.D.35737._M_end_of_storage, MEM[(struct vector *)this_24(D) + 8B].D.36436._M_impl.D.35737._M_end_of_storage
	cmp	r3, r2	@ _43, MEM[(struct vector *)this_24(D) + 8B].D.36436._M_impl.D.35737._M_end_of_storage
	beq	.L97		@,
.LVL234:
.LBB1139:
.LBI1139:
	.loc 6 529 2 is_stmt 1 view .LVU585
.LBB1140:
.LBI1140:
	.loc 5 189 2 view .LVU586
.LBB1141:
@ C:/Users/andre/.platformio/packages/toolchain-rp2040-earlephilhower/arm-none-eabi/include/c++/14.2.0/bits/new_allocator.h:191: 	{ ::new((void *)__p) _Up(std::forward<_Args>(__args)...); }
	.loc 5 191 4 is_stmt 0 discriminator 1 view .LVU587
	str	r0, [r3]	@ _5, *_43
.LVL235:
	.loc 5 191 4 discriminator 1 view .LVU588
.LBE1141:
.LBE1140:
.LBE1139:
@ C:/Users/andre/.platformio/packages/toolchain-rp2040-earlephilhower/arm-none-eabi/include/c++/14.2.0/bits/vector.tcc:119: 	    ++this->_M_impl._M_finish;
	.loc 9 119 6 view .LVU589
	ldr	r3, [r4, #12]	@ MEM[(struct vector *)this_24(D) + 8B].D.36436._M_impl.D.35737._M_finish, MEM[(struct vector *)this_24(D) + 8B].D.36436._M_impl.D.35737._M_finish
	adds	r3, r3, #4	@ _47,
	str	r3, [r4, #12]	@ _47, MEM[(struct vector *)this_24(D) + 8B].D.36436._M_impl.D.35737._M_finish
	b	.L98		@
.LVL236:
.L96:
	.loc 9 119 6 view .LVU590
.LBE1143:
.LBE1145:
.LBE1153:
	.loc 1 53 5 is_stmt 1 view .LVU591
.LBB1154:
.LBI1154:
	.loc 2 992 7 view .LVU592
.LBB1155:
@ C:/Users/andre/.platformio/packages/toolchain-rp2040-earlephilhower/arm-none-eabi/include/c++/14.2.0/bits/stl_vector.h:993:       { return size_type(this->_M_impl._M_finish - this->_M_impl._M_start); }
	.loc 2 993 66 is_stmt 0 view .LVU593
	ldr	r5, [r4, #8]	@ _38, MEM[(const struct vector *)this_24(D) + 8B].D.36436._M_impl.D.35737._M_start
@ C:/Users/andre/.platformio/packages/toolchain-rp2040-earlephilhower/arm-none-eabi/include/c++/14.2.0/bits/stl_vector.h:993:       { return size_type(this->_M_impl._M_finish - this->_M_impl._M_start); }
	.loc 2 993 50 view .LVU594
	ldr	r2, [r4, #12]	@ MEM[(const struct vector *)this_24(D) + 8B].D.36436._M_impl.D.35737._M_finish, MEM[(const struct vector *)this_24(D) + 8B].D.36436._M_impl.D.35737._M_finish
	subs	r2, r2, r5	@ _39, MEM[(const struct vector *)this_24(D) + 8B].D.36436._M_impl.D.35737._M_finish, _38
.LVL237:
	.loc 2 993 50 view .LVU595
.LBE1155:
.LBE1154:
	.loc 1 54 5 is_stmt 1 view .LVU596
	.loc 1 55 5 view .LVU597
	.loc 1 58 5 view .LVU598
	.loc 1 58 19 discriminator 1 view .LVU599
.LBB1157:
.LBB1156:
@ C:/Users/andre/.platformio/packages/toolchain-rp2040-earlephilhower/arm-none-eabi/include/c++/14.2.0/bits/stl_vector.h:993:       { return size_type(this->_M_impl._M_finish - this->_M_impl._M_start); }
	.loc 2 993 50 is_stmt 0 view .LVU600
	asrs	r6, r2, #2	@ _40, _39,
.LBE1156:
.LBE1157:
@ lib/filter/src/filter.cpp:58:     for (n = 0; n < coeff_len/2; n++) {
	.loc 1 58 30 discriminator 1 view .LVU601
	lsrs	r6, r6, #1	@ _49, _40,
@ lib/filter/src/filter.cpp:58:     for (n = 0; n < coeff_len/2; n++) {
	.loc 1 58 19 discriminator 1 view .LVU602
	cmp	r2, #4	@ _39,
	bls	.L102		@,
	subs	r2, r2, #4	@ _16,
.LVL238:
	.loc 1 58 19 discriminator 1 view .LVU603
	adds	r2, r5, r2	@ ivtmp.398, _38, _16
.LVL239:
@ lib/filter/src/filter.cpp:58:     for (n = 0; n < coeff_len/2; n++) {
	.loc 1 58 12 view .LVU604
	movs	r3, #0	@ n,
.LVL240:
.L101:
	.loc 1 59 9 is_stmt 1 view .LVU605
@ lib/filter/src/filter.cpp:59:         if (coeff[n] != coeff[coeff_len - 1 - n]) {
	.loc 1 59 20 is_stmt 0 view .LVU606
	lsls	r1, r3, #2	@ _42, n,
@ lib/filter/src/filter.cpp:59:         if (coeff[n] != coeff[coeff_len - 1 - n]) {
	.loc 1 59 9 view .LVU607
	ldr	r0, [r5, r1]	@ MEM[(long int *)_38 + _42 * 1], MEM[(long int *)_38 + _42 * 1]
	ldr	r1, [r2]	@ MEM[(long int *)_45], MEM[(long int *)_45]
	cmp	r0, r1	@ MEM[(long int *)_38 + _42 * 1], MEM[(long int *)_45]
	bne	.L103		@,
	.loc 1 58 5 is_stmt 1 discriminator 2 view .LVU608
	adds	r3, r3, #1	@ n,
.LVL241:
	.loc 1 58 19 discriminator 1 view .LVU609
	subs	r2, r2, #4	@ ivtmp.398,
	cmp	r3, r6	@ n, _49
	bcc	.L101		@,
@ lib/filter/src/filter.cpp:55:     bool sym = true;
	.loc 1 55 10 is_stmt 0 view .LVU610
	movs	r2, #1	@ sym,
	b	.L100		@
.LVL242:
.L102:
	.loc 1 55 10 view .LVU611
	movs	r2, #1	@ sym,
.LVL243:
	.loc 1 55 10 view .LVU612
	b	.L100		@
.LVL244:
.L103:
@ lib/filter/src/filter.cpp:60:             sym = false;
	.loc 1 60 17 view .LVU613
	movs	r2, #0	@ sym,
.LVL245:
.L100:
	.loc 1 65 5 is_stmt 1 view .LVU614
@ lib/filter/src/filter.cpp:65:     m_is_symmetric = sym;
	.loc 1 65 20 is_stmt 0 view .LVU615
	movs	r3, #168	@ tmp175,
	lsls	r3, r3, #1	@ tmp175, tmp175,
	strb	r2, [r4, r3]	@ sym, this_24(D)->m_is_symmetric
.LVL246:
@ lib/filter/src/filter.cpp:66: }
	.loc 1 66 1 view .LVU616
	add	sp, sp, #12	@,,
	@ sp needed	@
.LVL247:
.LVL248:
.LVL249:
.LVL250:
	.loc 1 66 1 view .LVU617
	pop	{r4, r5, r6, r7}
	mov	fp, r7
	mov	r10, r6
	mov	r9, r5
	mov	r8, r4
	pop	{r4, r5, r6, r7, pc}
	.cfi_endproc
.LFE2071:
	.size	_ZN6filter9FIRFilter16set_coefficientsESt6vectorIfSaIfEEm, .-_ZN6filter9FIRFilter16set_coefficientsESt6vectorIfSaIfEEm
	.section	.text._ZSt23__copy_move_backward_a1ILb1EPllEN9__gnu_cxx11__enable_ifIXsrSt23__is_random_access_iterIT0_NSt15iterator_traitsIS4_E17iterator_categoryEE7__valueESt15_Deque_iteratorIT1_RSA_PSA_EE6__typeES4_S4_SD_,"axG",%progbits,_ZSt23__copy_move_backward_a1ILb1EPllEN9__gnu_cxx11__enable_ifIXsrSt23__is_random_access_iterIT0_NSt15iterator_traitsIS4_E17iterator_categoryEE7__valueESt15_Deque_iteratorIT1_RSA_PSA_EE6__typeES4_S4_SD_,comdat
	.align	1
	.weak	_ZSt23__copy_move_backward_a1ILb1EPllEN9__gnu_cxx11__enable_ifIXsrSt23__is_random_access_iterIT0_NSt15iterator_traitsIS4_E17iterator_categoryEE7__valueESt15_Deque_iteratorIT1_RSA_PSA_EE6__typeES4_S4_SD_
	.syntax unified
	.code	16
	.thumb_func
	.type	_ZSt23__copy_move_backward_a1ILb1EPllEN9__gnu_cxx11__enable_ifIXsrSt23__is_random_access_iterIT0_NSt15iterator_traitsIS4_E17iterator_categoryEE7__valueESt15_Deque_iteratorIT1_RSA_PSA_EE6__typeES4_S4_SD_, %function
_ZSt23__copy_move_backward_a1ILb1EPllEN9__gnu_cxx11__enable_ifIXsrSt23__is_random_access_iterIT0_NSt15iterator_traitsIS4_E17iterator_categoryEE7__valueESt15_Deque_iteratorIT1_RSA_PSA_EE6__typeES4_S4_SD_:
.LVL251:
.LFB2485:
	.loc 7 1171 5 is_stmt 1 view -0
	.cfi_startproc
	@ args = 0, pretend = 0, frame = 0
	@ frame_needed = 0, uses_anonymous_args = 0
	.loc 7 1171 5 is_stmt 0 view .LVU619
	push	{r4, r5, r6, r7, lr}	@
	.cfi_def_cfa_offset 20
	.cfi_offset 4, -20
	.cfi_offset 5, -16
	.cfi_offset 6, -12
	.cfi_offset 7, -8
	.cfi_offset 14, -4
	mov	lr, fp	@,
	mov	r7, r9	@,
	mov	r6, r8	@,
	push	{r6, r7, lr}	@
	.cfi_def_cfa_offset 32
	.cfi_offset 8, -32
	.cfi_offset 9, -28
	.cfi_offset 11, -24
	mov	r8, r0	@ <retval>, tmp193
	movs	r7, r2	@ __last, tmp195
	movs	r4, r3	@ __result, tmp196
@ C:/Users/andre/.platformio/packages/toolchain-rp2040-earlephilhower/arm-none-eabi/include/c++/14.2.0/bits/deque.tcc:1177:       difference_type __len = __last - __first;
	.loc 7 1177 38 view .LVU620
	subs	r1, r2, r1	@ _1, __last, tmp194
.LVL252:
	.loc 7 1177 38 view .LVU621
	asrs	r5, r1, #2	@ __len, _1,
.LVL253:
	.loc 7 1178 20 is_stmt 1 view .LVU622
	cmp	r1, #0	@ _1,
	ble	.L107		@,
.LBB1178:
.LBB1179:
.LBB1180:
.LBB1181:
.LBB1182:
.LBB1183:
@ C:/Users/andre/.platformio/packages/toolchain-rp2040-earlephilhower/arm-none-eabi/include/c++/14.2.0/bits/stl_deque.h:238: 	      __offset > 0 ? __offset / difference_type(_S_buffer_size())
	.loc 4 238 21 is_stmt 0 discriminator 1 view .LVU623
	movs	r3, #127	@ tmp192,
.LVL254:
	.loc 4 238 21 discriminator 1 view .LVU624
	mov	fp, r3	@ tmp192, tmp192
	b	.L117		@
.LVL255:
.L108:
	.loc 4 238 21 discriminator 1 view .LVU625
.LBE1183:
.LBE1182:
.LBE1181:
.LBE1180:
.LBE1179:
@ C:/Users/andre/.platformio/packages/toolchain-rp2040-earlephilhower/arm-none-eabi/include/c++/14.2.0/bits/deque.tcc:1185: 	      __rend = *(__result._M_node - 1) + __rlen;
	.loc 7 1185 41 view .LVU626
	ldr	r3, [r4, #12]	@ __result_24(D)->_M_node, __result_24(D)->_M_node
	subs	r3, r3, #4	@ tmp162,
@ C:/Users/andre/.platformio/packages/toolchain-rp2040-earlephilhower/arm-none-eabi/include/c++/14.2.0/bits/deque.tcc:1185: 	      __rend = *(__result._M_node - 1) + __rlen;
	.loc 7 1185 15 view .LVU627
	ldr	r0, [r3]	@ MEM[(long int * *)_7 + 4294967292B], MEM[(long int * *)_7 + 4294967292B]
.LVL256:
	.loc 7 1185 15 view .LVU628
	movs	r3, #128	@ tmp199,
	lsls	r3, r3, #2	@ tmp199, tmp199,
	mov	ip, r3	@ tmp199, tmp199
	add	r0, r0, ip	@ __rend, tmp199
.LVL257:
@ C:/Users/andre/.platformio/packages/toolchain-rp2040-earlephilhower/arm-none-eabi/include/c++/14.2.0/bits/deque.tcc:1184: 	      __rlen = _Iter::_S_buffer_size();
	.loc 7 1184 15 discriminator 1 view .LVU629
	subs	r3, r3, #129	@ __rlen,
	subs	r3, r3, #255	@ __rlen,
	b	.L109		@
.LVL258:
.L111:
.LBB1194:
.LBB1195:
.LBB1196:
.LBB1197:
.LBB1198:
@ C:/Users/andre/.platformio/packages/toolchain-rp2040-earlephilhower/arm-none-eabi/include/c++/14.2.0/bits/stl_algobase.h:767: 	  else if (_Num == 1)
	.loc 3 767 9 view .LVU630
	cmp	r2, #4	@ _70,
	bne	.L112		@,
.LVL259:
.LBB1199:
.LBI1199:
	.loc 3 437 2 is_stmt 1 view .LVU631
.LBB1200:
@ C:/Users/andre/.platformio/packages/toolchain-rp2040-earlephilhower/arm-none-eabi/include/c++/14.2.0/bits/stl_algobase.h:438: 	{ *__to = std::move(*__from); }
	.loc 3 438 10 is_stmt 0 view .LVU632
	ldr	r3, [r7]	@ _77, MEM[(type &)_12]
	subs	r0, r0, #4	@ tmp166,
.LVL260:
	.loc 3 438 10 view .LVU633
	str	r3, [r0]	@ _77, MEM[(long int *)__rend_16 + 4294967292B]
.LVL261:
@ C:/Users/andre/.platformio/packages/toolchain-rp2040-earlephilhower/arm-none-eabi/include/c++/14.2.0/bits/stl_algobase.h:438: 	{ *__to = std::move(*__from); }
	.loc 3 438 32 view .LVU634
	b	.L112		@
.LVL262:
.L114:
	.loc 3 438 32 view .LVU635
.LBE1200:
.LBE1199:
.LBE1198:
.LBE1197:
.LBE1196:
.LBE1195:
.LBE1194:
.LBB1205:
.LBB1192:
.LBB1190:
.LBB1188:
.LBB1186:
@ C:/Users/andre/.platformio/packages/toolchain-rp2040-earlephilhower/arm-none-eabi/include/c++/14.2.0/bits/stl_deque.h:238: 	      __offset > 0 ? __offset / difference_type(_S_buffer_size())
	.loc 4 238 21 discriminator 1 view .LVU636
	asrs	r2, r3, #31	@ tmp173, _94,
	mov	r1, fp	@ tmp192, tmp192
	ands	r2, r1	@ tmp175, tmp192
	adds	r2, r2, r3	@ tmp176, tmp175, _94
	asrs	r2, r2, #7	@ iftmp.33_52, tmp176,
.L116:
.LVL263:
@ C:/Users/andre/.platformio/packages/toolchain-rp2040-earlephilhower/arm-none-eabi/include/c++/14.2.0/bits/stl_deque.h:241: 	    _M_set_node(_M_node + __node_offset);
	.loc 4 241 26 view .LVU637
	lsls	r0, r2, #2	@ _61, iftmp.33_52,
@ C:/Users/andre/.platformio/packages/toolchain-rp2040-earlephilhower/arm-none-eabi/include/c++/14.2.0/bits/stl_deque.h:241: 	    _M_set_node(_M_node + __node_offset);
	.loc 4 241 17 view .LVU638
	ldr	r1, [r4, #12]	@ __result_24(D)->_M_node, __result_24(D)->_M_node
	adds	r1, r1, r0	@ _62, __result_24(D)->_M_node, _61
.LVL264:
.LBB1184:
.LBI1184:
	.loc 4 263 7 is_stmt 1 view .LVU639
.LBB1185:
@ C:/Users/andre/.platformio/packages/toolchain-rp2040-earlephilhower/arm-none-eabi/include/c++/14.2.0/bits/stl_deque.h:265: 	_M_node = __new_node;
	.loc 4 265 10 is_stmt 0 view .LVU640
	str	r1, [r4, #12]	@ _62, __result_24(D)->_M_node
@ C:/Users/andre/.platformio/packages/toolchain-rp2040-earlephilhower/arm-none-eabi/include/c++/14.2.0/bits/stl_deque.h:266: 	_M_first = *__new_node;
	.loc 4 266 11 view .LVU641
	ldr	r0, [r1]	@ _63, *_62
	str	r0, [r4, #4]	@ _63, __result_24(D)->_M_first
@ C:/Users/andre/.platformio/packages/toolchain-rp2040-earlephilhower/arm-none-eabi/include/c++/14.2.0/bits/stl_deque.h:267: 	_M_last = _M_first + difference_type(_S_buffer_size());
	.loc 4 267 21 discriminator 1 view .LVU642
	movs	r1, #128	@ tmp204,
.LVL265:
	.loc 4 267 21 discriminator 1 view .LVU643
	lsls	r1, r1, #2	@ tmp204, tmp204,
	adds	r1, r0, r1	@ _64, _63, tmp204
@ C:/Users/andre/.platformio/packages/toolchain-rp2040-earlephilhower/arm-none-eabi/include/c++/14.2.0/bits/stl_deque.h:267: 	_M_last = _M_first + difference_type(_S_buffer_size());
	.loc 4 267 10 discriminator 1 view .LVU644
	str	r1, [r4, #8]	@ _64, __result_24(D)->_M_last
.LVL266:
	.loc 4 267 10 discriminator 1 view .LVU645
.LBE1185:
.LBE1184:
@ C:/Users/andre/.platformio/packages/toolchain-rp2040-earlephilhower/arm-none-eabi/include/c++/14.2.0/bits/stl_deque.h:243: 				 * difference_type(_S_buffer_size()));
	.loc 4 243 6 discriminator 1 view .LVU646
	lsls	r2, r2, #7	@ _65, iftmp.33_52,
.LVL267:
@ C:/Users/andre/.platformio/packages/toolchain-rp2040-earlephilhower/arm-none-eabi/include/c++/14.2.0/bits/stl_deque.h:242: 	    _M_cur = _M_first + (__offset - __node_offset
	.loc 4 242 36 view .LVU647
	subs	r3, r3, r2	@ _66, _94, _65
.LVL268:
@ C:/Users/andre/.platformio/packages/toolchain-rp2040-earlephilhower/arm-none-eabi/include/c++/14.2.0/bits/stl_deque.h:242: 	    _M_cur = _M_first + (__offset - __node_offset
	.loc 4 242 24 view .LVU648
	lsls	r3, r3, #2	@ _68, _66,
	adds	r3, r0, r3	@ _69, _63, _68
.LVL269:
.L115:
	.loc 4 242 24 view .LVU649
.LBE1186:
@ C:/Users/andre/.platformio/packages/toolchain-rp2040-earlephilhower/arm-none-eabi/include/c++/14.2.0/bits/stl_deque.h:234: 	  _M_cur += __n;
	.loc 4 234 11 view .LVU650
	str	r3, [r4]	@ _69, __result_24(D)->_M_cur
.LVL270:
	.loc 4 234 11 view .LVU651
.LBE1188:
.LBE1190:
.LBE1192:
.LBE1205:
@ C:/Users/andre/.platformio/packages/toolchain-rp2040-earlephilhower/arm-none-eabi/include/c++/14.2.0/bits/deque.tcc:1193: 	  __len -= __clen;
	.loc 7 1193 10 view .LVU652
	subs	r5, r5, r6	@ __len, __len, _32
.LVL271:
	.loc 7 1193 10 view .LVU653
.LBE1178:
	.loc 7 1178 20 is_stmt 1 view .LVU654
	cmp	r5, #0	@ __len,
	ble	.L107		@,
.LVL272:
.L117:
.LBB1210:
@ C:/Users/andre/.platformio/packages/toolchain-rp2040-earlephilhower/arm-none-eabi/include/c++/14.2.0/bits/deque.tcc:1180: 	  difference_type __rlen = __result._M_cur - __result._M_first;
	.loc 7 1180 38 is_stmt 0 view .LVU655
	ldr	r0, [r4]	@ __rend, __result_24(D)->_M_cur
@ C:/Users/andre/.platformio/packages/toolchain-rp2040-earlephilhower/arm-none-eabi/include/c++/14.2.0/bits/deque.tcc:1180: 	  difference_type __rlen = __result._M_cur - __result._M_first;
	.loc 7 1180 56 view .LVU656
	ldr	r3, [r4, #4]	@ _4, __result_24(D)->_M_first
.LVL273:
@ C:/Users/andre/.platformio/packages/toolchain-rp2040-earlephilhower/arm-none-eabi/include/c++/14.2.0/bits/deque.tcc:1182: 	  if (!__rlen)
	.loc 7 1182 4 view .LVU657
	cmp	r0, r3	@ __rend, _4
	beq	.L108		@,
@ C:/Users/andre/.platformio/packages/toolchain-rp2040-earlephilhower/arm-none-eabi/include/c++/14.2.0/bits/deque.tcc:1180: 	  difference_type __rlen = __result._M_cur - __result._M_first;
	.loc 7 1180 45 view .LVU658
	subs	r3, r0, r3	@ _5, __rend, _4
.LVL274:
	.loc 7 1180 45 view .LVU659
	asrs	r3, r3, #2	@ __rlen, _5,
.LVL275:
.L109:
.LBB1206:
.LBI1206:
	.loc 3 233 5 is_stmt 1 view .LVU660
.LBB1207:
@ C:/Users/andre/.platformio/packages/toolchain-rp2040-earlephilhower/arm-none-eabi/include/c++/14.2.0/bits/stl_algobase.h:238:       if (__b < __a)
	.loc 3 238 7 is_stmt 0 view .LVU661
	movs	r6, r5	@ _32, __len
	cmp	r5, r3	@ __len, __rlen
	ble	.L110		@,
	.loc 3 238 7 view .LVU662
	movs	r6, r3	@ _32, __rlen
.L110:
.LVL276:
	.loc 3 238 7 view .LVU663
.LBE1207:
.LBE1206:
@ C:/Users/andre/.platformio/packages/toolchain-rp2040-earlephilhower/arm-none-eabi/include/c++/14.2.0/bits/deque.tcc:1189: 	  std::__copy_move_backward_a1<_IsMove>(__last - __clen, __last, __rend);
	.loc 7 1189 49 view .LVU664
	lsls	r2, r6, #2	@ _10, _32,
	rsbs	r3, r2, #0	@ _11, _10
.LVL277:
	.loc 7 1189 49 view .LVU665
	mov	r9, r3	@ _11, _11
@ C:/Users/andre/.platformio/packages/toolchain-rp2040-earlephilhower/arm-none-eabi/include/c++/14.2.0/bits/deque.tcc:1189: 	  std::__copy_move_backward_a1<_IsMove>(__last - __clen, __last, __rend);
	.loc 7 1189 41 view .LVU666
	subs	r7, r7, r2	@ __last, __last, _10
.LVL278:
.LBB1208:
.LBI1194:
	.loc 3 795 5 is_stmt 1 view .LVU667
.LBB1204:
.LBI1195:
	.loc 3 777 5 view .LVU668
.LBB1203:
.LBB1202:
.LBI1197:
	.loc 3 762 2 view .LVU669
.LBB1201:
@ C:/Users/andre/.platformio/packages/toolchain-rp2040-earlephilhower/arm-none-eabi/include/c++/14.2.0/bits/stl_algobase.h:765: 	  if (__builtin_expect(_Num > 1, true))
	.loc 3 765 4 is_stmt 0 discriminator 1 view .LVU670
	cmp	r2, #4	@ _10,
	ble	.L111		@,
@ C:/Users/andre/.platformio/packages/toolchain-rp2040-earlephilhower/arm-none-eabi/include/c++/14.2.0/bits/stl_algobase.h:766: 	    __builtin_memmove(__result - _Num, __first, sizeof(_Tp) * _Num);
	.loc 3 766 33 view .LVU671
	add	r0, r0, r9	@ _76, _11
.LVL279:
@ C:/Users/andre/.platformio/packages/toolchain-rp2040-earlephilhower/arm-none-eabi/include/c++/14.2.0/bits/stl_algobase.h:766: 	    __builtin_memmove(__result - _Num, __first, sizeof(_Tp) * _Num);
	.loc 3 766 23 view .LVU672
	movs	r1, r7	@, __last
	bl	memmove		@
.LVL280:
.L112:
	.loc 3 766 23 view .LVU673
.LBE1201:
.LBE1202:
.LBE1203:
.LBE1204:
.LBE1208:
.LBB1209:
.LBI1179:
	.loc 4 249 7 is_stmt 1 view .LVU674
.LBB1193:
.LBI1180:
	.loc 4 230 7 view .LVU675
.LBB1191:
@ C:/Users/andre/.platformio/packages/toolchain-rp2040-earlephilhower/arm-none-eabi/include/c++/14.2.0/bits/stl_deque.h:232: 	const difference_type __offset = __n + (_M_cur - _M_first);
	.loc 4 232 42 is_stmt 0 view .LVU676
	ldr	r2, [r4]	@ _44, __result_24(D)->_M_cur
@ C:/Users/andre/.platformio/packages/toolchain-rp2040-earlephilhower/arm-none-eabi/include/c++/14.2.0/bits/stl_deque.h:232: 	const difference_type __offset = __n + (_M_cur - _M_first);
	.loc 4 232 49 view .LVU677
	ldr	r3, [r4, #4]	@ __result_24(D)->_M_first, __result_24(D)->_M_first
	subs	r3, r2, r3	@ _46, _44, __result_24(D)->_M_first
	asrs	r3, r3, #2	@ _47, _46,
	subs	r3, r3, r6	@ _94, _47, _32
.LVL281:
.LBB1189:
@ C:/Users/andre/.platformio/packages/toolchain-rp2040-earlephilhower/arm-none-eabi/include/c++/14.2.0/bits/stl_deque.h:233: 	if (__offset >= 0 && __offset < difference_type(_S_buffer_size()))
	.loc 4 233 20 view .LVU678
	bmi	.L113		@,
@ C:/Users/andre/.platformio/packages/toolchain-rp2040-earlephilhower/arm-none-eabi/include/c++/14.2.0/bits/stl_deque.h:233: 	if (__offset >= 0 && __offset < difference_type(_S_buffer_size()))
	.loc 4 233 20 discriminator 1 view .LVU679
	cmp	r3, #127	@ _94,
	bgt	.L114		@,
@ C:/Users/andre/.platformio/packages/toolchain-rp2040-earlephilhower/arm-none-eabi/include/c++/14.2.0/bits/stl_deque.h:234: 	  _M_cur += __n;
	.loc 4 234 11 view .LVU680
	movs	r3, r2	@ _44, _44
.LVL282:
	.loc 4 234 11 view .LVU681
	add	r3, r3, r9	@ _44, _11
	b	.L115		@
.LVL283:
.L113:
.LBB1187:
@ C:/Users/andre/.platformio/packages/toolchain-rp2040-earlephilhower/arm-none-eabi/include/c++/14.2.0/bits/stl_deque.h:239: 			   : -difference_type((-__offset - 1)
	.loc 4 239 37 view .LVU682
	mvns	r2, r3	@ _54, _94
@ C:/Users/andre/.platformio/packages/toolchain-rp2040-earlephilhower/arm-none-eabi/include/c++/14.2.0/bits/stl_deque.h:240: 					      / _S_buffer_size()) - 1;
	.loc 4 240 12 discriminator 1 view .LVU683
	lsrs	r2, r2, #7	@ _55, _54,
@ C:/Users/andre/.platformio/packages/toolchain-rp2040-earlephilhower/arm-none-eabi/include/c++/14.2.0/bits/stl_deque.h:238: 	      __offset > 0 ? __offset / difference_type(_S_buffer_size())
	.loc 4 238 21 discriminator 2 view .LVU684
	mvns	r2, r2	@ iftmp.33_52, _55
	b	.L116		@
.LVL284:
.L107:
	.loc 4 238 21 discriminator 2 view .LVU685
.LBE1187:
.LBE1189:
.LBE1191:
.LBE1193:
.LBE1209:
.LBE1210:
.LBB1211:
.LBI1211:
	.loc 4 168 7 is_stmt 1 view .LVU686
.LBB1212:
@ C:/Users/andre/.platformio/packages/toolchain-rp2040-earlephilhower/arm-none-eabi/include/c++/14.2.0/bits/stl_deque.h:169:        : _M_cur(__x._M_cur), _M_first(__x._M_first),
	.loc 4 169 10 is_stmt 0 view .LVU687
	ldr	r3, [r4]	@ MEM[(const struct _Deque_iterator &)__result_24(D)]._M_cur, MEM[(const struct _Deque_iterator &)__result_24(D)]._M_cur
	mov	r2, r8	@ <retval>, <retval>
	str	r3, [r2]	@ MEM[(const struct _Deque_iterator &)__result_24(D)]._M_cur, MEM[(struct _Deque_iterator *)_23(D)]._M_cur
@ C:/Users/andre/.platformio/packages/toolchain-rp2040-earlephilhower/arm-none-eabi/include/c++/14.2.0/bits/stl_deque.h:169:        : _M_cur(__x._M_cur), _M_first(__x._M_first),
	.loc 4 169 30 view .LVU688
	ldr	r3, [r4, #4]	@ MEM[(const struct _Deque_iterator &)__result_24(D)]._M_first, MEM[(const struct _Deque_iterator &)__result_24(D)]._M_first
	str	r3, [r2, #4]	@ MEM[(const struct _Deque_iterator &)__result_24(D)]._M_first, MEM[(struct _Deque_iterator *)_23(D)]._M_first
@ C:/Users/andre/.platformio/packages/toolchain-rp2040-earlephilhower/arm-none-eabi/include/c++/14.2.0/bits/stl_deque.h:170: 	 _M_last(__x._M_last), _M_node(__x._M_node) { }
	.loc 4 170 3 view .LVU689
	ldr	r3, [r4, #8]	@ MEM[(const struct _Deque_iterator &)__result_24(D)]._M_last, MEM[(const struct _Deque_iterator &)__result_24(D)]._M_last
	str	r3, [r2, #8]	@ MEM[(const struct _Deque_iterator &)__result_24(D)]._M_last, MEM[(struct _Deque_iterator *)_23(D)]._M_last
@ C:/Users/andre/.platformio/packages/toolchain-rp2040-earlephilhower/arm-none-eabi/include/c++/14.2.0/bits/stl_deque.h:170: 	 _M_last(__x._M_last), _M_node(__x._M_node) { }
	.loc 4 170 25 view .LVU690
	ldr	r3, [r4, #12]	@ MEM[(const struct _Deque_iterator &)__result_24(D)]._M_node, MEM[(const struct _Deque_iterator &)__result_24(D)]._M_node
	str	r3, [r2, #12]	@ MEM[(const struct _Deque_iterator &)__result_24(D)]._M_node, MEM[(struct _Deque_iterator *)_23(D)]._M_node
.LVL285:
	.loc 4 170 25 view .LVU691
.LBE1212:
.LBE1211:
@ C:/Users/andre/.platformio/packages/toolchain-rp2040-earlephilhower/arm-none-eabi/include/c++/14.2.0/bits/deque.tcc:1197:     }
	.loc 7 1197 5 view .LVU692
	mov	r0, r8	@, <retval>
	@ sp needed	@
.LVL286:
.LVL287:
.LVL288:
	.loc 7 1197 5 view .LVU693
	pop	{r5, r6, r7}
	mov	fp, r7
	mov	r9, r6
	mov	r8, r5
	pop	{r4, r5, r6, r7, pc}
	.cfi_endproc
.LFE2485:
	.size	_ZSt23__copy_move_backward_a1ILb1EPllEN9__gnu_cxx11__enable_ifIXsrSt23__is_random_access_iterIT0_NSt15iterator_traitsIS4_E17iterator_categoryEE7__valueESt15_Deque_iteratorIT1_RSA_PSA_EE6__typeES4_S4_SD_, .-_ZSt23__copy_move_backward_a1ILb1EPllEN9__gnu_cxx11__enable_ifIXsrSt23__is_random_access_iterIT0_NSt15iterator_traitsIS4_E17iterator_categoryEE7__valueESt15_Deque_iteratorIT1_RSA_PSA_EE6__typeES4_S4_SD_
	.section	.text._ZSt14__copy_move_a1ILb1EPllEN9__gnu_cxx11__enable_ifIXsrSt23__is_random_access_iterIT0_NSt15iterator_traitsIS4_E17iterator_categoryEE7__valueESt15_Deque_iteratorIT1_RSA_PSA_EE6__typeES4_S4_SD_,"axG",%progbits,_ZSt14__copy_move_a1ILb1EPllEN9__gnu_cxx11__enable_ifIXsrSt23__is_random_access_iterIT0_NSt15iterator_traitsIS4_E17iterator_categoryEE7__valueESt15_Deque_iteratorIT1_RSA_PSA_EE6__typeES4_S4_SD_,comdat
	.align	1
	.weak	_ZSt14__copy_move_a1ILb1EPllEN9__gnu_cxx11__enable_ifIXsrSt23__is_random_access_iterIT0_NSt15iterator_traitsIS4_E17iterator_categoryEE7__valueESt15_Deque_iteratorIT1_RSA_PSA_EE6__typeES4_S4_SD_
	.syntax unified
	.code	16
	.thumb_func
	.type	_ZSt14__copy_move_a1ILb1EPllEN9__gnu_cxx11__enable_ifIXsrSt23__is_random_access_iterIT0_NSt15iterator_traitsIS4_E17iterator_categoryEE7__valueESt15_Deque_iteratorIT1_RSA_PSA_EE6__typeES4_S4_SD_, %function
_ZSt14__copy_move_a1ILb1EPllEN9__gnu_cxx11__enable_ifIXsrSt23__is_random_access_iterIT0_NSt15iterator_traitsIS4_E17iterator_categoryEE7__valueESt15_Deque_iteratorIT1_RSA_PSA_EE6__typeES4_S4_SD_:
.LVL289:
.LFB2487:
	.loc 7 1049 5 is_stmt 1 view -0
	.cfi_startproc
	@ args = 0, pretend = 0, frame = 0
	@ frame_needed = 0, uses_anonymous_args = 0
	.loc 7 1049 5 is_stmt 0 view .LVU695
	push	{r4, r5, r6, r7, lr}	@
	.cfi_def_cfa_offset 20
	.cfi_offset 4, -20
	.cfi_offset 5, -16
	.cfi_offset 6, -12
	.cfi_offset 7, -8
	.cfi_offset 14, -4
	mov	lr, r10	@,
	mov	r7, r9	@,
	mov	r6, r8	@,
	push	{r6, r7, lr}	@
	.cfi_def_cfa_offset 32
	.cfi_offset 8, -32
	.cfi_offset 9, -28
	.cfi_offset 10, -24
	mov	r8, r0	@ <retval>, tmp185
	mov	r10, r1	@ __first, tmp186
	movs	r5, r3	@ __result, tmp188
@ C:/Users/andre/.platformio/packages/toolchain-rp2040-earlephilhower/arm-none-eabi/include/c++/14.2.0/bits/deque.tcc:1055:       difference_type __len = __last - __first;
	.loc 7 1055 38 view .LVU696
	subs	r2, r2, r1	@ _1, tmp187, __first
.LVL290:
	.loc 7 1055 38 view .LVU697
	asrs	r6, r2, #2	@ __len, _1,
.LVL291:
	.loc 7 1056 20 is_stmt 1 view .LVU698
	cmp	r2, #0	@ _1,
	ble	.L120		@,
.LBB1231:
.LBB1232:
.LBB1233:
.LBB1234:
.LBB1235:
@ C:/Users/andre/.platformio/packages/toolchain-rp2040-earlephilhower/arm-none-eabi/include/c++/14.2.0/bits/stl_deque.h:238: 	      __offset > 0 ? __offset / difference_type(_S_buffer_size())
	.loc 4 238 21 is_stmt 0 discriminator 1 view .LVU699
	movs	r3, #127	@ tmp184,
.LVL292:
	.loc 4 238 21 discriminator 1 view .LVU700
	mov	r9, r3	@ tmp184, tmp184
	b	.L128		@
.LVL293:
.L122:
	.loc 4 238 21 discriminator 1 view .LVU701
.LBE1235:
.LBE1234:
.LBE1233:
.LBE1232:
.LBB1244:
.LBB1245:
.LBB1246:
.LBB1247:
.LBB1248:
@ C:/Users/andre/.platformio/packages/toolchain-rp2040-earlephilhower/arm-none-eabi/include/c++/14.2.0/bits/stl_algobase.h:453: 	  else if (_Num == 1)
	.loc 3 453 9 view .LVU702
	cmp	r7, #4	@ _78,
	bne	.L123		@,
.LVL294:
.LBB1249:
.LBI1249:
	.loc 3 437 2 is_stmt 1 view .LVU703
.LBB1250:
@ C:/Users/andre/.platformio/packages/toolchain-rp2040-earlephilhower/arm-none-eabi/include/c++/14.2.0/bits/stl_algobase.h:438: 	{ *__to = std::move(*__from); }
	.loc 3 438 10 is_stmt 0 view .LVU704
	ldr	r3, [r1]	@ _64, MEM[(type &)__first_75]
	str	r3, [r0]	@ _64, *_4
.LVL295:
@ C:/Users/andre/.platformio/packages/toolchain-rp2040-earlephilhower/arm-none-eabi/include/c++/14.2.0/bits/stl_algobase.h:438: 	{ *__to = std::move(*__from); }
	.loc 3 438 32 view .LVU705
	b	.L123		@
.LVL296:
.L130:
	.loc 3 438 32 view .LVU706
.LBE1250:
.LBE1249:
.LBE1248:
.LBE1247:
.LBE1246:
.LBE1245:
.LBE1244:
.LBB1255:
.LBB1242:
.LBB1240:
.LBB1238:
@ C:/Users/andre/.platformio/packages/toolchain-rp2040-earlephilhower/arm-none-eabi/include/c++/14.2.0/bits/stl_deque.h:238: 	      __offset > 0 ? __offset / difference_type(_S_buffer_size())
	.loc 4 238 21 discriminator 1 view .LVU707
	asrs	r3, r2, #31	@ tmp166, __offset,
	mov	r1, r9	@ tmp184, tmp184
	ands	r3, r1	@ tmp168, tmp184
	adds	r3, r3, r2	@ tmp169, tmp168, __offset
	asrs	r3, r3, #7	@ iftmp.33_41, tmp169,
.L127:
.LVL297:
@ C:/Users/andre/.platformio/packages/toolchain-rp2040-earlephilhower/arm-none-eabi/include/c++/14.2.0/bits/stl_deque.h:241: 	    _M_set_node(_M_node + __node_offset);
	.loc 4 241 26 view .LVU708
	lsls	r0, r3, #2	@ _50, iftmp.33_41,
@ C:/Users/andre/.platformio/packages/toolchain-rp2040-earlephilhower/arm-none-eabi/include/c++/14.2.0/bits/stl_deque.h:241: 	    _M_set_node(_M_node + __node_offset);
	.loc 4 241 17 view .LVU709
	ldr	r1, [r5, #12]	@ __result_19(D)->_M_node, __result_19(D)->_M_node
	adds	r1, r1, r0	@ _51, __result_19(D)->_M_node, _50
.LVL298:
.LBB1236:
.LBI1236:
	.loc 4 263 7 is_stmt 1 view .LVU710
.LBB1237:
@ C:/Users/andre/.platformio/packages/toolchain-rp2040-earlephilhower/arm-none-eabi/include/c++/14.2.0/bits/stl_deque.h:265: 	_M_node = __new_node;
	.loc 4 265 10 is_stmt 0 view .LVU711
	str	r1, [r5, #12]	@ _51, __result_19(D)->_M_node
@ C:/Users/andre/.platformio/packages/toolchain-rp2040-earlephilhower/arm-none-eabi/include/c++/14.2.0/bits/stl_deque.h:266: 	_M_first = *__new_node;
	.loc 4 266 11 view .LVU712
	ldr	r1, [r1]	@ _52, *_51
.LVL299:
	.loc 4 266 11 view .LVU713
	str	r1, [r5, #4]	@ _52, __result_19(D)->_M_first
@ C:/Users/andre/.platformio/packages/toolchain-rp2040-earlephilhower/arm-none-eabi/include/c++/14.2.0/bits/stl_deque.h:267: 	_M_last = _M_first + difference_type(_S_buffer_size());
	.loc 4 267 21 discriminator 1 view .LVU714
	movs	r0, #128	@ tmp194,
	lsls	r0, r0, #2	@ tmp194, tmp194,
	adds	r0, r1, r0	@ _53, _52, tmp194
@ C:/Users/andre/.platformio/packages/toolchain-rp2040-earlephilhower/arm-none-eabi/include/c++/14.2.0/bits/stl_deque.h:267: 	_M_last = _M_first + difference_type(_S_buffer_size());
	.loc 4 267 10 discriminator 1 view .LVU715
	str	r0, [r5, #8]	@ _53, __result_19(D)->_M_last
.LVL300:
	.loc 4 267 10 discriminator 1 view .LVU716
.LBE1237:
.LBE1236:
@ C:/Users/andre/.platformio/packages/toolchain-rp2040-earlephilhower/arm-none-eabi/include/c++/14.2.0/bits/stl_deque.h:243: 				 * difference_type(_S_buffer_size()));
	.loc 4 243 6 discriminator 1 view .LVU717
	lsls	r3, r3, #7	@ _54, iftmp.33_41,
.LVL301:
@ C:/Users/andre/.platformio/packages/toolchain-rp2040-earlephilhower/arm-none-eabi/include/c++/14.2.0/bits/stl_deque.h:242: 	    _M_cur = _M_first + (__offset - __node_offset
	.loc 4 242 36 view .LVU718
	subs	r2, r2, r3	@ _55, __offset, _54
.LVL302:
@ C:/Users/andre/.platformio/packages/toolchain-rp2040-earlephilhower/arm-none-eabi/include/c++/14.2.0/bits/stl_deque.h:242: 	    _M_cur = _M_first + (__offset - __node_offset
	.loc 4 242 24 view .LVU719
	lsls	r2, r2, #2	@ _57, _55,
	adds	r1, r1, r2	@ _58, _52, _57
.LVL303:
.L126:
	.loc 4 242 24 view .LVU720
.LBE1238:
@ C:/Users/andre/.platformio/packages/toolchain-rp2040-earlephilhower/arm-none-eabi/include/c++/14.2.0/bits/stl_deque.h:234: 	  _M_cur += __n;
	.loc 4 234 11 view .LVU721
	str	r1, [r5]	@ _58, __result_19(D)->_M_cur
.LVL304:
	.loc 4 234 11 view .LVU722
.LBE1240:
.LBE1242:
.LBE1255:
@ C:/Users/andre/.platformio/packages/toolchain-rp2040-earlephilhower/arm-none-eabi/include/c++/14.2.0/bits/deque.tcc:1065: 	  __len -= __clen;
	.loc 7 1065 10 view .LVU723
	subs	r6, r6, r4	@ __len, __len, _21
.LVL305:
	.loc 7 1065 10 view .LVU724
.LBE1231:
	.loc 7 1056 20 is_stmt 1 view .LVU725
	cmp	r6, #0	@ __len,
	ble	.L120		@,
.LVL306:
.L128:
.LBB1261:
@ C:/Users/andre/.platformio/packages/toolchain-rp2040-earlephilhower/arm-none-eabi/include/c++/14.2.0/bits/deque.tcc:1059: 	    = std::min(__len, __result._M_last - __result._M_cur);
	.loc 7 1059 52 is_stmt 0 view .LVU726
	ldr	r0, [r5]	@ _4, __result_19(D)->_M_cur
.LVL307:
.LBB1256:
.LBI1256:
	.loc 3 233 5 is_stmt 1 view .LVU727
.LBE1256:
@ C:/Users/andre/.platformio/packages/toolchain-rp2040-earlephilhower/arm-none-eabi/include/c++/14.2.0/bits/deque.tcc:1059: 	    = std::min(__len, __result._M_last - __result._M_cur);
	.loc 7 1059 41 is_stmt 0 view .LVU728
	ldr	r4, [r5, #8]	@ __result_19(D)->_M_last, __result_19(D)->_M_last
	subs	r4, r4, r0	@ _5, __result_19(D)->_M_last, _4
	asrs	r4, r4, #2	@ _21, _5,
.LBB1258:
.LBB1257:
@ C:/Users/andre/.platformio/packages/toolchain-rp2040-earlephilhower/arm-none-eabi/include/c++/14.2.0/bits/stl_algobase.h:238:       if (__b < __a)
	.loc 3 238 7 view .LVU729
	cmp	r4, r6	@ _21, __len
	ble	.L121		@,
	.loc 3 238 7 view .LVU730
	movs	r4, r6	@ _21, __len
.L121:
.LVL308:
	.loc 3 238 7 view .LVU731
.LBE1257:
.LBE1258:
@ C:/Users/andre/.platformio/packages/toolchain-rp2040-earlephilhower/arm-none-eabi/include/c++/14.2.0/bits/deque.tcc:1060: 	  std::__copy_move_a1<_IsMove>(__first, __first + __clen,
	.loc 7 1060 50 view .LVU732
	lsls	r7, r4, #2	@ _8, _21,
	mov	r1, r10	@ __first, __first
@ C:/Users/andre/.platformio/packages/toolchain-rp2040-earlephilhower/arm-none-eabi/include/c++/14.2.0/bits/deque.tcc:1060: 	  std::__copy_move_a1<_IsMove>(__first, __first + __clen,
	.loc 7 1060 32 view .LVU733
	add	r10, r10, r7	@ __first, _8
.LVL309:
.LBB1259:
.LBI1244:
	.loc 3 547 5 is_stmt 1 view .LVU734
.LBB1254:
.LBI1245:
	.loc 3 512 5 view .LVU735
.LBB1253:
.LBB1252:
.LBI1247:
	.loc 3 448 2 view .LVU736
.LBB1251:
@ C:/Users/andre/.platformio/packages/toolchain-rp2040-earlephilhower/arm-none-eabi/include/c++/14.2.0/bits/stl_algobase.h:451: 	  if (__builtin_expect(_Num > 1, true))
	.loc 3 451 4 is_stmt 0 discriminator 1 view .LVU737
	cmp	r7, #4	@ _8,
	ble	.L122		@,
@ C:/Users/andre/.platformio/packages/toolchain-rp2040-earlephilhower/arm-none-eabi/include/c++/14.2.0/bits/stl_algobase.h:452: 	    __builtin_memmove(__result, __first, sizeof(_Tp) * _Num);
	.loc 3 452 23 view .LVU738
	movs	r2, r7	@, _8
	bl	memmove		@
.LVL310:
.L123:
	.loc 3 452 23 view .LVU739
.LBE1251:
.LBE1252:
.LBE1253:
.LBE1254:
.LBE1259:
.LBB1260:
.LBI1232:
	.loc 4 230 7 is_stmt 1 view .LVU740
.LBB1243:
@ C:/Users/andre/.platformio/packages/toolchain-rp2040-earlephilhower/arm-none-eabi/include/c++/14.2.0/bits/stl_deque.h:232: 	const difference_type __offset = __n + (_M_cur - _M_first);
	.loc 4 232 42 is_stmt 0 view .LVU741
	ldr	r1, [r5]	@ _33, __result_19(D)->_M_cur
@ C:/Users/andre/.platformio/packages/toolchain-rp2040-earlephilhower/arm-none-eabi/include/c++/14.2.0/bits/stl_deque.h:232: 	const difference_type __offset = __n + (_M_cur - _M_first);
	.loc 4 232 49 view .LVU742
	ldr	r2, [r5, #4]	@ __result_19(D)->_M_first, __result_19(D)->_M_first
	subs	r2, r1, r2	@ _35, _33, __result_19(D)->_M_first
	asrs	r2, r2, #2	@ _36, _35,
.LVL311:
.LBB1241:
@ C:/Users/andre/.platformio/packages/toolchain-rp2040-earlephilhower/arm-none-eabi/include/c++/14.2.0/bits/stl_deque.h:233: 	if (__offset >= 0 && __offset < difference_type(_S_buffer_size()))
	.loc 4 233 20 view .LVU743
	adds	r2, r2, r4	@ __offset, _36, _21
	bmi	.L124		@,
.LVL312:
@ C:/Users/andre/.platformio/packages/toolchain-rp2040-earlephilhower/arm-none-eabi/include/c++/14.2.0/bits/stl_deque.h:234: 	  _M_cur += __n;
	.loc 4 234 11 view .LVU744
	adds	r1, r1, r7	@ _58, _33, _8
@ C:/Users/andre/.platformio/packages/toolchain-rp2040-earlephilhower/arm-none-eabi/include/c++/14.2.0/bits/stl_deque.h:233: 	if (__offset >= 0 && __offset < difference_type(_S_buffer_size()))
	.loc 4 233 20 discriminator 1 view .LVU745
	cmp	r2, #127	@ __offset,
	ble	.L126		@,
	b	.L130		@
.L124:
.LBB1239:
@ C:/Users/andre/.platformio/packages/toolchain-rp2040-earlephilhower/arm-none-eabi/include/c++/14.2.0/bits/stl_deque.h:239: 			   : -difference_type((-__offset - 1)
	.loc 4 239 37 view .LVU746
	mvns	r3, r2	@ _43, __offset
@ C:/Users/andre/.platformio/packages/toolchain-rp2040-earlephilhower/arm-none-eabi/include/c++/14.2.0/bits/stl_deque.h:240: 					      / _S_buffer_size()) - 1;
	.loc 4 240 12 discriminator 1 view .LVU747
	lsrs	r3, r3, #7	@ _44, _43,
@ C:/Users/andre/.platformio/packages/toolchain-rp2040-earlephilhower/arm-none-eabi/include/c++/14.2.0/bits/stl_deque.h:238: 	      __offset > 0 ? __offset / difference_type(_S_buffer_size())
	.loc 4 238 21 discriminator 2 view .LVU748
	mvns	r3, r3	@ iftmp.33_41, _44
	b	.L127		@
.LVL313:
.L120:
	.loc 4 238 21 discriminator 2 view .LVU749
.LBE1239:
.LBE1241:
.LBE1243:
.LBE1260:
.LBE1261:
.LBB1262:
.LBI1262:
	.loc 4 168 7 is_stmt 1 view .LVU750
.LBB1263:
@ C:/Users/andre/.platformio/packages/toolchain-rp2040-earlephilhower/arm-none-eabi/include/c++/14.2.0/bits/stl_deque.h:169:        : _M_cur(__x._M_cur), _M_first(__x._M_first),
	.loc 4 169 10 is_stmt 0 view .LVU751
	ldr	r3, [r5]	@ MEM[(const struct _Deque_iterator &)__result_19(D)]._M_cur, MEM[(const struct _Deque_iterator &)__result_19(D)]._M_cur
	mov	r2, r8	@ <retval>, <retval>
	str	r3, [r2]	@ MEM[(const struct _Deque_iterator &)__result_19(D)]._M_cur, MEM[(struct _Deque_iterator *)_18(D)]._M_cur
@ C:/Users/andre/.platformio/packages/toolchain-rp2040-earlephilhower/arm-none-eabi/include/c++/14.2.0/bits/stl_deque.h:169:        : _M_cur(__x._M_cur), _M_first(__x._M_first),
	.loc 4 169 30 view .LVU752
	ldr	r3, [r5, #4]	@ MEM[(const struct _Deque_iterator &)__result_19(D)]._M_first, MEM[(const struct _Deque_iterator &)__result_19(D)]._M_first
	str	r3, [r2, #4]	@ MEM[(const struct _Deque_iterator &)__result_19(D)]._M_first, MEM[(struct _Deque_iterator *)_18(D)]._M_first
@ C:/Users/andre/.platformio/packages/toolchain-rp2040-earlephilhower/arm-none-eabi/include/c++/14.2.0/bits/stl_deque.h:170: 	 _M_last(__x._M_last), _M_node(__x._M_node) { }
	.loc 4 170 3 view .LVU753
	ldr	r3, [r5, #8]	@ MEM[(const struct _Deque_iterator &)__result_19(D)]._M_last, MEM[(const struct _Deque_iterator &)__result_19(D)]._M_last
	str	r3, [r2, #8]	@ MEM[(const struct _Deque_iterator &)__result_19(D)]._M_last, MEM[(struct _Deque_iterator *)_18(D)]._M_last
@ C:/Users/andre/.platformio/packages/toolchain-rp2040-earlephilhower/arm-none-eabi/include/c++/14.2.0/bits/stl_deque.h:170: 	 _M_last(__x._M_last), _M_node(__x._M_node) { }
	.loc 4 170 25 view .LVU754
	ldr	r3, [r5, #12]	@ MEM[(const struct _Deque_iterator &)__result_19(D)]._M_node, MEM[(const struct _Deque_iterator &)__result_19(D)]._M_node
	str	r3, [r2, #12]	@ MEM[(const struct _Deque_iterator &)__result_19(D)]._M_node, MEM[(struct _Deque_iterator *)_18(D)]._M_node
.LVL314:
	.loc 4 170 25 view .LVU755
.LBE1263:
.LBE1262:
@ C:/Users/andre/.platformio/packages/toolchain-rp2040-earlephilhower/arm-none-eabi/include/c++/14.2.0/bits/deque.tcc:1069:     }
	.loc 7 1069 5 view .LVU756
	mov	r0, r8	@, <retval>
	@ sp needed	@
.LVL315:
.LVL316:
.LVL317:
	.loc 7 1069 5 view .LVU757
	pop	{r5, r6, r7}
	mov	r10, r7
	mov	r9, r6
	mov	r8, r5
	pop	{r4, r5, r6, r7, pc}
	.cfi_endproc
.LFE2487:
	.size	_ZSt14__copy_move_a1ILb1EPllEN9__gnu_cxx11__enable_ifIXsrSt23__is_random_access_iterIT0_NSt15iterator_traitsIS4_E17iterator_categoryEE7__valueESt15_Deque_iteratorIT1_RSA_PSA_EE6__typeES4_S4_SD_, .-_ZSt14__copy_move_a1ILb1EPllEN9__gnu_cxx11__enable_ifIXsrSt23__is_random_access_iterIT0_NSt15iterator_traitsIS4_E17iterator_categoryEE7__valueESt15_Deque_iteratorIT1_RSA_PSA_EE6__typeES4_S4_SD_
	.section	.text._ZNSt5dequeIlSaIlEE8_M_eraseESt15_Deque_iteratorIlRlPlES5_,"axG",%progbits,_ZNSt5dequeIlSaIlEE8_M_eraseESt15_Deque_iteratorIlRlPlES5_,comdat
	.align	1
	.weak	_ZNSt5dequeIlSaIlEE8_M_eraseESt15_Deque_iteratorIlRlPlES5_
	.syntax unified
	.code	16
	.thumb_func
	.type	_ZNSt5dequeIlSaIlEE8_M_eraseESt15_Deque_iteratorIlRlPlES5_, %function
_ZNSt5dequeIlSaIlEE8_M_eraseESt15_Deque_iteratorIlRlPlES5_:
.LVL318:
.LFB2278:
	.loc 7 258 5 is_stmt 1 view -0
	.cfi_startproc
	@ args = 0, pretend = 0, frame = 272
	@ frame_needed = 0, uses_anonymous_args = 0
	.loc 7 258 5 is_stmt 0 view .LVU759
	push	{r4, r5, r6, r7, lr}	@
	.cfi_def_cfa_offset 20
	.cfi_offset 4, -20
	.cfi_offset 5, -16
	.cfi_offset 6, -12
	.cfi_offset 7, -8
	.cfi_offset 14, -4
	mov	lr, fp	@,
	mov	r7, r10	@,
	mov	r6, r9	@,
	mov	r5, r8	@,
	push	{r5, r6, r7, lr}	@
	.cfi_def_cfa_offset 36
	.cfi_offset 8, -36
	.cfi_offset 9, -32
	.cfi_offset 10, -28
	.cfi_offset 11, -24
	sub	sp, sp, #276	@,,
	.cfi_def_cfa_offset 312
	movs	r6, r0	@ <retval>, tmp450
	movs	r4, r1	@ this, tmp451
	str	r3, [sp, #8]	@ __last, %sfp
.LVL319:
.LBB1509:
.LBB1510:
.LBI1510:
	.loc 4 272 7 is_stmt 1 view .LVU760
.LBB1511:
@ C:/Users/andre/.platformio/packages/toolchain-rp2040-earlephilhower/arm-none-eabi/include/c++/14.2.0/bits/stl_deque.h:273:       { return __x._M_cur == __y._M_cur; }
	.loc 4 273 20 is_stmt 0 view .LVU761
	ldr	r0, [r2]	@ _19, MEM[(const struct _Self &)__first_10(D)]._M_cur
.LVL320:
@ C:/Users/andre/.platformio/packages/toolchain-rp2040-earlephilhower/arm-none-eabi/include/c++/14.2.0/bits/stl_deque.h:273:       { return __x._M_cur == __y._M_cur; }
	.loc 4 273 34 view .LVU762
	ldr	r3, [r3]	@ _27, MEM[(const struct _Self &)__last_11(D)]._M_cur
.LVL321:
	.loc 4 273 34 view .LVU763
	str	r3, [sp, #12]	@ _27, %sfp
.LVL322:
	.loc 4 273 34 view .LVU764
.LBE1511:
.LBE1510:
@ C:/Users/andre/.platformio/packages/toolchain-rp2040-earlephilhower/arm-none-eabi/include/c++/14.2.0/bits/deque.tcc:261:       if (__first == __last)
	.loc 7 261 7 discriminator 1 view .LVU765
	cmp	r0, r3	@ _19, _27
	bne	.LCB3702	@
	b	.L160	@long jump	@
.LCB3702:
.LVL323:
.LBB1512:
.LBB1513:
.LBI1513:
	.loc 4 1151 7 is_stmt 1 view .LVU766
.LBB1514:
.LBI1514:
	.loc 4 168 7 view .LVU767
.LBB1515:
@ C:/Users/andre/.platformio/packages/toolchain-rp2040-earlephilhower/arm-none-eabi/include/c++/14.2.0/bits/stl_deque.h:169:        : _M_cur(__x._M_cur), _M_first(__x._M_first),
	.loc 4 169 21 is_stmt 0 view .LVU768
	ldr	r3, [r1, #8]	@ _37, MEM[(const struct _Deque_iterator &)this_12(D) + 8]._M_cur
	mov	fp, r3	@ _37, _37
@ C:/Users/andre/.platformio/packages/toolchain-rp2040-earlephilhower/arm-none-eabi/include/c++/14.2.0/bits/stl_deque.h:170: 	 _M_last(__x._M_last), _M_node(__x._M_node) { }
	.loc 4 170 15 view .LVU769
	ldr	r3, [r1, #16]	@ _39, MEM[(const struct _Deque_iterator &)this_12(D) + 8]._M_last
	str	r3, [sp, #28]	@ _39, %sfp
@ C:/Users/andre/.platformio/packages/toolchain-rp2040-earlephilhower/arm-none-eabi/include/c++/14.2.0/bits/stl_deque.h:170: 	 _M_last(__x._M_last), _M_node(__x._M_node) { }
	.loc 4 170 37 view .LVU770
	ldr	r3, [r1, #20]	@ _40, MEM[(const struct _Deque_iterator &)this_12(D) + 8]._M_node
	mov	r8, r3	@ _40, _40
.LVL324:
	.loc 4 170 37 view .LVU771
.LBE1515:
.LBE1514:
.LBE1513:
@ C:/Users/andre/.platformio/packages/toolchain-rp2040-earlephilhower/arm-none-eabi/include/c++/14.2.0/bits/deque.tcc:263:       else if (__first == begin() && __last == end())
	.loc 7 263 35 discriminator 2 view .LVU772
	cmp	r0, fp	@ _19, _37
	bne	.LCB3725	@
	b	.L161	@long jump	@
.LCB3725:
.L134:
.LVL325:
.LBB1518:
.LBB1519:
.LBI1519:
	.loc 4 370 7 is_stmt 1 view .LVU773
.LBB1520:
@ C:/Users/andre/.platformio/packages/toolchain-rp2040-earlephilhower/arm-none-eabi/include/c++/14.2.0/bits/stl_deque.h:373: 	  * (__x._M_node - __y._M_node - bool(__x._M_node))
	.loc 4 373 11 is_stmt 0 view .LVU774
	ldr	r1, [sp, #8]	@ __last, %sfp
.LVL326:
	.loc 4 373 11 view .LVU775
	ldr	r3, [r1, #12]	@ _179, MEM[(const struct _Self &)__last_11(D)]._M_node
	mov	r10, r3	@ _179, _179
@ C:/Users/andre/.platformio/packages/toolchain-rp2040-earlephilhower/arm-none-eabi/include/c++/14.2.0/bits/stl_deque.h:373: 	  * (__x._M_node - __y._M_node - bool(__x._M_node))
	.loc 4 373 25 view .LVU776
	ldr	r7, [r2, #12]	@ _180, MEM[(const struct _Self &)__first_10(D)]._M_node
	str	r7, [sp, #4]	@ _180, %sfp
@ C:/Users/andre/.platformio/packages/toolchain-rp2040-earlephilhower/arm-none-eabi/include/c++/14.2.0/bits/stl_deque.h:374: 	  + (__x._M_cur - __x._M_first)
	.loc 4 374 24 view .LVU777
	ldr	r5, [r1, #4]	@ _188, MEM[(const struct _Self &)__last_11(D)]._M_first
	str	r5, [sp, #32]	@ _188, %sfp
@ C:/Users/andre/.platformio/packages/toolchain-rp2040-earlephilhower/arm-none-eabi/include/c++/14.2.0/bits/stl_deque.h:375: 	  + (__y._M_last - __y._M_cur);
	.loc 4 375 11 view .LVU778
	ldr	r3, [r2, #8]	@ _192, MEM[(const struct _Self &)__first_10(D)]._M_last
	movs	r7, r3	@ _192, _192
	str	r3, [sp, #44]	@ _192, %sfp
@ C:/Users/andre/.platformio/packages/toolchain-rp2040-earlephilhower/arm-none-eabi/include/c++/14.2.0/bits/stl_deque.h:373: 	  * (__x._M_node - __y._M_node - bool(__x._M_node))
	.loc 4 373 19 view .LVU779
	mov	r1, r10	@ _179, _179
	ldr	r3, [sp, #4]	@ _180, %sfp
	subs	r5, r1, r3	@ _181, _179, _180
	asrs	r5, r5, #2	@ _182, _181,
@ C:/Users/andre/.platformio/packages/toolchain-rp2040-earlephilhower/arm-none-eabi/include/c++/14.2.0/bits/stl_deque.h:373: 	  * (__x._M_node - __y._M_node - bool(__x._M_node))
	.loc 4 373 35 view .LVU780
	mov	r3, r10	@ _183, _179
	subs	r1, r3, #1	@ tmp285, _183
	sbcs	r3, r3, r1	@ _183, _183, tmp285
@ C:/Users/andre/.platformio/packages/toolchain-rp2040-earlephilhower/arm-none-eabi/include/c++/14.2.0/bits/stl_deque.h:373: 	  * (__x._M_node - __y._M_node - bool(__x._M_node))
	.loc 4 373 33 view .LVU781
	subs	r5, r5, r3	@ _185, _182, _183
@ C:/Users/andre/.platformio/packages/toolchain-rp2040-earlephilhower/arm-none-eabi/include/c++/14.2.0/bits/stl_deque.h:373: 	  * (__x._M_node - __y._M_node - bool(__x._M_node))
	.loc 4 373 4 view .LVU782
	lsls	r5, r5, #7	@ _186, _185,
@ C:/Users/andre/.platformio/packages/toolchain-rp2040-earlephilhower/arm-none-eabi/include/c++/14.2.0/bits/stl_deque.h:374: 	  + (__x._M_cur - __x._M_first)
	.loc 4 374 18 view .LVU783
	ldr	r3, [sp, #32]	@ _188, %sfp
	ldr	r1, [sp, #12]	@ _27, %sfp
	subs	r1, r1, r3	@ _189, _27, _188
	asrs	r1, r1, #2	@ _190, _189,
	mov	ip, r1	@ _190, _190
@ C:/Users/andre/.platformio/packages/toolchain-rp2040-earlephilhower/arm-none-eabi/include/c++/14.2.0/bits/stl_deque.h:374: 	  + (__x._M_cur - __x._M_first)
	.loc 4 374 4 view .LVU784
	add	r5, r5, ip	@ _191, _190
@ C:/Users/andre/.platformio/packages/toolchain-rp2040-earlephilhower/arm-none-eabi/include/c++/14.2.0/bits/stl_deque.h:375: 	  + (__y._M_last - __y._M_cur);
	.loc 4 375 19 view .LVU785
	subs	r1, r7, r0	@ _194, _192, _19
	asrs	r1, r1, #2	@ _195, _194,
	mov	ip, r1	@ _195, _195
@ C:/Users/andre/.platformio/packages/toolchain-rp2040-earlephilhower/arm-none-eabi/include/c++/14.2.0/bits/stl_deque.h:375: 	  + (__y._M_last - __y._M_cur);
	.loc 4 375 31 view .LVU786
	add	r5, r5, ip	@ _191, _195
	str	r5, [sp, #20]	@ _191, %sfp
.LVL327:
	.loc 4 375 31 view .LVU787
.LBE1520:
.LBE1519:
.LBB1521:
.LBI1521:
	.loc 4 1151 7 is_stmt 1 view .LVU788
.LBB1522:
.LBI1522:
	.loc 4 168 7 view .LVU789
	.loc 4 168 7 is_stmt 0 view .LVU790
.LBE1522:
.LBE1521:
.LBB1523:
.LBI1523:
	.loc 4 370 7 is_stmt 1 view .LVU791
.LBB1524:
@ C:/Users/andre/.platformio/packages/toolchain-rp2040-earlephilhower/arm-none-eabi/include/c++/14.2.0/bits/stl_deque.h:374: 	  + (__x._M_cur - __x._M_first)
	.loc 4 374 24 is_stmt 0 view .LVU792
	ldr	r3, [r2, #4]	@ _170, MEM[(const struct _Self &)__first_10(D)]._M_first
@ C:/Users/andre/.platformio/packages/toolchain-rp2040-earlephilhower/arm-none-eabi/include/c++/14.2.0/bits/stl_deque.h:375: 	  + (__y._M_last - __y._M_cur);
	.loc 4 375 19 view .LVU793
	ldr	r1, [sp, #28]	@ _39, %sfp
	mov	r2, fp	@ _37, _37
.LVL328:
	.loc 4 375 19 view .LVU794
	subs	r2, r1, r2	@ _176, _39, _37
	asrs	r2, r2, #2	@ _177, _176,
@ C:/Users/andre/.platformio/packages/toolchain-rp2040-earlephilhower/arm-none-eabi/include/c++/14.2.0/bits/stl_deque.h:373: 	  * (__x._M_node - __y._M_node - bool(__x._M_node))
	.loc 4 373 19 view .LVU795
	mov	r1, r8	@ _40, _40
	ldr	r7, [sp, #4]	@ _180, %sfp
	subs	r5, r7, r1	@ _163, _180, _40
.LVL329:
	.loc 4 373 19 view .LVU796
	asrs	r5, r5, #2	@ _164, _163,
@ C:/Users/andre/.platformio/packages/toolchain-rp2040-earlephilhower/arm-none-eabi/include/c++/14.2.0/bits/stl_deque.h:373: 	  * (__x._M_node - __y._M_node - bool(__x._M_node))
	.loc 4 373 35 view .LVU797
	movs	r1, r7	@ _165, _180
	subs	r7, r1, #1	@ tmp302, _165
	sbcs	r1, r1, r7	@ _165, _165, tmp302
@ C:/Users/andre/.platformio/packages/toolchain-rp2040-earlephilhower/arm-none-eabi/include/c++/14.2.0/bits/stl_deque.h:373: 	  * (__x._M_node - __y._M_node - bool(__x._M_node))
	.loc 4 373 33 view .LVU798
	subs	r5, r5, r1	@ _167, _164, _165
@ C:/Users/andre/.platformio/packages/toolchain-rp2040-earlephilhower/arm-none-eabi/include/c++/14.2.0/bits/stl_deque.h:373: 	  * (__x._M_node - __y._M_node - bool(__x._M_node))
	.loc 4 373 4 view .LVU799
	lsls	r5, r5, #7	@ _168, _167,
@ C:/Users/andre/.platformio/packages/toolchain-rp2040-earlephilhower/arm-none-eabi/include/c++/14.2.0/bits/stl_deque.h:374: 	  + (__x._M_cur - __x._M_first)
	.loc 4 374 18 view .LVU800
	str	r3, [sp, #24]	@ _170, %sfp
	subs	r1, r0, r3	@ _171, _19, _170
	asrs	r1, r1, #2	@ _172, _171,
	mov	ip, r1	@ _172, _172
@ C:/Users/andre/.platformio/packages/toolchain-rp2040-earlephilhower/arm-none-eabi/include/c++/14.2.0/bits/stl_deque.h:374: 	  + (__x._M_cur - __x._M_first)
	.loc 4 374 4 view .LVU801
	add	r5, r5, ip	@ _173, _172
@ C:/Users/andre/.platformio/packages/toolchain-rp2040-earlephilhower/arm-none-eabi/include/c++/14.2.0/bits/stl_deque.h:375: 	  + (__y._M_last - __y._M_cur);
	.loc 4 375 31 view .LVU802
	adds	r1, r5, r2	@ _178, _173, _177
	str	r1, [sp, #16]	@ _178, %sfp
.LVL330:
	.loc 4 375 31 view .LVU803
.LBE1524:
.LBE1523:
.LBB1525:
.LBI1525:
	.loc 4 1268 7 is_stmt 1 view .LVU804
.LBB1526:
.LBB1527:
.LBI1527:
	.loc 4 370 7 view .LVU805
.LBB1528:
@ C:/Users/andre/.platformio/packages/toolchain-rp2040-earlephilhower/arm-none-eabi/include/c++/14.2.0/bits/stl_deque.h:373: 	  * (__x._M_node - __y._M_node - bool(__x._M_node))
	.loc 4 373 11 is_stmt 0 view .LVU806
	ldr	r1, [r4, #36]	@ _143, MEM[(const struct _Self &)this_12(D) + 24]._M_node
.LVL331:
	.loc 4 373 11 view .LVU807
	mov	r9, r1	@ _143, _143
@ C:/Users/andre/.platformio/packages/toolchain-rp2040-earlephilhower/arm-none-eabi/include/c++/14.2.0/bits/stl_deque.h:374: 	  + (__x._M_cur - __x._M_first)
	.loc 4 374 11 view .LVU808
	ldr	r5, [r4, #24]	@ _151, MEM[(const struct _Self &)this_12(D) + 24]._M_cur
	movs	r3, r5	@ _151, _151
	str	r5, [sp, #40]	@ _151, %sfp
@ C:/Users/andre/.platformio/packages/toolchain-rp2040-earlephilhower/arm-none-eabi/include/c++/14.2.0/bits/stl_deque.h:374: 	  + (__x._M_cur - __x._M_first)
	.loc 4 374 24 view .LVU809
	ldr	r5, [r4, #28]	@ _152, MEM[(const struct _Self &)this_12(D) + 24]._M_first
	str	r5, [sp, #36]	@ _152, %sfp
.LVL332:
@ C:/Users/andre/.platformio/packages/toolchain-rp2040-earlephilhower/arm-none-eabi/include/c++/14.2.0/bits/stl_deque.h:373: 	  * (__x._M_node - __y._M_node - bool(__x._M_node))
	.loc 4 373 19 view .LVU810
	mov	r5, r8	@ _40, _40
	subs	r5, r1, r5	@ _145, _143, _40
	asrs	r5, r5, #2	@ _146, _145,
@ C:/Users/andre/.platformio/packages/toolchain-rp2040-earlephilhower/arm-none-eabi/include/c++/14.2.0/bits/stl_deque.h:373: 	  * (__x._M_node - __y._M_node - bool(__x._M_node))
	.loc 4 373 35 view .LVU811
	subs	r7, r1, #1	@ tmp314, _147
	sbcs	r1, r1, r7	@ _147, _147, tmp314
@ C:/Users/andre/.platformio/packages/toolchain-rp2040-earlephilhower/arm-none-eabi/include/c++/14.2.0/bits/stl_deque.h:373: 	  * (__x._M_node - __y._M_node - bool(__x._M_node))
	.loc 4 373 33 view .LVU812
	subs	r5, r5, r1	@ _149, _146, _147
@ C:/Users/andre/.platformio/packages/toolchain-rp2040-earlephilhower/arm-none-eabi/include/c++/14.2.0/bits/stl_deque.h:373: 	  * (__x._M_node - __y._M_node - bool(__x._M_node))
	.loc 4 373 4 view .LVU813
	lsls	r5, r5, #7	@ _150, _149,
@ C:/Users/andre/.platformio/packages/toolchain-rp2040-earlephilhower/arm-none-eabi/include/c++/14.2.0/bits/stl_deque.h:374: 	  + (__x._M_cur - __x._M_first)
	.loc 4 374 18 view .LVU814
	ldr	r1, [sp, #36]	@ _152, %sfp
	subs	r1, r3, r1	@ _153, _151, _152
	asrs	r1, r1, #2	@ _154, _153,
	mov	ip, r1	@ _154, _154
@ C:/Users/andre/.platformio/packages/toolchain-rp2040-earlephilhower/arm-none-eabi/include/c++/14.2.0/bits/stl_deque.h:374: 	  + (__x._M_cur - __x._M_first)
	.loc 4 374 4 view .LVU815
	add	r5, r5, ip	@ _155, _154
@ C:/Users/andre/.platformio/packages/toolchain-rp2040-earlephilhower/arm-none-eabi/include/c++/14.2.0/bits/stl_deque.h:375: 	  + (__y._M_last - __y._M_cur);
	.loc 4 375 31 view .LVU816
	adds	r5, r5, r2	@ _160, _155, _177
.LBE1528:
.LBE1527:
.LBE1526:
.LBE1525:
@ C:/Users/andre/.platformio/packages/toolchain-rp2040-earlephilhower/arm-none-eabi/include/c++/14.2.0/bits/deque.tcc:272: 	  if (static_cast<size_type>(__elems_before) <= (size() - __n) / 2)
	.loc 7 272 58 discriminator 1 view .LVU817
	ldr	r2, [sp, #20]	@ _196, %sfp
	subs	r5, r5, r2	@ _2, _160, _196
@ C:/Users/andre/.platformio/packages/toolchain-rp2040-earlephilhower/arm-none-eabi/include/c++/14.2.0/bits/deque.tcc:272: 	  if (static_cast<size_type>(__elems_before) <= (size() - __n) / 2)
	.loc 7 272 65 discriminator 1 view .LVU818
	lsrs	r5, r5, #1	@ _3, _2,
@ C:/Users/andre/.platformio/packages/toolchain-rp2040-earlephilhower/arm-none-eabi/include/c++/14.2.0/bits/deque.tcc:272: 	  if (static_cast<size_type>(__elems_before) <= (size() - __n) / 2)
	.loc 7 272 4 discriminator 1 view .LVU819
	ldr	r1, [sp, #16]	@ _178, %sfp
	cmp	r5, r1	@ _3, _178
	bcs	.LCB3869	@
	b	.L135	@long jump	@
.LCB3869:
.LVL333:
.LBB1529:
.LBI1529:
	.loc 4 1151 7 is_stmt 1 view .LVU820
.LBB1530:
.LBI1530:
	.loc 4 168 7 view .LVU821
	.loc 4 168 7 is_stmt 0 view .LVU822
.LBE1530:
.LBE1529:
@ C:/Users/andre/.platformio/packages/toolchain-rp2040-earlephilhower/arm-none-eabi/include/c++/14.2.0/bits/deque.tcc:274: 	      if (__first != begin())
	.loc 7 274 8 discriminator 2 view .LVU823
	cmp	r0, fp	@ _19, _37
	beq	.L136		@,
.LVL334:
.LBB1531:
.LBI1531:
	.loc 4 1151 7 is_stmt 1 view .LVU824
.LBB1532:
.LBI1532:
	.loc 4 168 7 view .LVU825
	.loc 4 168 7 is_stmt 0 view .LVU826
.LBE1532:
.LBE1531:
.LBB1533:
.LBI1533:
	.loc 4 168 7 is_stmt 1 view .LVU827
	.loc 4 168 7 is_stmt 0 view .LVU828
.LBE1533:
.LBB1534:
.LBI1534:
	.loc 4 168 7 is_stmt 1 view .LVU829
.LBB1535:
@ C:/Users/andre/.platformio/packages/toolchain-rp2040-earlephilhower/arm-none-eabi/include/c++/14.2.0/bits/stl_deque.h:170: 	 _M_last(__x._M_last), _M_node(__x._M_node) { }
	.loc 4 170 15 is_stmt 0 view .LVU830
	ldr	r3, [sp, #8]	@ __last, %sfp
	ldr	r2, [r3, #8]	@ _51, MEM[(const struct _Deque_iterator &)__last_11(D)]._M_last
.LVL335:
	.loc 4 170 15 view .LVU831
.LBE1535:
.LBE1534:
.LBB1536:
.LBI1536:
	.loc 3 913 5 is_stmt 1 view .LVU832
.LBB1537:
.LBI1537:
	.loc 4 168 7 view .LVU833
	.loc 4 168 7 is_stmt 0 view .LVU834
.LBE1537:
.LBB1538:
.LBI1538:
	.file 13 "C:/Users/andre/.platformio/packages/toolchain-rp2040-earlephilhower/arm-none-eabi/include/c++/14.2.0/bits/cpp_type_traits.h"
	.loc 13 607 5 is_stmt 1 view .LVU835
.LBB1539:
.LBI1539:
	.loc 4 168 7 view .LVU836
	.loc 4 168 7 is_stmt 0 view .LVU837
.LBE1539:
.LBE1538:
.LBB1540:
.LBI1540:
	.loc 4 168 7 is_stmt 1 view .LVU838
	.loc 4 168 7 is_stmt 0 view .LVU839
.LBE1540:
.LBB1541:
.LBI1541:
	.loc 13 607 5 is_stmt 1 view .LVU840
.LBB1542:
.LBI1542:
	.loc 4 168 7 view .LVU841
	.loc 4 168 7 is_stmt 0 view .LVU842
.LBE1542:
.LBE1541:
.LBB1543:
.LBI1543:
	.loc 4 168 7 is_stmt 1 view .LVU843
	.loc 4 168 7 is_stmt 0 view .LVU844
.LBE1543:
.LBB1544:
.LBI1544:
	.loc 3 823 5 is_stmt 1 view .LVU845
.LBB1545:
.LBB1546:
.LBI1546:
	.loc 4 168 7 view .LVU846
	.loc 4 168 7 is_stmt 0 view .LVU847
.LBE1546:
.LBB1547:
.LBI1547:
	.loc 3 316 5 is_stmt 1 view .LVU848
.LBB1548:
.LBI1548:
	.loc 4 168 7 view .LVU849
	.loc 4 168 7 is_stmt 0 view .LVU850
.LBE1548:
.LBE1547:
.LBB1549:
.LBI1549:
	.loc 4 168 7 is_stmt 1 view .LVU851
	.loc 4 168 7 is_stmt 0 view .LVU852
.LBE1549:
.LBB1550:
.LBI1550:
	.loc 3 316 5 is_stmt 1 view .LVU853
.LBB1551:
.LBI1551:
	.loc 4 168 7 view .LVU854
	.loc 4 168 7 is_stmt 0 view .LVU855
.LBE1551:
.LBE1550:
.LBB1552:
.LBI1552:
	.loc 4 168 7 is_stmt 1 view .LVU856
	.loc 4 168 7 is_stmt 0 view .LVU857
.LBE1552:
.LBB1553:
.LBI1553:
	.loc 3 316 5 is_stmt 1 view .LVU858
.LBB1554:
.LBI1554:
	.loc 4 168 7 view .LVU859
	.loc 4 168 7 is_stmt 0 view .LVU860
.LBE1554:
.LBE1553:
.LBB1555:
.LBI1555:
	.loc 7 1161 5 is_stmt 1 view .LVU861
.LBB1556:
.LBI1556:
	.loc 4 168 7 view .LVU862
	.loc 4 168 7 is_stmt 0 view .LVU863
.LBE1556:
.LBB1557:
.LBI1557:
	.loc 4 168 7 is_stmt 1 view .LVU864
	.loc 4 168 7 is_stmt 0 view .LVU865
.LBE1557:
.LBB1558:
.LBI1558:
	.loc 4 168 7 is_stmt 1 view .LVU866
	.loc 4 168 7 is_stmt 0 view .LVU867
.LBE1558:
.LBB1559:
.LBI1559:
	.loc 7 1125 5 is_stmt 1 view .LVU868
.LBB1560:
.LBB1561:
@ C:/Users/andre/.platformio/packages/toolchain-rp2040-earlephilhower/arm-none-eabi/include/c++/14.2.0/bits/deque.tcc:1131:       if (__first._M_node != __last._M_node)
	.loc 7 1131 7 is_stmt 0 view .LVU869
	ldr	r7, [sp, #4]	@ _180, %sfp
	cmp	r8, r7	@ _40, _180
	beq	.L137		@,
.LVL336:
.LBB1562:
.LBB1563:
.LBI1563:
	.loc 4 168 7 is_stmt 1 view .LVU870
.LBB1564:
.LBB1565:
@ C:/Users/andre/.platformio/packages/toolchain-rp2040-earlephilhower/arm-none-eabi/include/c++/14.2.0/bits/stl_deque.h:169:        : _M_cur(__x._M_cur), _M_first(__x._M_first),
	.loc 4 169 10 is_stmt 0 view .LVU871
	add	r3, sp, #128	@ tmp324,,
.LVL337:
	.loc 4 169 10 view .LVU872
	ldr	r5, [sp, #12]	@ _27, %sfp
	str	r5, [sp, #128]	@ _27, D.46457._M_cur
@ C:/Users/andre/.platformio/packages/toolchain-rp2040-earlephilhower/arm-none-eabi/include/c++/14.2.0/bits/stl_deque.h:169:        : _M_cur(__x._M_cur), _M_first(__x._M_first),
	.loc 4 169 30 view .LVU873
	ldr	r5, [sp, #32]	@ _188, %sfp
	str	r5, [r3, #4]	@ _188, D.46457._M_first
@ C:/Users/andre/.platformio/packages/toolchain-rp2040-earlephilhower/arm-none-eabi/include/c++/14.2.0/bits/stl_deque.h:170: 	 _M_last(__x._M_last), _M_node(__x._M_node) { }
	.loc 4 170 3 view .LVU874
	str	r2, [r3, #8]	@ _51, D.46457._M_last
@ C:/Users/andre/.platformio/packages/toolchain-rp2040-earlephilhower/arm-none-eabi/include/c++/14.2.0/bits/stl_deque.h:170: 	 _M_last(__x._M_last), _M_node(__x._M_node) { }
	.loc 4 170 25 view .LVU875
	mov	r2, r10	@ _179, _179
	str	r2, [r3, #12]	@ _179, D.46457._M_node
.LVL338:
	.loc 4 170 25 view .LVU876
.LBE1565:
.LBE1564:
.LBE1563:
@ C:/Users/andre/.platformio/packages/toolchain-rp2040-earlephilhower/arm-none-eabi/include/c++/14.2.0/bits/deque.tcc:1133: 	  __result = std::__copy_move_backward_a1<_IsMove>(
	.loc 7 1133 52 discriminator 1 view .LVU877
	add	r5, sp, #144	@ tmp328,,
	movs	r2, r0	@, _19
	ldr	r1, [sp, #24]	@, %sfp
	movs	r0, r5	@, tmp328
	bl	_ZSt23__copy_move_backward_a1ILb1EPllEN9__gnu_cxx11__enable_ifIXsrSt23__is_random_access_iterIT0_NSt15iterator_traitsIS4_E17iterator_categoryEE7__valueESt15_Deque_iteratorIT1_RSA_PSA_EE6__typeES4_S4_SD_		@
.LVL339:
@ C:/Users/andre/.platformio/packages/toolchain-rp2040-earlephilhower/arm-none-eabi/include/c++/14.2.0/bits/deque.tcc:1133: 	  __result = std::__copy_move_backward_a1<_IsMove>(
	.loc 7 1133 4 discriminator 2 view .LVU878
	ldr	r3, [sp, #144]	@ SR.430, D.46458._M_cur
	mov	ip, r3	@ SR.430, SR.430
	ldr	r3, [sp, #148]	@ SR.431, D.46458._M_first
	ldr	r0, [sp, #152]	@ SR.432, D.46458._M_last
	ldr	r2, [sp, #156]	@ SR.433, D.46458._M_node
.LBB1566:
@ C:/Users/andre/.platformio/packages/toolchain-rp2040-earlephilhower/arm-none-eabi/include/c++/14.2.0/bits/deque.tcc:1136: 	  for (typename _Iter::_Map_pointer __node = __last._M_node - 1;
	.loc 7 1136 38 view .LVU879
	subs	r7, r7, #4	@ _180,
	movs	r1, r7	@ __node, _180
.LVL340:
	.loc 7 1137 16 is_stmt 1 view .LVU880
	cmp	r8, r7	@ _40, __node
	beq	.L138		@,
.LBB1567:
.LBB1568:
.LBB1569:
@ C:/Users/andre/.platformio/packages/toolchain-rp2040-earlephilhower/arm-none-eabi/include/c++/14.2.0/bits/stl_deque.h:169:        : _M_cur(__x._M_cur), _M_first(__x._M_first),
	.loc 4 169 10 is_stmt 0 view .LVU881
	add	r7, sp, #96	@ tmp334,,
.LBE1569:
.LBE1568:
.LBE1567:
@ C:/Users/andre/.platformio/packages/toolchain-rp2040-earlephilhower/arm-none-eabi/include/c++/14.2.0/bits/deque.tcc:1138: 	    __result = std::__copy_move_backward_a1<_IsMove>(
	.loc 7 1138 54 discriminator 1 view .LVU882
	add	r5, sp, #112	@ tmp338,,
	str	r0, [sp, #4]	@ SR.432, %sfp
	movs	r0, r3	@ SR.431, SR.431
	mov	r3, ip	@ SR.430, SR.430
	mov	r10, r6	@ <retval>, <retval>
	mov	r6, r8	@ _40, _40
.LVL341:
	.loc 7 1138 54 discriminator 1 view .LVU883
	mov	ip, r4	@ this, this
	movs	r4, r1	@ __node, __node
.LVL342:
	.loc 7 1138 54 discriminator 1 view .LVU884
	mov	r9, ip	@ this, this
	mov	r8, r10	@ <retval>, <retval>
	ldr	r1, [sp, #4]	@ SR.432, %sfp
.LVL343:
	.loc 7 1138 54 discriminator 1 view .LVU885
	mov	ip, r1	@ SR.432, SR.432
.LVL344:
.L139:
@ C:/Users/andre/.platformio/packages/toolchain-rp2040-earlephilhower/arm-none-eabi/include/c++/14.2.0/bits/deque.tcc:1138: 	    __result = std::__copy_move_backward_a1<_IsMove>(
	.loc 7 1138 54 view .LVU886
	ldr	r1, [r4]	@ _252, MEM[(long int * *)__node_628]
.LVL345:
.LBB1572:
.LBI1567:
	.loc 4 168 7 is_stmt 1 view .LVU887
.LBB1571:
.LBB1570:
@ C:/Users/andre/.platformio/packages/toolchain-rp2040-earlephilhower/arm-none-eabi/include/c++/14.2.0/bits/stl_deque.h:169:        : _M_cur(__x._M_cur), _M_first(__x._M_first),
	.loc 4 169 10 is_stmt 0 view .LVU888
	str	r3, [r7]	@ SR.430, D.46455._M_cur
@ C:/Users/andre/.platformio/packages/toolchain-rp2040-earlephilhower/arm-none-eabi/include/c++/14.2.0/bits/stl_deque.h:169:        : _M_cur(__x._M_cur), _M_first(__x._M_first),
	.loc 4 169 30 view .LVU889
	str	r0, [r7, #4]	@ SR.431, D.46455._M_first
@ C:/Users/andre/.platformio/packages/toolchain-rp2040-earlephilhower/arm-none-eabi/include/c++/14.2.0/bits/stl_deque.h:170: 	 _M_last(__x._M_last), _M_node(__x._M_node) { }
	.loc 4 170 3 view .LVU890
	mov	r3, ip	@ SR.432, SR.432
	str	r3, [r7, #8]	@ SR.432, D.46455._M_last
@ C:/Users/andre/.platformio/packages/toolchain-rp2040-earlephilhower/arm-none-eabi/include/c++/14.2.0/bits/stl_deque.h:170: 	 _M_last(__x._M_last), _M_node(__x._M_node) { }
	.loc 4 170 25 view .LVU891
	str	r2, [r7, #12]	@ SR.433, D.46455._M_node
.LVL346:
	.loc 4 170 25 view .LVU892
.LBE1570:
.LBE1571:
.LBE1572:
@ C:/Users/andre/.platformio/packages/toolchain-rp2040-earlephilhower/arm-none-eabi/include/c++/14.2.0/bits/deque.tcc:1138: 	    __result = std::__copy_move_backward_a1<_IsMove>(
	.loc 7 1138 54 view .LVU893
	movs	r3, #128	@ tmp539,
	lsls	r3, r3, #2	@ tmp539, tmp539,
	adds	r2, r1, r3	@ _253, _252, tmp539
@ C:/Users/andre/.platformio/packages/toolchain-rp2040-earlephilhower/arm-none-eabi/include/c++/14.2.0/bits/deque.tcc:1138: 	    __result = std::__copy_move_backward_a1<_IsMove>(
	.loc 7 1138 54 discriminator 1 view .LVU894
	movs	r3, r7	@, tmp334
	movs	r0, r5	@, tmp338
	bl	_ZSt23__copy_move_backward_a1ILb1EPllEN9__gnu_cxx11__enable_ifIXsrSt23__is_random_access_iterIT0_NSt15iterator_traitsIS4_E17iterator_categoryEE7__valueESt15_Deque_iteratorIT1_RSA_PSA_EE6__typeES4_S4_SD_		@
.LVL347:
@ C:/Users/andre/.platformio/packages/toolchain-rp2040-earlephilhower/arm-none-eabi/include/c++/14.2.0/bits/deque.tcc:1138: 	    __result = std::__copy_move_backward_a1<_IsMove>(
	.loc 7 1138 6 discriminator 2 view .LVU895
	ldr	r3, [r5]	@ SR.430, D.46456._M_cur
	ldr	r0, [r5, #4]	@ SR.431, D.46456._M_first
	ldr	r2, [r5, #8]	@ SR.432, D.46456._M_last
	mov	ip, r2	@ SR.432, SR.432
	ldr	r2, [r5, #12]	@ SR.433, D.46456._M_node
	.loc 7 1136 4 is_stmt 1 view .LVU896
	subs	r4, r4, #4	@ __node,
.LVL348:
	.loc 7 1137 16 view .LVU897
	cmp	r6, r4	@ _40, __node
	bne	.L139		@,
	mov	r1, ip	@ SR.432, SR.432
	mov	ip, r3	@ SR.430, SR.430
	movs	r3, r0	@ SR.431, SR.431
	mov	r6, r8	@ <retval>, <retval>
	mov	r4, r9	@ this, this
.LVL349:
	.loc 7 1137 16 is_stmt 0 view .LVU898
	movs	r0, r1	@ SR.432, SR.432
.LVL350:
.L138:
	.loc 7 1137 16 view .LVU899
.LBE1566:
.LBB1573:
.LBI1573:
	.loc 4 168 7 is_stmt 1 view .LVU900
.LBB1574:
.LBB1575:
@ C:/Users/andre/.platformio/packages/toolchain-rp2040-earlephilhower/arm-none-eabi/include/c++/14.2.0/bits/stl_deque.h:169:        : _M_cur(__x._M_cur), _M_first(__x._M_first),
	.loc 4 169 10 is_stmt 0 view .LVU901
	add	r1, sp, #80	@ tmp345,,
.LVL351:
	.loc 4 169 10 view .LVU902
	mov	r5, ip	@ SR.430, SR.430
	str	r5, [sp, #80]	@ SR.430, D.46454._M_cur
@ C:/Users/andre/.platformio/packages/toolchain-rp2040-earlephilhower/arm-none-eabi/include/c++/14.2.0/bits/stl_deque.h:169:        : _M_cur(__x._M_cur), _M_first(__x._M_first),
	.loc 4 169 30 view .LVU903
	str	r3, [sp, #84]	@ SR.431, D.46454._M_first
@ C:/Users/andre/.platformio/packages/toolchain-rp2040-earlephilhower/arm-none-eabi/include/c++/14.2.0/bits/stl_deque.h:170: 	 _M_last(__x._M_last), _M_node(__x._M_node) { }
	.loc 4 170 3 view .LVU904
	str	r0, [sp, #88]	@ SR.432, D.46454._M_last
@ C:/Users/andre/.platformio/packages/toolchain-rp2040-earlephilhower/arm-none-eabi/include/c++/14.2.0/bits/stl_deque.h:170: 	 _M_last(__x._M_last), _M_node(__x._M_node) { }
	.loc 4 170 25 view .LVU905
	str	r2, [sp, #92]	@ SR.433, D.46454._M_node
.LVL352:
	.loc 4 170 25 view .LVU906
.LBE1575:
.LBE1574:
.LBE1573:
@ C:/Users/andre/.platformio/packages/toolchain-rp2040-earlephilhower/arm-none-eabi/include/c++/14.2.0/bits/deque.tcc:1142: 			__first._M_cur, __first._M_last, __result);
	.loc 7 1142 45 view .LVU907
	movs	r3, r1	@, tmp345
	ldr	r2, [sp, #28]	@, %sfp
	mov	r1, fp	@, _37
	add	r0, sp, #48	@,,
	bl	_ZSt23__copy_move_backward_a1ILb1EPllEN9__gnu_cxx11__enable_ifIXsrSt23__is_random_access_iterIT0_NSt15iterator_traitsIS4_E17iterator_categoryEE7__valueESt15_Deque_iteratorIT1_RSA_PSA_EE6__typeES4_S4_SD_		@
.LVL353:
.L136:
	.loc 7 1142 45 view .LVU908
.LBE1562:
.LBE1561:
.LBE1560:
.LBE1559:
.LBE1555:
.LBE1545:
.LBE1544:
.LBE1536:
.LBB1586:
.LBI1586:
	.loc 4 1151 7 is_stmt 1 view .LVU909
.LBB1587:
.LBI1587:
	.loc 4 168 7 view .LVU910
.LBB1588:
@ C:/Users/andre/.platformio/packages/toolchain-rp2040-earlephilhower/arm-none-eabi/include/c++/14.2.0/bits/stl_deque.h:169:        : _M_cur(__x._M_cur), _M_first(__x._M_first),
	.loc 4 169 21 is_stmt 0 view .LVU911
	ldr	r2, [r4, #8]	@ _56, MEM[(const struct _Deque_iterator &)this_12(D) + 8]._M_cur
@ C:/Users/andre/.platformio/packages/toolchain-rp2040-earlephilhower/arm-none-eabi/include/c++/14.2.0/bits/stl_deque.h:169:        : _M_cur(__x._M_cur), _M_first(__x._M_first),
	.loc 4 169 43 view .LVU912
	ldr	r7, [r4, #12]	@ SR.419, MEM[(const struct _Deque_iterator &)this_12(D) + 8]._M_first
@ C:/Users/andre/.platformio/packages/toolchain-rp2040-earlephilhower/arm-none-eabi/include/c++/14.2.0/bits/stl_deque.h:170: 	 _M_last(__x._M_last), _M_node(__x._M_node) { }
	.loc 4 170 37 view .LVU913
	ldr	r1, [r4, #20]	@ _59, MEM[(const struct _Deque_iterator &)this_12(D) + 8]._M_node
.LVL354:
	.loc 4 170 37 view .LVU914
.LBE1588:
.LBE1587:
.LBE1586:
.LBB1591:
.LBI1591:
	.loc 4 397 7 is_stmt 1 view .LVU915
.LBB1592:
.LBB1593:
.LBI1593:
	.loc 4 168 7 view .LVU916
	.loc 4 168 7 is_stmt 0 view .LVU917
.LBE1593:
.LBB1595:
.LBI1595:
	.loc 4 230 7 is_stmt 1 view .LVU918
.LBB1596:
@ C:/Users/andre/.platformio/packages/toolchain-rp2040-earlephilhower/arm-none-eabi/include/c++/14.2.0/bits/stl_deque.h:232: 	const difference_type __offset = __n + (_M_cur - _M_first);
	.loc 4 232 49 is_stmt 0 view .LVU919
	subs	r3, r2, r7	@ _277, _56, SR.419
	asrs	r3, r3, #2	@ _278, _277,
.LVL355:
.LBB1597:
@ C:/Users/andre/.platformio/packages/toolchain-rp2040-earlephilhower/arm-none-eabi/include/c++/14.2.0/bits/stl_deque.h:233: 	if (__offset >= 0 && __offset < difference_type(_S_buffer_size()))
	.loc 4 233 20 view .LVU920
	ldr	r0, [sp, #20]	@ _196, %sfp
	adds	r3, r3, r0	@ __offset, _278, _196
	bmi	.L141		@,
.LVL356:
@ C:/Users/andre/.platformio/packages/toolchain-rp2040-earlephilhower/arm-none-eabi/include/c++/14.2.0/bits/stl_deque.h:233: 	if (__offset >= 0 && __offset < difference_type(_S_buffer_size()))
	.loc 4 233 20 discriminator 1 view .LVU921
	cmp	r3, #127	@ __offset,
	bgt	.L142		@,
.LBE1597:
.LBE1596:
.LBE1595:
.LBE1592:
.LBE1591:
.LBB1618:
.LBB1590:
.LBB1589:
@ C:/Users/andre/.platformio/packages/toolchain-rp2040-earlephilhower/arm-none-eabi/include/c++/14.2.0/bits/stl_deque.h:170: 	 _M_last(__x._M_last), _M_node(__x._M_node) { }
	.loc 4 170 15 view .LVU922
	ldr	r3, [r4, #16]	@ SR.420, MEM[(const struct _Deque_iterator &)this_12(D) + 8]._M_last
.LVL357:
	.loc 4 170 15 view .LVU923
	mov	r8, r3	@ SR.420, SR.420
.LBE1589:
.LBE1590:
.LBE1618:
.LBB1619:
.LBB1615:
.LBB1610:
.LBB1606:
.LBB1602:
@ C:/Users/andre/.platformio/packages/toolchain-rp2040-earlephilhower/arm-none-eabi/include/c++/14.2.0/bits/stl_deque.h:234: 	  _M_cur += __n;
	.loc 4 234 11 view .LVU924
	lsls	r5, r0, #2	@ _281, _196,
	adds	r5, r2, r5	@ SR.418, _56, _281
.LBE1602:
.LBE1606:
.LBE1610:
.LBB1611:
.LBB1594:
@ C:/Users/andre/.platformio/packages/toolchain-rp2040-earlephilhower/arm-none-eabi/include/c++/14.2.0/bits/stl_deque.h:170: 	 _M_last(__x._M_last), _M_node(__x._M_node) { }
	.loc 4 170 25 view .LVU925
	mov	r9, r1	@ SR.421, _59
.LBE1594:
.LBE1611:
.LBB1612:
.LBB1607:
.LBB1603:
	b	.L143		@
.LVL358:
.L160:
	.loc 4 170 25 view .LVU926
.LBE1603:
.LBE1607:
.LBE1612:
.LBE1615:
.LBE1619:
.LBE1518:
.LBE1512:
.LBB1781:
.LBI1781:
	.loc 4 168 7 is_stmt 1 view .LVU927
.LBB1782:
.LBB1783:
@ C:/Users/andre/.platformio/packages/toolchain-rp2040-earlephilhower/arm-none-eabi/include/c++/14.2.0/bits/stl_deque.h:169:        : _M_cur(__x._M_cur), _M_first(__x._M_first),
	.loc 4 169 10 is_stmt 0 view .LVU928
	str	r0, [r6]	@ _19, MEM[(struct _Deque_iterator *)_35(D)]._M_cur
@ C:/Users/andre/.platformio/packages/toolchain-rp2040-earlephilhower/arm-none-eabi/include/c++/14.2.0/bits/stl_deque.h:169:        : _M_cur(__x._M_cur), _M_first(__x._M_first),
	.loc 4 169 30 view .LVU929
	ldr	r3, [r2, #4]	@ MEM[(const struct _Deque_iterator &)__first_10(D)]._M_first, MEM[(const struct _Deque_iterator &)__first_10(D)]._M_first
	str	r3, [r6, #4]	@ MEM[(const struct _Deque_iterator &)__first_10(D)]._M_first, MEM[(struct _Deque_iterator *)_35(D)]._M_first
@ C:/Users/andre/.platformio/packages/toolchain-rp2040-earlephilhower/arm-none-eabi/include/c++/14.2.0/bits/stl_deque.h:170: 	 _M_last(__x._M_last), _M_node(__x._M_node) { }
	.loc 4 170 3 view .LVU930
	ldr	r3, [r2, #8]	@ MEM[(const struct _Deque_iterator &)__first_10(D)]._M_last, MEM[(const struct _Deque_iterator &)__first_10(D)]._M_last
	str	r3, [r6, #8]	@ MEM[(const struct _Deque_iterator &)__first_10(D)]._M_last, MEM[(struct _Deque_iterator *)_35(D)]._M_last
@ C:/Users/andre/.platformio/packages/toolchain-rp2040-earlephilhower/arm-none-eabi/include/c++/14.2.0/bits/stl_deque.h:170: 	 _M_last(__x._M_last), _M_node(__x._M_node) { }
	.loc 4 170 25 view .LVU931
	ldr	r3, [r2, #12]	@ MEM[(const struct _Deque_iterator &)__first_10(D)]._M_node, MEM[(const struct _Deque_iterator &)__first_10(D)]._M_node
	str	r3, [r6, #12]	@ MEM[(const struct _Deque_iterator &)__first_10(D)]._M_node, MEM[(struct _Deque_iterator *)_35(D)]._M_node
.LVL359:
	.loc 4 170 25 view .LVU932
.LBE1783:
@ C:/Users/andre/.platformio/packages/toolchain-rp2040-earlephilhower/arm-none-eabi/include/c++/14.2.0/bits/stl_deque.h:170: 	 _M_last(__x._M_last), _M_node(__x._M_node) { }
	.loc 4 170 48 view .LVU933
	b	.L131		@
.L161:
.LVL360:
	.loc 4 170 48 view .LVU934
.LBE1782:
.LBE1781:
.LBB1784:
.LBB1764:
.LBI1764:
	.loc 4 1170 7 is_stmt 1 view .LVU935
.LBB1765:
.LBI1765:
	.loc 4 168 7 view .LVU936
	.loc 4 168 7 is_stmt 0 view .LVU937
.LBE1765:
.LBE1764:
@ C:/Users/andre/.platformio/packages/toolchain-rp2040-earlephilhower/arm-none-eabi/include/c++/14.2.0/bits/deque.tcc:263:       else if (__first == begin() && __last == end())
	.loc 7 263 35 discriminator 2 view .LVU938
	ldr	r5, [r1, #24]	@ MEM[(const struct _Deque_iterator &)this_12(D) + 24]._M_cur, MEM[(const struct _Deque_iterator &)this_12(D) + 24]._M_cur
	ldr	r3, [sp, #12]	@ _27, %sfp
	cmp	r3, r5	@ _27, MEM[(const struct _Deque_iterator &)this_12(D) + 24]._M_cur
	beq	.LCB4335	@
	b	.L134	@long jump	@
.LCB4335:
.LBB1766:
.LBB1517:
.LBB1516:
@ C:/Users/andre/.platformio/packages/toolchain-rp2040-earlephilhower/arm-none-eabi/include/c++/14.2.0/bits/stl_deque.h:169:        : _M_cur(__x._M_cur), _M_first(__x._M_first),
	.loc 4 169 43 view .LVU939
	ldr	r5, [r1, #12]	@ _38, MEM[(const struct _Deque_iterator &)this_12(D) + 8]._M_first
.LVL361:
	.loc 4 169 43 view .LVU940
.LBE1516:
.LBE1517:
.LBE1766:
.LBB1767:
.LBI1767:
	.loc 4 1835 7 is_stmt 1 view .LVU941
.LBB1768:
.LBI1768:
	.loc 4 1151 7 view .LVU942
.LBB1769:
.LBI1769:
	.loc 4 168 7 view .LVU943
	.loc 4 168 7 is_stmt 0 view .LVU944
.LBE1769:
.LBE1768:
.LBB1770:
.LBI1770:
	.loc 4 2106 7 is_stmt 1 view .LVU945
.LBB1771:
.LBB1772:
.LBI1772:
	.loc 4 168 7 view .LVU946
	.loc 4 168 7 is_stmt 0 view .LVU947
.LBE1772:
.LBB1773:
.LBI1773:
	.loc 4 1170 7 is_stmt 1 view .LVU948
.LBB1774:
.LBI1774:
	.loc 4 168 7 view .LVU949
	.loc 4 168 7 is_stmt 0 view .LVU950
.LBE1774:
.LBE1773:
@ C:/Users/andre/.platformio/packages/toolchain-rp2040-earlephilhower/arm-none-eabi/include/c++/14.2.0/bits/stl_deque.h:2109: 	_M_destroy_nodes(__pos._M_node + 1,
	.loc 4 2109 18 view .LVU951
	ldr	r2, [r1, #36]	@ MEM[(const struct _Deque_iterator &)this_12(D) + 24]._M_node, MEM[(const struct _Deque_iterator &)this_12(D) + 24]._M_node
.LVL362:
	.loc 4 2109 18 view .LVU952
	adds	r2, r2, #4	@ _142,
	mov	r3, r8	@ _40, _40
	adds	r1, r3, #4	@ _141, _40,
.LVL363:
	.loc 4 2109 18 view .LVU953
	movs	r0, r4	@, this
	bl	_ZNSt11_Deque_baseIlSaIlEE16_M_destroy_nodesEPPlS3_		@
.LVL364:
@ C:/Users/andre/.platformio/packages/toolchain-rp2040-earlephilhower/arm-none-eabi/include/c++/14.2.0/bits/stl_deque.h:2111: 	this->_M_impl._M_finish = __pos;
	.loc 4 2111 2 view .LVU954
	mov	r3, fp	@ _37, _37
	str	r3, [r4, #24]	@ _37, this_12(D)->D.37667._M_impl.D.37034._M_finish._M_cur
	str	r5, [r4, #28]	@ _38, this_12(D)->D.37667._M_impl.D.37034._M_finish._M_first
	ldr	r3, [sp, #28]	@ _39, %sfp
	str	r3, [r4, #32]	@ _39, this_12(D)->D.37667._M_impl.D.37034._M_finish._M_last
	mov	r3, r8	@ _40, _40
	str	r3, [r4, #36]	@ _40, this_12(D)->D.37667._M_impl.D.37034._M_finish._M_node
.LVL365:
	.loc 4 2111 2 view .LVU955
.LBE1771:
.LBE1770:
.LBE1767:
.LBB1775:
.LBI1775:
	.loc 4 1170 7 is_stmt 1 view .LVU956
.LBB1776:
.LBB1777:
.LBI1777:
	.loc 4 168 7 view .LVU957
.LBB1778:
@ C:/Users/andre/.platformio/packages/toolchain-rp2040-earlephilhower/arm-none-eabi/include/c++/14.2.0/bits/stl_deque.h:169:        : _M_cur(__x._M_cur), _M_first(__x._M_first),
	.loc 4 169 10 is_stmt 0 view .LVU958
	mov	r3, fp	@ _37, _37
	str	r3, [r6]	@ _37, MEM[(struct _Deque_iterator *)_35(D)]._M_cur
@ C:/Users/andre/.platformio/packages/toolchain-rp2040-earlephilhower/arm-none-eabi/include/c++/14.2.0/bits/stl_deque.h:169:        : _M_cur(__x._M_cur), _M_first(__x._M_first),
	.loc 4 169 30 view .LVU959
	ldr	r3, [r4, #28]	@ MEM[(const struct _Deque_iterator &)this_12(D) + 24]._M_first, MEM[(const struct _Deque_iterator &)this_12(D) + 24]._M_first
	str	r3, [r6, #4]	@ MEM[(const struct _Deque_iterator &)this_12(D) + 24]._M_first, MEM[(struct _Deque_iterator *)_35(D)]._M_first
@ C:/Users/andre/.platformio/packages/toolchain-rp2040-earlephilhower/arm-none-eabi/include/c++/14.2.0/bits/stl_deque.h:170: 	 _M_last(__x._M_last), _M_node(__x._M_node) { }
	.loc 4 170 3 view .LVU960
	ldr	r3, [r4, #32]	@ MEM[(const struct _Deque_iterator &)this_12(D) + 24]._M_last, MEM[(const struct _Deque_iterator &)this_12(D) + 24]._M_last
	str	r3, [r6, #8]	@ MEM[(const struct _Deque_iterator &)this_12(D) + 24]._M_last, MEM[(struct _Deque_iterator *)_35(D)]._M_last
@ C:/Users/andre/.platformio/packages/toolchain-rp2040-earlephilhower/arm-none-eabi/include/c++/14.2.0/bits/stl_deque.h:170: 	 _M_last(__x._M_last), _M_node(__x._M_node) { }
	.loc 4 170 25 view .LVU961
	ldr	r3, [r4, #36]	@ MEM[(const struct _Deque_iterator &)this_12(D) + 24]._M_node, MEM[(const struct _Deque_iterator &)this_12(D) + 24]._M_node
	str	r3, [r6, #12]	@ MEM[(const struct _Deque_iterator &)this_12(D) + 24]._M_node, MEM[(struct _Deque_iterator *)_35(D)]._M_node
.LVL366:
	.loc 4 170 25 view .LVU962
.LBE1778:
.LBE1777:
@ C:/Users/andre/.platformio/packages/toolchain-rp2040-earlephilhower/arm-none-eabi/include/c++/14.2.0/bits/stl_deque.h:1171:       { return this->_M_impl._M_finish; }
	.loc 4 1171 30 view .LVU963
	b	.L131		@
.LVL367:
.L137:
	.loc 4 1171 30 view .LVU964
.LBE1776:
.LBE1775:
.LBB1779:
.LBB1620:
.LBB1585:
.LBB1584:
.LBB1581:
.LBB1580:
.LBB1579:
.LBB1576:
.LBI1576:
	.loc 4 168 7 is_stmt 1 view .LVU965
.LBB1577:
.LBB1578:
@ C:/Users/andre/.platformio/packages/toolchain-rp2040-earlephilhower/arm-none-eabi/include/c++/14.2.0/bits/stl_deque.h:169:        : _M_cur(__x._M_cur), _M_first(__x._M_first),
	.loc 4 169 10 is_stmt 0 view .LVU966
	add	r3, sp, #64	@ tmp351,,
.LVL368:
	.loc 4 169 10 view .LVU967
	ldr	r1, [sp, #12]	@ _27, %sfp
.LVL369:
	.loc 4 169 10 view .LVU968
	str	r1, [sp, #64]	@ _27, D.46453._M_cur
@ C:/Users/andre/.platformio/packages/toolchain-rp2040-earlephilhower/arm-none-eabi/include/c++/14.2.0/bits/stl_deque.h:169:        : _M_cur(__x._M_cur), _M_first(__x._M_first),
	.loc 4 169 30 view .LVU969
	ldr	r1, [sp, #32]	@ _188, %sfp
	str	r1, [r3, #4]	@ _188, D.46453._M_first
@ C:/Users/andre/.platformio/packages/toolchain-rp2040-earlephilhower/arm-none-eabi/include/c++/14.2.0/bits/stl_deque.h:170: 	 _M_last(__x._M_last), _M_node(__x._M_node) { }
	.loc 4 170 3 view .LVU970
	str	r2, [r3, #8]	@ _51, D.46453._M_last
@ C:/Users/andre/.platformio/packages/toolchain-rp2040-earlephilhower/arm-none-eabi/include/c++/14.2.0/bits/stl_deque.h:170: 	 _M_last(__x._M_last), _M_node(__x._M_node) { }
	.loc 4 170 25 view .LVU971
	mov	r2, r10	@ _179, _179
	str	r2, [r3, #12]	@ _179, D.46453._M_node
.LVL370:
	.loc 4 170 25 view .LVU972
.LBE1578:
.LBE1577:
.LBE1576:
@ C:/Users/andre/.platformio/packages/toolchain-rp2040-earlephilhower/arm-none-eabi/include/c++/14.2.0/bits/deque.tcc:1146: 		__first._M_cur, __last._M_cur, __result);
	.loc 7 1146 42 view .LVU973
	movs	r2, r0	@, _19
	mov	r1, fp	@, _37
	add	r0, sp, #48	@,,
	bl	_ZSt23__copy_move_backward_a1ILb1EPllEN9__gnu_cxx11__enable_ifIXsrSt23__is_random_access_iterIT0_NSt15iterator_traitsIS4_E17iterator_categoryEE7__valueESt15_Deque_iteratorIT1_RSA_PSA_EE6__typeES4_S4_SD_		@
.LVL371:
	.loc 7 1146 42 view .LVU974
.LBE1579:
.LBE1580:
.LBE1581:
.LBB1582:
.LBI1582:
	.loc 3 353 5 is_stmt 1 view .LVU975
.LBB1583:
.LBI1583:
	.loc 4 168 7 view .LVU976
	.loc 4 168 7 is_stmt 0 view .LVU977
	b	.L136		@
.LVL372:
.L142:
	.loc 4 168 7 view .LVU978
.LBE1583:
.LBE1582:
.LBE1584:
.LBE1585:
.LBE1620:
.LBB1621:
.LBB1616:
.LBB1613:
.LBB1608:
.LBB1604:
.LBB1598:
@ C:/Users/andre/.platformio/packages/toolchain-rp2040-earlephilhower/arm-none-eabi/include/c++/14.2.0/bits/stl_deque.h:238: 	      __offset > 0 ? __offset / difference_type(_S_buffer_size())
	.loc 4 238 21 discriminator 1 view .LVU979
	asrs	r0, r3, #31	@ tmp363, __offset,
.LVL373:
	.loc 4 238 21 discriminator 1 view .LVU980
	movs	r2, #127	@ tmp364,
	ands	r2, r0	@ tmp365, tmp363
	adds	r2, r2, r3	@ tmp366, tmp365, __offset
	asrs	r2, r2, #7	@ iftmp.33_283, tmp366,
.L144:
.LVL374:
@ C:/Users/andre/.platformio/packages/toolchain-rp2040-earlephilhower/arm-none-eabi/include/c++/14.2.0/bits/stl_deque.h:241: 	    _M_set_node(_M_node + __node_offset);
	.loc 4 241 26 view .LVU981
	lsls	r0, r2, #2	@ _292, iftmp.33_283,
@ C:/Users/andre/.platformio/packages/toolchain-rp2040-earlephilhower/arm-none-eabi/include/c++/14.2.0/bits/stl_deque.h:241: 	    _M_set_node(_M_node + __node_offset);
	.loc 4 241 17 view .LVU982
	mov	r9, r0	@ _292, _292
	add	r9, r9, r1	@ _292, _59
.LVL375:
.LBB1599:
.LBI1599:
	.loc 4 263 7 is_stmt 1 view .LVU983
.LBB1600:
@ C:/Users/andre/.platformio/packages/toolchain-rp2040-earlephilhower/arm-none-eabi/include/c++/14.2.0/bits/stl_deque.h:266: 	_M_first = *__new_node;
	.loc 4 266 11 is_stmt 0 view .LVU984
	mov	r0, r9	@ SR.421, SR.421
	ldr	r7, [r0]	@ SR.419, *_293
@ C:/Users/andre/.platformio/packages/toolchain-rp2040-earlephilhower/arm-none-eabi/include/c++/14.2.0/bits/stl_deque.h:267: 	_M_last = _M_first + difference_type(_S_buffer_size());
	.loc 4 267 21 discriminator 1 view .LVU985
	movs	r0, #128	@ SR.420,
	lsls	r0, r0, #2	@ SR.420, SR.420,
	mov	r8, r0	@ SR.420, SR.420
	add	r8, r8, r7	@ SR.420, SR.419
.LVL376:
	.loc 4 267 21 discriminator 1 view .LVU986
.LBE1600:
.LBE1599:
@ C:/Users/andre/.platformio/packages/toolchain-rp2040-earlephilhower/arm-none-eabi/include/c++/14.2.0/bits/stl_deque.h:243: 				 * difference_type(_S_buffer_size()));
	.loc 4 243 6 discriminator 1 view .LVU987
	lsls	r2, r2, #7	@ _296, iftmp.33_283,
.LVL377:
@ C:/Users/andre/.platformio/packages/toolchain-rp2040-earlephilhower/arm-none-eabi/include/c++/14.2.0/bits/stl_deque.h:242: 	    _M_cur = _M_first + (__offset - __node_offset
	.loc 4 242 36 view .LVU988
	subs	r5, r3, r2	@ _297, __offset, _296
@ C:/Users/andre/.platformio/packages/toolchain-rp2040-earlephilhower/arm-none-eabi/include/c++/14.2.0/bits/stl_deque.h:242: 	    _M_cur = _M_first + (__offset - __node_offset
	.loc 4 242 24 view .LVU989
	lsls	r5, r5, #2	@ _299, _297,
	adds	r5, r7, r5	@ SR.418, SR.419, _299
.LVL378:
.L143:
	.loc 4 242 24 view .LVU990
.LBE1598:
.LBE1604:
.LBE1608:
.LBE1613:
.LBE1616:
.LBE1621:
.LBB1622:
.LBI1622:
	.loc 4 2096 7 is_stmt 1 view .LVU991
.LBB1623:
.LBB1624:
.LBI1624:
	.loc 4 1151 7 view .LVU992
.LBB1625:
.LBI1625:
	.loc 4 168 7 view .LVU993
	.loc 4 168 7 is_stmt 0 view .LVU994
.LBE1625:
.LBE1624:
.LBB1626:
.LBI1626:
	.loc 4 168 7 is_stmt 1 view .LVU995
	.loc 4 168 7 is_stmt 0 view .LVU996
.LBE1626:
@ C:/Users/andre/.platformio/packages/toolchain-rp2040-earlephilhower/arm-none-eabi/include/c++/14.2.0/bits/stl_deque.h:2099: 	_M_destroy_nodes(this->_M_impl._M_start._M_node, __pos._M_node);
	.loc 4 2099 18 view .LVU997
	mov	r2, r9	@, SR.421
	movs	r0, r4	@, this
	bl	_ZNSt11_Deque_baseIlSaIlEE16_M_destroy_nodesEPPlS3_		@
.LVL379:
@ C:/Users/andre/.platformio/packages/toolchain-rp2040-earlephilhower/arm-none-eabi/include/c++/14.2.0/bits/stl_deque.h:2100: 	this->_M_impl._M_start = __pos;
	.loc 4 2100 2 view .LVU998
	str	r5, [r4, #8]	@ SR.418, this_12(D)->D.37667._M_impl.D.37034._M_start._M_cur
	str	r7, [r4, #12]	@ SR.419, this_12(D)->D.37667._M_impl.D.37034._M_start._M_first
	mov	r3, r8	@ SR.420, SR.420
	str	r3, [r4, #16]	@ SR.420, this_12(D)->D.37667._M_impl.D.37034._M_start._M_last
	mov	r3, r9	@ SR.421, SR.421
	str	r3, [r4, #20]	@ SR.421, this_12(D)->D.37667._M_impl.D.37034._M_start._M_node
.LVL380:
.L145:
	.loc 4 2100 2 view .LVU999
.LBE1623:
.LBE1622:
.LBB1627:
.LBI1627:
	.loc 4 1151 7 is_stmt 1 view .LVU1000
.LBB1628:
.LBI1628:
	.loc 4 168 7 view .LVU1001
.LBB1629:
@ C:/Users/andre/.platformio/packages/toolchain-rp2040-earlephilhower/arm-none-eabi/include/c++/14.2.0/bits/stl_deque.h:169:        : _M_cur(__x._M_cur), _M_first(__x._M_first),
	.loc 4 169 21 is_stmt 0 view .LVU1002
	ldr	r2, [r4, #8]	@ _75, MEM[(const struct _Deque_iterator &)this_12(D) + 8]._M_cur
@ C:/Users/andre/.platformio/packages/toolchain-rp2040-earlephilhower/arm-none-eabi/include/c++/14.2.0/bits/stl_deque.h:169:        : _M_cur(__x._M_cur), _M_first(__x._M_first),
	.loc 4 169 43 view .LVU1003
	ldr	r3, [r4, #12]	@ _76, MEM[(const struct _Deque_iterator &)this_12(D) + 8]._M_first
@ C:/Users/andre/.platformio/packages/toolchain-rp2040-earlephilhower/arm-none-eabi/include/c++/14.2.0/bits/stl_deque.h:170: 	 _M_last(__x._M_last), _M_node(__x._M_node) { }
	.loc 4 170 15 view .LVU1004
	ldr	r0, [r4, #16]	@ _77, MEM[(const struct _Deque_iterator &)this_12(D) + 8]._M_last
@ C:/Users/andre/.platformio/packages/toolchain-rp2040-earlephilhower/arm-none-eabi/include/c++/14.2.0/bits/stl_deque.h:170: 	 _M_last(__x._M_last), _M_node(__x._M_node) { }
	.loc 4 170 37 view .LVU1005
	ldr	r1, [r4, #20]	@ _78, MEM[(const struct _Deque_iterator &)this_12(D) + 8]._M_node
.LVL381:
	.loc 4 170 37 view .LVU1006
.LBE1629:
.LBE1628:
.LBE1627:
.LBB1630:
.LBI1630:
	.loc 4 397 7 is_stmt 1 view .LVU1007
.LBB1631:
.LBB1632:
.LBI1632:
	.loc 4 168 7 view .LVU1008
.LBB1633:
@ C:/Users/andre/.platformio/packages/toolchain-rp2040-earlephilhower/arm-none-eabi/include/c++/14.2.0/bits/stl_deque.h:169:        : _M_cur(__x._M_cur), _M_first(__x._M_first),
	.loc 4 169 10 is_stmt 0 view .LVU1009
	str	r2, [r6]	@ _75, MEM[(struct _Deque_iterator *)_35(D)]._M_cur
@ C:/Users/andre/.platformio/packages/toolchain-rp2040-earlephilhower/arm-none-eabi/include/c++/14.2.0/bits/stl_deque.h:169:        : _M_cur(__x._M_cur), _M_first(__x._M_first),
	.loc 4 169 30 view .LVU1010
	str	r3, [r6, #4]	@ _76, MEM[(struct _Deque_iterator *)_35(D)]._M_first
@ C:/Users/andre/.platformio/packages/toolchain-rp2040-earlephilhower/arm-none-eabi/include/c++/14.2.0/bits/stl_deque.h:170: 	 _M_last(__x._M_last), _M_node(__x._M_node) { }
	.loc 4 170 3 view .LVU1011
	str	r0, [r6, #8]	@ _77, MEM[(struct _Deque_iterator *)_35(D)]._M_last
@ C:/Users/andre/.platformio/packages/toolchain-rp2040-earlephilhower/arm-none-eabi/include/c++/14.2.0/bits/stl_deque.h:170: 	 _M_last(__x._M_last), _M_node(__x._M_node) { }
	.loc 4 170 25 view .LVU1012
	str	r1, [r6, #12]	@ _78, MEM[(struct _Deque_iterator *)_35(D)]._M_node
.LVL382:
	.loc 4 170 25 view .LVU1013
.LBE1633:
.LBE1632:
.LBB1634:
.LBI1634:
	.loc 4 230 7 is_stmt 1 view .LVU1014
.LBB1635:
@ C:/Users/andre/.platformio/packages/toolchain-rp2040-earlephilhower/arm-none-eabi/include/c++/14.2.0/bits/stl_deque.h:232: 	const difference_type __offset = __n + (_M_cur - _M_first);
	.loc 4 232 49 is_stmt 0 view .LVU1015
	subs	r3, r2, r3	@ _409, _75, _76
	asrs	r3, r3, #2	@ _410, _409,
.LVL383:
.LBB1636:
@ C:/Users/andre/.platformio/packages/toolchain-rp2040-earlephilhower/arm-none-eabi/include/c++/14.2.0/bits/stl_deque.h:233: 	if (__offset >= 0 && __offset < difference_type(_S_buffer_size()))
	.loc 4 233 20 view .LVU1016
	ldr	r0, [sp, #16]	@ _178, %sfp
	adds	r3, r3, r0	@ __offset, _410, _178
	bpl	.LCB4659	@
	b	.L155	@long jump	@
.LCB4659:
.LVL384:
@ C:/Users/andre/.platformio/packages/toolchain-rp2040-earlephilhower/arm-none-eabi/include/c++/14.2.0/bits/stl_deque.h:233: 	if (__offset >= 0 && __offset < difference_type(_S_buffer_size()))
	.loc 4 233 20 discriminator 1 view .LVU1017
	cmp	r3, #127	@ __offset,
	ble	.LCB4662	@
	b	.L156	@long jump	@
.LCB4662:
@ C:/Users/andre/.platformio/packages/toolchain-rp2040-earlephilhower/arm-none-eabi/include/c++/14.2.0/bits/stl_deque.h:234: 	  _M_cur += __n;
	.loc 4 234 11 view .LVU1018
	lsls	r3, r0, #2	@ _413, _178,
.LVL385:
	.loc 4 234 11 view .LVU1019
	adds	r2, r2, r3	@ _414, _75, _413
.LVL386:
	.loc 4 234 11 view .LVU1020
	str	r2, [r6]	@ _414, MEM[(struct _Deque_iterator *)_35(D)]._M_cur
.LVL387:
	.loc 4 234 11 view .LVU1021
	b	.L131		@
.LVL388:
.L141:
	.loc 4 234 11 view .LVU1022
.LBE1636:
.LBE1635:
.LBE1634:
.LBE1631:
.LBE1630:
.LBB1649:
.LBB1617:
.LBB1614:
.LBB1609:
.LBB1605:
.LBB1601:
@ C:/Users/andre/.platformio/packages/toolchain-rp2040-earlephilhower/arm-none-eabi/include/c++/14.2.0/bits/stl_deque.h:239: 			   : -difference_type((-__offset - 1)
	.loc 4 239 37 view .LVU1023
	mvns	r2, r3	@ _285, __offset
@ C:/Users/andre/.platformio/packages/toolchain-rp2040-earlephilhower/arm-none-eabi/include/c++/14.2.0/bits/stl_deque.h:240: 					      / _S_buffer_size()) - 1;
	.loc 4 240 12 discriminator 1 view .LVU1024
	lsrs	r2, r2, #7	@ _286, _285,
@ C:/Users/andre/.platformio/packages/toolchain-rp2040-earlephilhower/arm-none-eabi/include/c++/14.2.0/bits/stl_deque.h:238: 	      __offset > 0 ? __offset / difference_type(_S_buffer_size())
	.loc 4 238 21 discriminator 2 view .LVU1025
	mvns	r2, r2	@ iftmp.33_283, _286
	b	.L144		@
.LVL389:
.L135:
	.loc 4 238 21 discriminator 2 view .LVU1026
.LBE1601:
.LBE1605:
.LBE1609:
.LBE1614:
.LBE1617:
.LBE1649:
.LBB1650:
.LBI1650:
	.loc 4 1170 7 is_stmt 1 view .LVU1027
.LBB1651:
.LBI1651:
	.loc 4 168 7 view .LVU1028
	.loc 4 168 7 is_stmt 0 view .LVU1029
.LBE1651:
.LBE1650:
@ C:/Users/andre/.platformio/packages/toolchain-rp2040-earlephilhower/arm-none-eabi/include/c++/14.2.0/bits/deque.tcc:280: 	      if (__last != end())
	.loc 7 280 8 discriminator 2 view .LVU1030
	ldr	r3, [sp, #40]	@ _151, %sfp
	ldr	r7, [sp, #12]	@ _27, %sfp
	cmp	r7, r3	@ _27, _151
	beq	.L146		@,
.LVL390:
.LBB1652:
.LBI1652:
	.loc 4 168 7 is_stmt 1 view .LVU1031
	.loc 4 168 7 is_stmt 0 view .LVU1032
.LBE1652:
.LBB1654:
.LBI1654:
	.loc 4 1170 7 is_stmt 1 view .LVU1033
.LBB1655:
.LBI1655:
	.loc 4 168 7 view .LVU1034
	.loc 4 168 7 is_stmt 0 view .LVU1035
.LBE1655:
.LBE1654:
.LBB1656:
.LBI1656:
	.loc 4 168 7 is_stmt 1 view .LVU1036
	.loc 4 168 7 is_stmt 0 view .LVU1037
.LBE1656:
.LBB1657:
.LBI1657:
	.loc 3 675 5 is_stmt 1 view .LVU1038
.LBB1658:
.LBI1658:
	.loc 4 168 7 view .LVU1039
	.loc 4 168 7 is_stmt 0 view .LVU1040
.LBE1658:
.LBB1659:
.LBI1659:
	.loc 13 607 5 is_stmt 1 view .LVU1041
.LBB1660:
.LBI1660:
	.loc 4 168 7 view .LVU1042
	.loc 4 168 7 is_stmt 0 view .LVU1043
.LBE1660:
.LBE1659:
.LBB1661:
.LBI1661:
	.loc 4 168 7 is_stmt 1 view .LVU1044
	.loc 4 168 7 is_stmt 0 view .LVU1045
.LBE1661:
.LBB1662:
.LBI1662:
	.loc 13 607 5 is_stmt 1 view .LVU1046
.LBB1663:
.LBI1663:
	.loc 4 168 7 view .LVU1047
	.loc 4 168 7 is_stmt 0 view .LVU1048
.LBE1663:
.LBE1662:
.LBB1664:
.LBI1664:
	.loc 4 168 7 is_stmt 1 view .LVU1049
	.loc 4 168 7 is_stmt 0 view .LVU1050
.LBE1664:
.LBB1665:
.LBI1665:
	.loc 3 553 5 is_stmt 1 view .LVU1051
.LBB1666:
.LBB1667:
.LBI1667:
	.loc 4 168 7 view .LVU1052
	.loc 4 168 7 is_stmt 0 view .LVU1053
.LBE1667:
.LBB1668:
.LBI1668:
	.loc 3 316 5 is_stmt 1 view .LVU1054
.LBB1669:
.LBI1669:
	.loc 4 168 7 view .LVU1055
	.loc 4 168 7 is_stmt 0 view .LVU1056
.LBE1669:
.LBE1668:
.LBB1670:
.LBI1670:
	.loc 4 168 7 is_stmt 1 view .LVU1057
	.loc 4 168 7 is_stmt 0 view .LVU1058
.LBE1670:
.LBB1671:
.LBI1671:
	.loc 3 316 5 is_stmt 1 view .LVU1059
.LBB1672:
.LBI1672:
	.loc 4 168 7 view .LVU1060
	.loc 4 168 7 is_stmt 0 view .LVU1061
.LBE1672:
.LBE1671:
.LBB1673:
.LBI1673:
	.loc 4 168 7 is_stmt 1 view .LVU1062
	.loc 4 168 7 is_stmt 0 view .LVU1063
.LBE1673:
.LBB1674:
.LBI1674:
	.loc 3 316 5 is_stmt 1 view .LVU1064
.LBB1675:
.LBI1675:
	.loc 4 168 7 view .LVU1065
	.loc 4 168 7 is_stmt 0 view .LVU1066
.LBE1675:
.LBE1674:
.LBB1676:
.LBI1676:
	.loc 7 1040 5 is_stmt 1 view .LVU1067
.LBB1677:
.LBI1677:
	.loc 4 168 7 view .LVU1068
	.loc 4 168 7 is_stmt 0 view .LVU1069
.LBE1677:
.LBB1678:
.LBI1678:
	.loc 4 168 7 is_stmt 1 view .LVU1070
	.loc 4 168 7 is_stmt 0 view .LVU1071
.LBE1678:
.LBB1679:
.LBI1679:
	.loc 4 168 7 is_stmt 1 view .LVU1072
	.loc 4 168 7 is_stmt 0 view .LVU1073
.LBE1679:
.LBB1680:
.LBI1680:
	.loc 7 1003 5 is_stmt 1 view .LVU1074
.LBB1681:
.LBB1682:
@ C:/Users/andre/.platformio/packages/toolchain-rp2040-earlephilhower/arm-none-eabi/include/c++/14.2.0/bits/deque.tcc:1008:       if (__first._M_node != __last._M_node)
	.loc 7 1008 7 is_stmt 0 view .LVU1075
	cmp	r9, r10	@ _143, _179
	beq	.L147		@,
.LBE1682:
.LBE1681:
.LBE1680:
.LBE1676:
.LBE1666:
.LBE1665:
.LBE1657:
.LBB1713:
.LBB1653:
@ C:/Users/andre/.platformio/packages/toolchain-rp2040-earlephilhower/arm-none-eabi/include/c++/14.2.0/bits/stl_deque.h:170: 	 _M_last(__x._M_last), _M_node(__x._M_node) { }
	.loc 4 170 15 view .LVU1076
	ldr	r3, [sp, #8]	@ __last, %sfp
	ldr	r2, [r3, #8]	@ _68, MEM[(const struct _Deque_iterator &)__last_11(D)]._M_last
.LVL391:
	.loc 4 170 15 view .LVU1077
.LBE1653:
.LBE1713:
.LBB1714:
.LBB1711:
.LBB1709:
.LBB1705:
.LBB1703:
.LBB1701:
.LBB1697:
.LBB1683:
.LBB1684:
.LBI1684:
	.loc 4 168 7 is_stmt 1 view .LVU1078
.LBB1685:
.LBB1686:
@ C:/Users/andre/.platformio/packages/toolchain-rp2040-earlephilhower/arm-none-eabi/include/c++/14.2.0/bits/stl_deque.h:169:        : _M_cur(__x._M_cur), _M_first(__x._M_first),
	.loc 4 169 10 is_stmt 0 view .LVU1079
	add	r3, sp, #240	@ tmp374,,
.LVL392:
	.loc 4 169 10 view .LVU1080
	str	r0, [sp, #240]	@ _19, D.46550._M_cur
@ C:/Users/andre/.platformio/packages/toolchain-rp2040-earlephilhower/arm-none-eabi/include/c++/14.2.0/bits/stl_deque.h:169:        : _M_cur(__x._M_cur), _M_first(__x._M_first),
	.loc 4 169 30 view .LVU1081
	ldr	r1, [sp, #24]	@ _170, %sfp
.LVL393:
	.loc 4 169 30 view .LVU1082
	str	r1, [r3, #4]	@ _170, D.46550._M_first
@ C:/Users/andre/.platformio/packages/toolchain-rp2040-earlephilhower/arm-none-eabi/include/c++/14.2.0/bits/stl_deque.h:170: 	 _M_last(__x._M_last), _M_node(__x._M_node) { }
	.loc 4 170 3 view .LVU1083
	ldr	r1, [sp, #44]	@ _192, %sfp
	str	r1, [r3, #8]	@ _192, D.46550._M_last
@ C:/Users/andre/.platformio/packages/toolchain-rp2040-earlephilhower/arm-none-eabi/include/c++/14.2.0/bits/stl_deque.h:170: 	 _M_last(__x._M_last), _M_node(__x._M_node) { }
	.loc 4 170 25 view .LVU1084
	ldr	r1, [sp, #4]	@ _180, %sfp
	str	r1, [r3, #12]	@ _180, D.46550._M_node
.LVL394:
	.loc 4 170 25 view .LVU1085
.LBE1686:
.LBE1685:
.LBE1684:
@ C:/Users/andre/.platformio/packages/toolchain-rp2040-earlephilhower/arm-none-eabi/include/c++/14.2.0/bits/deque.tcc:1011: 	    = std::__copy_move_a1<_IsMove>(__first._M_cur, __first._M_last,
	.loc 7 1011 36 discriminator 1 view .LVU1086
	add	r5, sp, #256	@ tmp378,,
	movs	r1, r7	@, _27
	movs	r0, r5	@, tmp378
	bl	_ZSt14__copy_move_a1ILb1EPllEN9__gnu_cxx11__enable_ifIXsrSt23__is_random_access_iterIT0_NSt15iterator_traitsIS4_E17iterator_categoryEE7__valueESt15_Deque_iteratorIT1_RSA_PSA_EE6__typeES4_S4_SD_		@
.LVL395:
@ C:/Users/andre/.platformio/packages/toolchain-rp2040-earlephilhower/arm-none-eabi/include/c++/14.2.0/bits/deque.tcc:1010: 	  __result
	.loc 7 1010 4 view .LVU1087
	ldr	r3, [sp, #256]	@ SR.434, D.46551._M_cur
	mov	ip, r3	@ SR.434, SR.434
	ldr	r3, [sp, #260]	@ SR.435, D.46551._M_first
	ldr	r0, [sp, #264]	@ SR.436, D.46551._M_last
	ldr	r2, [sp, #268]	@ SR.437, D.46551._M_node
.LBB1687:
@ C:/Users/andre/.platformio/packages/toolchain-rp2040-earlephilhower/arm-none-eabi/include/c++/14.2.0/bits/deque.tcc:1014: 	  for (typename _Iter::_Map_pointer __node = __first._M_node + 1;
	.loc 7 1014 38 view .LVU1088
	mov	r5, r10	@ _179, _179
	adds	r5, r5, #4	@ _179,
.LVL396:
	.loc 7 1015 16 is_stmt 1 view .LVU1089
	cmp	r9, r5	@ _143, __node
	beq	.L148		@,
.LBB1688:
.LBB1689:
.LBB1690:
@ C:/Users/andre/.platformio/packages/toolchain-rp2040-earlephilhower/arm-none-eabi/include/c++/14.2.0/bits/stl_deque.h:169:        : _M_cur(__x._M_cur), _M_first(__x._M_first),
	.loc 4 169 10 is_stmt 0 view .LVU1090
	add	r1, sp, #208	@ tmp384,,
	mov	r8, r1	@ tmp384, tmp384
.LBE1690:
.LBE1689:
.LBE1688:
@ C:/Users/andre/.platformio/packages/toolchain-rp2040-earlephilhower/arm-none-eabi/include/c++/14.2.0/bits/deque.tcc:1017: 	      = std::__copy_move_a1<_IsMove>(*__node,
	.loc 7 1017 38 discriminator 1 view .LVU1091
	add	r7, sp, #224	@ tmp388,,
	mov	r10, r6	@ <retval>, <retval>
	movs	r6, r0	@ SR.436, SR.436
.LVL397:
	.loc 7 1017 38 discriminator 1 view .LVU1092
	movs	r0, r2	@ SR.437, SR.437
	mov	r2, ip	@ SR.434, SR.434
	mov	fp, r9	@ _143, _143
	mov	r9, r4	@ this, this
.LVL398:
.L149:
@ C:/Users/andre/.platformio/packages/toolchain-rp2040-earlephilhower/arm-none-eabi/include/c++/14.2.0/bits/deque.tcc:1017: 	      = std::__copy_move_a1<_IsMove>(*__node,
	.loc 7 1017 38 view .LVU1093
	ldmia	r5!, {r1}	@ MEM[(long int * *)__node_627], _356
.LVL399:
.LBB1693:
.LBI1688:
	.loc 4 168 7 is_stmt 1 view .LVU1094
.LBB1692:
.LBB1691:
@ C:/Users/andre/.platformio/packages/toolchain-rp2040-earlephilhower/arm-none-eabi/include/c++/14.2.0/bits/stl_deque.h:169:        : _M_cur(__x._M_cur), _M_first(__x._M_first),
	.loc 4 169 10 is_stmt 0 view .LVU1095
	mov	r4, r8	@ tmp384, tmp384
	str	r2, [r4]	@ SR.434, D.46548._M_cur
@ C:/Users/andre/.platformio/packages/toolchain-rp2040-earlephilhower/arm-none-eabi/include/c++/14.2.0/bits/stl_deque.h:169:        : _M_cur(__x._M_cur), _M_first(__x._M_first),
	.loc 4 169 30 view .LVU1096
	str	r3, [r4, #4]	@ SR.435, D.46548._M_first
@ C:/Users/andre/.platformio/packages/toolchain-rp2040-earlephilhower/arm-none-eabi/include/c++/14.2.0/bits/stl_deque.h:170: 	 _M_last(__x._M_last), _M_node(__x._M_node) { }
	.loc 4 170 3 view .LVU1097
	str	r6, [r4, #8]	@ SR.436, D.46548._M_last
@ C:/Users/andre/.platformio/packages/toolchain-rp2040-earlephilhower/arm-none-eabi/include/c++/14.2.0/bits/stl_deque.h:170: 	 _M_last(__x._M_last), _M_node(__x._M_node) { }
	.loc 4 170 25 view .LVU1098
	str	r0, [r4, #12]	@ SR.437, D.46548._M_node
.LVL400:
	.loc 4 170 25 view .LVU1099
.LBE1691:
.LBE1692:
.LBE1693:
@ C:/Users/andre/.platformio/packages/toolchain-rp2040-earlephilhower/arm-none-eabi/include/c++/14.2.0/bits/deque.tcc:1017: 	      = std::__copy_move_a1<_IsMove>(*__node,
	.loc 7 1017 38 view .LVU1100
	movs	r3, #128	@ tmp565,
	lsls	r3, r3, #2	@ tmp565, tmp565,
	adds	r2, r1, r3	@ _357, _356, tmp565
@ C:/Users/andre/.platformio/packages/toolchain-rp2040-earlephilhower/arm-none-eabi/include/c++/14.2.0/bits/deque.tcc:1017: 	      = std::__copy_move_a1<_IsMove>(*__node,
	.loc 7 1017 38 discriminator 1 view .LVU1101
	mov	r3, r8	@, tmp384
	movs	r0, r7	@, tmp388
	bl	_ZSt14__copy_move_a1ILb1EPllEN9__gnu_cxx11__enable_ifIXsrSt23__is_random_access_iterIT0_NSt15iterator_traitsIS4_E17iterator_categoryEE7__valueESt15_Deque_iteratorIT1_RSA_PSA_EE6__typeES4_S4_SD_		@
.LVL401:
@ C:/Users/andre/.platformio/packages/toolchain-rp2040-earlephilhower/arm-none-eabi/include/c++/14.2.0/bits/deque.tcc:1016: 	    __result
	.loc 7 1016 6 view .LVU1102
	ldr	r2, [r7]	@ SR.434, D.46549._M_cur
	ldr	r3, [r7, #4]	@ SR.435, D.46549._M_first
	ldr	r6, [r7, #8]	@ SR.436, D.46549._M_last
	ldr	r0, [r7, #12]	@ SR.437, D.46549._M_node
	.loc 7 1014 4 is_stmt 1 view .LVU1103
.LVL402:
	.loc 7 1015 16 view .LVU1104
	cmp	fp, r5	@ _143, __node
	bne	.L149		@,
	mov	ip, r2	@ SR.434, SR.434
	movs	r2, r0	@ SR.437, SR.437
	movs	r0, r6	@ SR.436, SR.436
	mov	r6, r10	@ <retval>, <retval>
	mov	r4, r9	@ this, this
.LVL403:
.L148:
	.loc 7 1015 16 is_stmt 0 view .LVU1105
.LBE1687:
.LBB1694:
.LBI1694:
	.loc 4 168 7 is_stmt 1 view .LVU1106
.LBB1695:
.LBB1696:
@ C:/Users/andre/.platformio/packages/toolchain-rp2040-earlephilhower/arm-none-eabi/include/c++/14.2.0/bits/stl_deque.h:169:        : _M_cur(__x._M_cur), _M_first(__x._M_first),
	.loc 4 169 10 is_stmt 0 view .LVU1107
	add	r1, sp, #192	@ tmp395,,
.LVL404:
	.loc 4 169 10 view .LVU1108
	mov	r5, ip	@ SR.434, SR.434
.LVL405:
	.loc 4 169 10 view .LVU1109
	str	r5, [sp, #192]	@ SR.434, D.46547._M_cur
@ C:/Users/andre/.platformio/packages/toolchain-rp2040-earlephilhower/arm-none-eabi/include/c++/14.2.0/bits/stl_deque.h:169:        : _M_cur(__x._M_cur), _M_first(__x._M_first),
	.loc 4 169 30 view .LVU1110
	str	r3, [sp, #196]	@ SR.435, D.46547._M_first
@ C:/Users/andre/.platformio/packages/toolchain-rp2040-earlephilhower/arm-none-eabi/include/c++/14.2.0/bits/stl_deque.h:170: 	 _M_last(__x._M_last), _M_node(__x._M_node) { }
	.loc 4 170 3 view .LVU1111
	str	r0, [sp, #200]	@ SR.436, D.46547._M_last
@ C:/Users/andre/.platformio/packages/toolchain-rp2040-earlephilhower/arm-none-eabi/include/c++/14.2.0/bits/stl_deque.h:170: 	 _M_last(__x._M_last), _M_node(__x._M_node) { }
	.loc 4 170 25 view .LVU1112
	str	r2, [sp, #204]	@ SR.437, D.46547._M_node
.LVL406:
	.loc 4 170 25 view .LVU1113
.LBE1696:
.LBE1695:
.LBE1694:
@ C:/Users/andre/.platformio/packages/toolchain-rp2040-earlephilhower/arm-none-eabi/include/c++/14.2.0/bits/deque.tcc:1022: 					      __result);
	.loc 7 1022 20 view .LVU1114
	movs	r3, r1	@, tmp395
	ldr	r2, [sp, #40]	@, %sfp
	ldr	r1, [sp, #36]	@, %sfp
	add	r0, sp, #160	@,,
	bl	_ZSt14__copy_move_a1ILb1EPllEN9__gnu_cxx11__enable_ifIXsrSt23__is_random_access_iterIT0_NSt15iterator_traitsIS4_E17iterator_categoryEE7__valueESt15_Deque_iteratorIT1_RSA_PSA_EE6__typeES4_S4_SD_		@
.LVL407:
.L146:
	.loc 7 1022 20 view .LVU1115
.LBE1683:
.LBE1697:
.LBE1701:
.LBE1703:
.LBE1705:
.LBE1709:
.LBE1711:
.LBE1714:
.LBB1715:
.LBI1715:
	.loc 4 1170 7 is_stmt 1 view .LVU1116
.LBB1716:
.LBI1716:
	.loc 4 168 7 view .LVU1117
.LBB1717:
@ C:/Users/andre/.platformio/packages/toolchain-rp2040-earlephilhower/arm-none-eabi/include/c++/14.2.0/bits/stl_deque.h:169:        : _M_cur(__x._M_cur), _M_first(__x._M_first),
	.loc 4 169 21 is_stmt 0 view .LVU1118
	ldr	r1, [r4, #24]	@ _71, MEM[(const struct _Deque_iterator &)this_12(D) + 24]._M_cur
@ C:/Users/andre/.platformio/packages/toolchain-rp2040-earlephilhower/arm-none-eabi/include/c++/14.2.0/bits/stl_deque.h:169:        : _M_cur(__x._M_cur), _M_first(__x._M_first),
	.loc 4 169 43 view .LVU1119
	ldr	r7, [r4, #28]	@ SR.423, MEM[(const struct _Deque_iterator &)this_12(D) + 24]._M_first
@ C:/Users/andre/.platformio/packages/toolchain-rp2040-earlephilhower/arm-none-eabi/include/c++/14.2.0/bits/stl_deque.h:170: 	 _M_last(__x._M_last), _M_node(__x._M_node) { }
	.loc 4 170 37 view .LVU1120
	ldr	r2, [r4, #36]	@ _74, MEM[(const struct _Deque_iterator &)this_12(D) + 24]._M_node
.LVL408:
	.loc 4 170 37 view .LVU1121
.LBE1717:
.LBE1716:
.LBE1715:
.LBB1720:
.LBI1720:
	.loc 4 406 7 is_stmt 1 view .LVU1122
.LBB1721:
.LBB1722:
.LBI1722:
	.loc 4 168 7 view .LVU1123
	.loc 4 168 7 is_stmt 0 view .LVU1124
.LBE1722:
.LBB1724:
.LBI1724:
	.loc 4 249 7 is_stmt 1 view .LVU1125
.LBB1725:
.LBI1725:
	.loc 4 230 7 view .LVU1126
.LBB1726:
@ C:/Users/andre/.platformio/packages/toolchain-rp2040-earlephilhower/arm-none-eabi/include/c++/14.2.0/bits/stl_deque.h:232: 	const difference_type __offset = __n + (_M_cur - _M_first);
	.loc 4 232 49 is_stmt 0 view .LVU1127
	subs	r5, r1, r7	@ _383, _71, SR.423
	asrs	r5, r5, #2	@ _384, _383,
	ldr	r3, [sp, #20]	@ _196, %sfp
	subs	r5, r5, r3	@ _449, _384, _196
.LVL409:
.LBB1727:
@ C:/Users/andre/.platformio/packages/toolchain-rp2040-earlephilhower/arm-none-eabi/include/c++/14.2.0/bits/stl_deque.h:233: 	if (__offset >= 0 && __offset < difference_type(_S_buffer_size()))
	.loc 4 233 20 view .LVU1128
	bmi	.L151		@,
@ C:/Users/andre/.platformio/packages/toolchain-rp2040-earlephilhower/arm-none-eabi/include/c++/14.2.0/bits/stl_deque.h:233: 	if (__offset >= 0 && __offset < difference_type(_S_buffer_size()))
	.loc 4 233 20 discriminator 1 view .LVU1129
	cmp	r5, #127	@ _449,
	bgt	.L152		@,
.LBE1727:
.LBE1726:
.LBE1725:
.LBE1724:
.LBE1721:
.LBE1720:
.LBB1752:
.LBB1719:
.LBB1718:
@ C:/Users/andre/.platformio/packages/toolchain-rp2040-earlephilhower/arm-none-eabi/include/c++/14.2.0/bits/stl_deque.h:170: 	 _M_last(__x._M_last), _M_node(__x._M_node) { }
	.loc 4 170 15 view .LVU1130
	ldr	r0, [r4, #32]	@ SR.424, MEM[(const struct _Deque_iterator &)this_12(D) + 24]._M_last
	mov	r8, r0	@ SR.424, SR.424
.LBE1718:
.LBE1719:
.LBE1752:
.LBB1753:
.LBB1749:
.LBB1744:
.LBB1740:
.LBB1736:
.LBB1732:
@ C:/Users/andre/.platformio/packages/toolchain-rp2040-earlephilhower/arm-none-eabi/include/c++/14.2.0/bits/stl_deque.h:234: 	  _M_cur += __n;
	.loc 4 234 11 view .LVU1131
	lsls	r5, r3, #2	@ _387, _196,
.LVL410:
	.loc 4 234 11 view .LVU1132
	subs	r5, r1, r5	@ SR.422, _71, _387
.LBE1732:
.LBE1736:
.LBE1740:
.LBE1744:
.LBB1745:
.LBB1723:
@ C:/Users/andre/.platformio/packages/toolchain-rp2040-earlephilhower/arm-none-eabi/include/c++/14.2.0/bits/stl_deque.h:170: 	 _M_last(__x._M_last), _M_node(__x._M_node) { }
	.loc 4 170 25 view .LVU1133
	mov	r9, r2	@ SR.425, _74
.LBE1723:
.LBE1745:
.LBB1746:
.LBB1741:
.LBB1737:
.LBB1733:
	b	.L153		@
.LVL411:
.L147:
	.loc 4 170 25 view .LVU1134
.LBE1733:
.LBE1737:
.LBE1741:
.LBE1746:
.LBE1749:
.LBE1753:
.LBB1754:
.LBB1712:
.LBB1710:
.LBB1706:
.LBB1704:
.LBB1702:
.LBB1698:
.LBI1698:
	.loc 4 168 7 is_stmt 1 view .LVU1135
.LBB1699:
.LBB1700:
@ C:/Users/andre/.platformio/packages/toolchain-rp2040-earlephilhower/arm-none-eabi/include/c++/14.2.0/bits/stl_deque.h:169:        : _M_cur(__x._M_cur), _M_first(__x._M_first),
	.loc 4 169 10 is_stmt 0 view .LVU1136
	add	r3, sp, #176	@ tmp401,,
.LVL412:
	.loc 4 169 10 view .LVU1137
	str	r0, [sp, #176]	@ _19, D.46546._M_cur
@ C:/Users/andre/.platformio/packages/toolchain-rp2040-earlephilhower/arm-none-eabi/include/c++/14.2.0/bits/stl_deque.h:169:        : _M_cur(__x._M_cur), _M_first(__x._M_first),
	.loc 4 169 30 view .LVU1138
	ldr	r2, [sp, #24]	@ _170, %sfp
.LVL413:
	.loc 4 169 30 view .LVU1139
	str	r2, [r3, #4]	@ _170, D.46546._M_first
@ C:/Users/andre/.platformio/packages/toolchain-rp2040-earlephilhower/arm-none-eabi/include/c++/14.2.0/bits/stl_deque.h:170: 	 _M_last(__x._M_last), _M_node(__x._M_node) { }
	.loc 4 170 3 view .LVU1140
	ldr	r2, [sp, #44]	@ _192, %sfp
	str	r2, [r3, #8]	@ _192, D.46546._M_last
@ C:/Users/andre/.platformio/packages/toolchain-rp2040-earlephilhower/arm-none-eabi/include/c++/14.2.0/bits/stl_deque.h:170: 	 _M_last(__x._M_last), _M_node(__x._M_node) { }
	.loc 4 170 25 view .LVU1141
	ldr	r2, [sp, #4]	@ _180, %sfp
	str	r2, [r3, #12]	@ _180, D.46546._M_node
.LVL414:
	.loc 4 170 25 view .LVU1142
.LBE1700:
.LBE1699:
.LBE1698:
@ C:/Users/andre/.platformio/packages/toolchain-rp2040-earlephilhower/arm-none-eabi/include/c++/14.2.0/bits/deque.tcc:1026: 					  __result);
	.loc 7 1026 16 view .LVU1143
	ldr	r2, [sp, #40]	@, %sfp
	ldr	r1, [sp, #12]	@, %sfp
.LVL415:
	.loc 7 1026 16 view .LVU1144
	add	r0, sp, #160	@,,
	bl	_ZSt14__copy_move_a1ILb1EPllEN9__gnu_cxx11__enable_ifIXsrSt23__is_random_access_iterIT0_NSt15iterator_traitsIS4_E17iterator_categoryEE7__valueESt15_Deque_iteratorIT1_RSA_PSA_EE6__typeES4_S4_SD_		@
.LVL416:
	.loc 7 1026 16 view .LVU1145
.LBE1702:
.LBE1704:
.LBE1706:
.LBB1707:
.LBI1707:
	.loc 3 353 5 is_stmt 1 view .LVU1146
.LBB1708:
.LBI1708:
	.loc 4 168 7 view .LVU1147
	.loc 4 168 7 is_stmt 0 view .LVU1148
	b	.L146		@
.LVL417:
.L152:
	.loc 4 168 7 view .LVU1149
.LBE1708:
.LBE1707:
.LBE1710:
.LBE1712:
.LBE1754:
.LBB1755:
.LBB1750:
.LBB1747:
.LBB1742:
.LBB1738:
.LBB1734:
.LBB1728:
@ C:/Users/andre/.platformio/packages/toolchain-rp2040-earlephilhower/arm-none-eabi/include/c++/14.2.0/bits/stl_deque.h:238: 	      __offset > 0 ? __offset / difference_type(_S_buffer_size())
	.loc 4 238 21 discriminator 1 view .LVU1150
	asrs	r1, r5, #31	@ tmp416, _449,
	movs	r3, #127	@ tmp417,
.LVL418:
	.loc 4 238 21 discriminator 1 view .LVU1151
	ands	r3, r1	@ tmp418, tmp416
	adds	r3, r3, r5	@ tmp419, tmp418, _449
	asrs	r3, r3, #7	@ iftmp.33_389, tmp419,
.L154:
.LVL419:
@ C:/Users/andre/.platformio/packages/toolchain-rp2040-earlephilhower/arm-none-eabi/include/c++/14.2.0/bits/stl_deque.h:241: 	    _M_set_node(_M_node + __node_offset);
	.loc 4 241 26 view .LVU1152
	lsls	r1, r3, #2	@ _398, iftmp.33_389,
@ C:/Users/andre/.platformio/packages/toolchain-rp2040-earlephilhower/arm-none-eabi/include/c++/14.2.0/bits/stl_deque.h:241: 	    _M_set_node(_M_node + __node_offset);
	.loc 4 241 17 view .LVU1153
	mov	r9, r1	@ _398, _398
	add	r9, r9, r2	@ _398, _74
.LVL420:
.LBB1729:
.LBI1729:
	.loc 4 263 7 is_stmt 1 view .LVU1154
.LBB1730:
@ C:/Users/andre/.platformio/packages/toolchain-rp2040-earlephilhower/arm-none-eabi/include/c++/14.2.0/bits/stl_deque.h:266: 	_M_first = *__new_node;
	.loc 4 266 11 is_stmt 0 view .LVU1155
	mov	r1, r9	@ SR.425, SR.425
	ldr	r7, [r1]	@ SR.423, *_399
@ C:/Users/andre/.platformio/packages/toolchain-rp2040-earlephilhower/arm-none-eabi/include/c++/14.2.0/bits/stl_deque.h:267: 	_M_last = _M_first + difference_type(_S_buffer_size());
	.loc 4 267 21 discriminator 1 view .LVU1156
	movs	r1, #128	@ SR.424,
	lsls	r1, r1, #2	@ SR.424, SR.424,
	mov	r8, r1	@ SR.424, SR.424
	add	r8, r8, r7	@ SR.424, SR.423
.LVL421:
	.loc 4 267 21 discriminator 1 view .LVU1157
.LBE1730:
.LBE1729:
@ C:/Users/andre/.platformio/packages/toolchain-rp2040-earlephilhower/arm-none-eabi/include/c++/14.2.0/bits/stl_deque.h:243: 				 * difference_type(_S_buffer_size()));
	.loc 4 243 6 discriminator 1 view .LVU1158
	lsls	r3, r3, #7	@ _402, iftmp.33_389,
.LVL422:
@ C:/Users/andre/.platformio/packages/toolchain-rp2040-earlephilhower/arm-none-eabi/include/c++/14.2.0/bits/stl_deque.h:242: 	    _M_cur = _M_first + (__offset - __node_offset
	.loc 4 242 36 view .LVU1159
	subs	r5, r5, r3	@ _403, _449, _402
.LVL423:
@ C:/Users/andre/.platformio/packages/toolchain-rp2040-earlephilhower/arm-none-eabi/include/c++/14.2.0/bits/stl_deque.h:242: 	    _M_cur = _M_first + (__offset - __node_offset
	.loc 4 242 24 view .LVU1160
	lsls	r5, r5, #2	@ _405, _403,
	adds	r5, r7, r5	@ SR.422, SR.423, _405
.LVL424:
.L153:
	.loc 4 242 24 view .LVU1161
.LBE1728:
.LBE1734:
.LBE1738:
.LBE1742:
.LBE1747:
.LBE1750:
.LBE1755:
.LBB1756:
.LBI1756:
	.loc 4 2106 7 is_stmt 1 view .LVU1162
.LBB1757:
.LBB1758:
.LBI1758:
	.loc 4 168 7 view .LVU1163
	.loc 4 168 7 is_stmt 0 view .LVU1164
.LBE1758:
.LBB1759:
.LBI1759:
	.loc 4 1170 7 is_stmt 1 view .LVU1165
.LBB1760:
.LBI1760:
	.loc 4 168 7 view .LVU1166
	.loc 4 168 7 is_stmt 0 view .LVU1167
.LBE1760:
.LBE1759:
@ C:/Users/andre/.platformio/packages/toolchain-rp2040-earlephilhower/arm-none-eabi/include/c++/14.2.0/bits/stl_deque.h:2109: 	_M_destroy_nodes(__pos._M_node + 1,
	.loc 4 2109 18 view .LVU1168
	adds	r2, r2, #4	@ _380,
	mov	r3, r9	@ SR.425, SR.425
	adds	r1, r3, #4	@ _379, SR.425,
	movs	r0, r4	@, this
	bl	_ZNSt11_Deque_baseIlSaIlEE16_M_destroy_nodesEPPlS3_		@
.LVL425:
@ C:/Users/andre/.platformio/packages/toolchain-rp2040-earlephilhower/arm-none-eabi/include/c++/14.2.0/bits/stl_deque.h:2111: 	this->_M_impl._M_finish = __pos;
	.loc 4 2111 2 view .LVU1169
	str	r5, [r4, #24]	@ SR.422, this_12(D)->D.37667._M_impl.D.37034._M_finish._M_cur
	str	r7, [r4, #28]	@ SR.423, this_12(D)->D.37667._M_impl.D.37034._M_finish._M_first
	mov	r3, r8	@ SR.424, SR.424
	str	r3, [r4, #32]	@ SR.424, this_12(D)->D.37667._M_impl.D.37034._M_finish._M_last
	mov	r3, r9	@ SR.425, SR.425
	str	r3, [r4, #36]	@ SR.425, this_12(D)->D.37667._M_impl.D.37034._M_finish._M_node
.LVL426:
	.loc 4 2111 2 view .LVU1170
	b	.L145		@
.LVL427:
.L151:
	.loc 4 2111 2 view .LVU1171
.LBE1757:
.LBE1756:
.LBB1761:
.LBB1751:
.LBB1748:
.LBB1743:
.LBB1739:
.LBB1735:
.LBB1731:
@ C:/Users/andre/.platformio/packages/toolchain-rp2040-earlephilhower/arm-none-eabi/include/c++/14.2.0/bits/stl_deque.h:239: 			   : -difference_type((-__offset - 1)
	.loc 4 239 37 view .LVU1172
	mvns	r3, r5	@ _391, _449
.LVL428:
@ C:/Users/andre/.platformio/packages/toolchain-rp2040-earlephilhower/arm-none-eabi/include/c++/14.2.0/bits/stl_deque.h:240: 					      / _S_buffer_size()) - 1;
	.loc 4 240 12 discriminator 1 view .LVU1173
	lsrs	r3, r3, #7	@ _392, _391,
@ C:/Users/andre/.platformio/packages/toolchain-rp2040-earlephilhower/arm-none-eabi/include/c++/14.2.0/bits/stl_deque.h:238: 	      __offset > 0 ? __offset / difference_type(_S_buffer_size())
	.loc 4 238 21 discriminator 2 view .LVU1174
	mvns	r3, r3	@ iftmp.33_389, _392
	b	.L154		@
.LVL429:
.L156:
	.loc 4 238 21 discriminator 2 view .LVU1175
.LBE1731:
.LBE1735:
.LBE1739:
.LBE1743:
.LBE1748:
.LBE1751:
.LBE1761:
.LBB1762:
.LBB1647:
.LBB1645:
.LBB1643:
.LBB1641:
.LBB1637:
@ C:/Users/andre/.platformio/packages/toolchain-rp2040-earlephilhower/arm-none-eabi/include/c++/14.2.0/bits/stl_deque.h:238: 	      __offset > 0 ? __offset / difference_type(_S_buffer_size())
	.loc 4 238 21 discriminator 1 view .LVU1176
	asrs	r0, r3, #31	@ tmp436, __offset,
.LVL430:
	.loc 4 238 21 discriminator 1 view .LVU1177
	movs	r2, #127	@ tmp437,
	ands	r2, r0	@ tmp438, tmp436
	adds	r2, r2, r3	@ tmp439, tmp438, __offset
	asrs	r2, r2, #7	@ iftmp.33_415, tmp439,
.L157:
.LVL431:
@ C:/Users/andre/.platformio/packages/toolchain-rp2040-earlephilhower/arm-none-eabi/include/c++/14.2.0/bits/stl_deque.h:241: 	    _M_set_node(_M_node + __node_offset);
	.loc 4 241 26 view .LVU1178
	lsls	r0, r2, #2	@ _424, iftmp.33_415,
@ C:/Users/andre/.platformio/packages/toolchain-rp2040-earlephilhower/arm-none-eabi/include/c++/14.2.0/bits/stl_deque.h:241: 	    _M_set_node(_M_node + __node_offset);
	.loc 4 241 17 view .LVU1179
	adds	r1, r1, r0	@ _425, _78, _424
.LVL432:
.LBB1638:
.LBI1638:
	.loc 4 263 7 is_stmt 1 view .LVU1180
.LBB1639:
@ C:/Users/andre/.platformio/packages/toolchain-rp2040-earlephilhower/arm-none-eabi/include/c++/14.2.0/bits/stl_deque.h:265: 	_M_node = __new_node;
	.loc 4 265 10 is_stmt 0 view .LVU1181
	str	r1, [r6, #12]	@ _425, MEM[(struct _Deque_iterator *)_35(D)]._M_node
@ C:/Users/andre/.platformio/packages/toolchain-rp2040-earlephilhower/arm-none-eabi/include/c++/14.2.0/bits/stl_deque.h:266: 	_M_first = *__new_node;
	.loc 4 266 11 view .LVU1182
	ldr	r1, [r1]	@ _426, *_425
.LVL433:
	.loc 4 266 11 view .LVU1183
	str	r1, [r6, #4]	@ _426, MEM[(struct _Deque_iterator *)_35(D)]._M_first
@ C:/Users/andre/.platformio/packages/toolchain-rp2040-earlephilhower/arm-none-eabi/include/c++/14.2.0/bits/stl_deque.h:267: 	_M_last = _M_first + difference_type(_S_buffer_size());
	.loc 4 267 21 discriminator 1 view .LVU1184
	movs	r0, #128	@ tmp581,
	lsls	r0, r0, #2	@ tmp581, tmp581,
	adds	r0, r1, r0	@ _427, _426, tmp581
@ C:/Users/andre/.platformio/packages/toolchain-rp2040-earlephilhower/arm-none-eabi/include/c++/14.2.0/bits/stl_deque.h:267: 	_M_last = _M_first + difference_type(_S_buffer_size());
	.loc 4 267 10 discriminator 1 view .LVU1185
	str	r0, [r6, #8]	@ _427, MEM[(struct _Deque_iterator *)_35(D)]._M_last
.LVL434:
	.loc 4 267 10 discriminator 1 view .LVU1186
.LBE1639:
.LBE1638:
@ C:/Users/andre/.platformio/packages/toolchain-rp2040-earlephilhower/arm-none-eabi/include/c++/14.2.0/bits/stl_deque.h:243: 				 * difference_type(_S_buffer_size()));
	.loc 4 243 6 discriminator 1 view .LVU1187
	lsls	r2, r2, #7	@ _428, iftmp.33_415,
.LVL435:
@ C:/Users/andre/.platformio/packages/toolchain-rp2040-earlephilhower/arm-none-eabi/include/c++/14.2.0/bits/stl_deque.h:242: 	    _M_cur = _M_first + (__offset - __node_offset
	.loc 4 242 36 view .LVU1188
	subs	r3, r3, r2	@ _429, __offset, _428
.LVL436:
@ C:/Users/andre/.platformio/packages/toolchain-rp2040-earlephilhower/arm-none-eabi/include/c++/14.2.0/bits/stl_deque.h:242: 	    _M_cur = _M_first + (__offset - __node_offset
	.loc 4 242 24 view .LVU1189
	lsls	r3, r3, #2	@ _431, _429,
	adds	r1, r1, r3	@ _432, _426, _431
@ C:/Users/andre/.platformio/packages/toolchain-rp2040-earlephilhower/arm-none-eabi/include/c++/14.2.0/bits/stl_deque.h:242: 	    _M_cur = _M_first + (__offset - __node_offset
	.loc 4 242 13 view .LVU1190
	str	r1, [r6]	@ _432, MEM[(struct _Deque_iterator *)_35(D)]._M_cur
.LVL437:
.L131:
	.loc 4 242 13 view .LVU1191
.LBE1637:
.LBE1641:
.LBE1643:
.LBE1645:
.LBE1647:
.LBE1762:
.LBE1779:
.LBE1784:
.LBE1509:
@ C:/Users/andre/.platformio/packages/toolchain-rp2040-earlephilhower/arm-none-eabi/include/c++/14.2.0/bits/deque.tcc:286:     }
	.loc 7 286 5 view .LVU1192
	movs	r0, r6	@, <retval>
	add	sp, sp, #276	@,,
	@ sp needed	@
.LVL438:
.LVL439:
	.loc 7 286 5 view .LVU1193
	pop	{r4, r5, r6, r7}
	mov	fp, r7
	mov	r10, r6
	mov	r9, r5
	mov	r8, r4
	pop	{r4, r5, r6, r7, pc}
.LVL440:
.L155:
.LBB1786:
.LBB1785:
.LBB1780:
.LBB1763:
.LBB1648:
.LBB1646:
.LBB1644:
.LBB1642:
.LBB1640:
@ C:/Users/andre/.platformio/packages/toolchain-rp2040-earlephilhower/arm-none-eabi/include/c++/14.2.0/bits/stl_deque.h:239: 			   : -difference_type((-__offset - 1)
	.loc 4 239 37 view .LVU1194
	mvns	r2, r3	@ _417, __offset
@ C:/Users/andre/.platformio/packages/toolchain-rp2040-earlephilhower/arm-none-eabi/include/c++/14.2.0/bits/stl_deque.h:240: 					      / _S_buffer_size()) - 1;
	.loc 4 240 12 discriminator 1 view .LVU1195
	lsrs	r2, r2, #7	@ _418, _417,
@ C:/Users/andre/.platformio/packages/toolchain-rp2040-earlephilhower/arm-none-eabi/include/c++/14.2.0/bits/stl_deque.h:238: 	      __offset > 0 ? __offset / difference_type(_S_buffer_size())
	.loc 4 238 21 discriminator 2 view .LVU1196
	mvns	r2, r2	@ iftmp.33_415, _418
	b	.L157		@
.LBE1640:
.LBE1642:
.LBE1644:
.LBE1646:
.LBE1648:
.LBE1763:
.LBE1780:
.LBE1785:
.LBE1786:
	.cfi_endproc
.LFE2278:
	.size	_ZNSt5dequeIlSaIlEE8_M_eraseESt15_Deque_iteratorIlRlPlES5_, .-_ZNSt5dequeIlSaIlEE8_M_eraseESt15_Deque_iteratorIlRlPlES5_
	.section	.text._ZN6filter9FIRFilter4readEPtj,"ax",%progbits
	.align	1
	.global	_ZN6filter9FIRFilter4readEPtj
	.syntax unified
	.code	16
	.thumb_func
	.type	_ZN6filter9FIRFilter4readEPtj, %function
_ZN6filter9FIRFilter4readEPtj:
.LVL441:
.LFB2075:
	.loc 1 138 58 is_stmt 1 view -0
	.cfi_startproc
	@ args = 0, pretend = 0, frame = 48
	@ frame_needed = 0, uses_anonymous_args = 0
	.loc 1 138 58 is_stmt 0 view .LVU1198
	push	{r4, r5, r6, r7, lr}	@
	.cfi_def_cfa_offset 20
	.cfi_offset 4, -20
	.cfi_offset 5, -16
	.cfi_offset 6, -12
	.cfi_offset 7, -8
	.cfi_offset 14, -4
	mov	lr, r9	@,
	mov	r7, r8	@,
	push	{r7, lr}	@
	.cfi_def_cfa_offset 28
	.cfi_offset 8, -28
	.cfi_offset 9, -24
	sub	sp, sp, #52	@,,
	.cfi_def_cfa_offset 80
	.loc 1 139 5 is_stmt 1 view .LVU1199
.LVL442:
.LBB1844:
.LBI1844:
	.loc 4 1268 7 view .LVU1200
.LBB1845:
.LBB1846:
.LBI1846:
	.loc 4 370 7 view .LVU1201
.LBB1847:
@ C:/Users/andre/.platformio/packages/toolchain-rp2040-earlephilhower/arm-none-eabi/include/c++/14.2.0/bits/stl_deque.h:373: 	  * (__x._M_node - __y._M_node - bool(__x._M_node))
	.loc 4 373 11 is_stmt 0 view .LVU1202
	ldr	r3, [r0, #56]	@ _53, MEM[(const struct _Self &)this_9(D) + 44]._M_node
.LVL443:
	.loc 4 373 11 view .LVU1203
.LBE1847:
.LBE1846:
.LBE1845:
.LBE1844:
.LBB1851:
.LBI1851:
	.loc 3 233 5 is_stmt 1 view .LVU1204
.LBE1851:
.LBB1853:
.LBB1850:
.LBB1849:
.LBB1848:
@ C:/Users/andre/.platformio/packages/toolchain-rp2040-earlephilhower/arm-none-eabi/include/c++/14.2.0/bits/stl_deque.h:373: 	  * (__x._M_node - __y._M_node - bool(__x._M_node))
	.loc 4 373 19 is_stmt 0 view .LVU1205
	ldr	r4, [r0, #40]	@ MEM[(const struct _Self &)this_9(D) + 28]._M_node, MEM[(const struct _Self &)this_9(D) + 28]._M_node
	subs	r4, r3, r4	@ _55, _53, MEM[(const struct _Self &)this_9(D) + 28]._M_node
	asrs	r4, r4, #2	@ _56, _55,
@ C:/Users/andre/.platformio/packages/toolchain-rp2040-earlephilhower/arm-none-eabi/include/c++/14.2.0/bits/stl_deque.h:373: 	  * (__x._M_node - __y._M_node - bool(__x._M_node))
	.loc 4 373 35 view .LVU1206
	subs	r5, r3, #1	@ tmp198, _53
	sbcs	r3, r3, r5	@ _57, _53, tmp198
@ C:/Users/andre/.platformio/packages/toolchain-rp2040-earlephilhower/arm-none-eabi/include/c++/14.2.0/bits/stl_deque.h:373: 	  * (__x._M_node - __y._M_node - bool(__x._M_node))
	.loc 4 373 33 view .LVU1207
	subs	r4, r4, r3	@ _59, _56, _57
@ C:/Users/andre/.platformio/packages/toolchain-rp2040-earlephilhower/arm-none-eabi/include/c++/14.2.0/bits/stl_deque.h:373: 	  * (__x._M_node - __y._M_node - bool(__x._M_node))
	.loc 4 373 4 view .LVU1208
	lsls	r4, r4, #7	@ _60, _59,
@ C:/Users/andre/.platformio/packages/toolchain-rp2040-earlephilhower/arm-none-eabi/include/c++/14.2.0/bits/stl_deque.h:374: 	  + (__x._M_cur - __x._M_first)
	.loc 4 374 18 view .LVU1209
	ldr	r3, [r0, #44]	@ MEM[(const struct _Self &)this_9(D) + 44]._M_cur, MEM[(const struct _Self &)this_9(D) + 44]._M_cur
	ldr	r5, [r0, #48]	@ MEM[(const struct _Self &)this_9(D) + 44]._M_first, MEM[(const struct _Self &)this_9(D) + 44]._M_first
	subs	r3, r3, r5	@ _63, MEM[(const struct _Self &)this_9(D) + 44]._M_cur, MEM[(const struct _Self &)this_9(D) + 44]._M_first
	asrs	r3, r3, #2	@ _64, _63,
@ C:/Users/andre/.platformio/packages/toolchain-rp2040-earlephilhower/arm-none-eabi/include/c++/14.2.0/bits/stl_deque.h:374: 	  + (__x._M_cur - __x._M_first)
	.loc 4 374 4 view .LVU1210
	adds	r4, r4, r3	@ _65, _60, _64
@ C:/Users/andre/.platformio/packages/toolchain-rp2040-earlephilhower/arm-none-eabi/include/c++/14.2.0/bits/stl_deque.h:375: 	  + (__y._M_last - __y._M_cur);
	.loc 4 375 19 view .LVU1211
	ldr	r3, [r0, #36]	@ MEM[(const struct _Self &)this_9(D) + 28]._M_last, MEM[(const struct _Self &)this_9(D) + 28]._M_last
	ldr	r5, [r0, #28]	@ MEM[(const struct _Self &)this_9(D) + 28]._M_cur, MEM[(const struct _Self &)this_9(D) + 28]._M_cur
	subs	r3, r3, r5	@ _68, MEM[(const struct _Self &)this_9(D) + 28]._M_last, MEM[(const struct _Self &)this_9(D) + 28]._M_cur
	asrs	r3, r3, #2	@ _69, _68,
@ C:/Users/andre/.platformio/packages/toolchain-rp2040-earlephilhower/arm-none-eabi/include/c++/14.2.0/bits/stl_deque.h:375: 	  + (__y._M_last - __y._M_cur);
	.loc 4 375 31 view .LVU1212
	adds	r4, r4, r3	@ <retval>, _65, _69
.LBE1848:
.LBE1849:
.LBE1850:
.LBE1853:
.LBB1854:
.LBB1852:
@ C:/Users/andre/.platformio/packages/toolchain-rp2040-earlephilhower/arm-none-eabi/include/c++/14.2.0/bits/stl_algobase.h:238:       if (__b < __a)
	.loc 3 238 7 view .LVU1213
	cmp	r4, r2	@ <retval>, max_length
	bls	.L163		@,
	movs	r4, r2	@ <retval>, max_length
.L163:
.LVL444:
	.loc 3 238 7 view .LVU1214
.LBE1852:
.LBE1854:
	.loc 1 140 5 is_stmt 1 view .LVU1215
	cmp	r4, #0	@ <retval>,
	beq	.L162		@,
.LBB1855:
@ lib/filter/src/filter.cpp:143:     for (size_t n = 0; n < output_size; n++) {
	.loc 1 143 17 is_stmt 0 view .LVU1216
	movs	r5, #0	@ n,
.LBB1856:
.LBB1857:
.LBB1858:
.LBB1859:
.LBB1860:
.LBB1861:
.LBB1862:
.LBB1863:
.LBB1864:
.LBB1865:
@ C:/Users/andre/.platformio/packages/toolchain-rp2040-earlephilhower/arm-none-eabi/include/c++/14.2.0/bits/stl_deque.h:238: 	      __offset > 0 ? __offset / difference_type(_S_buffer_size())
	.loc 4 238 21 discriminator 1 view .LVU1217
	movs	r3, #127	@ tmp272,
	mov	ip, r3	@ tmp272, tmp272
.LBE1865:
.LBE1864:
.LBE1863:
.LBE1862:
.LBE1861:
.LBE1860:
.LBE1859:
.LBE1858:
.LBE1857:
@ lib/filter/src/filter.cpp:147:         if (val > UINT16_MAX) 
	.loc 1 147 9 view .LVU1218
	movs	r3, #128	@ tmp235,
	lsls	r3, r3, #9	@ tmp235, tmp235,
	mov	r9, r3	@ tmp235, tmp235
	b	.L171		@
.LVL445:
.L166:
.LBB1886:
.LBB1884:
.LBB1882:
.LBB1880:
.LBB1878:
.LBB1874:
.LBB1872:
.LBB1870:
.LBB1868:
@ C:/Users/andre/.platformio/packages/toolchain-rp2040-earlephilhower/arm-none-eabi/include/c++/14.2.0/bits/stl_deque.h:238: 	      __offset > 0 ? __offset / difference_type(_S_buffer_size())
	.loc 4 238 21 discriminator 1 view .LVU1219
	asrs	r2, r3, #31	@ tmp220, __offset,
	mov	r6, ip	@ tmp272, tmp272
	ands	r2, r6	@ tmp222, tmp272
	adds	r2, r2, r3	@ tmp223, tmp222, __offset
	asrs	r2, r2, #7	@ iftmp.33_84, tmp223,
.L168:
.LVL446:
.LBB1866:
.LBI1866:
	.loc 4 263 7 is_stmt 1 view .LVU1220
.LBB1867:
@ C:/Users/andre/.platformio/packages/toolchain-rp2040-earlephilhower/arm-none-eabi/include/c++/14.2.0/bits/stl_deque.h:266: 	_M_first = *__new_node;
	.loc 4 266 11 is_stmt 0 view .LVU1221
	ldr	r7, [r0, #40]	@ MEM[(const struct _Deque_iterator &)this_9(D) + 28]._M_node, MEM[(const struct _Deque_iterator &)this_9(D) + 28]._M_node
	lsls	r6, r2, #2	@ tmp228, iftmp.33_84,
.LBE1867:
.LBE1866:
@ C:/Users/andre/.platformio/packages/toolchain-rp2040-earlephilhower/arm-none-eabi/include/c++/14.2.0/bits/stl_deque.h:243: 				 * difference_type(_S_buffer_size()));
	.loc 4 243 6 discriminator 1 view .LVU1222
	lsls	r2, r2, #7	@ _97, iftmp.33_84,
.LVL447:
@ C:/Users/andre/.platformio/packages/toolchain-rp2040-earlephilhower/arm-none-eabi/include/c++/14.2.0/bits/stl_deque.h:242: 	    _M_cur = _M_first + (__offset - __node_offset
	.loc 4 242 36 view .LVU1223
	subs	r3, r3, r2	@ _98, __offset, _97
.LVL448:
@ C:/Users/andre/.platformio/packages/toolchain-rp2040-earlephilhower/arm-none-eabi/include/c++/14.2.0/bits/stl_deque.h:242: 	    _M_cur = _M_first + (__offset - __node_offset
	.loc 4 242 24 view .LVU1224
	lsls	r3, r3, #2	@ _100, _98,
	ldr	r2, [r6, r7]	@ *_94, *_94
	adds	r2, r2, r3	@ SR.453, *_94, _100
.LVL449:
.L167:
	.loc 4 242 24 view .LVU1225
.LBE1868:
.LBE1870:
.LBE1872:
.LBE1874:
.LBE1878:
.LBE1880:
.LBE1882:
.LBE1884:
.LBE1886:
	.loc 1 145 9 is_stmt 1 view .LVU1226
	.loc 1 149 9 view .LVU1227
@ lib/filter/src/filter.cpp:149:         out[n] = val;
	.loc 1 149 16 is_stmt 0 view .LVU1228
	lsls	r7, r5, #1	@ _75, n,
@ lib/filter/src/filter.cpp:147:         if (val > UINT16_MAX) 
	.loc 1 147 9 view .LVU1229
	ldr	r3, [r2]	@ _12, MEM[(value_type &)SR.453_17]
	cmp	r3, r9	@ _12, tmp235
	blt	.L169		@,
	.loc 1 147 9 view .LVU1230
	ldr	r3, .L178	@ _12,
.L169:
@ lib/filter/src/filter.cpp:145:         if (val < 0)
	.loc 1 145 9 view .LVU1231
	mvns	r2, r3	@ tmp271, _12
.LVL450:
	.loc 1 145 9 view .LVU1232
	asrs	r2, r2, #31	@ tmp270, tmp271,
	ands	r3, r2	@ _12, tmp270
@ lib/filter/src/filter.cpp:149:         out[n] = val;
	.loc 1 149 16 view .LVU1233
	strh	r3, [r1, r7]	@ _12, MEM[(uint16_t *)out_21(D) + _75 * 1]
	.loc 1 149 16 view .LVU1234
.LBE1856:
	.loc 1 143 5 is_stmt 1 discriminator 2 view .LVU1235
	adds	r5, r5, #1	@ n,
.LVL451:
	.loc 1 143 26 discriminator 1 view .LVU1236
	cmp	r4, r5	@ <retval>, n
	beq	.L177		@,
.LVL452:
.L171:
.LBB1888:
	.loc 1 144 9 view .LVU1237
.LBB1887:
.LBI1857:
	.loc 4 1364 7 view .LVU1238
.LBB1885:
.LBB1883:
.LBI1859:
	.loc 4 254 7 view .LVU1239
.LBB1881:
.LBI1860:
	.loc 4 397 7 view .LVU1240
.LBB1879:
.LBB1875:
.LBI1875:
	.loc 4 168 7 view .LVU1241
.LBB1876:
@ C:/Users/andre/.platformio/packages/toolchain-rp2040-earlephilhower/arm-none-eabi/include/c++/14.2.0/bits/stl_deque.h:169:        : _M_cur(__x._M_cur), _M_first(__x._M_first),
	.loc 4 169 21 is_stmt 0 view .LVU1242
	ldr	r2, [r0, #28]	@ _71, MEM[(const struct _Deque_iterator &)this_9(D) + 28]._M_cur
.LVL453:
	.loc 4 169 21 view .LVU1243
.LBE1876:
.LBE1875:
.LBB1877:
.LBI1862:
	.loc 4 230 7 is_stmt 1 view .LVU1244
.LBB1873:
@ C:/Users/andre/.platformio/packages/toolchain-rp2040-earlephilhower/arm-none-eabi/include/c++/14.2.0/bits/stl_deque.h:232: 	const difference_type __offset = __n + (_M_cur - _M_first);
	.loc 4 232 49 is_stmt 0 view .LVU1245
	ldr	r3, [r0, #32]	@ MEM[(const struct _Deque_iterator &)this_9(D) + 28]._M_first, MEM[(const struct _Deque_iterator &)this_9(D) + 28]._M_first
	subs	r3, r2, r3	@ _78, _71, MEM[(const struct _Deque_iterator &)this_9(D) + 28]._M_first
	asrs	r3, r3, #2	@ _79, _78,
.LVL454:
.LBB1871:
@ C:/Users/andre/.platformio/packages/toolchain-rp2040-earlephilhower/arm-none-eabi/include/c++/14.2.0/bits/stl_deque.h:233: 	if (__offset >= 0 && __offset < difference_type(_S_buffer_size()))
	.loc 4 233 20 view .LVU1246
	adds	r3, r3, r5	@ __offset, _79, n
	bmi	.L165		@,
.LVL455:
@ C:/Users/andre/.platformio/packages/toolchain-rp2040-earlephilhower/arm-none-eabi/include/c++/14.2.0/bits/stl_deque.h:233: 	if (__offset >= 0 && __offset < difference_type(_S_buffer_size()))
	.loc 4 233 20 discriminator 1 view .LVU1247
	cmp	r3, #127	@ __offset,
	bgt	.L166		@,
@ C:/Users/andre/.platformio/packages/toolchain-rp2040-earlephilhower/arm-none-eabi/include/c++/14.2.0/bits/stl_deque.h:234: 	  _M_cur += __n;
	.loc 4 234 11 view .LVU1248
	lsls	r3, r5, #2	@ _45, n,
.LVL456:
	.loc 4 234 11 view .LVU1249
	adds	r2, r2, r3	@ SR.453, _71, _45
.LVL457:
	.loc 4 234 11 view .LVU1250
	b	.L167		@
.LVL458:
.L165:
.LBB1869:
@ C:/Users/andre/.platformio/packages/toolchain-rp2040-earlephilhower/arm-none-eabi/include/c++/14.2.0/bits/stl_deque.h:239: 			   : -difference_type((-__offset - 1)
	.loc 4 239 37 view .LVU1251
	mvns	r2, r3	@ _86, __offset
@ C:/Users/andre/.platformio/packages/toolchain-rp2040-earlephilhower/arm-none-eabi/include/c++/14.2.0/bits/stl_deque.h:240: 					      / _S_buffer_size()) - 1;
	.loc 4 240 12 discriminator 1 view .LVU1252
	lsrs	r2, r2, #7	@ _87, _86,
@ C:/Users/andre/.platformio/packages/toolchain-rp2040-earlephilhower/arm-none-eabi/include/c++/14.2.0/bits/stl_deque.h:238: 	      __offset > 0 ? __offset / difference_type(_S_buffer_size())
	.loc 4 238 21 discriminator 2 view .LVU1253
	mvns	r2, r2	@ iftmp.33_84, _87
	b	.L168		@
.LVL459:
.L177:
	.loc 4 238 21 discriminator 2 view .LVU1254
.LBE1869:
.LBE1871:
.LBE1873:
.LBE1877:
.LBE1879:
.LBE1881:
.LBE1883:
.LBE1885:
.LBE1887:
.LBE1888:
.LBE1855:
	.loc 1 152 5 is_stmt 1 view .LVU1255
@ lib/filter/src/filter.cpp:152:     m_values.erase(m_values.begin(), m_values.begin() + output_size);
	.loc 1 152 19 is_stmt 0 view .LVU1256
	movs	r1, r0	@ _4, this
.LVL460:
	.loc 1 152 19 view .LVU1257
	adds	r1, r1, #20	@ _4,
.LVL461:
.LBB1889:
.LBI1889:
	.loc 4 1151 7 is_stmt 1 view .LVU1258
.LBB1890:
.LBI1890:
	.loc 4 168 7 view .LVU1259
.LBB1891:
@ C:/Users/andre/.platformio/packages/toolchain-rp2040-earlephilhower/arm-none-eabi/include/c++/14.2.0/bits/stl_deque.h:169:        : _M_cur(__x._M_cur), _M_first(__x._M_first),
	.loc 4 169 21 is_stmt 0 view .LVU1260
	ldr	r6, [r0, #28]	@ _34, MEM[(const struct _Deque_iterator &)this_9(D) + 28]._M_cur
@ C:/Users/andre/.platformio/packages/toolchain-rp2040-earlephilhower/arm-none-eabi/include/c++/14.2.0/bits/stl_deque.h:170: 	 _M_last(__x._M_last), _M_node(__x._M_node) { }
	.loc 4 170 37 view .LVU1261
	ldr	r5, [r0, #40]	@ _37, MEM[(const struct _Deque_iterator &)this_9(D) + 28]._M_node
.LVL462:
	.loc 4 170 37 view .LVU1262
.LBE1891:
.LBE1890:
.LBE1889:
.LBB1892:
.LBI1892:
	.loc 4 164 8 is_stmt 1 view .LVU1263
	.loc 4 164 8 is_stmt 0 view .LVU1264
.LBE1892:
.LBB1893:
.LBI1893:
	.loc 4 1151 7 is_stmt 1 view .LVU1265
.LBB1894:
.LBI1894:
	.loc 4 168 7 view .LVU1266
	.loc 4 168 7 is_stmt 0 view .LVU1267
.LBE1894:
.LBE1893:
.LBB1895:
.LBI1895:
	.loc 4 397 7 is_stmt 1 view .LVU1268
.LBB1896:
.LBB1897:
.LBI1897:
	.loc 4 168 7 view .LVU1269
	.loc 4 168 7 is_stmt 0 view .LVU1270
.LBE1897:
.LBB1899:
.LBI1899:
	.loc 4 230 7 is_stmt 1 view .LVU1271
.LBB1900:
@ C:/Users/andre/.platformio/packages/toolchain-rp2040-earlephilhower/arm-none-eabi/include/c++/14.2.0/bits/stl_deque.h:232: 	const difference_type __offset = __n + (_M_cur - _M_first);
	.loc 4 232 49 is_stmt 0 view .LVU1272
	ldr	r3, [r0, #32]	@ MEM[(const struct _Deque_iterator &)this_9(D) + 28]._M_first, MEM[(const struct _Deque_iterator &)this_9(D) + 28]._M_first
	subs	r3, r6, r3	@ _113, _34, MEM[(const struct _Deque_iterator &)this_9(D) + 28]._M_first
	asrs	r3, r3, #2	@ _114, _113,
.LVL463:
.LBB1901:
@ C:/Users/andre/.platformio/packages/toolchain-rp2040-earlephilhower/arm-none-eabi/include/c++/14.2.0/bits/stl_deque.h:233: 	if (__offset >= 0 && __offset < difference_type(_S_buffer_size()))
	.loc 4 233 20 view .LVU1273
	adds	r3, r3, r4	@ __offset, _114, <retval>
	bmi	.L172		@,
.LVL464:
@ C:/Users/andre/.platformio/packages/toolchain-rp2040-earlephilhower/arm-none-eabi/include/c++/14.2.0/bits/stl_deque.h:233: 	if (__offset >= 0 && __offset < difference_type(_S_buffer_size()))
	.loc 4 233 20 discriminator 1 view .LVU1274
	cmp	r3, #127	@ __offset,
	bgt	.L173		@,
@ C:/Users/andre/.platformio/packages/toolchain-rp2040-earlephilhower/arm-none-eabi/include/c++/14.2.0/bits/stl_deque.h:234: 	  _M_cur += __n;
	.loc 4 234 11 view .LVU1275
	lsls	r7, r4, #2	@ _117, <retval>,
	adds	r7, r6, r7	@ SR.451, _34, _117
.LBE1901:
.LBE1900:
.LBE1899:
.LBB1909:
.LBB1898:
@ C:/Users/andre/.platformio/packages/toolchain-rp2040-earlephilhower/arm-none-eabi/include/c++/14.2.0/bits/stl_deque.h:170: 	 _M_last(__x._M_last), _M_node(__x._M_node) { }
	.loc 4 170 25 view .LVU1276
	movs	r0, r5	@ SR.452, _37
.LVL465:
	.loc 4 170 25 view .LVU1277
.LBE1898:
.LBE1909:
.LBB1910:
.LBB1907:
.LBB1905:
	b	.L174		@
.LVL466:
.L173:
.LBB1902:
@ C:/Users/andre/.platformio/packages/toolchain-rp2040-earlephilhower/arm-none-eabi/include/c++/14.2.0/bits/stl_deque.h:238: 	      __offset > 0 ? __offset / difference_type(_S_buffer_size())
	.loc 4 238 21 discriminator 1 view .LVU1278
	asrs	r0, r3, #31	@ tmp244, __offset,
.LVL467:
	.loc 4 238 21 discriminator 1 view .LVU1279
	movs	r2, #127	@ tmp245,
	ands	r2, r0	@ tmp246, tmp244
	adds	r2, r2, r3	@ tmp247, tmp246, __offset
	asrs	r2, r2, #7	@ iftmp.33_119, tmp247,
.L175:
.LVL468:
@ C:/Users/andre/.platformio/packages/toolchain-rp2040-earlephilhower/arm-none-eabi/include/c++/14.2.0/bits/stl_deque.h:241: 	    _M_set_node(_M_node + __node_offset);
	.loc 4 241 26 view .LVU1280
	lsls	r0, r2, #2	@ _128, iftmp.33_119,
@ C:/Users/andre/.platformio/packages/toolchain-rp2040-earlephilhower/arm-none-eabi/include/c++/14.2.0/bits/stl_deque.h:241: 	    _M_set_node(_M_node + __node_offset);
	.loc 4 241 17 view .LVU1281
	adds	r0, r5, r0	@ SR.452, _37, _128
.LVL469:
.LBB1903:
.LBI1903:
	.loc 4 263 7 is_stmt 1 view .LVU1282
	.loc 4 263 7 is_stmt 0 view .LVU1283
.LBE1903:
@ C:/Users/andre/.platformio/packages/toolchain-rp2040-earlephilhower/arm-none-eabi/include/c++/14.2.0/bits/stl_deque.h:243: 				 * difference_type(_S_buffer_size()));
	.loc 4 243 6 discriminator 1 view .LVU1284
	lsls	r2, r2, #7	@ _132, iftmp.33_119,
.LVL470:
@ C:/Users/andre/.platformio/packages/toolchain-rp2040-earlephilhower/arm-none-eabi/include/c++/14.2.0/bits/stl_deque.h:242: 	    _M_cur = _M_first + (__offset - __node_offset
	.loc 4 242 36 view .LVU1285
	subs	r3, r3, r2	@ _133, __offset, _132
.LVL471:
@ C:/Users/andre/.platformio/packages/toolchain-rp2040-earlephilhower/arm-none-eabi/include/c++/14.2.0/bits/stl_deque.h:242: 	    _M_cur = _M_first + (__offset - __node_offset
	.loc 4 242 24 view .LVU1286
	lsls	r3, r3, #2	@ _135, _133,
	ldr	r7, [r0]	@ *_129, *_129
	adds	r7, r7, r3	@ SR.451, *_129, _135
.LVL472:
.L174:
	.loc 4 242 24 view .LVU1287
.LBE1902:
.LBE1905:
.LBE1907:
.LBE1910:
.LBE1896:
.LBE1895:
.LBB1913:
.LBI1913:
	.loc 4 164 8 is_stmt 1 view .LVU1288
	.loc 4 164 8 is_stmt 0 view .LVU1289
.LBE1913:
.LBB1914:
.LBI1914:
	.loc 4 1799 7 is_stmt 1 view .LVU1290
.LBB1915:
.LBB1916:
.LBI1916:
	.loc 4 176 7 view .LVU1291
.LBB1917:
.LBI1917:
	.loc 4 147 7 view .LVU1292
.LBB1918:
@ C:/Users/andre/.platformio/packages/toolchain-rp2040-earlephilhower/arm-none-eabi/include/c++/14.2.0/bits/stl_deque.h:148:       : _M_cur(__x), _M_first(*__y),
	.loc 4 148 9 is_stmt 0 view .LVU1293
	add	r2, sp, #32	@ tmp256,,
.LVL473:
	.loc 4 148 9 view .LVU1294
	str	r6, [sp, #32]	@ _34, MEM[(struct _Deque_iterator *)&D.46649]._M_cur
@ C:/Users/andre/.platformio/packages/toolchain-rp2040-earlephilhower/arm-none-eabi/include/c++/14.2.0/bits/stl_deque.h:148:       : _M_cur(__x), _M_first(*__y),
	.loc 4 148 22 view .LVU1295
	ldr	r3, [r5]	@ _105, *_37
	str	r3, [r2, #4]	@ _105, MEM[(struct _Deque_iterator *)&D.46649]._M_first
.LBB1919:
.LBI1919:
	.loc 4 131 21 is_stmt 1 view .LVU1296
.LBE1919:
@ C:/Users/andre/.platformio/packages/toolchain-rp2040-earlephilhower/arm-none-eabi/include/c++/14.2.0/bits/stl_deque.h:149: 	_M_last(*__y + _S_buffer_size()), _M_node(__y) { }
	.loc 4 149 15 is_stmt 0 discriminator 1 view .LVU1297
	movs	r6, #128	@ tmp285,
.LVL474:
	.loc 4 149 15 discriminator 1 view .LVU1298
	lsls	r6, r6, #2	@ tmp285, tmp285,
	mov	ip, r6	@ tmp285, tmp285
	add	r3, r3, ip	@ _106, tmp285
@ C:/Users/andre/.platformio/packages/toolchain-rp2040-earlephilhower/arm-none-eabi/include/c++/14.2.0/bits/stl_deque.h:149: 	_M_last(*__y + _S_buffer_size()), _M_node(__y) { }
	.loc 4 149 2 discriminator 1 view .LVU1299
	str	r3, [r2, #8]	@ _106, MEM[(struct _Deque_iterator *)&D.46649]._M_last
@ C:/Users/andre/.platformio/packages/toolchain-rp2040-earlephilhower/arm-none-eabi/include/c++/14.2.0/bits/stl_deque.h:149: 	_M_last(*__y + _S_buffer_size()), _M_node(__y) { }
	.loc 4 149 36 discriminator 1 view .LVU1300
	str	r5, [r2, #12]	@ _37, MEM[(struct _Deque_iterator *)&D.46649]._M_node
.LVL475:
	.loc 4 149 36 discriminator 1 view .LVU1301
.LBE1918:
.LBE1917:
.LBE1916:
.LBB1920:
.LBI1920:
	.loc 4 176 7 is_stmt 1 view .LVU1302
.LBB1921:
.LBI1921:
	.loc 4 147 7 view .LVU1303
.LBB1922:
@ C:/Users/andre/.platformio/packages/toolchain-rp2040-earlephilhower/arm-none-eabi/include/c++/14.2.0/bits/stl_deque.h:148:       : _M_cur(__x), _M_first(*__y),
	.loc 4 148 9 is_stmt 0 view .LVU1304
	add	r3, sp, #16	@ tmp261,,
.LVL476:
	.loc 4 148 9 view .LVU1305
	str	r7, [sp, #16]	@ SR.451, MEM[(struct _Deque_iterator *)&D.46648]._M_cur
@ C:/Users/andre/.platformio/packages/toolchain-rp2040-earlephilhower/arm-none-eabi/include/c++/14.2.0/bits/stl_deque.h:148:       : _M_cur(__x), _M_first(*__y),
	.loc 4 148 22 view .LVU1306
	ldr	r5, [r0]	@ _109, *SR.452_6
	str	r5, [r3, #4]	@ _109, MEM[(struct _Deque_iterator *)&D.46648]._M_first
.LBB1923:
.LBI1923:
	.loc 4 131 21 is_stmt 1 view .LVU1307
.LBE1923:
@ C:/Users/andre/.platformio/packages/toolchain-rp2040-earlephilhower/arm-none-eabi/include/c++/14.2.0/bits/stl_deque.h:149: 	_M_last(*__y + _S_buffer_size()), _M_node(__y) { }
	.loc 4 149 15 is_stmt 0 discriminator 1 view .LVU1308
	add	r5, r5, ip	@ _110, tmp287
@ C:/Users/andre/.platformio/packages/toolchain-rp2040-earlephilhower/arm-none-eabi/include/c++/14.2.0/bits/stl_deque.h:149: 	_M_last(*__y + _S_buffer_size()), _M_node(__y) { }
	.loc 4 149 2 discriminator 1 view .LVU1309
	str	r5, [r3, #8]	@ _110, MEM[(struct _Deque_iterator *)&D.46648]._M_last
@ C:/Users/andre/.platformio/packages/toolchain-rp2040-earlephilhower/arm-none-eabi/include/c++/14.2.0/bits/stl_deque.h:149: 	_M_last(*__y + _S_buffer_size()), _M_node(__y) { }
	.loc 4 149 36 discriminator 1 view .LVU1310
	str	r0, [r3, #12]	@ SR.452, MEM[(struct _Deque_iterator *)&D.46648]._M_node
.LVL477:
	.loc 4 149 36 discriminator 1 view .LVU1311
.LBE1922:
.LBE1921:
.LBE1920:
@ C:/Users/andre/.platformio/packages/toolchain-rp2040-earlephilhower/arm-none-eabi/include/c++/14.2.0/bits/stl_deque.h:1803:       { return _M_erase(__first._M_const_cast(), __last._M_const_cast()); }
	.loc 4 1803 72 discriminator 2 view .LVU1312
	mov	r0, sp	@,
	bl	_ZNSt5dequeIlSaIlEE8_M_eraseESt15_Deque_iteratorIlRlPlES5_		@
.LVL478:
	.loc 4 1803 72 discriminator 2 view .LVU1313
.LBE1915:
.LBE1914:
	.loc 1 154 5 is_stmt 1 view .LVU1314
.L162:
@ lib/filter/src/filter.cpp:155: }
	.loc 1 155 1 is_stmt 0 view .LVU1315
	movs	r0, r4	@, <retval>
	add	sp, sp, #52	@,,
	@ sp needed	@
	pop	{r6, r7}
	mov	r9, r7
	mov	r8, r6
	pop	{r4, r5, r6, r7, pc}
.LVL479:
.L172:
.LBB1924:
.LBB1912:
.LBB1911:
.LBB1908:
.LBB1906:
.LBB1904:
@ C:/Users/andre/.platformio/packages/toolchain-rp2040-earlephilhower/arm-none-eabi/include/c++/14.2.0/bits/stl_deque.h:239: 			   : -difference_type((-__offset - 1)
	.loc 4 239 37 view .LVU1316
	mvns	r2, r3	@ _121, __offset
@ C:/Users/andre/.platformio/packages/toolchain-rp2040-earlephilhower/arm-none-eabi/include/c++/14.2.0/bits/stl_deque.h:240: 					      / _S_buffer_size()) - 1;
	.loc 4 240 12 discriminator 1 view .LVU1317
	lsrs	r2, r2, #7	@ _122, _121,
@ C:/Users/andre/.platformio/packages/toolchain-rp2040-earlephilhower/arm-none-eabi/include/c++/14.2.0/bits/stl_deque.h:238: 	      __offset > 0 ? __offset / difference_type(_S_buffer_size())
	.loc 4 238 21 discriminator 2 view .LVU1318
	mvns	r2, r2	@ iftmp.33_119, _122
	b	.L175		@
.L179:
	.align	2
.L178:
	.word	65535
.LBE1904:
.LBE1906:
.LBE1908:
.LBE1911:
.LBE1912:
.LBE1924:
	.cfi_endproc
.LFE2075:
	.size	_ZN6filter9FIRFilter4readEPtj, .-_ZN6filter9FIRFilter4readEPtj
	.section	.text._ZN6filter9FIRFilter4readEPlj,"ax",%progbits
	.align	1
	.global	_ZN6filter9FIRFilter4readEPlj
	.syntax unified
	.code	16
	.thumb_func
	.type	_ZN6filter9FIRFilter4readEPlj, %function
_ZN6filter9FIRFilter4readEPlj:
.LVL480:
.LFB2074:
	.loc 1 124 57 is_stmt 1 view -0
	.cfi_startproc
	@ args = 0, pretend = 0, frame = 48
	@ frame_needed = 0, uses_anonymous_args = 0
	.loc 1 124 57 is_stmt 0 view .LVU1320
	push	{r4, r5, r6, r7, lr}	@
	.cfi_def_cfa_offset 20
	.cfi_offset 4, -20
	.cfi_offset 5, -16
	.cfi_offset 6, -12
	.cfi_offset 7, -8
	.cfi_offset 14, -4
	mov	lr, r9	@,
	mov	r7, r8	@,
	push	{r7, lr}	@
	.cfi_def_cfa_offset 28
	.cfi_offset 8, -28
	.cfi_offset 9, -24
	sub	sp, sp, #52	@,,
	.cfi_def_cfa_offset 80
	mov	r9, r1	@ out, tmp263
	.loc 1 125 5 is_stmt 1 view .LVU1321
.LVL481:
.LBB1981:
.LBI1981:
	.loc 4 1268 7 view .LVU1322
.LBB1982:
.LBB1983:
.LBI1983:
	.loc 4 370 7 view .LVU1323
.LBB1984:
@ C:/Users/andre/.platformio/packages/toolchain-rp2040-earlephilhower/arm-none-eabi/include/c++/14.2.0/bits/stl_deque.h:373: 	  * (__x._M_node - __y._M_node - bool(__x._M_node))
	.loc 4 373 11 is_stmt 0 view .LVU1324
	ldr	r3, [r0, #56]	@ _50, MEM[(const struct _Self &)this_9(D) + 44]._M_node
.LVL482:
	.loc 4 373 11 view .LVU1325
.LBE1984:
.LBE1983:
.LBE1982:
.LBE1981:
.LBB1988:
.LBI1988:
	.loc 3 233 5 is_stmt 1 view .LVU1326
.LBE1988:
.LBB1990:
.LBB1987:
.LBB1986:
.LBB1985:
@ C:/Users/andre/.platformio/packages/toolchain-rp2040-earlephilhower/arm-none-eabi/include/c++/14.2.0/bits/stl_deque.h:373: 	  * (__x._M_node - __y._M_node - bool(__x._M_node))
	.loc 4 373 19 is_stmt 0 view .LVU1327
	ldr	r4, [r0, #40]	@ MEM[(const struct _Self &)this_9(D) + 28]._M_node, MEM[(const struct _Self &)this_9(D) + 28]._M_node
	subs	r4, r3, r4	@ _52, _50, MEM[(const struct _Self &)this_9(D) + 28]._M_node
	asrs	r4, r4, #2	@ _53, _52,
@ C:/Users/andre/.platformio/packages/toolchain-rp2040-earlephilhower/arm-none-eabi/include/c++/14.2.0/bits/stl_deque.h:373: 	  * (__x._M_node - __y._M_node - bool(__x._M_node))
	.loc 4 373 35 view .LVU1328
	subs	r5, r3, #1	@ tmp194, _50
	sbcs	r3, r3, r5	@ _54, _50, tmp194
@ C:/Users/andre/.platformio/packages/toolchain-rp2040-earlephilhower/arm-none-eabi/include/c++/14.2.0/bits/stl_deque.h:373: 	  * (__x._M_node - __y._M_node - bool(__x._M_node))
	.loc 4 373 33 view .LVU1329
	subs	r4, r4, r3	@ _56, _53, _54
@ C:/Users/andre/.platformio/packages/toolchain-rp2040-earlephilhower/arm-none-eabi/include/c++/14.2.0/bits/stl_deque.h:373: 	  * (__x._M_node - __y._M_node - bool(__x._M_node))
	.loc 4 373 4 view .LVU1330
	lsls	r4, r4, #7	@ _57, _56,
@ C:/Users/andre/.platformio/packages/toolchain-rp2040-earlephilhower/arm-none-eabi/include/c++/14.2.0/bits/stl_deque.h:374: 	  + (__x._M_cur - __x._M_first)
	.loc 4 374 18 view .LVU1331
	ldr	r3, [r0, #44]	@ MEM[(const struct _Self &)this_9(D) + 44]._M_cur, MEM[(const struct _Self &)this_9(D) + 44]._M_cur
	ldr	r5, [r0, #48]	@ MEM[(const struct _Self &)this_9(D) + 44]._M_first, MEM[(const struct _Self &)this_9(D) + 44]._M_first
	subs	r3, r3, r5	@ _60, MEM[(const struct _Self &)this_9(D) + 44]._M_cur, MEM[(const struct _Self &)this_9(D) + 44]._M_first
	asrs	r3, r3, #2	@ _61, _60,
@ C:/Users/andre/.platformio/packages/toolchain-rp2040-earlephilhower/arm-none-eabi/include/c++/14.2.0/bits/stl_deque.h:374: 	  + (__x._M_cur - __x._M_first)
	.loc 4 374 4 view .LVU1332
	adds	r4, r4, r3	@ _62, _57, _61
@ C:/Users/andre/.platformio/packages/toolchain-rp2040-earlephilhower/arm-none-eabi/include/c++/14.2.0/bits/stl_deque.h:375: 	  + (__y._M_last - __y._M_cur);
	.loc 4 375 19 view .LVU1333
	ldr	r3, [r0, #36]	@ MEM[(const struct _Self &)this_9(D) + 28]._M_last, MEM[(const struct _Self &)this_9(D) + 28]._M_last
	ldr	r5, [r0, #28]	@ MEM[(const struct _Self &)this_9(D) + 28]._M_cur, MEM[(const struct _Self &)this_9(D) + 28]._M_cur
	subs	r3, r3, r5	@ _65, MEM[(const struct _Self &)this_9(D) + 28]._M_last, MEM[(const struct _Self &)this_9(D) + 28]._M_cur
	asrs	r3, r3, #2	@ _66, _65,
@ C:/Users/andre/.platformio/packages/toolchain-rp2040-earlephilhower/arm-none-eabi/include/c++/14.2.0/bits/stl_deque.h:375: 	  + (__y._M_last - __y._M_cur);
	.loc 4 375 31 view .LVU1334
	adds	r4, r4, r3	@ <retval>, _62, _66
.LBE1985:
.LBE1986:
.LBE1987:
.LBE1990:
.LBB1991:
.LBB1989:
@ C:/Users/andre/.platformio/packages/toolchain-rp2040-earlephilhower/arm-none-eabi/include/c++/14.2.0/bits/stl_algobase.h:238:       if (__b < __a)
	.loc 3 238 7 view .LVU1335
	cmp	r4, r2	@ <retval>, max_length
	bls	.L181		@,
	movs	r4, r2	@ <retval>, max_length
.L181:
.LVL483:
	.loc 3 238 7 view .LVU1336
.LBE1989:
.LBE1991:
	.loc 1 126 5 is_stmt 1 view .LVU1337
	cmp	r4, #0	@ <retval>,
	beq	.L180		@,
	movs	r6, #0	@ ivtmp.467,
.LBB1992:
@ lib/filter/src/filter.cpp:129:     for (size_t n = 0; n < output_size; n++)
	.loc 1 129 17 is_stmt 0 view .LVU1338
	movs	r5, #0	@ n,
.LBB1993:
.LBB1994:
.LBB1995:
.LBB1996:
.LBB1997:
.LBB1998:
.LBB1999:
.LBB2000:
.LBB2001:
@ C:/Users/andre/.platformio/packages/toolchain-rp2040-earlephilhower/arm-none-eabi/include/c++/14.2.0/bits/stl_deque.h:238: 	      __offset > 0 ? __offset / difference_type(_S_buffer_size())
	.loc 4 238 21 discriminator 1 view .LVU1339
	movs	r3, #127	@ tmp261,
	mov	ip, r3	@ tmp261, tmp261
	b	.L187		@
.LVL484:
.L194:
	.loc 4 238 21 discriminator 1 view .LVU1340
	asrs	r2, r3, #31	@ tmp215, __offset,
	mov	r1, ip	@ tmp261, tmp261
	ands	r2, r1	@ tmp217, tmp261
	adds	r2, r2, r3	@ tmp218, tmp217, __offset
	asrs	r2, r2, #7	@ iftmp.33_81, tmp218,
.L186:
.LVL485:
.LBB2002:
.LBI2002:
	.loc 4 263 7 is_stmt 1 view .LVU1341
.LBB2003:
@ C:/Users/andre/.platformio/packages/toolchain-rp2040-earlephilhower/arm-none-eabi/include/c++/14.2.0/bits/stl_deque.h:266: 	_M_first = *__new_node;
	.loc 4 266 11 is_stmt 0 view .LVU1342
	ldr	r7, [r0, #40]	@ MEM[(const struct _Deque_iterator &)this_9(D) + 28]._M_node, MEM[(const struct _Deque_iterator &)this_9(D) + 28]._M_node
	lsls	r1, r2, #2	@ tmp223, iftmp.33_81,
.LBE2003:
.LBE2002:
@ C:/Users/andre/.platformio/packages/toolchain-rp2040-earlephilhower/arm-none-eabi/include/c++/14.2.0/bits/stl_deque.h:243: 				 * difference_type(_S_buffer_size()));
	.loc 4 243 6 discriminator 1 view .LVU1343
	lsls	r2, r2, #7	@ _94, iftmp.33_81,
.LVL486:
@ C:/Users/andre/.platformio/packages/toolchain-rp2040-earlephilhower/arm-none-eabi/include/c++/14.2.0/bits/stl_deque.h:242: 	    _M_cur = _M_first + (__offset - __node_offset
	.loc 4 242 36 view .LVU1344
	subs	r3, r3, r2	@ _95, __offset, _94
.LVL487:
@ C:/Users/andre/.platformio/packages/toolchain-rp2040-earlephilhower/arm-none-eabi/include/c++/14.2.0/bits/stl_deque.h:242: 	    _M_cur = _M_first + (__offset - __node_offset
	.loc 4 242 24 view .LVU1345
	lsls	r3, r3, #2	@ _97, _95,
	ldr	r2, [r1, r7]	@ *_91, *_91
	adds	r2, r2, r3	@ SR.463, *_91, _97
.LVL488:
.L185:
	.loc 4 242 24 view .LVU1346
.LBE2001:
.LBE2000:
.LBE1999:
.LBE1998:
.LBE1997:
.LBE1996:
.LBE1995:
.LBE1994:
.LBE1993:
@ lib/filter/src/filter.cpp:130:         out[n] = m_values[n];
	.loc 1 130 16 discriminator 1 view .LVU1347
	ldr	r3, [r2]	@ _3, MEM[(value_type &)SR.463_15]
	mov	r2, r9	@ out, out
	str	r3, [r2, r6]	@ _3, MEM[(int32_t *)out_18(D) + ivtmp.467_72 * 1]
	.loc 1 129 5 is_stmt 1 discriminator 3 view .LVU1348
	adds	r5, r5, #1	@ n,
.LVL489:
	.loc 1 129 26 discriminator 1 view .LVU1349
	adds	r6, r6, #4	@ ivtmp.467,
	cmp	r4, r5	@ <retval>, n
	beq	.L193		@,
.LVL490:
.L187:
	.loc 1 130 9 view .LVU1350
.LBB2014:
.LBI1993:
	.loc 4 1364 7 view .LVU1351
.LBB2013:
.LBB2012:
.LBI1995:
	.loc 4 254 7 view .LVU1352
.LBB2011:
.LBI1996:
	.loc 4 397 7 view .LVU1353
.LBB2010:
.LBB2007:
.LBI2007:
	.loc 4 168 7 view .LVU1354
.LBB2008:
@ C:/Users/andre/.platformio/packages/toolchain-rp2040-earlephilhower/arm-none-eabi/include/c++/14.2.0/bits/stl_deque.h:169:        : _M_cur(__x._M_cur), _M_first(__x._M_first),
	.loc 4 169 21 is_stmt 0 view .LVU1355
	ldr	r2, [r0, #28]	@ _68, MEM[(const struct _Deque_iterator &)this_9(D) + 28]._M_cur
.LVL491:
	.loc 4 169 21 view .LVU1356
.LBE2008:
.LBE2007:
.LBB2009:
.LBI1998:
	.loc 4 230 7 is_stmt 1 view .LVU1357
.LBB2006:
@ C:/Users/andre/.platformio/packages/toolchain-rp2040-earlephilhower/arm-none-eabi/include/c++/14.2.0/bits/stl_deque.h:232: 	const difference_type __offset = __n + (_M_cur - _M_first);
	.loc 4 232 49 is_stmt 0 view .LVU1358
	ldr	r3, [r0, #32]	@ MEM[(const struct _Deque_iterator &)this_9(D) + 28]._M_first, MEM[(const struct _Deque_iterator &)this_9(D) + 28]._M_first
	subs	r3, r2, r3	@ _75, _68, MEM[(const struct _Deque_iterator &)this_9(D) + 28]._M_first
	asrs	r3, r3, #2	@ _76, _75,
.LVL492:
.LBB2005:
@ C:/Users/andre/.platformio/packages/toolchain-rp2040-earlephilhower/arm-none-eabi/include/c++/14.2.0/bits/stl_deque.h:233: 	if (__offset >= 0 && __offset < difference_type(_S_buffer_size()))
	.loc 4 233 20 view .LVU1359
	adds	r3, r3, r5	@ __offset, _76, n
	bmi	.L183		@,
.LVL493:
@ C:/Users/andre/.platformio/packages/toolchain-rp2040-earlephilhower/arm-none-eabi/include/c++/14.2.0/bits/stl_deque.h:234: 	  _M_cur += __n;
	.loc 4 234 11 view .LVU1360
	adds	r2, r2, r6	@ SR.463, _68, ivtmp.467
@ C:/Users/andre/.platformio/packages/toolchain-rp2040-earlephilhower/arm-none-eabi/include/c++/14.2.0/bits/stl_deque.h:233: 	if (__offset >= 0 && __offset < difference_type(_S_buffer_size()))
	.loc 4 233 20 discriminator 1 view .LVU1361
	cmp	r3, #127	@ __offset,
	ble	.L185		@,
	b	.L194		@
.L183:
.LBB2004:
@ C:/Users/andre/.platformio/packages/toolchain-rp2040-earlephilhower/arm-none-eabi/include/c++/14.2.0/bits/stl_deque.h:239: 			   : -difference_type((-__offset - 1)
	.loc 4 239 37 view .LVU1362
	mvns	r2, r3	@ _83, __offset
@ C:/Users/andre/.platformio/packages/toolchain-rp2040-earlephilhower/arm-none-eabi/include/c++/14.2.0/bits/stl_deque.h:240: 					      / _S_buffer_size()) - 1;
	.loc 4 240 12 discriminator 1 view .LVU1363
	lsrs	r2, r2, #7	@ _84, _83,
@ C:/Users/andre/.platformio/packages/toolchain-rp2040-earlephilhower/arm-none-eabi/include/c++/14.2.0/bits/stl_deque.h:238: 	      __offset > 0 ? __offset / difference_type(_S_buffer_size())
	.loc 4 238 21 discriminator 2 view .LVU1364
	mvns	r2, r2	@ iftmp.33_81, _84
	b	.L186		@
.LVL494:
.L193:
	.loc 4 238 21 discriminator 2 view .LVU1365
.LBE2004:
.LBE2005:
.LBE2006:
.LBE2009:
.LBE2010:
.LBE2011:
.LBE2012:
.LBE2013:
.LBE2014:
.LBE1992:
	.loc 1 132 5 is_stmt 1 view .LVU1366
@ lib/filter/src/filter.cpp:132:     m_values.erase(m_values.begin(), m_values.begin() + output_size);
	.loc 1 132 19 is_stmt 0 view .LVU1367
	movs	r1, r0	@ _4, this
	adds	r1, r1, #20	@ _4,
.LVL495:
.LBB2015:
.LBI2015:
	.loc 4 1151 7 is_stmt 1 view .LVU1368
.LBB2016:
.LBI2016:
	.loc 4 168 7 view .LVU1369
.LBB2017:
@ C:/Users/andre/.platformio/packages/toolchain-rp2040-earlephilhower/arm-none-eabi/include/c++/14.2.0/bits/stl_deque.h:169:        : _M_cur(__x._M_cur), _M_first(__x._M_first),
	.loc 4 169 21 is_stmt 0 view .LVU1370
	ldr	r6, [r0, #28]	@ _31, MEM[(const struct _Deque_iterator &)this_9(D) + 28]._M_cur
@ C:/Users/andre/.platformio/packages/toolchain-rp2040-earlephilhower/arm-none-eabi/include/c++/14.2.0/bits/stl_deque.h:170: 	 _M_last(__x._M_last), _M_node(__x._M_node) { }
	.loc 4 170 37 view .LVU1371
	ldr	r5, [r0, #40]	@ _34, MEM[(const struct _Deque_iterator &)this_9(D) + 28]._M_node
.LVL496:
	.loc 4 170 37 view .LVU1372
.LBE2017:
.LBE2016:
.LBE2015:
.LBB2018:
.LBI2018:
	.loc 4 164 8 is_stmt 1 view .LVU1373
	.loc 4 164 8 is_stmt 0 view .LVU1374
.LBE2018:
.LBB2019:
.LBI2019:
	.loc 4 1151 7 is_stmt 1 view .LVU1375
.LBB2020:
.LBI2020:
	.loc 4 168 7 view .LVU1376
	.loc 4 168 7 is_stmt 0 view .LVU1377
.LBE2020:
.LBE2019:
.LBB2021:
.LBI2021:
	.loc 4 397 7 is_stmt 1 view .LVU1378
.LBB2022:
.LBB2023:
.LBI2023:
	.loc 4 168 7 view .LVU1379
	.loc 4 168 7 is_stmt 0 view .LVU1380
.LBE2023:
.LBB2025:
.LBI2025:
	.loc 4 230 7 is_stmt 1 view .LVU1381
.LBB2026:
@ C:/Users/andre/.platformio/packages/toolchain-rp2040-earlephilhower/arm-none-eabi/include/c++/14.2.0/bits/stl_deque.h:232: 	const difference_type __offset = __n + (_M_cur - _M_first);
	.loc 4 232 49 is_stmt 0 view .LVU1382
	ldr	r3, [r0, #32]	@ MEM[(const struct _Deque_iterator &)this_9(D) + 28]._M_first, MEM[(const struct _Deque_iterator &)this_9(D) + 28]._M_first
	subs	r3, r6, r3	@ _110, _31, MEM[(const struct _Deque_iterator &)this_9(D) + 28]._M_first
	asrs	r3, r3, #2	@ _111, _110,
.LVL497:
.LBB2027:
@ C:/Users/andre/.platformio/packages/toolchain-rp2040-earlephilhower/arm-none-eabi/include/c++/14.2.0/bits/stl_deque.h:233: 	if (__offset >= 0 && __offset < difference_type(_S_buffer_size()))
	.loc 4 233 20 view .LVU1383
	adds	r3, r3, r4	@ __offset, _111, <retval>
	bmi	.L188		@,
.LVL498:
@ C:/Users/andre/.platformio/packages/toolchain-rp2040-earlephilhower/arm-none-eabi/include/c++/14.2.0/bits/stl_deque.h:233: 	if (__offset >= 0 && __offset < difference_type(_S_buffer_size()))
	.loc 4 233 20 discriminator 1 view .LVU1384
	cmp	r3, #127	@ __offset,
	bgt	.L189		@,
@ C:/Users/andre/.platformio/packages/toolchain-rp2040-earlephilhower/arm-none-eabi/include/c++/14.2.0/bits/stl_deque.h:234: 	  _M_cur += __n;
	.loc 4 234 11 view .LVU1385
	lsls	r7, r4, #2	@ _114, <retval>,
	adds	r7, r6, r7	@ SR.461, _31, _114
.LBE2027:
.LBE2026:
.LBE2025:
.LBB2035:
.LBB2024:
@ C:/Users/andre/.platformio/packages/toolchain-rp2040-earlephilhower/arm-none-eabi/include/c++/14.2.0/bits/stl_deque.h:170: 	 _M_last(__x._M_last), _M_node(__x._M_node) { }
	.loc 4 170 25 view .LVU1386
	movs	r0, r5	@ SR.462, _34
.LVL499:
	.loc 4 170 25 view .LVU1387
.LBE2024:
.LBE2035:
.LBB2036:
.LBB2033:
.LBB2031:
	b	.L190		@
.LVL500:
.L189:
.LBB2028:
@ C:/Users/andre/.platformio/packages/toolchain-rp2040-earlephilhower/arm-none-eabi/include/c++/14.2.0/bits/stl_deque.h:238: 	      __offset > 0 ? __offset / difference_type(_S_buffer_size())
	.loc 4 238 21 discriminator 1 view .LVU1388
	asrs	r0, r3, #31	@ tmp235, __offset,
.LVL501:
	.loc 4 238 21 discriminator 1 view .LVU1389
	movs	r2, #127	@ tmp236,
.LVL502:
	.loc 4 238 21 discriminator 1 view .LVU1390
	ands	r2, r0	@ tmp237, tmp235
	adds	r2, r2, r3	@ tmp238, tmp237, __offset
	asrs	r2, r2, #7	@ iftmp.33_116, tmp238,
.L191:
.LVL503:
@ C:/Users/andre/.platformio/packages/toolchain-rp2040-earlephilhower/arm-none-eabi/include/c++/14.2.0/bits/stl_deque.h:241: 	    _M_set_node(_M_node + __node_offset);
	.loc 4 241 26 view .LVU1391
	lsls	r0, r2, #2	@ _125, iftmp.33_116,
@ C:/Users/andre/.platformio/packages/toolchain-rp2040-earlephilhower/arm-none-eabi/include/c++/14.2.0/bits/stl_deque.h:241: 	    _M_set_node(_M_node + __node_offset);
	.loc 4 241 17 view .LVU1392
	adds	r0, r5, r0	@ SR.462, _34, _125
.LVL504:
.LBB2029:
.LBI2029:
	.loc 4 263 7 is_stmt 1 view .LVU1393
	.loc 4 263 7 is_stmt 0 view .LVU1394
.LBE2029:
@ C:/Users/andre/.platformio/packages/toolchain-rp2040-earlephilhower/arm-none-eabi/include/c++/14.2.0/bits/stl_deque.h:243: 				 * difference_type(_S_buffer_size()));
	.loc 4 243 6 discriminator 1 view .LVU1395
	lsls	r2, r2, #7	@ _129, iftmp.33_116,
.LVL505:
@ C:/Users/andre/.platformio/packages/toolchain-rp2040-earlephilhower/arm-none-eabi/include/c++/14.2.0/bits/stl_deque.h:242: 	    _M_cur = _M_first + (__offset - __node_offset
	.loc 4 242 36 view .LVU1396
	subs	r3, r3, r2	@ _130, __offset, _129
.LVL506:
@ C:/Users/andre/.platformio/packages/toolchain-rp2040-earlephilhower/arm-none-eabi/include/c++/14.2.0/bits/stl_deque.h:242: 	    _M_cur = _M_first + (__offset - __node_offset
	.loc 4 242 24 view .LVU1397
	lsls	r3, r3, #2	@ _132, _130,
	ldr	r7, [r0]	@ *_126, *_126
	adds	r7, r7, r3	@ SR.461, *_126, _132
.LVL507:
.L190:
	.loc 4 242 24 view .LVU1398
.LBE2028:
.LBE2031:
.LBE2033:
.LBE2036:
.LBE2022:
.LBE2021:
.LBB2039:
.LBI2039:
	.loc 4 164 8 is_stmt 1 view .LVU1399
	.loc 4 164 8 is_stmt 0 view .LVU1400
.LBE2039:
.LBB2040:
.LBI2040:
	.loc 4 1799 7 is_stmt 1 view .LVU1401
.LBB2041:
.LBB2042:
.LBI2042:
	.loc 4 176 7 view .LVU1402
.LBB2043:
.LBI2043:
	.loc 4 147 7 view .LVU1403
.LBB2044:
@ C:/Users/andre/.platformio/packages/toolchain-rp2040-earlephilhower/arm-none-eabi/include/c++/14.2.0/bits/stl_deque.h:148:       : _M_cur(__x), _M_first(*__y),
	.loc 4 148 9 is_stmt 0 view .LVU1404
	add	r2, sp, #32	@ tmp247,,
.LVL508:
	.loc 4 148 9 view .LVU1405
	str	r6, [sp, #32]	@ _31, MEM[(struct _Deque_iterator *)&D.46701]._M_cur
@ C:/Users/andre/.platformio/packages/toolchain-rp2040-earlephilhower/arm-none-eabi/include/c++/14.2.0/bits/stl_deque.h:148:       : _M_cur(__x), _M_first(*__y),
	.loc 4 148 22 view .LVU1406
	ldr	r3, [r5]	@ _102, *_34
	str	r3, [r2, #4]	@ _102, MEM[(struct _Deque_iterator *)&D.46701]._M_first
.LBB2045:
.LBI2045:
	.loc 4 131 21 is_stmt 1 view .LVU1407
.LBE2045:
@ C:/Users/andre/.platformio/packages/toolchain-rp2040-earlephilhower/arm-none-eabi/include/c++/14.2.0/bits/stl_deque.h:149: 	_M_last(*__y + _S_buffer_size()), _M_node(__y) { }
	.loc 4 149 15 is_stmt 0 discriminator 1 view .LVU1408
	movs	r6, #128	@ tmp273,
.LVL509:
	.loc 4 149 15 discriminator 1 view .LVU1409
	lsls	r6, r6, #2	@ tmp273, tmp273,
	mov	ip, r6	@ tmp273, tmp273
	add	r3, r3, ip	@ _103, tmp273
@ C:/Users/andre/.platformio/packages/toolchain-rp2040-earlephilhower/arm-none-eabi/include/c++/14.2.0/bits/stl_deque.h:149: 	_M_last(*__y + _S_buffer_size()), _M_node(__y) { }
	.loc 4 149 2 discriminator 1 view .LVU1410
	str	r3, [r2, #8]	@ _103, MEM[(struct _Deque_iterator *)&D.46701]._M_last
@ C:/Users/andre/.platformio/packages/toolchain-rp2040-earlephilhower/arm-none-eabi/include/c++/14.2.0/bits/stl_deque.h:149: 	_M_last(*__y + _S_buffer_size()), _M_node(__y) { }
	.loc 4 149 36 discriminator 1 view .LVU1411
	str	r5, [r2, #12]	@ _34, MEM[(struct _Deque_iterator *)&D.46701]._M_node
.LVL510:
	.loc 4 149 36 discriminator 1 view .LVU1412
.LBE2044:
.LBE2043:
.LBE2042:
.LBB2046:
.LBI2046:
	.loc 4 176 7 is_stmt 1 view .LVU1413
.LBB2047:
.LBI2047:
	.loc 4 147 7 view .LVU1414
.LBB2048:
@ C:/Users/andre/.platformio/packages/toolchain-rp2040-earlephilhower/arm-none-eabi/include/c++/14.2.0/bits/stl_deque.h:148:       : _M_cur(__x), _M_first(*__y),
	.loc 4 148 9 is_stmt 0 view .LVU1415
	add	r3, sp, #16	@ tmp252,,
.LVL511:
	.loc 4 148 9 view .LVU1416
	str	r7, [sp, #16]	@ SR.461, MEM[(struct _Deque_iterator *)&D.46700]._M_cur
@ C:/Users/andre/.platformio/packages/toolchain-rp2040-earlephilhower/arm-none-eabi/include/c++/14.2.0/bits/stl_deque.h:148:       : _M_cur(__x), _M_first(*__y),
	.loc 4 148 22 view .LVU1417
	ldr	r5, [r0]	@ _106, *SR.462_6
	str	r5, [r3, #4]	@ _106, MEM[(struct _Deque_iterator *)&D.46700]._M_first
.LBB2049:
.LBI2049:
	.loc 4 131 21 is_stmt 1 view .LVU1418
.LBE2049:
@ C:/Users/andre/.platformio/packages/toolchain-rp2040-earlephilhower/arm-none-eabi/include/c++/14.2.0/bits/stl_deque.h:149: 	_M_last(*__y + _S_buffer_size()), _M_node(__y) { }
	.loc 4 149 15 is_stmt 0 discriminator 1 view .LVU1419
	add	r5, r5, ip	@ _107, tmp275
@ C:/Users/andre/.platformio/packages/toolchain-rp2040-earlephilhower/arm-none-eabi/include/c++/14.2.0/bits/stl_deque.h:149: 	_M_last(*__y + _S_buffer_size()), _M_node(__y) { }
	.loc 4 149 2 discriminator 1 view .LVU1420
	str	r5, [r3, #8]	@ _107, MEM[(struct _Deque_iterator *)&D.46700]._M_last
@ C:/Users/andre/.platformio/packages/toolchain-rp2040-earlephilhower/arm-none-eabi/include/c++/14.2.0/bits/stl_deque.h:149: 	_M_last(*__y + _S_buffer_size()), _M_node(__y) { }
	.loc 4 149 36 discriminator 1 view .LVU1421
	str	r0, [r3, #12]	@ SR.462, MEM[(struct _Deque_iterator *)&D.46700]._M_node
.LVL512:
	.loc 4 149 36 discriminator 1 view .LVU1422
.LBE2048:
.LBE2047:
.LBE2046:
@ C:/Users/andre/.platformio/packages/toolchain-rp2040-earlephilhower/arm-none-eabi/include/c++/14.2.0/bits/stl_deque.h:1803:       { return _M_erase(__first._M_const_cast(), __last._M_const_cast()); }
	.loc 4 1803 72 discriminator 2 view .LVU1423
	mov	r0, sp	@,
	bl	_ZNSt5dequeIlSaIlEE8_M_eraseESt15_Deque_iteratorIlRlPlES5_		@
.LVL513:
	.loc 4 1803 72 discriminator 2 view .LVU1424
.LBE2041:
.LBE2040:
	.loc 1 134 5 is_stmt 1 view .LVU1425
.L180:
@ lib/filter/src/filter.cpp:135: }
	.loc 1 135 1 is_stmt 0 view .LVU1426
	movs	r0, r4	@, <retval>
	add	sp, sp, #52	@,,
	@ sp needed	@
.LVL514:
	.loc 1 135 1 view .LVU1427
	pop	{r6, r7}
	mov	r9, r7
	mov	r8, r6
	pop	{r4, r5, r6, r7, pc}
.LVL515:
.L188:
.LBB2050:
.LBB2038:
.LBB2037:
.LBB2034:
.LBB2032:
.LBB2030:
@ C:/Users/andre/.platformio/packages/toolchain-rp2040-earlephilhower/arm-none-eabi/include/c++/14.2.0/bits/stl_deque.h:239: 			   : -difference_type((-__offset - 1)
	.loc 4 239 37 view .LVU1428
	mvns	r2, r3	@ _118, __offset
.LVL516:
@ C:/Users/andre/.platformio/packages/toolchain-rp2040-earlephilhower/arm-none-eabi/include/c++/14.2.0/bits/stl_deque.h:240: 					      / _S_buffer_size()) - 1;
	.loc 4 240 12 discriminator 1 view .LVU1429
	lsrs	r2, r2, #7	@ _119, _118,
@ C:/Users/andre/.platformio/packages/toolchain-rp2040-earlephilhower/arm-none-eabi/include/c++/14.2.0/bits/stl_deque.h:238: 	      __offset > 0 ? __offset / difference_type(_S_buffer_size())
	.loc 4 238 21 discriminator 2 view .LVU1430
	mvns	r2, r2	@ iftmp.33_116, _119
	b	.L191		@
.LBE2030:
.LBE2032:
.LBE2034:
.LBE2037:
.LBE2038:
.LBE2050:
	.cfi_endproc
.LFE2074:
	.size	_ZN6filter9FIRFilter4readEPlj, .-_ZN6filter9FIRFilter4readEPlj
	.text
.Letext0:
	.file 14 "C:/Users/andre/.platformio/packages/toolchain-rp2040-earlephilhower/arm-none-eabi/include/c++/14.2.0/type_traits"
	.file 15 "C:/Users/andre/.platformio/packages/toolchain-rp2040-earlephilhower/arm-none-eabi/include/c++/14.2.0/arm-none-eabi/thumb/bits/c++config.h"
	.file 16 "C:/Users/andre/.platformio/packages/toolchain-rp2040-earlephilhower/arm-none-eabi/include/c++/14.2.0/bits/stl_iterator_base_types.h"
	.file 17 "C:/Users/andre/.platformio/packages/toolchain-rp2040-earlephilhower/arm-none-eabi/include/c++/14.2.0/debug/debug.h"
	.file 18 "C:/Users/andre/.platformio/packages/toolchain-rp2040-earlephilhower/arm-none-eabi/include/c++/14.2.0/bits/std_abs.h"
	.file 19 "C:/Users/andre/.platformio/packages/toolchain-rp2040-earlephilhower/arm-none-eabi/include/c++/14.2.0/cstddef"
	.file 20 "C:/Users/andre/.platformio/packages/toolchain-rp2040-earlephilhower/arm-none-eabi/include/c++/14.2.0/cstdlib"
	.file 21 "C:/Users/andre/.platformio/packages/toolchain-rp2040-earlephilhower/arm-none-eabi/include/c++/14.2.0/bits/ptr_traits.h"
	.file 22 "C:/Users/andre/.platformio/packages/toolchain-rp2040-earlephilhower/arm-none-eabi/include/c++/14.2.0/initializer_list"
	.file 23 "C:/Users/andre/.platformio/packages/toolchain-rp2040-earlephilhower/arm-none-eabi/include/c++/14.2.0/bits/functexcept.h"
	.file 24 "C:/Users/andre/.platformio/packages/toolchain-rp2040-earlephilhower/arm-none-eabi/include/c++/14.2.0/bits/predefined_ops.h"
	.file 25 "C:/Users/andre/.platformio/packages/toolchain-rp2040-earlephilhower/arm-none-eabi/include/c++/14.2.0/ext/alloc_traits.h"
	.file 26 "C:/Users/andre/.platformio/packages/toolchain-rp2040-earlephilhower/arm-none-eabi/include/c++/14.2.0/ext/type_traits.h"
	.file 27 "C:/Users/andre/.platformio/packages/toolchain-rp2040-earlephilhower/lib/gcc/arm-none-eabi/14.2.0/include/stddef.h"
	.file 28 "C:/Users/andre/.platformio/packages/toolchain-rp2040-earlephilhower/arm-none-eabi/include/machine/_default_types.h"
	.file 29 "C:/Users/andre/.platformio/packages/toolchain-rp2040-earlephilhower/arm-none-eabi/include/math.h"
	.file 30 "C:/Users/andre/.platformio/packages/toolchain-rp2040-earlephilhower/arm-none-eabi/include/stdlib.h"
	.file 31 "C:/Users/andre/.platformio/packages/toolchain-rp2040-earlephilhower/arm-none-eabi/include/c++/14.2.0/math.h"
	.file 32 "C:/Users/andre/.platformio/packages/toolchain-rp2040-earlephilhower/arm-none-eabi/include/sys/_stdint.h"
	.file 33 "C:/Users/andre/.platformio/packages/toolchain-rp2040-earlephilhower/arm-none-eabi/include/c++/14.2.0/stdlib.h"
	.file 34 "lib/filter/src/filter.h"
	.file 35 "C:/Users/andre/.platformio/packages/toolchain-rp2040-earlephilhower/arm-none-eabi/include/string.h"
	.file 36 "C:/Users/andre/.platformio/packages/toolchain-rp2040-earlephilhower/arm-none-eabi/include/c++/14.2.0/new"
	.file 37 "C:/Users/andre/.platformio/packages/toolchain-rp2040-earlephilhower/arm-none-eabi/include/c++/14.2.0/bits/memory_resource.h"
	.section	.debug_info,"",%progbits
.Ldebug_info0:
	.4byte	0xd946
	.2byte	0x5
	.byte	0x1
	.byte	0x4
	.4byte	.Ldebug_abbrev0
	.uleb128 0x7d
	.4byte	.LASF1260
	.byte	0x21
	.4byte	.LASF1261
	.4byte	.LASF1262
	.4byte	.LLRL667
	.4byte	0
	.4byte	.Ldebug_line0
	.uleb128 0x2a
	.byte	0x8
	.byte	0x7
	.4byte	.LASF0
	.uleb128 0x2a
	.byte	0x4
	.byte	0x7
	.4byte	.LASF1
	.uleb128 0x2a
	.byte	0x4
	.byte	0x4
	.4byte	.LASF2
	.uleb128 0x7e
	.byte	0x4
	.byte	0x5
	.ascii	"int\000"
	.uleb128 0x7f
	.ascii	"std\000"
	.byte	0xf
	.2byte	0x134
	.byte	0xb
	.4byte	0x669d
	.uleb128 0x24
	.byte	0xc
	.2byte	0x825
	.byte	0xb
	.4byte	0x6f2a
	.uleb128 0x24
	.byte	0xc
	.2byte	0x826
	.byte	0xb
	.4byte	0x6f1e
	.uleb128 0x21
	.4byte	.LASF7
	.byte	0x1
	.byte	0xe
	.byte	0x57
	.byte	0xc
	.4byte	0xca
	.uleb128 0xf
	.4byte	.LASF9
	.byte	0xe
	.byte	0x5a
	.byte	0xd
	.4byte	0x66a4
	.uleb128 0x17
	.4byte	.LASF3
	.byte	0xe
	.byte	0x5c
	.byte	0x11
	.4byte	.LASF5
	.4byte	0x6e
	.4byte	0x92
	.4byte	0x98
	.uleb128 0x2
	.4byte	0x6ff6
	.byte	0
	.uleb128 0x17
	.4byte	.LASF4
	.byte	0xe
	.byte	0x5f
	.byte	0x1c
	.4byte	.LASF6
	.4byte	0x6e
	.4byte	0xb0
	.4byte	0xb6
	.uleb128 0x2
	.4byte	0x6ff6
	.byte	0
	.uleb128 0x8
	.ascii	"_Tp\000"
	.4byte	0x66a4
	.uleb128 0x6c
	.ascii	"__v\000"
	.4byte	0x66a4
	.byte	0x1
	.byte	0
	.uleb128 0xb
	.4byte	0x61
	.uleb128 0x21
	.4byte	.LASF8
	.byte	0x1
	.byte	0xe
	.byte	0x57
	.byte	0xc
	.4byte	0x138
	.uleb128 0xf
	.4byte	.LASF9
	.byte	0xe
	.byte	0x5a
	.byte	0xd
	.4byte	0x66a4
	.uleb128 0x17
	.4byte	.LASF10
	.byte	0xe
	.byte	0x5c
	.byte	0x11
	.4byte	.LASF11
	.4byte	0xdc
	.4byte	0x100
	.4byte	0x106
	.uleb128 0x2
	.4byte	0x6ffb
	.byte	0
	.uleb128 0x17
	.4byte	.LASF4
	.byte	0xe
	.byte	0x5f
	.byte	0x1c
	.4byte	.LASF12
	.4byte	0xdc
	.4byte	0x11e
	.4byte	0x124
	.uleb128 0x2
	.4byte	0x6ffb
	.byte	0
	.uleb128 0x8
	.ascii	"_Tp\000"
	.4byte	0x66a4
	.uleb128 0x6c
	.ascii	"__v\000"
	.4byte	0x66a4
	.byte	0
	.byte	0
	.uleb128 0xb
	.4byte	0xcf
	.uleb128 0xf
	.4byte	.LASF13
	.byte	0xe
	.byte	0x72
	.byte	0x9
	.4byte	0x149
	.uleb128 0xf
	.4byte	.LASF14
	.byte	0xe
	.byte	0x6b
	.byte	0xb
	.4byte	0xcf
	.uleb128 0x22
	.4byte	.LASF15
	.byte	0xf
	.2byte	0x136
	.byte	0x1a
	.4byte	0x2d
	.uleb128 0xb
	.4byte	0x155
	.uleb128 0x6d
	.4byte	.LASF16
	.2byte	0xb05
	.uleb128 0x6d
	.4byte	.LASF17
	.2byte	0xb5a
	.uleb128 0x80
	.4byte	.LASF1263
	.byte	0x1
	.byte	0x10
	.byte	0x5d
	.byte	0xa
	.uleb128 0x21
	.4byte	.LASF18
	.byte	0x1
	.byte	0x10
	.byte	0x63
	.byte	0xa
	.4byte	0x192
	.uleb128 0x2f
	.4byte	0x175
	.byte	0
	.uleb128 0x21
	.4byte	.LASF19
	.byte	0x1
	.byte	0x10
	.byte	0x67
	.byte	0xa
	.4byte	0x1a5
	.uleb128 0x2f
	.4byte	0x17f
	.byte	0
	.uleb128 0x21
	.4byte	.LASF20
	.byte	0x1
	.byte	0x10
	.byte	0x6b
	.byte	0xa
	.4byte	0x1b8
	.uleb128 0x2f
	.4byte	0x192
	.byte	0
	.uleb128 0x5d
	.4byte	.LASF21
	.byte	0x11
	.byte	0x32
	.byte	0xd
	.uleb128 0x39
	.4byte	.LASF22
	.byte	0x1
	.byte	0x3
	.2byte	0x189
	.byte	0xc
	.4byte	0x21a
	.uleb128 0x54
	.4byte	.LASF27
	.byte	0x3
	.2byte	0x19c
	.byte	0x2
	.4byte	.LASF29
	.4byte	0x1fc
	.uleb128 0x8
	.ascii	"_Tp\000"
	.4byte	0x7cef
	.uleb128 0x8
	.ascii	"_Up\000"
	.4byte	0x7cef
	.uleb128 0x1
	.4byte	0x7dd5
	.uleb128 0x1
	.4byte	0x7dd5
	.byte	0
	.uleb128 0x18
	.4byte	.LASF23
	.4byte	0x66a4
	.byte	0
	.uleb128 0x18
	.4byte	.LASF24
	.4byte	0x66a4
	.byte	0
	.uleb128 0xa
	.4byte	.LASF25
	.4byte	0x1a5
	.byte	0
	.uleb128 0x39
	.4byte	.LASF26
	.byte	0x1
	.byte	0x3
	.2byte	0x1a2
	.byte	0xc
	.4byte	0x274
	.uleb128 0x54
	.4byte	.LASF28
	.byte	0x3
	.2byte	0x1b5
	.byte	0x2
	.4byte	.LASF30
	.4byte	0x256
	.uleb128 0x8
	.ascii	"_Tp\000"
	.4byte	0x6e69
	.uleb128 0x8
	.ascii	"_Up\000"
	.4byte	0x6e69
	.uleb128 0x1
	.4byte	0x7cef
	.uleb128 0x1
	.4byte	0x7cef
	.byte	0
	.uleb128 0x18
	.4byte	.LASF23
	.4byte	0x66a4
	.byte	0x1
	.uleb128 0x18
	.4byte	.LASF24
	.4byte	0x66a4
	.byte	0
	.uleb128 0xa
	.4byte	.LASF25
	.4byte	0x1a5
	.byte	0
	.uleb128 0x36
	.ascii	"abs\000"
	.byte	0x12
	.byte	0x4f
	.4byte	.LASF31
	.4byte	0x6e7c
	.4byte	0x28d
	.uleb128 0x1
	.4byte	0x6e7c
	.byte	0
	.uleb128 0x36
	.ascii	"abs\000"
	.byte	0x12
	.byte	0x4b
	.4byte	.LASF32
	.4byte	0x34
	.4byte	0x2a6
	.uleb128 0x1
	.4byte	0x34
	.byte	0
	.uleb128 0x36
	.ascii	"abs\000"
	.byte	0x12
	.byte	0x47
	.4byte	.LASF33
	.4byte	0x6e83
	.4byte	0x2bf
	.uleb128 0x1
	.4byte	0x6e83
	.byte	0
	.uleb128 0x36
	.ascii	"abs\000"
	.byte	0x12
	.byte	0x3d
	.4byte	.LASF34
	.4byte	0x6e75
	.4byte	0x2d8
	.uleb128 0x1
	.4byte	0x6e75
	.byte	0
	.uleb128 0x36
	.ascii	"abs\000"
	.byte	0x12
	.byte	0x38
	.4byte	.LASF35
	.4byte	0x6e69
	.4byte	0x2f1
	.uleb128 0x1
	.4byte	0x6e69
	.byte	0
	.uleb128 0x26
	.4byte	.LASF36
	.byte	0xc
	.byte	0x61
	.byte	0x3
	.4byte	.LASF37
	.4byte	0x6e7c
	.4byte	0x30b
	.uleb128 0x1
	.4byte	0x6e7c
	.byte	0
	.uleb128 0x26
	.4byte	.LASF36
	.byte	0xc
	.byte	0x5d
	.byte	0x3
	.4byte	.LASF38
	.4byte	0x34
	.4byte	0x325
	.uleb128 0x1
	.4byte	0x34
	.byte	0
	.uleb128 0x26
	.4byte	.LASF39
	.byte	0xc
	.byte	0x74
	.byte	0x3
	.4byte	.LASF40
	.4byte	0x6e7c
	.4byte	0x33f
	.uleb128 0x1
	.4byte	0x6e7c
	.byte	0
	.uleb128 0x26
	.4byte	.LASF39
	.byte	0xc
	.byte	0x70
	.byte	0x3
	.4byte	.LASF41
	.4byte	0x34
	.4byte	0x359
	.uleb128 0x1
	.4byte	0x34
	.byte	0
	.uleb128 0x26
	.4byte	.LASF42
	.byte	0xc
	.byte	0x87
	.byte	0x3
	.4byte	.LASF43
	.4byte	0x6e7c
	.4byte	0x373
	.uleb128 0x1
	.4byte	0x6e7c
	.byte	0
	.uleb128 0x26
	.4byte	.LASF42
	.byte	0xc
	.byte	0x83
	.byte	0x3
	.4byte	.LASF44
	.4byte	0x34
	.4byte	0x38d
	.uleb128 0x1
	.4byte	0x34
	.byte	0
	.uleb128 0x26
	.4byte	.LASF45
	.byte	0xc
	.byte	0x9a
	.byte	0x3
	.4byte	.LASF46
	.4byte	0x6e7c
	.4byte	0x3ac
	.uleb128 0x1
	.4byte	0x6e7c
	.uleb128 0x1
	.4byte	0x6e7c
	.byte	0
	.uleb128 0x26
	.4byte	.LASF45
	.byte	0xc
	.byte	0x96
	.byte	0x3
	.4byte	.LASF47
	.4byte	0x34
	.4byte	0x3cb
	.uleb128 0x1
	.4byte	0x34
	.uleb128 0x1
	.4byte	0x34
	.byte	0
	.uleb128 0x36
	.ascii	"cos\000"
	.byte	0xc
	.byte	0xb9
	.4byte	.LASF48
	.4byte	0x6e7c
	.4byte	0x3e4
	.uleb128 0x1
	.4byte	0x6e7c
	.byte	0
	.uleb128 0x36
	.ascii	"cos\000"
	.byte	0xc
	.byte	0xb5
	.4byte	.LASF49
	.4byte	0x34
	.4byte	0x3fd
	.uleb128 0x1
	.4byte	0x34
	.byte	0
	.uleb128 0x30
	.ascii	"sin\000"
	.2byte	0x198
	.4byte	.LASF50
	.4byte	0x6e7c
	.4byte	0x416
	.uleb128 0x1
	.4byte	0x6e7c
	.byte	0
	.uleb128 0x30
	.ascii	"sin\000"
	.2byte	0x194
	.4byte	.LASF51
	.4byte	0x34
	.4byte	0x42f
	.uleb128 0x1
	.4byte	0x34
	.byte	0
	.uleb128 0x30
	.ascii	"tan\000"
	.2byte	0x1d1
	.4byte	.LASF52
	.4byte	0x6e7c
	.4byte	0x448
	.uleb128 0x1
	.4byte	0x6e7c
	.byte	0
	.uleb128 0x30
	.ascii	"tan\000"
	.2byte	0x1cd
	.4byte	.LASF53
	.4byte	0x34
	.4byte	0x461
	.uleb128 0x1
	.4byte	0x34
	.byte	0
	.uleb128 0x26
	.4byte	.LASF54
	.byte	0xc
	.byte	0xcc
	.byte	0x3
	.4byte	.LASF55
	.4byte	0x6e7c
	.4byte	0x47b
	.uleb128 0x1
	.4byte	0x6e7c
	.byte	0
	.uleb128 0x26
	.4byte	.LASF54
	.byte	0xc
	.byte	0xc8
	.byte	0x3
	.4byte	.LASF56
	.4byte	0x34
	.4byte	0x495
	.uleb128 0x1
	.4byte	0x34
	.byte	0
	.uleb128 0x6
	.4byte	.LASF57
	.byte	0xc
	.2byte	0x1ab
	.byte	0x3
	.4byte	.LASF58
	.4byte	0x6e7c
	.4byte	0x4b0
	.uleb128 0x1
	.4byte	0x6e7c
	.byte	0
	.uleb128 0x6
	.4byte	.LASF57
	.byte	0xc
	.2byte	0x1a7
	.byte	0x3
	.4byte	.LASF59
	.4byte	0x34
	.4byte	0x4cb
	.uleb128 0x1
	.4byte	0x34
	.byte	0
	.uleb128 0x6
	.4byte	.LASF60
	.byte	0xc
	.2byte	0x1e4
	.byte	0x3
	.4byte	.LASF61
	.4byte	0x6e7c
	.4byte	0x4e6
	.uleb128 0x1
	.4byte	0x6e7c
	.byte	0
	.uleb128 0x6
	.4byte	.LASF60
	.byte	0xc
	.2byte	0x1e0
	.byte	0x3
	.4byte	.LASF62
	.4byte	0x34
	.4byte	0x501
	.uleb128 0x1
	.4byte	0x34
	.byte	0
	.uleb128 0x36
	.ascii	"exp\000"
	.byte	0xc
	.byte	0xdf
	.4byte	.LASF63
	.4byte	0x6e7c
	.4byte	0x51a
	.uleb128 0x1
	.4byte	0x6e7c
	.byte	0
	.uleb128 0x36
	.ascii	"exp\000"
	.byte	0xc
	.byte	0xdb
	.4byte	.LASF64
	.4byte	0x34
	.4byte	0x533
	.uleb128 0x1
	.4byte	0x34
	.byte	0
	.uleb128 0x6
	.4byte	.LASF65
	.byte	0xc
	.2byte	0x124
	.byte	0x3
	.4byte	.LASF66
	.4byte	0x6e7c
	.4byte	0x553
	.uleb128 0x1
	.4byte	0x6e7c
	.uleb128 0x1
	.4byte	0x7114
	.byte	0
	.uleb128 0x6
	.4byte	.LASF65
	.byte	0xc
	.2byte	0x120
	.byte	0x3
	.4byte	.LASF67
	.4byte	0x34
	.4byte	0x573
	.uleb128 0x1
	.4byte	0x34
	.uleb128 0x1
	.4byte	0x7114
	.byte	0
	.uleb128 0x6
	.4byte	.LASF68
	.byte	0xc
	.2byte	0x137
	.byte	0x3
	.4byte	.LASF69
	.4byte	0x6e7c
	.4byte	0x593
	.uleb128 0x1
	.4byte	0x6e7c
	.uleb128 0x1
	.4byte	0x3b
	.byte	0
	.uleb128 0x6
	.4byte	.LASF68
	.byte	0xc
	.2byte	0x133
	.byte	0x3
	.4byte	.LASF70
	.4byte	0x34
	.4byte	0x5b3
	.uleb128 0x1
	.4byte	0x34
	.uleb128 0x1
	.4byte	0x3b
	.byte	0
	.uleb128 0x30
	.ascii	"log\000"
	.2byte	0x14a
	.4byte	.LASF71
	.4byte	0x6e7c
	.4byte	0x5cc
	.uleb128 0x1
	.4byte	0x6e7c
	.byte	0
	.uleb128 0x30
	.ascii	"log\000"
	.2byte	0x146
	.4byte	.LASF72
	.4byte	0x34
	.4byte	0x5e5
	.uleb128 0x1
	.4byte	0x34
	.byte	0
	.uleb128 0x6
	.4byte	.LASF73
	.byte	0xc
	.2byte	0x15d
	.byte	0x3
	.4byte	.LASF74
	.4byte	0x6e7c
	.4byte	0x600
	.uleb128 0x1
	.4byte	0x6e7c
	.byte	0
	.uleb128 0x6
	.4byte	.LASF73
	.byte	0xc
	.2byte	0x159
	.byte	0x3
	.4byte	.LASF75
	.4byte	0x34
	.4byte	0x61b
	.uleb128 0x1
	.4byte	0x34
	.byte	0
	.uleb128 0x6
	.4byte	.LASF76
	.byte	0xc
	.2byte	0x170
	.byte	0x3
	.4byte	.LASF77
	.4byte	0x6e7c
	.4byte	0x63b
	.uleb128 0x1
	.4byte	0x6e7c
	.uleb128 0x1
	.4byte	0x7159
	.byte	0
	.uleb128 0x6
	.4byte	.LASF76
	.byte	0xc
	.2byte	0x16c
	.byte	0x3
	.4byte	.LASF78
	.4byte	0x34
	.4byte	0x65b
	.uleb128 0x1
	.4byte	0x34
	.uleb128 0x1
	.4byte	0x7166
	.byte	0
	.uleb128 0x30
	.ascii	"pow\000"
	.2byte	0x17c
	.4byte	.LASF79
	.4byte	0x6e7c
	.4byte	0x679
	.uleb128 0x1
	.4byte	0x6e7c
	.uleb128 0x1
	.4byte	0x6e7c
	.byte	0
	.uleb128 0x30
	.ascii	"pow\000"
	.2byte	0x178
	.4byte	.LASF80
	.4byte	0x34
	.4byte	0x697
	.uleb128 0x1
	.4byte	0x34
	.uleb128 0x1
	.4byte	0x34
	.byte	0
	.uleb128 0x6
	.4byte	.LASF81
	.byte	0xc
	.2byte	0x1be
	.byte	0x3
	.4byte	.LASF82
	.4byte	0x6e7c
	.4byte	0x6b2
	.uleb128 0x1
	.4byte	0x6e7c
	.byte	0
	.uleb128 0x6
	.4byte	.LASF81
	.byte	0xc
	.2byte	0x1ba
	.byte	0x3
	.4byte	.LASF83
	.4byte	0x34
	.4byte	0x6cd
	.uleb128 0x1
	.4byte	0x34
	.byte	0
	.uleb128 0x26
	.4byte	.LASF84
	.byte	0xc
	.byte	0xa6
	.byte	0x3
	.4byte	.LASF85
	.4byte	0x6e7c
	.4byte	0x6e7
	.uleb128 0x1
	.4byte	0x6e7c
	.byte	0
	.uleb128 0x26
	.4byte	.LASF84
	.byte	0xc
	.byte	0xa2
	.byte	0x3
	.4byte	.LASF86
	.4byte	0x34
	.4byte	0x701
	.uleb128 0x1
	.4byte	0x34
	.byte	0
	.uleb128 0x26
	.4byte	.LASF87
	.byte	0xc
	.byte	0xf2
	.byte	0x3
	.4byte	.LASF88
	.4byte	0x6e7c
	.4byte	0x71b
	.uleb128 0x1
	.4byte	0x6e7c
	.byte	0
	.uleb128 0x26
	.4byte	.LASF87
	.byte	0xc
	.byte	0xee
	.byte	0x3
	.4byte	.LASF89
	.4byte	0x34
	.4byte	0x735
	.uleb128 0x1
	.4byte	0x34
	.byte	0
	.uleb128 0x6
	.4byte	.LASF90
	.byte	0xc
	.2byte	0x105
	.byte	0x3
	.4byte	.LASF91
	.4byte	0x6e7c
	.4byte	0x750
	.uleb128 0x1
	.4byte	0x6e7c
	.byte	0
	.uleb128 0x6
	.4byte	.LASF90
	.byte	0xc
	.2byte	0x101
	.byte	0x3
	.4byte	.LASF92
	.4byte	0x34
	.4byte	0x76b
	.uleb128 0x1
	.4byte	0x34
	.byte	0
	.uleb128 0x6
	.4byte	.LASF93
	.byte	0xc
	.2byte	0x118
	.byte	0x3
	.4byte	.LASF94
	.4byte	0x6e7c
	.4byte	0x78b
	.uleb128 0x1
	.4byte	0x6e7c
	.uleb128 0x1
	.4byte	0x6e7c
	.byte	0
	.uleb128 0x6
	.4byte	.LASF93
	.byte	0xc
	.2byte	0x114
	.byte	0x3
	.4byte	.LASF95
	.4byte	0x34
	.4byte	0x7ab
	.uleb128 0x1
	.4byte	0x34
	.uleb128 0x1
	.4byte	0x34
	.byte	0
	.uleb128 0x6
	.4byte	.LASF96
	.byte	0xc
	.2byte	0x457
	.byte	0x3
	.4byte	.LASF97
	.4byte	0x3b
	.4byte	0x7c6
	.uleb128 0x1
	.4byte	0x6e7c
	.byte	0
	.uleb128 0x6
	.4byte	.LASF96
	.byte	0xc
	.2byte	0x452
	.byte	0x3
	.4byte	.LASF98
	.4byte	0x3b
	.4byte	0x7e1
	.uleb128 0x1
	.4byte	0x6e83
	.byte	0
	.uleb128 0x6
	.4byte	.LASF96
	.byte	0xc
	.2byte	0x44d
	.byte	0x3
	.4byte	.LASF99
	.4byte	0x3b
	.4byte	0x7fc
	.uleb128 0x1
	.4byte	0x34
	.byte	0
	.uleb128 0x6
	.4byte	.LASF100
	.byte	0xc
	.2byte	0x46e
	.byte	0x3
	.4byte	.LASF101
	.4byte	0x66a4
	.4byte	0x817
	.uleb128 0x1
	.4byte	0x6e7c
	.byte	0
	.uleb128 0x6
	.4byte	.LASF100
	.byte	0xc
	.2byte	0x46a
	.byte	0x3
	.4byte	.LASF102
	.4byte	0x66a4
	.4byte	0x832
	.uleb128 0x1
	.4byte	0x6e83
	.byte	0
	.uleb128 0x6
	.4byte	.LASF100
	.byte	0xc
	.2byte	0x466
	.byte	0x3
	.4byte	.LASF103
	.4byte	0x66a4
	.4byte	0x84d
	.uleb128 0x1
	.4byte	0x34
	.byte	0
	.uleb128 0x6
	.4byte	.LASF104
	.byte	0xc
	.2byte	0x489
	.byte	0x3
	.4byte	.LASF105
	.4byte	0x66a4
	.4byte	0x868
	.uleb128 0x1
	.4byte	0x6e7c
	.byte	0
	.uleb128 0x6
	.4byte	.LASF104
	.byte	0xc
	.2byte	0x484
	.byte	0x3
	.4byte	.LASF106
	.4byte	0x66a4
	.4byte	0x883
	.uleb128 0x1
	.4byte	0x6e83
	.byte	0
	.uleb128 0x6
	.4byte	.LASF104
	.byte	0xc
	.2byte	0x47c
	.byte	0x3
	.4byte	.LASF107
	.4byte	0x66a4
	.4byte	0x89e
	.uleb128 0x1
	.4byte	0x34
	.byte	0
	.uleb128 0x6
	.4byte	.LASF108
	.byte	0xc
	.2byte	0x4a4
	.byte	0x3
	.4byte	.LASF109
	.4byte	0x66a4
	.4byte	0x8b9
	.uleb128 0x1
	.4byte	0x6e7c
	.byte	0
	.uleb128 0x6
	.4byte	.LASF108
	.byte	0xc
	.2byte	0x49f
	.byte	0x3
	.4byte	.LASF110
	.4byte	0x66a4
	.4byte	0x8d4
	.uleb128 0x1
	.4byte	0x6e83
	.byte	0
	.uleb128 0x6
	.4byte	.LASF108
	.byte	0xc
	.2byte	0x497
	.byte	0x3
	.4byte	.LASF111
	.4byte	0x66a4
	.4byte	0x8ef
	.uleb128 0x1
	.4byte	0x34
	.byte	0
	.uleb128 0x6
	.4byte	.LASF112
	.byte	0xc
	.2byte	0x4ba
	.byte	0x3
	.4byte	.LASF113
	.4byte	0x66a4
	.4byte	0x90a
	.uleb128 0x1
	.4byte	0x6e7c
	.byte	0
	.uleb128 0x6
	.4byte	.LASF112
	.byte	0xc
	.2byte	0x4b6
	.byte	0x3
	.4byte	.LASF114
	.4byte	0x66a4
	.4byte	0x925
	.uleb128 0x1
	.4byte	0x6e83
	.byte	0
	.uleb128 0x6
	.4byte	.LASF112
	.byte	0xc
	.2byte	0x4b2
	.byte	0x3
	.4byte	.LASF115
	.4byte	0x66a4
	.4byte	0x940
	.uleb128 0x1
	.4byte	0x34
	.byte	0
	.uleb128 0x6
	.4byte	.LASF116
	.byte	0xc
	.2byte	0x4d1
	.byte	0x3
	.4byte	.LASF117
	.4byte	0x66a4
	.4byte	0x95b
	.uleb128 0x1
	.4byte	0x6e7c
	.byte	0
	.uleb128 0x6
	.4byte	.LASF116
	.byte	0xc
	.2byte	0x4cd
	.byte	0x3
	.4byte	.LASF118
	.4byte	0x66a4
	.4byte	0x976
	.uleb128 0x1
	.4byte	0x6e83
	.byte	0
	.uleb128 0x6
	.4byte	.LASF116
	.byte	0xc
	.2byte	0x4c9
	.byte	0x3
	.4byte	.LASF119
	.4byte	0x66a4
	.4byte	0x991
	.uleb128 0x1
	.4byte	0x34
	.byte	0
	.uleb128 0x6
	.4byte	.LASF120
	.byte	0xc
	.2byte	0x4e7
	.byte	0x3
	.4byte	.LASF121
	.4byte	0x66a4
	.4byte	0x9b1
	.uleb128 0x1
	.4byte	0x6e7c
	.uleb128 0x1
	.4byte	0x6e7c
	.byte	0
	.uleb128 0x6
	.4byte	.LASF120
	.byte	0xc
	.2byte	0x4e3
	.byte	0x3
	.4byte	.LASF122
	.4byte	0x66a4
	.4byte	0x9d1
	.uleb128 0x1
	.4byte	0x6e83
	.uleb128 0x1
	.4byte	0x6e83
	.byte	0
	.uleb128 0x6
	.4byte	.LASF120
	.byte	0xc
	.2byte	0x4df
	.byte	0x3
	.4byte	.LASF123
	.4byte	0x66a4
	.4byte	0x9f1
	.uleb128 0x1
	.4byte	0x34
	.uleb128 0x1
	.4byte	0x34
	.byte	0
	.uleb128 0x6
	.4byte	.LASF124
	.byte	0xc
	.2byte	0x501
	.byte	0x3
	.4byte	.LASF125
	.4byte	0x66a4
	.4byte	0xa11
	.uleb128 0x1
	.4byte	0x6e7c
	.uleb128 0x1
	.4byte	0x6e7c
	.byte	0
	.uleb128 0x6
	.4byte	.LASF124
	.byte	0xc
	.2byte	0x4fd
	.byte	0x3
	.4byte	.LASF126
	.4byte	0x66a4
	.4byte	0xa31
	.uleb128 0x1
	.4byte	0x6e83
	.uleb128 0x1
	.4byte	0x6e83
	.byte	0
	.uleb128 0x6
	.4byte	.LASF124
	.byte	0xc
	.2byte	0x4f9
	.byte	0x3
	.4byte	.LASF127
	.4byte	0x66a4
	.4byte	0xa51
	.uleb128 0x1
	.4byte	0x34
	.uleb128 0x1
	.4byte	0x34
	.byte	0
	.uleb128 0x6
	.4byte	.LASF128
	.byte	0xc
	.2byte	0x51b
	.byte	0x3
	.4byte	.LASF129
	.4byte	0x66a4
	.4byte	0xa71
	.uleb128 0x1
	.4byte	0x6e7c
	.uleb128 0x1
	.4byte	0x6e7c
	.byte	0
	.uleb128 0x6
	.4byte	.LASF128
	.byte	0xc
	.2byte	0x517
	.byte	0x3
	.4byte	.LASF130
	.4byte	0x66a4
	.4byte	0xa91
	.uleb128 0x1
	.4byte	0x6e83
	.uleb128 0x1
	.4byte	0x6e83
	.byte	0
	.uleb128 0x6
	.4byte	.LASF128
	.byte	0xc
	.2byte	0x513
	.byte	0x3
	.4byte	.LASF131
	.4byte	0x66a4
	.4byte	0xab1
	.uleb128 0x1
	.4byte	0x34
	.uleb128 0x1
	.4byte	0x34
	.byte	0
	.uleb128 0x6
	.4byte	.LASF132
	.byte	0xc
	.2byte	0x535
	.byte	0x3
	.4byte	.LASF133
	.4byte	0x66a4
	.4byte	0xad1
	.uleb128 0x1
	.4byte	0x6e7c
	.uleb128 0x1
	.4byte	0x6e7c
	.byte	0
	.uleb128 0x6
	.4byte	.LASF132
	.byte	0xc
	.2byte	0x531
	.byte	0x3
	.4byte	.LASF134
	.4byte	0x66a4
	.4byte	0xaf1
	.uleb128 0x1
	.4byte	0x6e83
	.uleb128 0x1
	.4byte	0x6e83
	.byte	0
	.uleb128 0x6
	.4byte	.LASF132
	.byte	0xc
	.2byte	0x52d
	.byte	0x3
	.4byte	.LASF135
	.4byte	0x66a4
	.4byte	0xb11
	.uleb128 0x1
	.4byte	0x34
	.uleb128 0x1
	.4byte	0x34
	.byte	0
	.uleb128 0x6
	.4byte	.LASF136
	.byte	0xc
	.2byte	0x54f
	.byte	0x3
	.4byte	.LASF137
	.4byte	0x66a4
	.4byte	0xb31
	.uleb128 0x1
	.4byte	0x6e7c
	.uleb128 0x1
	.4byte	0x6e7c
	.byte	0
	.uleb128 0x6
	.4byte	.LASF136
	.byte	0xc
	.2byte	0x54b
	.byte	0x3
	.4byte	.LASF138
	.4byte	0x66a4
	.4byte	0xb51
	.uleb128 0x1
	.4byte	0x6e83
	.uleb128 0x1
	.4byte	0x6e83
	.byte	0
	.uleb128 0x6
	.4byte	.LASF136
	.byte	0xc
	.2byte	0x547
	.byte	0x3
	.4byte	.LASF139
	.4byte	0x66a4
	.4byte	0xb71
	.uleb128 0x1
	.4byte	0x34
	.uleb128 0x1
	.4byte	0x34
	.byte	0
	.uleb128 0x6
	.4byte	.LASF140
	.byte	0xc
	.2byte	0x569
	.byte	0x3
	.4byte	.LASF141
	.4byte	0x66a4
	.4byte	0xb91
	.uleb128 0x1
	.4byte	0x6e7c
	.uleb128 0x1
	.4byte	0x6e7c
	.byte	0
	.uleb128 0x6
	.4byte	.LASF140
	.byte	0xc
	.2byte	0x565
	.byte	0x3
	.4byte	.LASF142
	.4byte	0x66a4
	.4byte	0xbb1
	.uleb128 0x1
	.4byte	0x6e83
	.uleb128 0x1
	.4byte	0x6e83
	.byte	0
	.uleb128 0x6
	.4byte	.LASF140
	.byte	0xc
	.2byte	0x561
	.byte	0x3
	.4byte	.LASF143
	.4byte	0x66a4
	.4byte	0xbd1
	.uleb128 0x1
	.4byte	0x34
	.uleb128 0x1
	.4byte	0x34
	.byte	0
	.uleb128 0x6
	.4byte	.LASF144
	.byte	0xc
	.2byte	0x8bf
	.byte	0x3
	.4byte	.LASF145
	.4byte	0x6e7c
	.4byte	0xbec
	.uleb128 0x1
	.4byte	0x6e7c
	.byte	0
	.uleb128 0x6
	.4byte	.LASF144
	.byte	0xc
	.2byte	0x8bb
	.byte	0x3
	.4byte	.LASF146
	.4byte	0x34
	.4byte	0xc07
	.uleb128 0x1
	.4byte	0x34
	.byte	0
	.uleb128 0x6
	.4byte	.LASF147
	.byte	0xc
	.2byte	0x8d1
	.byte	0x3
	.4byte	.LASF148
	.4byte	0x6e7c
	.4byte	0xc22
	.uleb128 0x1
	.4byte	0x6e7c
	.byte	0
	.uleb128 0x6
	.4byte	.LASF147
	.byte	0xc
	.2byte	0x8cd
	.byte	0x3
	.4byte	.LASF149
	.4byte	0x34
	.4byte	0xc3d
	.uleb128 0x1
	.4byte	0x34
	.byte	0
	.uleb128 0x6
	.4byte	.LASF150
	.byte	0xc
	.2byte	0x8e3
	.byte	0x3
	.4byte	.LASF151
	.4byte	0x6e7c
	.4byte	0xc58
	.uleb128 0x1
	.4byte	0x6e7c
	.byte	0
	.uleb128 0x6
	.4byte	.LASF150
	.byte	0xc
	.2byte	0x8df
	.byte	0x3
	.4byte	.LASF152
	.4byte	0x34
	.4byte	0xc73
	.uleb128 0x1
	.4byte	0x34
	.byte	0
	.uleb128 0x6
	.4byte	.LASF153
	.byte	0xc
	.2byte	0x8f5
	.byte	0x3
	.4byte	.LASF154
	.4byte	0x6e7c
	.4byte	0xc8e
	.uleb128 0x1
	.4byte	0x6e7c
	.byte	0
	.uleb128 0x6
	.4byte	.LASF153
	.byte	0xc
	.2byte	0x8f1
	.byte	0x3
	.4byte	.LASF155
	.4byte	0x34
	.4byte	0xca9
	.uleb128 0x1
	.4byte	0x34
	.byte	0
	.uleb128 0x6
	.4byte	.LASF156
	.byte	0xc
	.2byte	0x907
	.byte	0x3
	.4byte	.LASF157
	.4byte	0x6e7c
	.4byte	0xcc9
	.uleb128 0x1
	.4byte	0x6e7c
	.uleb128 0x1
	.4byte	0x6e7c
	.byte	0
	.uleb128 0x6
	.4byte	.LASF156
	.byte	0xc
	.2byte	0x903
	.byte	0x3
	.4byte	.LASF158
	.4byte	0x34
	.4byte	0xce9
	.uleb128 0x1
	.4byte	0x34
	.uleb128 0x1
	.4byte	0x34
	.byte	0
	.uleb128 0x30
	.ascii	"erf\000"
	.2byte	0x911
	.4byte	.LASF159
	.4byte	0x6e7c
	.4byte	0xd02
	.uleb128 0x1
	.4byte	0x6e7c
	.byte	0
	.uleb128 0x30
	.ascii	"erf\000"
	.2byte	0x90d
	.4byte	.LASF160
	.4byte	0x34
	.4byte	0xd1b
	.uleb128 0x1
	.4byte	0x34
	.byte	0
	.uleb128 0x6
	.4byte	.LASF161
	.byte	0xc
	.2byte	0x923
	.byte	0x3
	.4byte	.LASF162
	.4byte	0x6e7c
	.4byte	0xd36
	.uleb128 0x1
	.4byte	0x6e7c
	.byte	0
	.uleb128 0x6
	.4byte	.LASF161
	.byte	0xc
	.2byte	0x91f
	.byte	0x3
	.4byte	.LASF163
	.4byte	0x34
	.4byte	0xd51
	.uleb128 0x1
	.4byte	0x34
	.byte	0
	.uleb128 0x6
	.4byte	.LASF164
	.byte	0xc
	.2byte	0x935
	.byte	0x3
	.4byte	.LASF165
	.4byte	0x6e7c
	.4byte	0xd6c
	.uleb128 0x1
	.4byte	0x6e7c
	.byte	0
	.uleb128 0x6
	.4byte	.LASF164
	.byte	0xc
	.2byte	0x931
	.byte	0x3
	.4byte	.LASF166
	.4byte	0x34
	.4byte	0xd87
	.uleb128 0x1
	.4byte	0x34
	.byte	0
	.uleb128 0x6
	.4byte	.LASF167
	.byte	0xc
	.2byte	0x947
	.byte	0x3
	.4byte	.LASF168
	.4byte	0x6e7c
	.4byte	0xda2
	.uleb128 0x1
	.4byte	0x6e7c
	.byte	0
	.uleb128 0x6
	.4byte	.LASF167
	.byte	0xc
	.2byte	0x943
	.byte	0x3
	.4byte	.LASF169
	.4byte	0x34
	.4byte	0xdbd
	.uleb128 0x1
	.4byte	0x34
	.byte	0
	.uleb128 0x6
	.4byte	.LASF170
	.byte	0xc
	.2byte	0x959
	.byte	0x3
	.4byte	.LASF171
	.4byte	0x6e7c
	.4byte	0xddd
	.uleb128 0x1
	.4byte	0x6e7c
	.uleb128 0x1
	.4byte	0x6e7c
	.byte	0
	.uleb128 0x6
	.4byte	.LASF170
	.byte	0xc
	.2byte	0x955
	.byte	0x3
	.4byte	.LASF172
	.4byte	0x34
	.4byte	0xdfd
	.uleb128 0x1
	.4byte	0x34
	.uleb128 0x1
	.4byte	0x34
	.byte	0
	.uleb128 0x30
	.ascii	"fma\000"
	.2byte	0x963
	.4byte	.LASF173
	.4byte	0x6e7c
	.4byte	0xe20
	.uleb128 0x1
	.4byte	0x6e7c
	.uleb128 0x1
	.4byte	0x6e7c
	.uleb128 0x1
	.4byte	0x6e7c
	.byte	0
	.uleb128 0x30
	.ascii	"fma\000"
	.2byte	0x95f
	.4byte	.LASF174
	.4byte	0x34
	.4byte	0xe43
	.uleb128 0x1
	.4byte	0x34
	.uleb128 0x1
	.4byte	0x34
	.uleb128 0x1
	.4byte	0x34
	.byte	0
	.uleb128 0x6
	.4byte	.LASF175
	.byte	0xc
	.2byte	0x96d
	.byte	0x3
	.4byte	.LASF176
	.4byte	0x6e7c
	.4byte	0xe63
	.uleb128 0x1
	.4byte	0x6e7c
	.uleb128 0x1
	.4byte	0x6e7c
	.byte	0
	.uleb128 0x6
	.4byte	.LASF175
	.byte	0xc
	.2byte	0x969
	.byte	0x3
	.4byte	.LASF177
	.4byte	0x34
	.4byte	0xe83
	.uleb128 0x1
	.4byte	0x34
	.uleb128 0x1
	.4byte	0x34
	.byte	0
	.uleb128 0x6
	.4byte	.LASF178
	.byte	0xc
	.2byte	0x977
	.byte	0x3
	.4byte	.LASF179
	.4byte	0x6e7c
	.4byte	0xea3
	.uleb128 0x1
	.4byte	0x6e7c
	.uleb128 0x1
	.4byte	0x6e7c
	.byte	0
	.uleb128 0x6
	.4byte	.LASF178
	.byte	0xc
	.2byte	0x973
	.byte	0x3
	.4byte	.LASF180
	.4byte	0x34
	.4byte	0xec3
	.uleb128 0x1
	.4byte	0x34
	.uleb128 0x1
	.4byte	0x34
	.byte	0
	.uleb128 0x6
	.4byte	.LASF181
	.byte	0xc
	.2byte	0xec0
	.byte	0x3
	.4byte	.LASF182
	.4byte	0x6e7c
	.4byte	0xee8
	.uleb128 0x1
	.4byte	0x6e7c
	.uleb128 0x1
	.4byte	0x6e7c
	.uleb128 0x1
	.4byte	0x6e7c
	.byte	0
	.uleb128 0x6
	.4byte	.LASF181
	.byte	0xc
	.2byte	0xebc
	.byte	0x3
	.4byte	.LASF183
	.4byte	0x6e83
	.4byte	0xf0d
	.uleb128 0x1
	.4byte	0x6e83
	.uleb128 0x1
	.4byte	0x6e83
	.uleb128 0x1
	.4byte	0x6e83
	.byte	0
	.uleb128 0x6
	.4byte	.LASF181
	.byte	0xc
	.2byte	0xeb8
	.byte	0x3
	.4byte	.LASF184
	.4byte	0x34
	.4byte	0xf32
	.uleb128 0x1
	.4byte	0x34
	.uleb128 0x1
	.4byte	0x34
	.uleb128 0x1
	.4byte	0x34
	.byte	0
	.uleb128 0x6
	.4byte	.LASF181
	.byte	0xc
	.2byte	0x981
	.byte	0x3
	.4byte	.LASF185
	.4byte	0x6e7c
	.4byte	0xf52
	.uleb128 0x1
	.4byte	0x6e7c
	.uleb128 0x1
	.4byte	0x6e7c
	.byte	0
	.uleb128 0x6
	.4byte	.LASF181
	.byte	0xc
	.2byte	0x97d
	.byte	0x3
	.4byte	.LASF186
	.4byte	0x34
	.4byte	0xf72
	.uleb128 0x1
	.4byte	0x34
	.uleb128 0x1
	.4byte	0x34
	.byte	0
	.uleb128 0x6
	.4byte	.LASF187
	.byte	0xc
	.2byte	0x98b
	.byte	0x3
	.4byte	.LASF188
	.4byte	0x3b
	.4byte	0xf8d
	.uleb128 0x1
	.4byte	0x6e7c
	.byte	0
	.uleb128 0x6
	.4byte	.LASF187
	.byte	0xc
	.2byte	0x987
	.byte	0x3
	.4byte	.LASF189
	.4byte	0x3b
	.4byte	0xfa8
	.uleb128 0x1
	.4byte	0x34
	.byte	0
	.uleb128 0x6
	.4byte	.LASF190
	.byte	0xc
	.2byte	0x99e
	.byte	0x3
	.4byte	.LASF191
	.4byte	0x6e7c
	.4byte	0xfc3
	.uleb128 0x1
	.4byte	0x6e7c
	.byte	0
	.uleb128 0x6
	.4byte	.LASF190
	.byte	0xc
	.2byte	0x99a
	.byte	0x3
	.4byte	.LASF192
	.4byte	0x34
	.4byte	0xfde
	.uleb128 0x1
	.4byte	0x34
	.byte	0
	.uleb128 0x6
	.4byte	.LASF193
	.byte	0xc
	.2byte	0x9b0
	.byte	0x3
	.4byte	.LASF194
	.4byte	0x6e75
	.4byte	0xff9
	.uleb128 0x1
	.4byte	0x6e7c
	.byte	0
	.uleb128 0x6
	.4byte	.LASF193
	.byte	0xc
	.2byte	0x9ac
	.byte	0x3
	.4byte	.LASF195
	.4byte	0x6e75
	.4byte	0x1014
	.uleb128 0x1
	.4byte	0x34
	.byte	0
	.uleb128 0x6
	.4byte	.LASF196
	.byte	0xc
	.2byte	0x9c2
	.byte	0x3
	.4byte	.LASF197
	.4byte	0x6e75
	.4byte	0x102f
	.uleb128 0x1
	.4byte	0x6e7c
	.byte	0
	.uleb128 0x6
	.4byte	.LASF196
	.byte	0xc
	.2byte	0x9be
	.byte	0x3
	.4byte	.LASF198
	.4byte	0x6e75
	.4byte	0x104a
	.uleb128 0x1
	.4byte	0x34
	.byte	0
	.uleb128 0x6
	.4byte	.LASF199
	.byte	0xc
	.2byte	0x9d4
	.byte	0x3
	.4byte	.LASF200
	.4byte	0x6e7c
	.4byte	0x1065
	.uleb128 0x1
	.4byte	0x6e7c
	.byte	0
	.uleb128 0x6
	.4byte	.LASF199
	.byte	0xc
	.2byte	0x9d0
	.byte	0x3
	.4byte	.LASF201
	.4byte	0x34
	.4byte	0x1080
	.uleb128 0x1
	.4byte	0x34
	.byte	0
	.uleb128 0x6
	.4byte	.LASF202
	.byte	0xc
	.2byte	0x9e7
	.byte	0x3
	.4byte	.LASF203
	.4byte	0x6e7c
	.4byte	0x109b
	.uleb128 0x1
	.4byte	0x6e7c
	.byte	0
	.uleb128 0x6
	.4byte	.LASF202
	.byte	0xc
	.2byte	0x9e3
	.byte	0x3
	.4byte	.LASF204
	.4byte	0x34
	.4byte	0x10b6
	.uleb128 0x1
	.4byte	0x34
	.byte	0
	.uleb128 0x6
	.4byte	.LASF205
	.byte	0xc
	.2byte	0x9f9
	.byte	0x3
	.4byte	.LASF206
	.4byte	0x6e7c
	.4byte	0x10d1
	.uleb128 0x1
	.4byte	0x6e7c
	.byte	0
	.uleb128 0x6
	.4byte	.LASF205
	.byte	0xc
	.2byte	0x9f5
	.byte	0x3
	.4byte	.LASF207
	.4byte	0x34
	.4byte	0x10ec
	.uleb128 0x1
	.4byte	0x34
	.byte	0
	.uleb128 0x6
	.4byte	.LASF208
	.byte	0xc
	.2byte	0xa0b
	.byte	0x3
	.4byte	.LASF209
	.4byte	0x6e69
	.4byte	0x1107
	.uleb128 0x1
	.4byte	0x6e7c
	.byte	0
	.uleb128 0x6
	.4byte	.LASF208
	.byte	0xc
	.2byte	0xa07
	.byte	0x3
	.4byte	.LASF210
	.4byte	0x6e69
	.4byte	0x1122
	.uleb128 0x1
	.4byte	0x34
	.byte	0
	.uleb128 0x6
	.4byte	.LASF211
	.byte	0xc
	.2byte	0xa1d
	.byte	0x3
	.4byte	.LASF212
	.4byte	0x6e69
	.4byte	0x113d
	.uleb128 0x1
	.4byte	0x6e7c
	.byte	0
	.uleb128 0x6
	.4byte	.LASF211
	.byte	0xc
	.2byte	0xa19
	.byte	0x3
	.4byte	.LASF213
	.4byte	0x6e69
	.4byte	0x1158
	.uleb128 0x1
	.4byte	0x34
	.byte	0
	.uleb128 0x6
	.4byte	.LASF214
	.byte	0xc
	.2byte	0xa2f
	.byte	0x3
	.4byte	.LASF215
	.4byte	0x6e7c
	.4byte	0x1173
	.uleb128 0x1
	.4byte	0x6e7c
	.byte	0
	.uleb128 0x6
	.4byte	.LASF214
	.byte	0xc
	.2byte	0xa2b
	.byte	0x3
	.4byte	.LASF216
	.4byte	0x34
	.4byte	0x118e
	.uleb128 0x1
	.4byte	0x34
	.byte	0
	.uleb128 0x6
	.4byte	.LASF217
	.byte	0xc
	.2byte	0xa41
	.byte	0x3
	.4byte	.LASF218
	.4byte	0x6e7c
	.4byte	0x11ae
	.uleb128 0x1
	.4byte	0x6e7c
	.uleb128 0x1
	.4byte	0x6e7c
	.byte	0
	.uleb128 0x6
	.4byte	.LASF217
	.byte	0xc
	.2byte	0xa3d
	.byte	0x3
	.4byte	.LASF219
	.4byte	0x34
	.4byte	0x11ce
	.uleb128 0x1
	.4byte	0x34
	.uleb128 0x1
	.4byte	0x34
	.byte	0
	.uleb128 0x6
	.4byte	.LASF220
	.byte	0xc
	.2byte	0xa4b
	.byte	0x3
	.4byte	.LASF221
	.4byte	0x6e7c
	.4byte	0x11ee
	.uleb128 0x1
	.4byte	0x6e7c
	.uleb128 0x1
	.4byte	0x6e7c
	.byte	0
	.uleb128 0x6
	.4byte	.LASF220
	.byte	0xc
	.2byte	0xa47
	.byte	0x3
	.4byte	.LASF222
	.4byte	0x34
	.4byte	0x120e
	.uleb128 0x1
	.4byte	0x34
	.uleb128 0x1
	.4byte	0x6e7c
	.byte	0
	.uleb128 0x6
	.4byte	.LASF223
	.byte	0xc
	.2byte	0xa5d
	.byte	0x3
	.4byte	.LASF224
	.4byte	0x6e7c
	.4byte	0x122e
	.uleb128 0x1
	.4byte	0x6e7c
	.uleb128 0x1
	.4byte	0x6e7c
	.byte	0
	.uleb128 0x6
	.4byte	.LASF223
	.byte	0xc
	.2byte	0xa59
	.byte	0x3
	.4byte	.LASF225
	.4byte	0x34
	.4byte	0x124e
	.uleb128 0x1
	.4byte	0x34
	.uleb128 0x1
	.4byte	0x34
	.byte	0
	.uleb128 0x6
	.4byte	.LASF226
	.byte	0xc
	.2byte	0xa67
	.byte	0x3
	.4byte	.LASF227
	.4byte	0x6e7c
	.4byte	0x1273
	.uleb128 0x1
	.4byte	0x6e7c
	.uleb128 0x1
	.4byte	0x6e7c
	.uleb128 0x1
	.4byte	0x7114
	.byte	0
	.uleb128 0x6
	.4byte	.LASF226
	.byte	0xc
	.2byte	0xa63
	.byte	0x3
	.4byte	.LASF228
	.4byte	0x34
	.4byte	0x1298
	.uleb128 0x1
	.4byte	0x34
	.uleb128 0x1
	.4byte	0x34
	.uleb128 0x1
	.4byte	0x7114
	.byte	0
	.uleb128 0x6
	.4byte	.LASF229
	.byte	0xc
	.2byte	0xa71
	.byte	0x3
	.4byte	.LASF230
	.4byte	0x6e7c
	.4byte	0x12b3
	.uleb128 0x1
	.4byte	0x6e7c
	.byte	0
	.uleb128 0x6
	.4byte	.LASF229
	.byte	0xc
	.2byte	0xa6d
	.byte	0x3
	.4byte	.LASF231
	.4byte	0x34
	.4byte	0x12ce
	.uleb128 0x1
	.4byte	0x34
	.byte	0
	.uleb128 0x6
	.4byte	.LASF232
	.byte	0xc
	.2byte	0xa83
	.byte	0x3
	.4byte	.LASF233
	.4byte	0x6e7c
	.4byte	0x12e9
	.uleb128 0x1
	.4byte	0x6e7c
	.byte	0
	.uleb128 0x6
	.4byte	.LASF232
	.byte	0xc
	.2byte	0xa7f
	.byte	0x3
	.4byte	.LASF234
	.4byte	0x34
	.4byte	0x1304
	.uleb128 0x1
	.4byte	0x34
	.byte	0
	.uleb128 0x6
	.4byte	.LASF235
	.byte	0xc
	.2byte	0xa95
	.byte	0x3
	.4byte	.LASF236
	.4byte	0x6e7c
	.4byte	0x1324
	.uleb128 0x1
	.4byte	0x6e7c
	.uleb128 0x1
	.4byte	0x6e69
	.byte	0
	.uleb128 0x6
	.4byte	.LASF235
	.byte	0xc
	.2byte	0xa91
	.byte	0x3
	.4byte	.LASF237
	.4byte	0x34
	.4byte	0x1344
	.uleb128 0x1
	.4byte	0x34
	.uleb128 0x1
	.4byte	0x6e69
	.byte	0
	.uleb128 0x6
	.4byte	.LASF238
	.byte	0xc
	.2byte	0xaa7
	.byte	0x3
	.4byte	.LASF239
	.4byte	0x6e7c
	.4byte	0x1364
	.uleb128 0x1
	.4byte	0x6e7c
	.uleb128 0x1
	.4byte	0x3b
	.byte	0
	.uleb128 0x6
	.4byte	.LASF238
	.byte	0xc
	.2byte	0xaa3
	.byte	0x3
	.4byte	.LASF240
	.4byte	0x34
	.4byte	0x1384
	.uleb128 0x1
	.4byte	0x34
	.uleb128 0x1
	.4byte	0x3b
	.byte	0
	.uleb128 0x6
	.4byte	.LASF241
	.byte	0xc
	.2byte	0xab9
	.byte	0x3
	.4byte	.LASF242
	.4byte	0x6e7c
	.4byte	0x139f
	.uleb128 0x1
	.4byte	0x6e7c
	.byte	0
	.uleb128 0x6
	.4byte	.LASF241
	.byte	0xc
	.2byte	0xab5
	.byte	0x3
	.4byte	.LASF243
	.4byte	0x34
	.4byte	0x13ba
	.uleb128 0x1
	.4byte	0x34
	.byte	0
	.uleb128 0x6
	.4byte	.LASF244
	.byte	0xc
	.2byte	0xacb
	.byte	0x3
	.4byte	.LASF245
	.4byte	0x6e7c
	.4byte	0x13d5
	.uleb128 0x1
	.4byte	0x6e7c
	.byte	0
	.uleb128 0x6
	.4byte	.LASF244
	.byte	0xc
	.2byte	0xac7
	.byte	0x3
	.4byte	.LASF246
	.4byte	0x34
	.4byte	0x13f0
	.uleb128 0x1
	.4byte	0x34
	.byte	0
	.uleb128 0x81
	.4byte	.LASF1264
	.byte	0x7
	.byte	0x4
	.4byte	0x2d
	.byte	0x24
	.byte	0x5e
	.byte	0xe
	.uleb128 0x22
	.4byte	.LASF247
	.byte	0xf
	.2byte	0x137
	.byte	0x1c
	.4byte	0x3b
	.uleb128 0xb
	.4byte	0x13ff
	.uleb128 0xf
	.4byte	.LASF248
	.byte	0xe
	.byte	0x6f
	.byte	0x9
	.4byte	0x141d
	.uleb128 0xf
	.4byte	.LASF14
	.byte	0xe
	.byte	0x6b
	.byte	0xb
	.4byte	0x61
	.uleb128 0x4
	.byte	0x13
	.byte	0x3d
	.byte	0xb
	.4byte	0x6ecb
	.uleb128 0x82
	.ascii	"pmr\000"
	.byte	0x25
	.byte	0x35
	.byte	0xb
	.uleb128 0x4
	.byte	0x14
	.byte	0x83
	.byte	0xb
	.4byte	0x6f5b
	.uleb128 0x4
	.byte	0x14
	.byte	0x84
	.byte	0xb
	.4byte	0x6f8c
	.uleb128 0x4
	.byte	0x14
	.byte	0x8a
	.byte	0xb
	.4byte	0x755e
	.uleb128 0x4
	.byte	0x14
	.byte	0x90
	.byte	0xb
	.4byte	0x7574
	.uleb128 0x4
	.byte	0x14
	.byte	0x91
	.byte	0xb
	.4byte	0x758a
	.uleb128 0x4
	.byte	0x14
	.byte	0x92
	.byte	0xb
	.4byte	0x75a0
	.uleb128 0x4
	.byte	0x14
	.byte	0x93
	.byte	0xb
	.4byte	0x75b6
	.uleb128 0x4
	.byte	0x14
	.byte	0x95
	.byte	0xb
	.4byte	0x75e0
	.uleb128 0x4
	.byte	0x14
	.byte	0x98
	.byte	0xb
	.4byte	0x75fc
	.uleb128 0x4
	.byte	0x14
	.byte	0x9a
	.byte	0xb
	.4byte	0x7612
	.uleb128 0x4
	.byte	0x14
	.byte	0x9d
	.byte	0xb
	.4byte	0x762d
	.uleb128 0x4
	.byte	0x14
	.byte	0x9e
	.byte	0xb
	.4byte	0x7648
	.uleb128 0x4
	.byte	0x14
	.byte	0x9f
	.byte	0xb
	.4byte	0x7668
	.uleb128 0x4
	.byte	0x14
	.byte	0xa1
	.byte	0xb
	.4byte	0x7688
	.uleb128 0x4
	.byte	0x14
	.byte	0xa7
	.byte	0xb
	.4byte	0x76a7
	.uleb128 0x4
	.byte	0x14
	.byte	0xa9
	.byte	0xb
	.4byte	0x76b4
	.uleb128 0x4
	.byte	0x14
	.byte	0xaa
	.byte	0xb
	.4byte	0x76c4
	.uleb128 0x4
	.byte	0x14
	.byte	0xab
	.byte	0xb
	.4byte	0x76e4
	.uleb128 0x4
	.byte	0x14
	.byte	0xac
	.byte	0xb
	.4byte	0x7704
	.uleb128 0x4
	.byte	0x14
	.byte	0xad
	.byte	0xb
	.4byte	0x7724
	.uleb128 0x4
	.byte	0x14
	.byte	0xaf
	.byte	0xb
	.4byte	0x773a
	.uleb128 0x4
	.byte	0x14
	.byte	0xb0
	.byte	0xb
	.4byte	0x775a
	.uleb128 0x4
	.byte	0x14
	.byte	0xf4
	.byte	0x16
	.4byte	0x6fbd
	.uleb128 0x4
	.byte	0x14
	.byte	0xf9
	.byte	0x16
	.4byte	0x66f9
	.uleb128 0x4
	.byte	0x14
	.byte	0xfa
	.byte	0x16
	.4byte	0x7775
	.uleb128 0x4
	.byte	0x14
	.byte	0xfc
	.byte	0x16
	.4byte	0x7790
	.uleb128 0x4
	.byte	0x14
	.byte	0xfd
	.byte	0x16
	.4byte	0x77e6
	.uleb128 0x4
	.byte	0x14
	.byte	0xfe
	.byte	0x16
	.4byte	0x77a6
	.uleb128 0x4
	.byte	0x14
	.byte	0xff
	.byte	0x16
	.4byte	0x77c6
	.uleb128 0x24
	.byte	0x14
	.2byte	0x100
	.byte	0x16
	.4byte	0x7801
	.uleb128 0x36
	.ascii	"div\000"
	.byte	0x14
	.byte	0xb5
	.4byte	.LASF249
	.4byte	0x6f8c
	.4byte	0x1549
	.uleb128 0x1
	.4byte	0x6e69
	.uleb128 0x1
	.4byte	0x6e69
	.byte	0
	.uleb128 0x48
	.4byte	.LASF273
	.byte	0x1
	.byte	0x5
	.byte	0x3f
	.4byte	0x173a
	.uleb128 0x16
	.4byte	.LASF250
	.byte	0x5
	.byte	0x58
	.byte	0x7
	.4byte	.LASF251
	.4byte	0x7cdb
	.byte	0x1
	.4byte	0x156e
	.4byte	0x1574
	.uleb128 0x2
	.4byte	0x7cdb
	.byte	0
	.uleb128 0x16
	.4byte	.LASF250
	.byte	0x5
	.byte	0x5c
	.byte	0x7
	.4byte	.LASF252
	.4byte	0x7cdb
	.byte	0x1
	.4byte	0x158d
	.4byte	0x1598
	.uleb128 0x2
	.4byte	0x7cdb
	.uleb128 0x1
	.4byte	0x7ce5
	.byte	0
	.uleb128 0x44
	.4byte	.LASF278
	.byte	0x5
	.byte	0x64
	.byte	0x18
	.4byte	.LASF279
	.4byte	0x7cea
	.4byte	0x15b0
	.4byte	0x15bb
	.uleb128 0x2
	.4byte	0x7cdb
	.uleb128 0x1
	.4byte	0x7ce5
	.byte	0
	.uleb128 0x16
	.4byte	.LASF253
	.byte	0x5
	.byte	0x68
	.byte	0x7
	.4byte	.LASF254
	.4byte	0x6efe
	.byte	0x1
	.4byte	0x15d4
	.4byte	0x15df
	.uleb128 0x2
	.4byte	0x7cdb
	.uleb128 0x2
	.4byte	0x3b
	.byte	0
	.uleb128 0x28
	.4byte	.LASF257
	.byte	0x5
	.byte	0x46
	.byte	0x1a
	.4byte	0x7cef
	.byte	0x1
	.uleb128 0x16
	.4byte	.LASF255
	.byte	0x5
	.byte	0x6b
	.byte	0x7
	.4byte	.LASF256
	.4byte	0x15df
	.byte	0x1
	.4byte	0x1605
	.4byte	0x1610
	.uleb128 0x2
	.4byte	0x7cf9
	.uleb128 0x1
	.4byte	0x1610
	.byte	0
	.uleb128 0x28
	.4byte	.LASF258
	.byte	0x5
	.byte	0x48
	.byte	0x1a
	.4byte	0x7d03
	.byte	0x1
	.uleb128 0x28
	.4byte	.LASF259
	.byte	0x5
	.byte	0x47
	.byte	0x1a
	.4byte	0x7d08
	.byte	0x1
	.uleb128 0x16
	.4byte	.LASF255
	.byte	0x5
	.byte	0x6f
	.byte	0x7
	.4byte	.LASF260
	.4byte	0x161d
	.byte	0x1
	.4byte	0x1643
	.4byte	0x164e
	.uleb128 0x2
	.4byte	0x7cf9
	.uleb128 0x1
	.4byte	0x164e
	.byte	0
	.uleb128 0x28
	.4byte	.LASF261
	.byte	0x5
	.byte	0x49
	.byte	0x1a
	.4byte	0x7d0d
	.byte	0x1
	.uleb128 0x16
	.4byte	.LASF262
	.byte	0x5
	.byte	0x7e
	.byte	0x7
	.4byte	.LASF263
	.4byte	0x7cef
	.byte	0x1
	.4byte	0x1674
	.4byte	0x1684
	.uleb128 0x2
	.4byte	0x7cdb
	.uleb128 0x1
	.4byte	0x1684
	.uleb128 0x1
	.4byte	0x6fef
	.byte	0
	.uleb128 0x28
	.4byte	.LASF264
	.byte	0x5
	.byte	0x43
	.byte	0x1f
	.4byte	0x155
	.byte	0x1
	.uleb128 0x3e
	.4byte	.LASF265
	.byte	0x5
	.byte	0x9c
	.byte	0x7
	.4byte	.LASF266
	.byte	0x1
	.4byte	0x16a6
	.4byte	0x16b6
	.uleb128 0x2
	.4byte	0x7cdb
	.uleb128 0x1
	.4byte	0x7cef
	.uleb128 0x1
	.4byte	0x1684
	.byte	0
	.uleb128 0x16
	.4byte	.LASF267
	.byte	0x5
	.byte	0xb6
	.byte	0x7
	.4byte	.LASF268
	.4byte	0x1684
	.byte	0x1
	.4byte	0x16cf
	.4byte	0x16d5
	.uleb128 0x2
	.4byte	0x7cf9
	.byte	0
	.uleb128 0x17
	.4byte	.LASF269
	.byte	0x5
	.byte	0xe6
	.byte	0x7
	.4byte	.LASF270
	.4byte	0x1684
	.4byte	0x16ed
	.4byte	0x16f3
	.uleb128 0x2
	.4byte	0x7cf9
	.byte	0
	.uleb128 0x3e
	.4byte	.LASF271
	.byte	0x5
	.byte	0xbd
	.byte	0x2
	.4byte	.LASF272
	.byte	0x1
	.4byte	0x1720
	.4byte	0x1730
	.uleb128 0x8
	.ascii	"_Up\000"
	.4byte	0x6e69
	.uleb128 0x31
	.4byte	.LASF293
	.4byte	0x1720
	.uleb128 0x32
	.4byte	0x6e69
	.byte	0
	.uleb128 0x2
	.4byte	0x7cdb
	.uleb128 0x1
	.4byte	0x7cef
	.uleb128 0x1
	.4byte	0x8027
	.byte	0
	.uleb128 0x8
	.ascii	"_Tp\000"
	.4byte	0x6e69
	.byte	0
	.uleb128 0xb
	.4byte	0x1549
	.uleb128 0x48
	.4byte	.LASF274
	.byte	0x1
	.byte	0x8
	.byte	0x80
	.4byte	0x17d6
	.uleb128 0x4c
	.4byte	0x1549
	.byte	0x1
	.uleb128 0x16
	.4byte	.LASF275
	.byte	0x8
	.byte	0xa1
	.byte	0x7
	.4byte	.LASF276
	.4byte	0x7d12
	.byte	0x1
	.4byte	0x176a
	.4byte	0x1770
	.uleb128 0x2
	.4byte	0x7d12
	.byte	0
	.uleb128 0x16
	.4byte	.LASF275
	.byte	0x8
	.byte	0xa5
	.byte	0x7
	.4byte	.LASF277
	.4byte	0x7d12
	.byte	0x1
	.4byte	0x1789
	.4byte	0x1794
	.uleb128 0x2
	.4byte	0x7d12
	.uleb128 0x1
	.4byte	0x7d17
	.byte	0
	.uleb128 0x44
	.4byte	.LASF278
	.byte	0x8
	.byte	0xaa
	.byte	0x12
	.4byte	.LASF280
	.4byte	0x7d1c
	.4byte	0x17ac
	.4byte	0x17b7
	.uleb128 0x2
	.4byte	0x7d12
	.uleb128 0x1
	.4byte	0x7d17
	.byte	0
	.uleb128 0x5e
	.4byte	.LASF281
	.byte	0xb6
	.byte	0x7
	.4byte	.LASF282
	.4byte	0x6efe
	.4byte	0x17ca
	.uleb128 0x2
	.4byte	0x7d12
	.uleb128 0x2
	.4byte	0x3b
	.byte	0
	.byte	0
	.uleb128 0xb
	.4byte	0x173f
	.uleb128 0x39
	.4byte	.LASF283
	.byte	0x1
	.byte	0x6
	.2byte	0x1a8
	.byte	0xc
	.4byte	0x191c
	.uleb128 0x22
	.4byte	.LASF257
	.byte	0x6
	.2byte	0x1b1
	.byte	0xd
	.4byte	0x7cef
	.uleb128 0x6
	.4byte	.LASF262
	.byte	0x6
	.2byte	0x1dd
	.byte	0x7
	.4byte	.LASF284
	.4byte	0x17e9
	.4byte	0x1816
	.uleb128 0x1
	.4byte	0x7d21
	.uleb128 0x1
	.4byte	0x1828
	.byte	0
	.uleb128 0x22
	.4byte	.LASF285
	.byte	0x6
	.2byte	0x1ab
	.byte	0xd
	.4byte	0x173f
	.uleb128 0xb
	.4byte	0x1816
	.uleb128 0x22
	.4byte	.LASF264
	.byte	0x6
	.2byte	0x1c0
	.byte	0xd
	.4byte	0x155
	.uleb128 0x6
	.4byte	.LASF262
	.byte	0x6
	.2byte	0x1ec
	.byte	0x7
	.4byte	.LASF286
	.4byte	0x17e9
	.4byte	0x185a
	.uleb128 0x1
	.4byte	0x7d21
	.uleb128 0x1
	.4byte	0x1828
	.uleb128 0x1
	.4byte	0x185a
	.byte	0
	.uleb128 0x22
	.4byte	.LASF287
	.byte	0x6
	.2byte	0x1ba
	.byte	0xd
	.4byte	0x6fef
	.uleb128 0x54
	.4byte	.LASF265
	.byte	0x6
	.2byte	0x200
	.byte	0x7
	.4byte	.LASF288
	.4byte	0x1888
	.uleb128 0x1
	.4byte	0x7d21
	.uleb128 0x1
	.4byte	0x17e9
	.uleb128 0x1
	.4byte	0x1828
	.byte	0
	.uleb128 0x6
	.4byte	.LASF267
	.byte	0x6
	.2byte	0x237
	.byte	0x7
	.4byte	.LASF289
	.4byte	0x1828
	.4byte	0x18a3
	.uleb128 0x1
	.4byte	0x7d26
	.byte	0
	.uleb128 0x6
	.4byte	.LASF290
	.byte	0x6
	.2byte	0x247
	.byte	0x7
	.4byte	.LASF291
	.4byte	0x1816
	.4byte	0x18be
	.uleb128 0x1
	.4byte	0x7d26
	.byte	0
	.uleb128 0x22
	.4byte	.LASF9
	.byte	0x6
	.2byte	0x1ae
	.byte	0xd
	.4byte	0x6e69
	.uleb128 0x22
	.4byte	.LASF292
	.byte	0x6
	.2byte	0x1cf
	.byte	0x8
	.4byte	0x173f
	.uleb128 0x22
	.4byte	.LASF292
	.byte	0x6
	.2byte	0x1cf
	.byte	0x8
	.4byte	0x2a16
	.uleb128 0x83
	.4byte	.LASF271
	.byte	0x6
	.2byte	0x211
	.byte	0x2
	.4byte	.LASF1265
	.uleb128 0x8
	.ascii	"_Up\000"
	.4byte	0x6e69
	.uleb128 0x31
	.4byte	.LASF293
	.4byte	0x190b
	.uleb128 0x32
	.4byte	0x6e69
	.byte	0
	.uleb128 0x1
	.4byte	0x7d21
	.uleb128 0x1
	.4byte	0x7cef
	.uleb128 0x1
	.4byte	0x8027
	.byte	0
	.byte	0
	.uleb128 0x21
	.4byte	.LASF294
	.byte	0xc
	.byte	0x2
	.byte	0x54
	.byte	0xc
	.4byte	0x1d03
	.uleb128 0x21
	.4byte	.LASF295
	.byte	0xc
	.byte	0x2
	.byte	0x5b
	.byte	0xe
	.4byte	0x19d7
	.uleb128 0x20
	.4byte	.LASF296
	.byte	0x2
	.byte	0x5d
	.byte	0xa
	.4byte	0x19dc
	.byte	0
	.uleb128 0x20
	.4byte	.LASF297
	.byte	0x2
	.byte	0x5e
	.byte	0xa
	.4byte	0x19dc
	.byte	0x4
	.uleb128 0x20
	.4byte	.LASF298
	.byte	0x2
	.byte	0x5f
	.byte	0xa
	.4byte	0x19dc
	.byte	0x8
	.uleb128 0x17
	.4byte	.LASF295
	.byte	0x2
	.byte	0x62
	.byte	0x2
	.4byte	.LASF299
	.4byte	0x7d35
	.4byte	0x1975
	.4byte	0x197b
	.uleb128 0x2
	.4byte	0x7d35
	.byte	0
	.uleb128 0x17
	.4byte	.LASF295
	.byte	0x2
	.byte	0x68
	.byte	0x2
	.4byte	.LASF300
	.4byte	0x7d35
	.4byte	0x1993
	.4byte	0x199e
	.uleb128 0x2
	.4byte	0x7d35
	.uleb128 0x1
	.4byte	0x7d3a
	.byte	0
	.uleb128 0x5f
	.4byte	.LASF301
	.byte	0x2
	.byte	0x70
	.byte	0x2
	.4byte	.LASF302
	.4byte	0x19b2
	.4byte	0x19bd
	.uleb128 0x2
	.4byte	0x7d35
	.uleb128 0x1
	.4byte	0x7d3f
	.byte	0
	.uleb128 0x6e
	.4byte	.LASF303
	.byte	0x79
	.4byte	.LASF829
	.4byte	0x19cb
	.uleb128 0x2
	.4byte	0x7d35
	.uleb128 0x1
	.4byte	0x7d44
	.byte	0
	.byte	0
	.uleb128 0xb
	.4byte	0x1929
	.uleb128 0xf
	.4byte	.LASF257
	.byte	0x2
	.byte	0x59
	.byte	0x9
	.4byte	0x67df
	.uleb128 0x21
	.4byte	.LASF304
	.byte	0xc
	.byte	0x2
	.byte	0x84
	.byte	0xe
	.4byte	0x1aab
	.uleb128 0x2f
	.4byte	0x173f
	.uleb128 0x2f
	.4byte	0x1929
	.uleb128 0x17
	.4byte	.LASF304
	.byte	0x2
	.byte	0x88
	.byte	0x2
	.4byte	.LASF305
	.4byte	0x7d49
	.4byte	0x1a17
	.4byte	0x1a1d
	.uleb128 0x2
	.4byte	0x7d49
	.byte	0
	.uleb128 0x17
	.4byte	.LASF304
	.byte	0x2
	.byte	0x91
	.byte	0x2
	.4byte	.LASF306
	.4byte	0x7d49
	.4byte	0x1a35
	.4byte	0x1a40
	.uleb128 0x2
	.4byte	0x7d49
	.uleb128 0x1
	.4byte	0x7d4e
	.byte	0
	.uleb128 0x17
	.4byte	.LASF304
	.byte	0x2
	.byte	0x99
	.byte	0x2
	.4byte	.LASF307
	.4byte	0x7d49
	.4byte	0x1a58
	.4byte	0x1a63
	.uleb128 0x2
	.4byte	0x7d49
	.uleb128 0x1
	.4byte	0x7d53
	.byte	0
	.uleb128 0x17
	.4byte	.LASF304
	.byte	0x2
	.byte	0x9e
	.byte	0x2
	.4byte	.LASF308
	.4byte	0x7d49
	.4byte	0x1a7b
	.4byte	0x1a86
	.uleb128 0x2
	.4byte	0x7d49
	.uleb128 0x1
	.4byte	0x7d58
	.byte	0
	.uleb128 0x60
	.4byte	.LASF304
	.byte	0x2
	.byte	0xa3
	.byte	0x2
	.4byte	.LASF309
	.4byte	0x7d49
	.4byte	0x1a9a
	.uleb128 0x2
	.4byte	0x7d49
	.uleb128 0x1
	.4byte	0x7d58
	.uleb128 0x1
	.4byte	0x7d53
	.byte	0
	.byte	0
	.uleb128 0xf
	.4byte	.LASF310
	.byte	0x2
	.byte	0x57
	.byte	0x15
	.4byte	0x6810
	.uleb128 0xb
	.4byte	0x1aab
	.uleb128 0x1c
	.4byte	.LASF311
	.byte	0x2
	.2byte	0x12c
	.byte	0x7
	.4byte	.LASF312
	.4byte	0x7d5d
	.4byte	0x1ad5
	.4byte	0x1adb
	.uleb128 0x2
	.4byte	0x7d62
	.byte	0
	.uleb128 0x1c
	.4byte	.LASF311
	.byte	0x2
	.2byte	0x131
	.byte	0x7
	.4byte	.LASF313
	.4byte	0x7d4e
	.4byte	0x1af4
	.4byte	0x1afa
	.uleb128 0x2
	.4byte	0x7d6c
	.byte	0
	.uleb128 0x22
	.4byte	.LASF285
	.byte	0x2
	.2byte	0x128
	.byte	0x16
	.4byte	0x173f
	.uleb128 0xb
	.4byte	0x1afa
	.uleb128 0x1c
	.4byte	.LASF314
	.byte	0x2
	.2byte	0x136
	.byte	0x7
	.4byte	.LASF315
	.4byte	0x1afa
	.4byte	0x1b25
	.4byte	0x1b2b
	.uleb128 0x2
	.4byte	0x7d6c
	.byte	0
	.uleb128 0x49
	.4byte	.LASF316
	.byte	0x2
	.2byte	0x13a
	.byte	0x7
	.4byte	.LASF320
	.4byte	0x7d62
	.4byte	0x1b44
	.4byte	0x1b4a
	.uleb128 0x2
	.4byte	0x7d62
	.byte	0
	.uleb128 0x1c
	.4byte	.LASF316
	.byte	0x2
	.2byte	0x140
	.byte	0x7
	.4byte	.LASF317
	.4byte	0x7d62
	.4byte	0x1b63
	.4byte	0x1b6e
	.uleb128 0x2
	.4byte	0x7d62
	.uleb128 0x1
	.4byte	0x7d76
	.byte	0
	.uleb128 0x1c
	.4byte	.LASF316
	.byte	0x2
	.2byte	0x146
	.byte	0x7
	.4byte	.LASF318
	.4byte	0x7d62
	.4byte	0x1b87
	.4byte	0x1b92
	.uleb128 0x2
	.4byte	0x7d62
	.uleb128 0x1
	.4byte	0x155
	.byte	0
	.uleb128 0x1c
	.4byte	.LASF316
	.byte	0x2
	.2byte	0x14c
	.byte	0x7
	.4byte	.LASF319
	.4byte	0x7d62
	.4byte	0x1bab
	.4byte	0x1bbb
	.uleb128 0x2
	.4byte	0x7d62
	.uleb128 0x1
	.4byte	0x155
	.uleb128 0x1
	.4byte	0x7d76
	.byte	0
	.uleb128 0x49
	.4byte	.LASF316
	.byte	0x2
	.2byte	0x151
	.byte	0x7
	.4byte	.LASF321
	.4byte	0x7d62
	.4byte	0x1bd4
	.4byte	0x1bdf
	.uleb128 0x2
	.4byte	0x7d62
	.uleb128 0x1
	.4byte	0x7d7b
	.byte	0
	.uleb128 0x1c
	.4byte	.LASF316
	.byte	0x2
	.2byte	0x156
	.byte	0x7
	.4byte	.LASF322
	.4byte	0x7d62
	.4byte	0x1bf8
	.4byte	0x1c03
	.uleb128 0x2
	.4byte	0x7d62
	.uleb128 0x1
	.4byte	0x7d58
	.byte	0
	.uleb128 0x1c
	.4byte	.LASF316
	.byte	0x2
	.2byte	0x15a
	.byte	0x7
	.4byte	.LASF323
	.4byte	0x7d62
	.4byte	0x1c1c
	.4byte	0x1c2c
	.uleb128 0x2
	.4byte	0x7d62
	.uleb128 0x1
	.4byte	0x7d7b
	.uleb128 0x1
	.4byte	0x7d76
	.byte	0
	.uleb128 0x1c
	.4byte	.LASF316
	.byte	0x2
	.2byte	0x168
	.byte	0x7
	.4byte	.LASF324
	.4byte	0x7d62
	.4byte	0x1c45
	.4byte	0x1c55
	.uleb128 0x2
	.4byte	0x7d62
	.uleb128 0x1
	.4byte	0x7d76
	.uleb128 0x1
	.4byte	0x7d7b
	.byte	0
	.uleb128 0x1c
	.4byte	.LASF325
	.byte	0x2
	.2byte	0x16e
	.byte	0x7
	.4byte	.LASF326
	.4byte	0x6efe
	.4byte	0x1c6e
	.4byte	0x1c79
	.uleb128 0x2
	.4byte	0x7d62
	.uleb128 0x2
	.4byte	0x3b
	.byte	0
	.uleb128 0x3f
	.4byte	.LASF327
	.byte	0x2
	.2byte	0x175
	.byte	0x14
	.4byte	0x19e8
	.byte	0
	.uleb128 0x1c
	.4byte	.LASF328
	.byte	0x2
	.2byte	0x179
	.byte	0x7
	.4byte	.LASF329
	.4byte	0x19dc
	.4byte	0x1ca0
	.4byte	0x1cab
	.uleb128 0x2
	.4byte	0x7d62
	.uleb128 0x1
	.4byte	0x155
	.byte	0
	.uleb128 0x45
	.4byte	.LASF330
	.byte	0x2
	.2byte	0x181
	.4byte	.LASF331
	.4byte	0x1cbf
	.4byte	0x1ccf
	.uleb128 0x2
	.4byte	0x7d62
	.uleb128 0x1
	.4byte	0x19dc
	.uleb128 0x1
	.4byte	0x155
	.byte	0
	.uleb128 0xe
	.4byte	.LASF332
	.byte	0x2
	.2byte	0x18c
	.byte	0x7
	.4byte	.LASF333
	.byte	0x2
	.4byte	0x1ce5
	.4byte	0x1cf0
	.uleb128 0x2
	.4byte	0x7d62
	.uleb128 0x1
	.4byte	0x155
	.byte	0
	.uleb128 0x8
	.ascii	"_Tp\000"
	.4byte	0x6e69
	.uleb128 0xa
	.4byte	.LASF334
	.4byte	0x173f
	.byte	0
	.uleb128 0xb
	.4byte	0x191c
	.uleb128 0x21
	.4byte	.LASF335
	.byte	0x1
	.byte	0xe
	.byte	0xa1
	.byte	0xc
	.4byte	0x1d2b
	.uleb128 0xf
	.4byte	.LASF336
	.byte	0xe
	.byte	0xa2
	.byte	0xd
	.4byte	0x173f
	.uleb128 0xa
	.4byte	.LASF337
	.4byte	0x173f
	.byte	0
	.uleb128 0x4d
	.4byte	.LASF338
	.byte	0xc
	.byte	0x2
	.2byte	0x1ac
	.4byte	0x29f1
	.uleb128 0x24
	.byte	0x2
	.2byte	0x1ac
	.byte	0xb
	.4byte	0x1c87
	.uleb128 0x24
	.byte	0x2
	.2byte	0x1ac
	.byte	0xb
	.4byte	0x1cab
	.uleb128 0x24
	.byte	0x2
	.2byte	0x1ac
	.byte	0xb
	.4byte	0x1c79
	.uleb128 0x24
	.byte	0x2
	.2byte	0x1ac
	.byte	0xb
	.4byte	0x1adb
	.uleb128 0x24
	.byte	0x2
	.2byte	0x1ac
	.byte	0xb
	.4byte	0x1abc
	.uleb128 0x24
	.byte	0x2
	.2byte	0x1ac
	.byte	0xb
	.4byte	0x1b0c
	.uleb128 0x4c
	.4byte	0x191c
	.byte	0x2
	.uleb128 0x6
	.4byte	.LASF339
	.byte	0x2
	.2byte	0x1d6
	.byte	0x7
	.4byte	.LASF340
	.4byte	0x66a4
	.4byte	0x1d8f
	.uleb128 0x1
	.4byte	0x1411
	.byte	0
	.uleb128 0x6
	.4byte	.LASF339
	.byte	0x2
	.2byte	0x1df
	.byte	0x7
	.4byte	.LASF341
	.4byte	0x66a4
	.4byte	0x1daa
	.uleb128 0x1
	.4byte	0x13d
	.byte	0
	.uleb128 0x61
	.4byte	.LASF504
	.byte	0x2
	.2byte	0x1e3
	.byte	0x7
	.4byte	.LASF608
	.4byte	0x66a4
	.uleb128 0x1a
	.4byte	.LASF257
	.byte	0x2
	.2byte	0x1c6
	.byte	0x29
	.4byte	0x19dc
	.byte	0x1
	.uleb128 0x6
	.4byte	.LASF342
	.byte	0x2
	.2byte	0x1ec
	.byte	0x7
	.4byte	.LASF343
	.4byte	0x1dbb
	.4byte	0x1df8
	.uleb128 0x1
	.4byte	0x1dbb
	.uleb128 0x1
	.4byte	0x1dbb
	.uleb128 0x1
	.4byte	0x1dbb
	.uleb128 0x1
	.4byte	0x7d80
	.uleb128 0x1
	.4byte	0x1411
	.byte	0
	.uleb128 0x22
	.4byte	.LASF310
	.byte	0x2
	.2byte	0x1c1
	.byte	0x2f
	.4byte	0x1aab
	.uleb128 0xb
	.4byte	0x1df8
	.uleb128 0x6
	.4byte	.LASF342
	.byte	0x2
	.2byte	0x1f3
	.byte	0x7
	.4byte	.LASF344
	.4byte	0x1dbb
	.4byte	0x1e39
	.uleb128 0x1
	.4byte	0x1dbb
	.uleb128 0x1
	.4byte	0x1dbb
	.uleb128 0x1
	.4byte	0x1dbb
	.uleb128 0x1
	.4byte	0x7d80
	.uleb128 0x1
	.4byte	0x13d
	.byte	0
	.uleb128 0x6
	.4byte	.LASF345
	.byte	0x2
	.2byte	0x1f8
	.byte	0x7
	.4byte	.LASF346
	.4byte	0x1dbb
	.4byte	0x1e63
	.uleb128 0x1
	.4byte	0x1dbb
	.uleb128 0x1
	.4byte	0x1dbb
	.uleb128 0x1
	.4byte	0x1dbb
	.uleb128 0x1
	.4byte	0x7d80
	.byte	0
	.uleb128 0x4e
	.4byte	.LASF347
	.byte	0x2
	.2byte	0x213
	.4byte	.LASF348
	.4byte	0x7d85
	.4byte	0x1e7b
	.4byte	0x1e81
	.uleb128 0x2
	.4byte	0x7d85
	.byte	0
	.uleb128 0x46
	.4byte	.LASF347
	.byte	0x2
	.2byte	0x21e
	.4byte	.LASF349
	.4byte	0x7d85
	.4byte	0x1e99
	.4byte	0x1ea4
	.uleb128 0x2
	.4byte	0x7d85
	.uleb128 0x1
	.4byte	0x7d8f
	.byte	0
	.uleb128 0x1a
	.4byte	.LASF285
	.byte	0x2
	.2byte	0x1d1
	.byte	0x1a
	.4byte	0x173f
	.byte	0x1
	.uleb128 0xb
	.4byte	0x1ea4
	.uleb128 0x46
	.4byte	.LASF347
	.byte	0x2
	.2byte	0x22c
	.4byte	.LASF350
	.4byte	0x7d85
	.4byte	0x1ecf
	.4byte	0x1edf
	.uleb128 0x2
	.4byte	0x7d85
	.uleb128 0x1
	.4byte	0x1edf
	.uleb128 0x1
	.4byte	0x7d8f
	.byte	0
	.uleb128 0x1a
	.4byte	.LASF264
	.byte	0x2
	.2byte	0x1cf
	.byte	0x1a
	.4byte	0x155
	.byte	0x1
	.uleb128 0xb
	.4byte	0x1edf
	.uleb128 0x7
	.4byte	.LASF347
	.byte	0x2
	.2byte	0x239
	.byte	0x7
	.4byte	.LASF351
	.4byte	0x7d85
	.byte	0x1
	.4byte	0x1f0c
	.4byte	0x1f21
	.uleb128 0x2
	.4byte	0x7d85
	.uleb128 0x1
	.4byte	0x1edf
	.uleb128 0x1
	.4byte	0x7d94
	.uleb128 0x1
	.4byte	0x7d8f
	.byte	0
	.uleb128 0x1a
	.4byte	.LASF9
	.byte	0x2
	.2byte	0x1c5
	.byte	0x17
	.4byte	0x6e69
	.byte	0x1
	.uleb128 0xb
	.4byte	0x1f21
	.uleb128 0x7
	.4byte	.LASF347
	.byte	0x2
	.2byte	0x259
	.byte	0x7
	.4byte	.LASF352
	.4byte	0x7d85
	.byte	0x1
	.4byte	0x1f4e
	.4byte	0x1f59
	.uleb128 0x2
	.4byte	0x7d85
	.uleb128 0x1
	.4byte	0x7d99
	.byte	0
	.uleb128 0x4e
	.4byte	.LASF347
	.byte	0x2
	.2byte	0x26c
	.4byte	.LASF353
	.4byte	0x7d85
	.4byte	0x1f71
	.4byte	0x1f7c
	.uleb128 0x2
	.4byte	0x7d85
	.uleb128 0x1
	.4byte	0x7d9e
	.byte	0
	.uleb128 0x7
	.4byte	.LASF347
	.byte	0x2
	.2byte	0x270
	.byte	0x7
	.4byte	.LASF354
	.4byte	0x7d85
	.byte	0x1
	.4byte	0x1f96
	.4byte	0x1fa6
	.uleb128 0x2
	.4byte	0x7d85
	.uleb128 0x1
	.4byte	0x7d99
	.uleb128 0x1
	.4byte	0x7da3
	.byte	0
	.uleb128 0x1c
	.4byte	.LASF347
	.byte	0x2
	.2byte	0x27b
	.byte	0x7
	.4byte	.LASF355
	.4byte	0x7d85
	.4byte	0x1fbf
	.4byte	0x1fd4
	.uleb128 0x2
	.4byte	0x7d85
	.uleb128 0x1
	.4byte	0x7d9e
	.uleb128 0x1
	.4byte	0x7d8f
	.uleb128 0x1
	.4byte	0x1411
	.byte	0
	.uleb128 0x1c
	.4byte	.LASF347
	.byte	0x2
	.2byte	0x280
	.byte	0x7
	.4byte	.LASF356
	.4byte	0x7d85
	.4byte	0x1fed
	.4byte	0x2002
	.uleb128 0x2
	.4byte	0x7d85
	.uleb128 0x1
	.4byte	0x7d9e
	.uleb128 0x1
	.4byte	0x7d8f
	.uleb128 0x1
	.4byte	0x13d
	.byte	0
	.uleb128 0x7
	.4byte	.LASF347
	.byte	0x2
	.2byte	0x293
	.byte	0x7
	.4byte	.LASF357
	.4byte	0x7d85
	.byte	0x1
	.4byte	0x201c
	.4byte	0x202c
	.uleb128 0x2
	.4byte	0x7d85
	.uleb128 0x1
	.4byte	0x7d9e
	.uleb128 0x1
	.4byte	0x7da3
	.byte	0
	.uleb128 0x7
	.4byte	.LASF347
	.byte	0x2
	.2byte	0x2a6
	.byte	0x7
	.4byte	.LASF358
	.4byte	0x7d85
	.byte	0x1
	.4byte	0x2046
	.4byte	0x2056
	.uleb128 0x2
	.4byte	0x7d85
	.uleb128 0x1
	.4byte	0x2a07
	.uleb128 0x1
	.4byte	0x7d8f
	.byte	0
	.uleb128 0x7
	.4byte	.LASF359
	.byte	0x2
	.2byte	0x2dd
	.byte	0x7
	.4byte	.LASF360
	.4byte	0x6efe
	.byte	0x1
	.4byte	0x2070
	.4byte	0x207b
	.uleb128 0x2
	.4byte	0x7d85
	.uleb128 0x2
	.4byte	0x3b
	.byte	0
	.uleb128 0x16
	.4byte	.LASF278
	.byte	0x9
	.byte	0xd2
	.byte	0x5
	.4byte	.LASF361
	.4byte	0x7da8
	.byte	0x1
	.4byte	0x2094
	.4byte	0x209f
	.uleb128 0x2
	.4byte	0x7d85
	.uleb128 0x1
	.4byte	0x7d99
	.byte	0
	.uleb128 0x7
	.4byte	.LASF278
	.byte	0x2
	.2byte	0x2fe
	.byte	0x7
	.4byte	.LASF362
	.4byte	0x7da8
	.byte	0x1
	.4byte	0x20b9
	.4byte	0x20c4
	.uleb128 0x2
	.4byte	0x7d85
	.uleb128 0x1
	.4byte	0x7d9e
	.byte	0
	.uleb128 0x7
	.4byte	.LASF278
	.byte	0x2
	.2byte	0x314
	.byte	0x7
	.4byte	.LASF363
	.4byte	0x7da8
	.byte	0x1
	.4byte	0x20de
	.4byte	0x20e9
	.uleb128 0x2
	.4byte	0x7d85
	.uleb128 0x1
	.4byte	0x2a07
	.byte	0
	.uleb128 0xe
	.4byte	.LASF364
	.byte	0x2
	.2byte	0x328
	.byte	0x7
	.4byte	.LASF365
	.byte	0x1
	.4byte	0x20ff
	.4byte	0x210f
	.uleb128 0x2
	.4byte	0x7d85
	.uleb128 0x1
	.4byte	0x1edf
	.uleb128 0x1
	.4byte	0x7d94
	.byte	0
	.uleb128 0xe
	.4byte	.LASF364
	.byte	0x2
	.2byte	0x357
	.byte	0x7
	.4byte	.LASF366
	.byte	0x1
	.4byte	0x2125
	.4byte	0x2130
	.uleb128 0x2
	.4byte	0x7d85
	.uleb128 0x1
	.4byte	0x2a07
	.byte	0
	.uleb128 0x1a
	.4byte	.LASF367
	.byte	0x2
	.2byte	0x1ca
	.byte	0x3d
	.4byte	0x6853
	.byte	0x1
	.uleb128 0x7
	.4byte	.LASF368
	.byte	0x2
	.2byte	0x369
	.byte	0x7
	.4byte	.LASF369
	.4byte	0x2130
	.byte	0x1
	.4byte	0x2158
	.4byte	0x215e
	.uleb128 0x2
	.4byte	0x7d85
	.byte	0
	.uleb128 0x1a
	.4byte	.LASF370
	.byte	0x2
	.2byte	0x1cc
	.byte	0x7
	.4byte	0x6a95
	.byte	0x1
	.uleb128 0x7
	.4byte	.LASF368
	.byte	0x2
	.2byte	0x373
	.byte	0x7
	.4byte	.LASF371
	.4byte	0x215e
	.byte	0x1
	.4byte	0x2186
	.4byte	0x218c
	.uleb128 0x2
	.4byte	0x7dad
	.byte	0
	.uleb128 0x33
	.ascii	"end\000"
	.byte	0x2
	.2byte	0x37d
	.4byte	.LASF372
	.4byte	0x2130
	.4byte	0x21a4
	.4byte	0x21aa
	.uleb128 0x2
	.4byte	0x7d85
	.byte	0
	.uleb128 0x33
	.ascii	"end\000"
	.byte	0x2
	.2byte	0x387
	.4byte	.LASF373
	.4byte	0x215e
	.4byte	0x21c2
	.4byte	0x21c8
	.uleb128 0x2
	.4byte	0x7dad
	.byte	0
	.uleb128 0x1a
	.4byte	.LASF374
	.byte	0x2
	.2byte	0x1ce
	.byte	0x30
	.4byte	0x2a0c
	.byte	0x1
	.uleb128 0x7
	.4byte	.LASF375
	.byte	0x2
	.2byte	0x391
	.byte	0x7
	.4byte	.LASF376
	.4byte	0x21c8
	.byte	0x1
	.4byte	0x21f0
	.4byte	0x21f6
	.uleb128 0x2
	.4byte	0x7d85
	.byte	0
	.uleb128 0x1a
	.4byte	.LASF377
	.byte	0x2
	.2byte	0x1cd
	.byte	0x35
	.4byte	0x2a11
	.byte	0x1
	.uleb128 0x7
	.4byte	.LASF375
	.byte	0x2
	.2byte	0x39b
	.byte	0x7
	.4byte	.LASF378
	.4byte	0x21f6
	.byte	0x1
	.4byte	0x221e
	.4byte	0x2224
	.uleb128 0x2
	.4byte	0x7dad
	.byte	0
	.uleb128 0x7
	.4byte	.LASF379
	.byte	0x2
	.2byte	0x3a5
	.byte	0x7
	.4byte	.LASF380
	.4byte	0x21c8
	.byte	0x1
	.4byte	0x223e
	.4byte	0x2244
	.uleb128 0x2
	.4byte	0x7d85
	.byte	0
	.uleb128 0x7
	.4byte	.LASF379
	.byte	0x2
	.2byte	0x3af
	.byte	0x7
	.4byte	.LASF381
	.4byte	0x21f6
	.byte	0x1
	.4byte	0x225e
	.4byte	0x2264
	.uleb128 0x2
	.4byte	0x7dad
	.byte	0
	.uleb128 0x7
	.4byte	.LASF382
	.byte	0x2
	.2byte	0x3ba
	.byte	0x7
	.4byte	.LASF383
	.4byte	0x215e
	.byte	0x1
	.4byte	0x227e
	.4byte	0x2284
	.uleb128 0x2
	.4byte	0x7dad
	.byte	0
	.uleb128 0x7
	.4byte	.LASF384
	.byte	0x2
	.2byte	0x3c4
	.byte	0x7
	.4byte	.LASF385
	.4byte	0x215e
	.byte	0x1
	.4byte	0x229e
	.4byte	0x22a4
	.uleb128 0x2
	.4byte	0x7dad
	.byte	0
	.uleb128 0x7
	.4byte	.LASF386
	.byte	0x2
	.2byte	0x3ce
	.byte	0x7
	.4byte	.LASF387
	.4byte	0x21f6
	.byte	0x1
	.4byte	0x22be
	.4byte	0x22c4
	.uleb128 0x2
	.4byte	0x7dad
	.byte	0
	.uleb128 0x7
	.4byte	.LASF388
	.byte	0x2
	.2byte	0x3d8
	.byte	0x7
	.4byte	.LASF389
	.4byte	0x21f6
	.byte	0x1
	.4byte	0x22de
	.4byte	0x22e4
	.uleb128 0x2
	.4byte	0x7dad
	.byte	0
	.uleb128 0x7
	.4byte	.LASF390
	.byte	0x2
	.2byte	0x3e0
	.byte	0x7
	.4byte	.LASF391
	.4byte	0x1edf
	.byte	0x1
	.4byte	0x22fe
	.4byte	0x2304
	.uleb128 0x2
	.4byte	0x7dad
	.byte	0
	.uleb128 0x7
	.4byte	.LASF267
	.byte	0x2
	.2byte	0x3e6
	.byte	0x7
	.4byte	.LASF392
	.4byte	0x1edf
	.byte	0x1
	.4byte	0x231e
	.4byte	0x2324
	.uleb128 0x2
	.4byte	0x7dad
	.byte	0
	.uleb128 0xe
	.4byte	.LASF393
	.byte	0x2
	.2byte	0x3f5
	.byte	0x7
	.4byte	.LASF394
	.byte	0x1
	.4byte	0x233a
	.4byte	0x2345
	.uleb128 0x2
	.4byte	0x7d85
	.uleb128 0x1
	.4byte	0x1edf
	.byte	0
	.uleb128 0xe
	.4byte	.LASF393
	.byte	0x2
	.2byte	0x40a
	.byte	0x7
	.4byte	.LASF395
	.byte	0x1
	.4byte	0x235b
	.4byte	0x236b
	.uleb128 0x2
	.4byte	0x7d85
	.uleb128 0x1
	.4byte	0x1edf
	.uleb128 0x1
	.4byte	0x7d94
	.byte	0
	.uleb128 0xe
	.4byte	.LASF396
	.byte	0x2
	.2byte	0x42c
	.byte	0x7
	.4byte	.LASF397
	.byte	0x1
	.4byte	0x2381
	.4byte	0x2387
	.uleb128 0x2
	.4byte	0x7d85
	.byte	0
	.uleb128 0x7
	.4byte	.LASF398
	.byte	0x2
	.2byte	0x436
	.byte	0x7
	.4byte	.LASF399
	.4byte	0x1edf
	.byte	0x1
	.4byte	0x23a1
	.4byte	0x23a7
	.uleb128 0x2
	.4byte	0x7dad
	.byte	0
	.uleb128 0x7
	.4byte	.LASF400
	.byte	0x2
	.2byte	0x442
	.byte	0x7
	.4byte	.LASF401
	.4byte	0x66a4
	.byte	0x1
	.4byte	0x23c1
	.4byte	0x23c7
	.uleb128 0x2
	.4byte	0x7dad
	.byte	0
	.uleb128 0x3e
	.4byte	.LASF402
	.byte	0x9
	.byte	0x43
	.byte	0x5
	.4byte	.LASF403
	.byte	0x1
	.4byte	0x23dc
	.4byte	0x23e7
	.uleb128 0x2
	.4byte	0x7d85
	.uleb128 0x1
	.4byte	0x1edf
	.byte	0
	.uleb128 0x1a
	.4byte	.LASF258
	.byte	0x2
	.2byte	0x1c8
	.byte	0x32
	.4byte	0x67eb
	.byte	0x1
	.uleb128 0x7
	.4byte	.LASF404
	.byte	0x2
	.2byte	0x468
	.byte	0x7
	.4byte	.LASF405
	.4byte	0x23e7
	.byte	0x1
	.4byte	0x240f
	.4byte	0x241a
	.uleb128 0x2
	.4byte	0x7d85
	.uleb128 0x1
	.4byte	0x1edf
	.byte	0
	.uleb128 0x1a
	.4byte	.LASF261
	.byte	0x2
	.2byte	0x1c9
	.byte	0x37
	.4byte	0x67f7
	.byte	0x1
	.uleb128 0x7
	.4byte	.LASF404
	.byte	0x2
	.2byte	0x47b
	.byte	0x7
	.4byte	.LASF406
	.4byte	0x241a
	.byte	0x1
	.4byte	0x2442
	.4byte	0x244d
	.uleb128 0x2
	.4byte	0x7dad
	.uleb128 0x1
	.4byte	0x1edf
	.byte	0
	.uleb128 0xe
	.4byte	.LASF407
	.byte	0x2
	.2byte	0x485
	.byte	0x7
	.4byte	.LASF408
	.byte	0x2
	.4byte	0x2463
	.4byte	0x246e
	.uleb128 0x2
	.4byte	0x7dad
	.uleb128 0x1
	.4byte	0x1edf
	.byte	0
	.uleb128 0x33
	.ascii	"at\000"
	.byte	0x2
	.2byte	0x49c
	.4byte	.LASF409
	.4byte	0x23e7
	.4byte	0x2485
	.4byte	0x2490
	.uleb128 0x2
	.4byte	0x7d85
	.uleb128 0x1
	.4byte	0x1edf
	.byte	0
	.uleb128 0x33
	.ascii	"at\000"
	.byte	0x2
	.2byte	0x4af
	.4byte	.LASF410
	.4byte	0x241a
	.4byte	0x24a7
	.4byte	0x24b2
	.uleb128 0x2
	.4byte	0x7dad
	.uleb128 0x1
	.4byte	0x1edf
	.byte	0
	.uleb128 0x7
	.4byte	.LASF411
	.byte	0x2
	.2byte	0x4bb
	.byte	0x7
	.4byte	.LASF412
	.4byte	0x23e7
	.byte	0x1
	.4byte	0x24cc
	.4byte	0x24d2
	.uleb128 0x2
	.4byte	0x7d85
	.byte	0
	.uleb128 0x7
	.4byte	.LASF411
	.byte	0x2
	.2byte	0x4c7
	.byte	0x7
	.4byte	.LASF413
	.4byte	0x241a
	.byte	0x1
	.4byte	0x24ec
	.4byte	0x24f2
	.uleb128 0x2
	.4byte	0x7dad
	.byte	0
	.uleb128 0x7
	.4byte	.LASF414
	.byte	0x2
	.2byte	0x4d3
	.byte	0x7
	.4byte	.LASF415
	.4byte	0x23e7
	.byte	0x1
	.4byte	0x250c
	.4byte	0x2512
	.uleb128 0x2
	.4byte	0x7d85
	.byte	0
	.uleb128 0x7
	.4byte	.LASF414
	.byte	0x2
	.2byte	0x4df
	.byte	0x7
	.4byte	.LASF416
	.4byte	0x241a
	.byte	0x1
	.4byte	0x252c
	.4byte	0x2532
	.uleb128 0x2
	.4byte	0x7dad
	.byte	0
	.uleb128 0x7
	.4byte	.LASF417
	.byte	0x2
	.2byte	0x4ee
	.byte	0x7
	.4byte	.LASF418
	.4byte	0x7cef
	.byte	0x1
	.4byte	0x254c
	.4byte	0x2552
	.uleb128 0x2
	.4byte	0x7d85
	.byte	0
	.uleb128 0x7
	.4byte	.LASF417
	.byte	0x2
	.2byte	0x4f3
	.byte	0x7
	.4byte	.LASF419
	.4byte	0x7d08
	.byte	0x1
	.4byte	0x256c
	.4byte	0x2572
	.uleb128 0x2
	.4byte	0x7dad
	.byte	0
	.uleb128 0xe
	.4byte	.LASF420
	.byte	0x2
	.2byte	0x503
	.byte	0x7
	.4byte	.LASF421
	.byte	0x1
	.4byte	0x2588
	.4byte	0x2593
	.uleb128 0x2
	.4byte	0x7d85
	.uleb128 0x1
	.4byte	0x7d94
	.byte	0
	.uleb128 0xe
	.4byte	.LASF420
	.byte	0x2
	.2byte	0x514
	.byte	0x7
	.4byte	.LASF422
	.byte	0x1
	.4byte	0x25a9
	.4byte	0x25b4
	.uleb128 0x2
	.4byte	0x7d85
	.uleb128 0x1
	.4byte	0x7db7
	.byte	0
	.uleb128 0xe
	.4byte	.LASF423
	.byte	0x2
	.2byte	0x52c
	.byte	0x7
	.4byte	.LASF424
	.byte	0x1
	.4byte	0x25ca
	.4byte	0x25d0
	.uleb128 0x2
	.4byte	0x7d85
	.byte	0
	.uleb128 0x16
	.4byte	.LASF425
	.byte	0x9
	.byte	0x85
	.byte	0x5
	.4byte	.LASF426
	.4byte	0x2130
	.byte	0x1
	.4byte	0x25e9
	.4byte	0x25f9
	.uleb128 0x2
	.4byte	0x7d85
	.uleb128 0x1
	.4byte	0x215e
	.uleb128 0x1
	.4byte	0x7d94
	.byte	0
	.uleb128 0x7
	.4byte	.LASF425
	.byte	0x2
	.2byte	0x573
	.byte	0x7
	.4byte	.LASF427
	.4byte	0x2130
	.byte	0x1
	.4byte	0x2613
	.4byte	0x2623
	.uleb128 0x2
	.4byte	0x7d85
	.uleb128 0x1
	.4byte	0x215e
	.uleb128 0x1
	.4byte	0x7db7
	.byte	0
	.uleb128 0x7
	.4byte	.LASF425
	.byte	0x2
	.2byte	0x585
	.byte	0x7
	.4byte	.LASF428
	.4byte	0x2130
	.byte	0x1
	.4byte	0x263d
	.4byte	0x264d
	.uleb128 0x2
	.4byte	0x7d85
	.uleb128 0x1
	.4byte	0x215e
	.uleb128 0x1
	.4byte	0x2a07
	.byte	0
	.uleb128 0x7
	.4byte	.LASF425
	.byte	0x2
	.2byte	0x59f
	.byte	0x7
	.4byte	.LASF429
	.4byte	0x2130
	.byte	0x1
	.4byte	0x2667
	.4byte	0x267c
	.uleb128 0x2
	.4byte	0x7d85
	.uleb128 0x1
	.4byte	0x215e
	.uleb128 0x1
	.4byte	0x1edf
	.uleb128 0x1
	.4byte	0x7d94
	.byte	0
	.uleb128 0x7
	.4byte	.LASF430
	.byte	0x2
	.2byte	0x600
	.byte	0x7
	.4byte	.LASF431
	.4byte	0x2130
	.byte	0x1
	.4byte	0x2696
	.4byte	0x26a1
	.uleb128 0x2
	.4byte	0x7d85
	.uleb128 0x1
	.4byte	0x215e
	.byte	0
	.uleb128 0x7
	.4byte	.LASF430
	.byte	0x2
	.2byte	0x61c
	.byte	0x7
	.4byte	.LASF432
	.4byte	0x2130
	.byte	0x1
	.4byte	0x26bb
	.4byte	0x26cb
	.uleb128 0x2
	.4byte	0x7d85
	.uleb128 0x1
	.4byte	0x215e
	.uleb128 0x1
	.4byte	0x215e
	.byte	0
	.uleb128 0xe
	.4byte	.LASF433
	.byte	0x2
	.2byte	0x634
	.byte	0x7
	.4byte	.LASF434
	.byte	0x1
	.4byte	0x26e1
	.4byte	0x26ec
	.uleb128 0x2
	.4byte	0x7d85
	.uleb128 0x1
	.4byte	0x7da8
	.byte	0
	.uleb128 0xe
	.4byte	.LASF435
	.byte	0x2
	.2byte	0x647
	.byte	0x7
	.4byte	.LASF436
	.byte	0x1
	.4byte	0x2702
	.4byte	0x2708
	.uleb128 0x2
	.4byte	0x7d85
	.byte	0
	.uleb128 0xe
	.4byte	.LASF437
	.byte	0x2
	.2byte	0x6aa
	.byte	0x7
	.4byte	.LASF438
	.byte	0x2
	.4byte	0x271e
	.4byte	0x272e
	.uleb128 0x2
	.4byte	0x7d85
	.uleb128 0x1
	.4byte	0x1edf
	.uleb128 0x1
	.4byte	0x7d94
	.byte	0
	.uleb128 0xe
	.4byte	.LASF439
	.byte	0x2
	.2byte	0x6b5
	.byte	0x7
	.4byte	.LASF440
	.byte	0x2
	.4byte	0x2744
	.4byte	0x274f
	.uleb128 0x2
	.4byte	0x7d85
	.uleb128 0x1
	.4byte	0x1edf
	.byte	0
	.uleb128 0xe
	.4byte	.LASF441
	.byte	0x9
	.2byte	0x10e
	.byte	0x5
	.4byte	.LASF442
	.byte	0x2
	.4byte	0x2765
	.4byte	0x2775
	.uleb128 0x2
	.4byte	0x7d85
	.uleb128 0x1
	.4byte	0x155
	.uleb128 0x1
	.4byte	0x7d94
	.byte	0
	.uleb128 0xe
	.4byte	.LASF443
	.byte	0x9
	.2byte	0x2bc
	.byte	0x5
	.4byte	.LASF444
	.byte	0x2
	.4byte	0x278b
	.4byte	0x27a0
	.uleb128 0x2
	.4byte	0x7d85
	.uleb128 0x1
	.4byte	0x2130
	.uleb128 0x1
	.4byte	0x1edf
	.uleb128 0x1
	.4byte	0x7d94
	.byte	0
	.uleb128 0xe
	.4byte	.LASF445
	.byte	0x9
	.2byte	0x325
	.byte	0x5
	.4byte	.LASF446
	.byte	0x2
	.4byte	0x27b6
	.4byte	0x27c1
	.uleb128 0x2
	.4byte	0x7d85
	.uleb128 0x1
	.4byte	0x1edf
	.byte	0
	.uleb128 0x7
	.4byte	.LASF447
	.byte	0x9
	.2byte	0x396
	.byte	0x5
	.4byte	.LASF448
	.4byte	0x66a4
	.byte	0x2
	.4byte	0x27db
	.4byte	0x27e1
	.uleb128 0x2
	.4byte	0x7d85
	.byte	0
	.uleb128 0x7
	.4byte	.LASF449
	.byte	0x9
	.2byte	0x16b
	.byte	0x5
	.4byte	.LASF450
	.4byte	0x2130
	.byte	0x2
	.4byte	0x27fb
	.4byte	0x280b
	.uleb128 0x2
	.4byte	0x7d85
	.uleb128 0x1
	.4byte	0x215e
	.uleb128 0x1
	.4byte	0x7db7
	.byte	0
	.uleb128 0x7
	.4byte	.LASF451
	.byte	0x2
	.2byte	0x76b
	.byte	0x7
	.4byte	.LASF452
	.4byte	0x2130
	.byte	0x2
	.4byte	0x2825
	.4byte	0x2835
	.uleb128 0x2
	.4byte	0x7d85
	.uleb128 0x1
	.4byte	0x215e
	.uleb128 0x1
	.4byte	0x7db7
	.byte	0
	.uleb128 0x7
	.4byte	.LASF453
	.byte	0x2
	.2byte	0x772
	.byte	0x7
	.4byte	.LASF454
	.4byte	0x1edf
	.byte	0x2
	.4byte	0x284f
	.4byte	0x285f
	.uleb128 0x2
	.4byte	0x7dad
	.uleb128 0x1
	.4byte	0x1edf
	.uleb128 0x1
	.4byte	0x6f19
	.byte	0
	.uleb128 0x4f
	.4byte	.LASF455
	.byte	0x2
	.2byte	0x77d
	.4byte	.LASF456
	.4byte	0x1edf
	.4byte	0x287e
	.uleb128 0x1
	.4byte	0x1edf
	.uleb128 0x1
	.4byte	0x7d8f
	.byte	0
	.uleb128 0x4f
	.4byte	.LASF457
	.byte	0x2
	.2byte	0x786
	.4byte	.LASF458
	.4byte	0x1edf
	.4byte	0x2898
	.uleb128 0x1
	.4byte	0x7dbc
	.byte	0
	.uleb128 0xe
	.4byte	.LASF459
	.byte	0x2
	.2byte	0x797
	.byte	0x7
	.4byte	.LASF460
	.byte	0x2
	.4byte	0x28ae
	.4byte	0x28b9
	.uleb128 0x2
	.4byte	0x7d85
	.uleb128 0x1
	.4byte	0x1dbb
	.byte	0
	.uleb128 0x16
	.4byte	.LASF461
	.byte	0x9
	.byte	0xb5
	.byte	0x5
	.4byte	.LASF462
	.4byte	0x2130
	.byte	0x2
	.4byte	0x28d2
	.4byte	0x28dd
	.uleb128 0x2
	.4byte	0x7d85
	.uleb128 0x1
	.4byte	0x2130
	.byte	0
	.uleb128 0x16
	.4byte	.LASF461
	.byte	0x9
	.byte	0xc3
	.byte	0x5
	.4byte	.LASF463
	.4byte	0x2130
	.byte	0x2
	.4byte	0x28f6
	.4byte	0x2906
	.uleb128 0x2
	.4byte	0x7d85
	.uleb128 0x1
	.4byte	0x2130
	.uleb128 0x1
	.4byte	0x2130
	.byte	0
	.uleb128 0x45
	.4byte	.LASF464
	.byte	0x2
	.2byte	0x7b1
	.4byte	.LASF465
	.4byte	0x291a
	.4byte	0x292a
	.uleb128 0x2
	.4byte	0x7d85
	.uleb128 0x1
	.4byte	0x7d9e
	.uleb128 0x1
	.4byte	0x1411
	.byte	0
	.uleb128 0x45
	.4byte	.LASF464
	.byte	0x2
	.2byte	0x7bd
	.4byte	.LASF466
	.4byte	0x293e
	.4byte	0x294e
	.uleb128 0x2
	.4byte	0x7d85
	.uleb128 0x1
	.4byte	0x7d9e
	.uleb128 0x1
	.4byte	0x13d
	.byte	0
	.uleb128 0xe
	.4byte	.LASF467
	.byte	0x9
	.2byte	0x245
	.byte	0x7
	.4byte	.LASF468
	.byte	0x2
	.4byte	0x2973
	.4byte	0x297e
	.uleb128 0x31
	.4byte	.LASF293
	.4byte	0x2973
	.uleb128 0x32
	.4byte	0x6e69
	.byte	0
	.uleb128 0x2
	.4byte	0x7d85
	.uleb128 0x1
	.4byte	0x8027
	.byte	0
	.uleb128 0x1c
	.4byte	.LASF469
	.byte	0x2
	.2byte	0x7d0
	.byte	0x2
	.4byte	.LASF470
	.4byte	0x7cef
	.4byte	0x29a0
	.4byte	0x29ab
	.uleb128 0x8
	.ascii	"_Up\000"
	.4byte	0x6e69
	.uleb128 0x2
	.4byte	0x7dad
	.uleb128 0x1
	.4byte	0x7cef
	.byte	0
	.uleb128 0x16
	.4byte	.LASF471
	.byte	0x9
	.byte	0x6f
	.byte	0x7
	.4byte	.LASF472
	.4byte	0x23e7
	.byte	0x1
	.4byte	0x29d3
	.4byte	0x29de
	.uleb128 0x31
	.4byte	.LASF293
	.4byte	0x29d3
	.uleb128 0x32
	.4byte	0x6e69
	.byte	0
	.uleb128 0x2
	.4byte	0x7d85
	.uleb128 0x1
	.4byte	0x8027
	.byte	0
	.uleb128 0x8
	.ascii	"_Tp\000"
	.4byte	0x6e69
	.uleb128 0x62
	.4byte	.LASF334
	.4byte	0x173f
	.byte	0
	.uleb128 0xb
	.4byte	0x1d2b
	.uleb128 0xf
	.4byte	.LASF473
	.byte	0xe
	.byte	0xa5
	.byte	0xb
	.4byte	0x1d15
	.uleb128 0xb
	.4byte	0x29f6
	.uleb128 0x40
	.4byte	.LASF474
	.uleb128 0x40
	.4byte	.LASF475
	.uleb128 0x40
	.4byte	.LASF476
	.uleb128 0x48
	.4byte	.LASF477
	.byte	0x1
	.byte	0x8
	.byte	0x80
	.4byte	0x2ada
	.uleb128 0x4c
	.4byte	0x2adf
	.byte	0x1
	.uleb128 0x16
	.4byte	.LASF275
	.byte	0x8
	.byte	0xa1
	.byte	0x7
	.4byte	.LASF478
	.4byte	0x7df3
	.byte	0x1
	.4byte	0x2a41
	.4byte	0x2a47
	.uleb128 0x2
	.4byte	0x7df3
	.byte	0
	.uleb128 0x16
	.4byte	.LASF275
	.byte	0x8
	.byte	0xa5
	.byte	0x7
	.4byte	.LASF479
	.4byte	0x7df3
	.byte	0x1
	.4byte	0x2a60
	.4byte	0x2a6b
	.uleb128 0x2
	.4byte	0x7df3
	.uleb128 0x1
	.4byte	0x7dfd
	.byte	0
	.uleb128 0x44
	.4byte	.LASF278
	.byte	0x8
	.byte	0xaa
	.byte	0x12
	.4byte	.LASF480
	.4byte	0x7e02
	.4byte	0x2a83
	.4byte	0x2a8e
	.uleb128 0x2
	.4byte	0x7df3
	.uleb128 0x1
	.4byte	0x7dfd
	.byte	0
	.uleb128 0x16
	.4byte	.LASF281
	.byte	0x8
	.byte	0xb6
	.byte	0x7
	.4byte	.LASF481
	.4byte	0x6efe
	.byte	0x1
	.4byte	0x2aa7
	.4byte	0x2ab2
	.uleb128 0x2
	.4byte	0x7df3
	.uleb128 0x2
	.4byte	0x3b
	.byte	0
	.uleb128 0x5e
	.4byte	.LASF274
	.byte	0xb0
	.byte	0x2
	.4byte	.LASF482
	.4byte	0x7df3
	.4byte	0x2ace
	.uleb128 0xa
	.4byte	.LASF483
	.4byte	0x6e69
	.uleb128 0x2
	.4byte	0x7df3
	.uleb128 0x1
	.4byte	0x7d17
	.byte	0
	.byte	0
	.uleb128 0xb
	.4byte	0x2a16
	.uleb128 0x48
	.4byte	.LASF484
	.byte	0x1
	.byte	0x5
	.byte	0x3f
	.4byte	0x2c93
	.uleb128 0x16
	.4byte	.LASF250
	.byte	0x5
	.byte	0x58
	.byte	0x7
	.4byte	.LASF485
	.4byte	0x7dc1
	.byte	0x1
	.4byte	0x2b04
	.4byte	0x2b0a
	.uleb128 0x2
	.4byte	0x7dc1
	.byte	0
	.uleb128 0x16
	.4byte	.LASF250
	.byte	0x5
	.byte	0x5c
	.byte	0x7
	.4byte	.LASF486
	.4byte	0x7dc1
	.byte	0x1
	.4byte	0x2b23
	.4byte	0x2b2e
	.uleb128 0x2
	.4byte	0x7dc1
	.uleb128 0x1
	.4byte	0x7dcb
	.byte	0
	.uleb128 0x44
	.4byte	.LASF278
	.byte	0x5
	.byte	0x64
	.byte	0x18
	.4byte	.LASF487
	.4byte	0x7dd0
	.4byte	0x2b46
	.4byte	0x2b51
	.uleb128 0x2
	.4byte	0x7dc1
	.uleb128 0x1
	.4byte	0x7dcb
	.byte	0
	.uleb128 0x16
	.4byte	.LASF253
	.byte	0x5
	.byte	0x68
	.byte	0x7
	.4byte	.LASF488
	.4byte	0x6efe
	.byte	0x1
	.4byte	0x2b6a
	.4byte	0x2b75
	.uleb128 0x2
	.4byte	0x7dc1
	.uleb128 0x2
	.4byte	0x3b
	.byte	0
	.uleb128 0x28
	.4byte	.LASF257
	.byte	0x5
	.byte	0x46
	.byte	0x1a
	.4byte	0x7dd5
	.byte	0x1
	.uleb128 0x16
	.4byte	.LASF255
	.byte	0x5
	.byte	0x6b
	.byte	0x7
	.4byte	.LASF489
	.4byte	0x2b75
	.byte	0x1
	.4byte	0x2b9b
	.4byte	0x2ba6
	.uleb128 0x2
	.4byte	0x7ddf
	.uleb128 0x1
	.4byte	0x2ba6
	.byte	0
	.uleb128 0x28
	.4byte	.LASF258
	.byte	0x5
	.byte	0x48
	.byte	0x1a
	.4byte	0x7de4
	.byte	0x1
	.uleb128 0x28
	.4byte	.LASF259
	.byte	0x5
	.byte	0x47
	.byte	0x1a
	.4byte	0x7de9
	.byte	0x1
	.uleb128 0x16
	.4byte	.LASF255
	.byte	0x5
	.byte	0x6f
	.byte	0x7
	.4byte	.LASF490
	.4byte	0x2bb3
	.byte	0x1
	.4byte	0x2bd9
	.4byte	0x2be4
	.uleb128 0x2
	.4byte	0x7ddf
	.uleb128 0x1
	.4byte	0x2be4
	.byte	0
	.uleb128 0x28
	.4byte	.LASF261
	.byte	0x5
	.byte	0x49
	.byte	0x1a
	.4byte	0x7dee
	.byte	0x1
	.uleb128 0x16
	.4byte	.LASF262
	.byte	0x5
	.byte	0x7e
	.byte	0x7
	.4byte	.LASF491
	.4byte	0x7dd5
	.byte	0x1
	.4byte	0x2c0a
	.4byte	0x2c1a
	.uleb128 0x2
	.4byte	0x7dc1
	.uleb128 0x1
	.4byte	0x2c1a
	.uleb128 0x1
	.4byte	0x6fef
	.byte	0
	.uleb128 0x28
	.4byte	.LASF264
	.byte	0x5
	.byte	0x43
	.byte	0x1f
	.4byte	0x155
	.byte	0x1
	.uleb128 0x3e
	.4byte	.LASF265
	.byte	0x5
	.byte	0x9c
	.byte	0x7
	.4byte	.LASF492
	.byte	0x1
	.4byte	0x2c3c
	.4byte	0x2c4c
	.uleb128 0x2
	.4byte	0x7dc1
	.uleb128 0x1
	.4byte	0x7dd5
	.uleb128 0x1
	.4byte	0x2c1a
	.byte	0
	.uleb128 0x16
	.4byte	.LASF267
	.byte	0x5
	.byte	0xb6
	.byte	0x7
	.4byte	.LASF493
	.4byte	0x2c1a
	.byte	0x1
	.4byte	0x2c65
	.4byte	0x2c6b
	.uleb128 0x2
	.4byte	0x7ddf
	.byte	0
	.uleb128 0x17
	.4byte	.LASF269
	.byte	0x5
	.byte	0xe6
	.byte	0x7
	.4byte	.LASF494
	.4byte	0x2c1a
	.4byte	0x2c83
	.4byte	0x2c89
	.uleb128 0x2
	.4byte	0x7ddf
	.byte	0
	.uleb128 0x8
	.ascii	"_Tp\000"
	.4byte	0x7cef
	.byte	0
	.uleb128 0xb
	.4byte	0x2adf
	.uleb128 0x21
	.4byte	.LASF495
	.byte	0x1
	.byte	0x15
	.byte	0x7b
	.byte	0xc
	.4byte	0x2cea
	.uleb128 0xf
	.4byte	.LASF257
	.byte	0x15
	.byte	0x7d
	.byte	0xd
	.4byte	0x7cef
	.uleb128 0x26
	.4byte	.LASF496
	.byte	0x15
	.byte	0x86
	.byte	0x7
	.4byte	.LASF497
	.4byte	0x2ca5
	.4byte	0x2ccb
	.uleb128 0x1
	.4byte	0x7e07
	.byte	0
	.uleb128 0xf
	.4byte	.LASF498
	.byte	0x15
	.byte	0x7e
	.byte	0xd
	.4byte	0x6e69
	.uleb128 0xa
	.4byte	.LASF499
	.4byte	0x7cef
	.uleb128 0xa
	.4byte	.LASF500
	.4byte	0x6e69
	.byte	0
	.uleb128 0x21
	.4byte	.LASF501
	.byte	0x1
	.byte	0x15
	.byte	0xbb
	.byte	0xc
	.4byte	0x2d1e
	.uleb128 0x2f
	.4byte	0x2c98
	.uleb128 0xf
	.4byte	.LASF502
	.byte	0x15
	.byte	0xc4
	.byte	0x24
	.4byte	0x7cef
	.uleb128 0xf
	.4byte	.LASF502
	.byte	0x15
	.byte	0xc4
	.byte	0x24
	.4byte	0x7dd5
	.uleb128 0xa
	.4byte	.LASF499
	.4byte	0x7cef
	.byte	0
	.uleb128 0x21
	.4byte	.LASF503
	.byte	0x10
	.byte	0x4
	.byte	0x71
	.byte	0xc
	.4byte	0x2fe4
	.uleb128 0x34
	.4byte	.LASF505
	.byte	0x4
	.byte	0x83
	.byte	0x15
	.4byte	.LASF542
	.4byte	0x155
	.uleb128 0xf
	.4byte	.LASF506
	.byte	0x4
	.byte	0x7f
	.byte	0x2c
	.4byte	0x2fe9
	.uleb128 0x20
	.4byte	.LASF507
	.byte	0x4
	.byte	0x8e
	.byte	0x14
	.4byte	0x2d3b
	.byte	0
	.uleb128 0x20
	.4byte	.LASF508
	.byte	0x4
	.byte	0x8f
	.byte	0x14
	.4byte	0x2d3b
	.byte	0x4
	.uleb128 0x20
	.4byte	.LASF509
	.byte	0x4
	.byte	0x90
	.byte	0x14
	.4byte	0x2d3b
	.byte	0x8
	.uleb128 0xf
	.4byte	.LASF510
	.byte	0x4
	.byte	0x80
	.byte	0x34
	.4byte	0x2ff5
	.uleb128 0x20
	.4byte	.LASF511
	.byte	0x4
	.byte	0x91
	.byte	0x14
	.4byte	0x2d6e
	.byte	0xc
	.uleb128 0x17
	.4byte	.LASF512
	.byte	0x4
	.byte	0x93
	.byte	0x7
	.4byte	.LASF513
	.4byte	0x7e0c
	.4byte	0x2d9f
	.4byte	0x2daf
	.uleb128 0x2
	.4byte	0x7e0c
	.uleb128 0x1
	.4byte	0x2d3b
	.uleb128 0x1
	.4byte	0x2d6e
	.byte	0
	.uleb128 0x17
	.4byte	.LASF512
	.byte	0x4
	.byte	0x97
	.byte	0x7
	.4byte	.LASF514
	.4byte	0x7e0c
	.4byte	0x2dc7
	.4byte	0x2dcd
	.uleb128 0x2
	.4byte	0x7e0c
	.byte	0
	.uleb128 0x17
	.4byte	.LASF512
	.byte	0x4
	.byte	0xa8
	.byte	0x7
	.4byte	.LASF515
	.4byte	0x7e0c
	.4byte	0x2de5
	.4byte	0x2df0
	.uleb128 0x2
	.4byte	0x7e0c
	.uleb128 0x1
	.4byte	0x7e16
	.byte	0
	.uleb128 0x6f
	.4byte	.LASF278
	.byte	0xac
	.4byte	.LASF516
	.4byte	0x7e1b
	.4byte	0x2e06
	.4byte	0x2e11
	.uleb128 0x2
	.4byte	0x7e0c
	.uleb128 0x1
	.4byte	0x7e16
	.byte	0
	.uleb128 0xf
	.4byte	.LASF367
	.byte	0x4
	.byte	0x7d
	.byte	0x21
	.4byte	0x2e1d
	.uleb128 0x28
	.4byte	.LASF517
	.byte	0x4
	.byte	0x7b
	.byte	0x8
	.4byte	0x2d1e
	.byte	0x3
	.uleb128 0x17
	.4byte	.LASF518
	.byte	0x4
	.byte	0xb0
	.byte	0x7
	.4byte	.LASF519
	.4byte	0x2e11
	.4byte	0x2e42
	.4byte	0x2e48
	.uleb128 0x2
	.4byte	0x7e20
	.byte	0
	.uleb128 0xf
	.4byte	.LASF258
	.byte	0x4
	.byte	0x89
	.byte	0x17
	.4byte	0x7d03
	.uleb128 0x17
	.4byte	.LASF520
	.byte	0x4
	.byte	0xb5
	.byte	0x7
	.4byte	.LASF521
	.4byte	0x2e48
	.4byte	0x2e6c
	.4byte	0x2e72
	.uleb128 0x2
	.4byte	0x7e20
	.byte	0
	.uleb128 0xf
	.4byte	.LASF257
	.byte	0x4
	.byte	0x88
	.byte	0x17
	.4byte	0x7cef
	.uleb128 0x17
	.4byte	.LASF522
	.byte	0x4
	.byte	0xba
	.byte	0x7
	.4byte	.LASF523
	.4byte	0x2e72
	.4byte	0x2e96
	.4byte	0x2e9c
	.uleb128 0x2
	.4byte	0x7e20
	.byte	0
	.uleb128 0xf
	.4byte	.LASF524
	.byte	0x4
	.byte	0x8c
	.byte	0x21
	.4byte	0x2d1e
	.uleb128 0xb
	.4byte	0x2e9c
	.uleb128 0x17
	.4byte	.LASF525
	.byte	0x4
	.byte	0xbe
	.byte	0x7
	.4byte	.LASF526
	.4byte	0x7e2a
	.4byte	0x2ec5
	.4byte	0x2ecb
	.uleb128 0x2
	.4byte	0x7e0c
	.byte	0
	.uleb128 0x17
	.4byte	.LASF525
	.byte	0x4
	.byte	0xca
	.byte	0x7
	.4byte	.LASF527
	.4byte	0x2e9c
	.4byte	0x2ee3
	.4byte	0x2eee
	.uleb128 0x2
	.4byte	0x7e0c
	.uleb128 0x1
	.4byte	0x3b
	.byte	0
	.uleb128 0x17
	.4byte	.LASF528
	.byte	0x4
	.byte	0xd2
	.byte	0x7
	.4byte	.LASF529
	.4byte	0x7e2a
	.4byte	0x2f06
	.4byte	0x2f0c
	.uleb128 0x2
	.4byte	0x7e0c
	.byte	0
	.uleb128 0x17
	.4byte	.LASF528
	.byte	0x4
	.byte	0xde
	.byte	0x7
	.4byte	.LASF530
	.4byte	0x2e9c
	.4byte	0x2f24
	.4byte	0x2f2f
	.uleb128 0x2
	.4byte	0x7e0c
	.uleb128 0x1
	.4byte	0x3b
	.byte	0
	.uleb128 0x17
	.4byte	.LASF531
	.byte	0x4
	.byte	0xe6
	.byte	0x7
	.4byte	.LASF532
	.4byte	0x7e2a
	.4byte	0x2f47
	.4byte	0x2f52
	.uleb128 0x2
	.4byte	0x7e0c
	.uleb128 0x1
	.4byte	0x2f52
	.byte	0
	.uleb128 0xf
	.4byte	.LASF533
	.byte	0x4
	.byte	0x8b
	.byte	0x1c
	.4byte	0x13ff
	.uleb128 0xb
	.4byte	0x2f52
	.uleb128 0x17
	.4byte	.LASF534
	.byte	0x4
	.byte	0xf9
	.byte	0x7
	.4byte	.LASF535
	.4byte	0x7e2a
	.4byte	0x2f7b
	.4byte	0x2f86
	.uleb128 0x2
	.4byte	0x7e0c
	.uleb128 0x1
	.4byte	0x2f52
	.byte	0
	.uleb128 0x17
	.4byte	.LASF404
	.byte	0x4
	.byte	0xfe
	.byte	0x7
	.4byte	.LASF536
	.4byte	0x2e48
	.4byte	0x2f9e
	.4byte	0x2fa9
	.uleb128 0x2
	.4byte	0x7e20
	.uleb128 0x1
	.4byte	0x2f52
	.byte	0
	.uleb128 0x45
	.4byte	.LASF537
	.byte	0x4
	.2byte	0x107
	.4byte	.LASF538
	.4byte	0x2fbd
	.4byte	0x2fc8
	.uleb128 0x2
	.4byte	0x7e0c
	.uleb128 0x1
	.4byte	0x2d6e
	.byte	0
	.uleb128 0x8
	.ascii	"_Tp\000"
	.4byte	0x6e69
	.uleb128 0xa
	.4byte	.LASF539
	.4byte	0x7d03
	.uleb128 0xa
	.4byte	.LASF499
	.4byte	0x7cef
	.byte	0
	.uleb128 0xb
	.4byte	0x2d1e
	.uleb128 0xf
	.4byte	.LASF540
	.byte	0x15
	.byte	0xc9
	.byte	0xb
	.4byte	0x2cfc
	.uleb128 0xf
	.4byte	.LASF540
	.byte	0x15
	.byte	0xc9
	.byte	0xb
	.4byte	0x2d08
	.uleb128 0x21
	.4byte	.LASF541
	.byte	0x10
	.byte	0x4
	.byte	0x71
	.byte	0xc
	.4byte	0x32e9
	.uleb128 0x34
	.4byte	.LASF505
	.byte	0x4
	.byte	0x83
	.byte	0x15
	.4byte	.LASF543
	.4byte	0x155
	.uleb128 0xf
	.4byte	.LASF506
	.byte	0x4
	.byte	0x7f
	.byte	0x2c
	.4byte	0x5adc
	.uleb128 0x20
	.4byte	.LASF507
	.byte	0x4
	.byte	0x8e
	.byte	0x14
	.4byte	0x301e
	.byte	0
	.uleb128 0x20
	.4byte	.LASF508
	.byte	0x4
	.byte	0x8f
	.byte	0x14
	.4byte	0x301e
	.byte	0x4
	.uleb128 0x20
	.4byte	.LASF509
	.byte	0x4
	.byte	0x90
	.byte	0x14
	.4byte	0x301e
	.byte	0x8
	.uleb128 0xf
	.4byte	.LASF510
	.byte	0x4
	.byte	0x80
	.byte	0x34
	.4byte	0x5ae8
	.uleb128 0x20
	.4byte	.LASF511
	.byte	0x4
	.byte	0x91
	.byte	0x14
	.4byte	0x3051
	.byte	0xc
	.uleb128 0x17
	.4byte	.LASF512
	.byte	0x4
	.byte	0x93
	.byte	0x7
	.4byte	.LASF544
	.4byte	0x7fcd
	.4byte	0x3082
	.4byte	0x3092
	.uleb128 0x2
	.4byte	0x7fcd
	.uleb128 0x1
	.4byte	0x301e
	.uleb128 0x1
	.4byte	0x3051
	.byte	0
	.uleb128 0x17
	.4byte	.LASF512
	.byte	0x4
	.byte	0x97
	.byte	0x7
	.4byte	.LASF545
	.4byte	0x7fcd
	.4byte	0x30aa
	.4byte	0x30b0
	.uleb128 0x2
	.4byte	0x7fcd
	.byte	0
	.uleb128 0x17
	.4byte	.LASF512
	.byte	0x4
	.byte	0xa8
	.byte	0x7
	.4byte	.LASF546
	.4byte	0x7fcd
	.4byte	0x30c8
	.4byte	0x30d3
	.uleb128 0x2
	.4byte	0x7fcd
	.uleb128 0x1
	.4byte	0x7fd7
	.byte	0
	.uleb128 0x6f
	.4byte	.LASF278
	.byte	0xac
	.4byte	.LASF547
	.4byte	0x7fdc
	.4byte	0x30e9
	.4byte	0x30f4
	.uleb128 0x2
	.4byte	0x7fcd
	.uleb128 0x1
	.4byte	0x7fd7
	.byte	0
	.uleb128 0xf
	.4byte	.LASF367
	.byte	0x4
	.byte	0x7d
	.byte	0x21
	.4byte	0x3100
	.uleb128 0x28
	.4byte	.LASF517
	.byte	0x4
	.byte	0x7b
	.byte	0x8
	.4byte	0x2d1e
	.byte	0x3
	.uleb128 0x17
	.4byte	.LASF518
	.byte	0x4
	.byte	0xb0
	.byte	0x7
	.4byte	.LASF548
	.4byte	0x30f4
	.4byte	0x3125
	.4byte	0x312b
	.uleb128 0x2
	.4byte	0x7fe1
	.byte	0
	.uleb128 0xf
	.4byte	.LASF258
	.byte	0x4
	.byte	0x89
	.byte	0x17
	.4byte	0x7d0d
	.uleb128 0x17
	.4byte	.LASF520
	.byte	0x4
	.byte	0xb5
	.byte	0x7
	.4byte	.LASF549
	.4byte	0x312b
	.4byte	0x314f
	.4byte	0x3155
	.uleb128 0x2
	.4byte	0x7fe1
	.byte	0
	.uleb128 0xf
	.4byte	.LASF257
	.byte	0x4
	.byte	0x88
	.byte	0x17
	.4byte	0x7d08
	.uleb128 0x17
	.4byte	.LASF522
	.byte	0x4
	.byte	0xba
	.byte	0x7
	.4byte	.LASF550
	.4byte	0x3155
	.4byte	0x3179
	.4byte	0x317f
	.uleb128 0x2
	.4byte	0x7fe1
	.byte	0
	.uleb128 0xf
	.4byte	.LASF524
	.byte	0x4
	.byte	0x8c
	.byte	0x21
	.4byte	0x3001
	.uleb128 0x17
	.4byte	.LASF525
	.byte	0x4
	.byte	0xbe
	.byte	0x7
	.4byte	.LASF551
	.4byte	0x7feb
	.4byte	0x31a3
	.4byte	0x31a9
	.uleb128 0x2
	.4byte	0x7fcd
	.byte	0
	.uleb128 0x17
	.4byte	.LASF525
	.byte	0x4
	.byte	0xca
	.byte	0x7
	.4byte	.LASF552
	.4byte	0x317f
	.4byte	0x31c1
	.4byte	0x31cc
	.uleb128 0x2
	.4byte	0x7fcd
	.uleb128 0x1
	.4byte	0x3b
	.byte	0
	.uleb128 0x17
	.4byte	.LASF528
	.byte	0x4
	.byte	0xd2
	.byte	0x7
	.4byte	.LASF553
	.4byte	0x7feb
	.4byte	0x31e4
	.4byte	0x31ea
	.uleb128 0x2
	.4byte	0x7fcd
	.byte	0
	.uleb128 0x17
	.4byte	.LASF528
	.byte	0x4
	.byte	0xde
	.byte	0x7
	.4byte	.LASF554
	.4byte	0x317f
	.4byte	0x3202
	.4byte	0x320d
	.uleb128 0x2
	.4byte	0x7fcd
	.uleb128 0x1
	.4byte	0x3b
	.byte	0
	.uleb128 0x17
	.4byte	.LASF531
	.byte	0x4
	.byte	0xe6
	.byte	0x7
	.4byte	.LASF555
	.4byte	0x7feb
	.4byte	0x3225
	.4byte	0x3230
	.uleb128 0x2
	.4byte	0x7fcd
	.uleb128 0x1
	.4byte	0x3230
	.byte	0
	.uleb128 0xf
	.4byte	.LASF533
	.byte	0x4
	.byte	0x8b
	.byte	0x1c
	.4byte	0x13ff
	.uleb128 0x17
	.4byte	.LASF534
	.byte	0x4
	.byte	0xf9
	.byte	0x7
	.4byte	.LASF556
	.4byte	0x7feb
	.4byte	0x3254
	.4byte	0x325f
	.uleb128 0x2
	.4byte	0x7fcd
	.uleb128 0x1
	.4byte	0x3230
	.byte	0
	.uleb128 0x17
	.4byte	.LASF404
	.byte	0x4
	.byte	0xfe
	.byte	0x7
	.4byte	.LASF557
	.4byte	0x312b
	.4byte	0x3277
	.4byte	0x3282
	.uleb128 0x2
	.4byte	0x7fe1
	.uleb128 0x1
	.4byte	0x3230
	.byte	0
	.uleb128 0x45
	.4byte	.LASF537
	.byte	0x4
	.2byte	0x107
	.4byte	.LASF558
	.4byte	0x3296
	.4byte	0x32a1
	.uleb128 0x2
	.4byte	0x7fcd
	.uleb128 0x1
	.4byte	0x3051
	.byte	0
	.uleb128 0x17
	.4byte	.LASF559
	.byte	0x4
	.byte	0xa4
	.byte	0x8
	.4byte	.LASF560
	.4byte	0x7fcd
	.4byte	0x32c2
	.4byte	0x32cd
	.uleb128 0xa
	.4byte	.LASF561
	.4byte	0x2d1e
	.uleb128 0x2
	.4byte	0x7fcd
	.uleb128 0x1
	.4byte	0x7e16
	.byte	0
	.uleb128 0x8
	.ascii	"_Tp\000"
	.4byte	0x6e69
	.uleb128 0xa
	.4byte	.LASF539
	.4byte	0x7d0d
	.uleb128 0xa
	.4byte	.LASF499
	.4byte	0x7d08
	.byte	0
	.uleb128 0xb
	.4byte	0x3001
	.uleb128 0x4d
	.4byte	.LASF562
	.byte	0x28
	.byte	0x4
	.2byte	0x1ae
	.4byte	0x37ef
	.uleb128 0x70
	.4byte	.LASF565
	.2byte	0x1fd
	.4byte	0x33e7
	.uleb128 0x3f
	.4byte	.LASF563
	.byte	0x4
	.2byte	0x1ff
	.byte	0xf
	.4byte	0x33ec
	.byte	0
	.uleb128 0x3f
	.4byte	.LASF564
	.byte	0x4
	.2byte	0x200
	.byte	0x9
	.4byte	0x155
	.byte	0x4
	.uleb128 0x3f
	.4byte	.LASF296
	.byte	0x4
	.2byte	0x201
	.byte	0xb
	.4byte	0x33fa
	.byte	0x8
	.uleb128 0x3f
	.4byte	.LASF297
	.byte	0x4
	.2byte	0x202
	.byte	0xb
	.4byte	0x33fa
	.byte	0x18
	.uleb128 0x1c
	.4byte	.LASF565
	.byte	0x4
	.2byte	0x204
	.byte	0x2
	.4byte	.LASF566
	.4byte	0x7e2f
	.4byte	0x3357
	.4byte	0x335d
	.uleb128 0x2
	.4byte	0x7e2f
	.byte	0
	.uleb128 0x49
	.4byte	.LASF565
	.byte	0x4
	.2byte	0x209
	.byte	0x2
	.4byte	.LASF567
	.4byte	0x7e2f
	.4byte	0x3376
	.4byte	0x3381
	.uleb128 0x2
	.4byte	0x7e2f
	.uleb128 0x1
	.4byte	0x7e34
	.byte	0
	.uleb128 0x49
	.4byte	.LASF278
	.byte	0x4
	.2byte	0x20b
	.byte	0x2
	.4byte	.LASF568
	.4byte	0x7e39
	.4byte	0x339a
	.4byte	0x33a5
	.uleb128 0x2
	.4byte	0x7e2f
	.uleb128 0x1
	.4byte	0x7e34
	.byte	0
	.uleb128 0x1c
	.4byte	.LASF565
	.byte	0x4
	.2byte	0x20d
	.byte	0x2
	.4byte	.LASF569
	.4byte	0x7e2f
	.4byte	0x33be
	.4byte	0x33c9
	.uleb128 0x2
	.4byte	0x7e2f
	.uleb128 0x1
	.4byte	0x7e3e
	.byte	0
	.uleb128 0x84
	.4byte	.LASF303
	.byte	0x4
	.2byte	0x213
	.byte	0x2
	.4byte	.LASF570
	.4byte	0x33db
	.uleb128 0x2
	.4byte	0x7e2f
	.uleb128 0x1
	.4byte	0x7e39
	.byte	0
	.byte	0
	.uleb128 0xb
	.4byte	0x32fb
	.uleb128 0x1a
	.4byte	.LASF510
	.byte	0x4
	.2byte	0x1fb
	.byte	0x2f
	.4byte	0x2d6e
	.byte	0x2
	.uleb128 0x1a
	.4byte	.LASF367
	.byte	0x4
	.2byte	0x1c7
	.byte	0x32
	.4byte	0x2d1e
	.byte	0x2
	.uleb128 0x70
	.4byte	.LASF571
	.2byte	0x21e
	.4byte	0x34cf
	.uleb128 0x2f
	.4byte	0x173f
	.uleb128 0x2f
	.4byte	0x32fb
	.uleb128 0x1c
	.4byte	.LASF571
	.byte	0x4
	.2byte	0x221
	.byte	0x2
	.4byte	.LASF572
	.4byte	0x7e43
	.4byte	0x3436
	.4byte	0x343c
	.uleb128 0x2
	.4byte	0x7e43
	.byte	0
	.uleb128 0x1c
	.4byte	.LASF571
	.byte	0x4
	.2byte	0x226
	.byte	0x2
	.4byte	.LASF573
	.4byte	0x7e43
	.4byte	0x3455
	.4byte	0x3460
	.uleb128 0x2
	.4byte	0x7e43
	.uleb128 0x1
	.4byte	0x7e48
	.byte	0
	.uleb128 0x49
	.4byte	.LASF571
	.byte	0x4
	.2byte	0x22b
	.byte	0x2
	.4byte	.LASF574
	.4byte	0x7e43
	.4byte	0x3479
	.4byte	0x3484
	.uleb128 0x2
	.4byte	0x7e43
	.uleb128 0x1
	.4byte	0x7e4d
	.byte	0
	.uleb128 0x1c
	.4byte	.LASF571
	.byte	0x4
	.2byte	0x22d
	.byte	0x2
	.4byte	.LASF575
	.4byte	0x7e43
	.4byte	0x349d
	.4byte	0x34a8
	.uleb128 0x2
	.4byte	0x7e43
	.uleb128 0x1
	.4byte	0x7e52
	.byte	0
	.uleb128 0x85
	.4byte	.LASF571
	.byte	0x4
	.2byte	0x231
	.byte	0x2
	.4byte	.LASF576
	.4byte	0x7e43
	.4byte	0x34be
	.uleb128 0x2
	.4byte	0x7e43
	.uleb128 0x1
	.4byte	0x7e4d
	.uleb128 0x1
	.4byte	0x7e52
	.byte	0
	.byte	0
	.uleb128 0x1a
	.4byte	.LASF310
	.byte	0x4
	.2byte	0x1b2
	.byte	0x15
	.4byte	0x6810
	.byte	0x2
	.uleb128 0xb
	.4byte	0x34cf
	.uleb128 0x1a
	.4byte	.LASF285
	.byte	0x4
	.2byte	0x1c1
	.byte	0x19
	.4byte	0x173f
	.byte	0x2
	.uleb128 0xb
	.4byte	0x34e2
	.uleb128 0x7
	.4byte	.LASF314
	.byte	0x4
	.2byte	0x1c4
	.byte	0x7
	.4byte	.LASF577
	.4byte	0x34e2
	.byte	0x2
	.4byte	0x350f
	.4byte	0x3515
	.uleb128 0x2
	.4byte	0x7e57
	.byte	0
	.uleb128 0x7
	.4byte	.LASF578
	.byte	0x4
	.2byte	0x1ca
	.byte	0x7
	.4byte	.LASF579
	.4byte	0x7e61
	.byte	0x2
	.4byte	0x352f
	.4byte	0x3535
	.uleb128 0x2
	.4byte	0x7e61
	.byte	0
	.uleb128 0x7
	.4byte	.LASF578
	.byte	0x4
	.2byte	0x1ce
	.byte	0x7
	.4byte	.LASF580
	.4byte	0x7e61
	.byte	0x2
	.4byte	0x354f
	.4byte	0x355a
	.uleb128 0x2
	.4byte	0x7e61
	.uleb128 0x1
	.4byte	0x155
	.byte	0
	.uleb128 0x7
	.4byte	.LASF578
	.byte	0x4
	.2byte	0x1d2
	.byte	0x7
	.4byte	.LASF581
	.4byte	0x7e61
	.byte	0x2
	.4byte	0x3574
	.4byte	0x3584
	.uleb128 0x2
	.4byte	0x7e61
	.uleb128 0x1
	.4byte	0x7e6b
	.uleb128 0x1
	.4byte	0x155
	.byte	0
	.uleb128 0x7
	.4byte	.LASF578
	.byte	0x4
	.2byte	0x1d6
	.byte	0x7
	.4byte	.LASF582
	.4byte	0x7e61
	.byte	0x2
	.4byte	0x359e
	.4byte	0x35a9
	.uleb128 0x2
	.4byte	0x7e61
	.uleb128 0x1
	.4byte	0x7e6b
	.byte	0
	.uleb128 0x7
	.4byte	.LASF578
	.byte	0x4
	.2byte	0x1db
	.byte	0x7
	.4byte	.LASF583
	.4byte	0x7e61
	.byte	0x2
	.4byte	0x35c3
	.4byte	0x35ce
	.uleb128 0x2
	.4byte	0x7e61
	.uleb128 0x1
	.4byte	0x7e70
	.byte	0
	.uleb128 0x7
	.4byte	.LASF578
	.byte	0x4
	.2byte	0x1e3
	.byte	0x7
	.4byte	.LASF584
	.4byte	0x7e61
	.byte	0x2
	.4byte	0x35e8
	.4byte	0x35f8
	.uleb128 0x2
	.4byte	0x7e61
	.uleb128 0x1
	.4byte	0x7e70
	.uleb128 0x1
	.4byte	0x7e6b
	.byte	0
	.uleb128 0x7
	.4byte	.LASF578
	.byte	0x4
	.2byte	0x1e7
	.byte	0x7
	.4byte	.LASF585
	.4byte	0x7e61
	.byte	0x2
	.4byte	0x3612
	.4byte	0x3627
	.uleb128 0x2
	.4byte	0x7e61
	.uleb128 0x1
	.4byte	0x7e70
	.uleb128 0x1
	.4byte	0x7e6b
	.uleb128 0x1
	.4byte	0x155
	.byte	0
	.uleb128 0x7
	.4byte	.LASF586
	.byte	0x4
	.2byte	0x269
	.byte	0x5
	.4byte	.LASF587
	.4byte	0x6efe
	.byte	0x2
	.4byte	0x3641
	.4byte	0x364c
	.uleb128 0x2
	.4byte	0x7e61
	.uleb128 0x2
	.4byte	0x3b
	.byte	0
	.uleb128 0x7
	.4byte	.LASF311
	.byte	0x4
	.2byte	0x238
	.byte	0x7
	.4byte	.LASF588
	.4byte	0x7e75
	.byte	0x2
	.4byte	0x3666
	.4byte	0x366c
	.uleb128 0x2
	.4byte	0x7e61
	.byte	0
	.uleb128 0x7
	.4byte	.LASF311
	.byte	0x4
	.2byte	0x23c
	.byte	0x7
	.4byte	.LASF589
	.4byte	0x7e48
	.byte	0x2
	.4byte	0x3686
	.4byte	0x368c
	.uleb128 0x2
	.4byte	0x7e57
	.byte	0
	.uleb128 0x1a
	.4byte	.LASF590
	.byte	0x4
	.2byte	0x1be
	.byte	0x2
	.4byte	0x6833
	.byte	0x2
	.uleb128 0x7
	.4byte	.LASF591
	.byte	0x4
	.2byte	0x240
	.byte	0x7
	.4byte	.LASF592
	.4byte	0x368c
	.byte	0x2
	.4byte	0x36b4
	.4byte	0x36ba
	.uleb128 0x2
	.4byte	0x7e57
	.byte	0
	.uleb128 0x1a
	.4byte	.LASF499
	.byte	0x4
	.2byte	0x1b9
	.byte	0x30
	.4byte	0x67df
	.byte	0x2
	.uleb128 0x7
	.4byte	.LASF593
	.byte	0x4
	.2byte	0x244
	.byte	0x7
	.4byte	.LASF594
	.4byte	0x36ba
	.byte	0x2
	.4byte	0x36e2
	.4byte	0x36e8
	.uleb128 0x2
	.4byte	0x7e61
	.byte	0
	.uleb128 0xe
	.4byte	.LASF595
	.byte	0x4
	.2byte	0x24b
	.byte	0x7
	.4byte	.LASF596
	.byte	0x2
	.4byte	0x36fe
	.4byte	0x3709
	.uleb128 0x2
	.4byte	0x7e61
	.uleb128 0x1
	.4byte	0x36ba
	.byte	0
	.uleb128 0x7
	.4byte	.LASF597
	.byte	0x4
	.2byte	0x252
	.byte	0x7
	.4byte	.LASF598
	.4byte	0x33ec
	.byte	0x2
	.4byte	0x3723
	.4byte	0x372e
	.uleb128 0x2
	.4byte	0x7e61
	.uleb128 0x1
	.4byte	0x155
	.byte	0
	.uleb128 0xe
	.4byte	.LASF599
	.byte	0x4
	.2byte	0x259
	.byte	0x7
	.4byte	.LASF600
	.byte	0x2
	.4byte	0x3744
	.4byte	0x3754
	.uleb128 0x2
	.4byte	0x7e61
	.uleb128 0x1
	.4byte	0x33ec
	.uleb128 0x1
	.4byte	0x155
	.byte	0
	.uleb128 0xe
	.4byte	.LASF601
	.byte	0x4
	.2byte	0x27e
	.byte	0x5
	.4byte	.LASF602
	.byte	0x2
	.4byte	0x376a
	.4byte	0x3775
	.uleb128 0x2
	.4byte	0x7e61
	.uleb128 0x1
	.4byte	0x155
	.byte	0
	.uleb128 0xe
	.4byte	.LASF603
	.byte	0x4
	.2byte	0x2a5
	.byte	0x5
	.4byte	.LASF604
	.byte	0x2
	.4byte	0x378b
	.4byte	0x379b
	.uleb128 0x2
	.4byte	0x7e61
	.uleb128 0x1
	.4byte	0x33ec
	.uleb128 0x1
	.4byte	0x33ec
	.byte	0
	.uleb128 0xe
	.4byte	.LASF605
	.byte	0x4
	.2byte	0x2b7
	.byte	0x5
	.4byte	.LASF606
	.byte	0x2
	.4byte	0x37b1
	.4byte	0x37c1
	.uleb128 0x2
	.4byte	0x7e61
	.uleb128 0x1
	.4byte	0x33ec
	.uleb128 0x1
	.4byte	0x33ec
	.byte	0
	.uleb128 0x63
	.4byte	.LASF327
	.byte	0x4
	.2byte	0x265
	.byte	0x13
	.4byte	0x3408
	.uleb128 0x1a
	.4byte	.LASF370
	.byte	0x4
	.2byte	0x1c8
	.byte	0x3e
	.4byte	0x3001
	.byte	0x2
	.uleb128 0x8
	.ascii	"_Tp\000"
	.4byte	0x6e69
	.uleb128 0xa
	.4byte	.LASF334
	.4byte	0x173f
	.byte	0
	.uleb128 0xb
	.4byte	0x32ee
	.uleb128 0x4d
	.4byte	.LASF607
	.byte	0x28
	.byte	0x4
	.2byte	0x314
	.4byte	0x4594
	.uleb128 0x24
	.byte	0x4
	.2byte	0x314
	.byte	0xb
	.4byte	0x3754
	.uleb128 0x24
	.byte	0x4
	.2byte	0x314
	.byte	0xb
	.4byte	0x3775
	.uleb128 0x24
	.byte	0x4
	.2byte	0x314
	.byte	0xb
	.4byte	0x379b
	.uleb128 0x24
	.byte	0x4
	.2byte	0x314
	.byte	0xb
	.4byte	0x36c8
	.uleb128 0x24
	.byte	0x4
	.2byte	0x314
	.byte	0xb
	.4byte	0x36e8
	.uleb128 0x24
	.byte	0x4
	.2byte	0x314
	.byte	0xb
	.4byte	0x3709
	.uleb128 0x24
	.byte	0x4
	.2byte	0x314
	.byte	0xb
	.4byte	0x372e
	.uleb128 0x24
	.byte	0x4
	.2byte	0x314
	.byte	0xb
	.4byte	0x366c
	.uleb128 0x24
	.byte	0x4
	.2byte	0x314
	.byte	0xb
	.4byte	0x364c
	.uleb128 0x24
	.byte	0x4
	.2byte	0x314
	.byte	0xb
	.4byte	0x37c1
	.uleb128 0x4c
	.4byte	0x32ee
	.byte	0x2
	.uleb128 0x61
	.4byte	.LASF505
	.byte	0x4
	.2byte	0x33c
	.byte	0x15
	.4byte	.LASF609
	.4byte	0x155
	.uleb128 0x4e
	.4byte	.LASF610
	.byte	0x4
	.2byte	0x357
	.4byte	.LASF611
	.4byte	0x7e7a
	.4byte	0x388a
	.4byte	0x3890
	.uleb128 0x2
	.4byte	0x7e7a
	.byte	0
	.uleb128 0x46
	.4byte	.LASF610
	.byte	0x4
	.2byte	0x361
	.4byte	.LASF612
	.4byte	0x7e7a
	.4byte	0x38a8
	.4byte	0x38b3
	.uleb128 0x2
	.4byte	0x7e7a
	.uleb128 0x1
	.4byte	0x7e84
	.byte	0
	.uleb128 0x1a
	.4byte	.LASF285
	.byte	0x4
	.2byte	0x339
	.byte	0x1a
	.4byte	0x173f
	.byte	0x1
	.uleb128 0xb
	.4byte	0x38b3
	.uleb128 0x46
	.4byte	.LASF610
	.byte	0x4
	.2byte	0x36e
	.4byte	.LASF613
	.4byte	0x7e7a
	.4byte	0x38de
	.4byte	0x38ee
	.uleb128 0x2
	.4byte	0x7e7a
	.uleb128 0x1
	.4byte	0x38ee
	.uleb128 0x1
	.4byte	0x7e84
	.byte	0
	.uleb128 0x1a
	.4byte	.LASF264
	.byte	0x4
	.2byte	0x337
	.byte	0x1a
	.4byte	0x155
	.byte	0x1
	.uleb128 0xb
	.4byte	0x38ee
	.uleb128 0x7
	.4byte	.LASF610
	.byte	0x4
	.2byte	0x37a
	.byte	0x7
	.4byte	.LASF614
	.4byte	0x7e7a
	.byte	0x1
	.4byte	0x391b
	.4byte	0x3930
	.uleb128 0x2
	.4byte	0x7e7a
	.uleb128 0x1
	.4byte	0x38ee
	.uleb128 0x1
	.4byte	0x7e89
	.uleb128 0x1
	.4byte	0x7e84
	.byte	0
	.uleb128 0x1a
	.4byte	.LASF9
	.byte	0x4
	.2byte	0x32e
	.byte	0x17
	.4byte	0x6e69
	.byte	0x1
	.uleb128 0xb
	.4byte	0x3930
	.uleb128 0x7
	.4byte	.LASF610
	.byte	0x4
	.2byte	0x395
	.byte	0x7
	.4byte	.LASF615
	.4byte	0x7e7a
	.byte	0x1
	.4byte	0x395d
	.4byte	0x3968
	.uleb128 0x2
	.4byte	0x7e7a
	.uleb128 0x1
	.4byte	0x7e8e
	.byte	0
	.uleb128 0x4e
	.4byte	.LASF610
	.byte	0x4
	.2byte	0x3a5
	.4byte	.LASF616
	.4byte	0x7e7a
	.4byte	0x3980
	.4byte	0x398b
	.uleb128 0x2
	.4byte	0x7e7a
	.uleb128 0x1
	.4byte	0x7e93
	.byte	0
	.uleb128 0x7
	.4byte	.LASF610
	.byte	0x4
	.2byte	0x3a8
	.byte	0x7
	.4byte	.LASF617
	.4byte	0x7e7a
	.byte	0x1
	.4byte	0x39a5
	.4byte	0x39b5
	.uleb128 0x2
	.4byte	0x7e7a
	.uleb128 0x1
	.4byte	0x7e8e
	.uleb128 0x1
	.4byte	0x7da3
	.byte	0
	.uleb128 0x7
	.4byte	.LASF610
	.byte	0x4
	.2byte	0x3af
	.byte	0x7
	.4byte	.LASF618
	.4byte	0x7e7a
	.byte	0x1
	.4byte	0x39cf
	.4byte	0x39df
	.uleb128 0x2
	.4byte	0x7e7a
	.uleb128 0x1
	.4byte	0x7e93
	.uleb128 0x1
	.4byte	0x7da3
	.byte	0
	.uleb128 0x1c
	.4byte	.LASF610
	.byte	0x4
	.2byte	0x3b4
	.byte	0x7
	.4byte	.LASF619
	.4byte	0x7e7a
	.4byte	0x39f8
	.4byte	0x3a0d
	.uleb128 0x2
	.4byte	0x7e7a
	.uleb128 0x1
	.4byte	0x7e93
	.uleb128 0x1
	.4byte	0x7e84
	.uleb128 0x1
	.4byte	0x1411
	.byte	0
	.uleb128 0x1c
	.4byte	.LASF610
	.byte	0x4
	.2byte	0x3b8
	.byte	0x7
	.4byte	.LASF620
	.4byte	0x7e7a
	.4byte	0x3a26
	.4byte	0x3a3b
	.uleb128 0x2
	.4byte	0x7e7a
	.uleb128 0x1
	.4byte	0x7e93
	.uleb128 0x1
	.4byte	0x7e84
	.uleb128 0x1
	.4byte	0x13d
	.byte	0
	.uleb128 0x7
	.4byte	.LASF610
	.byte	0x4
	.2byte	0x3d0
	.byte	0x7
	.4byte	.LASF621
	.4byte	0x7e7a
	.byte	0x1
	.4byte	0x3a55
	.4byte	0x3a65
	.uleb128 0x2
	.4byte	0x7e7a
	.uleb128 0x1
	.4byte	0x2a07
	.uleb128 0x1
	.4byte	0x7e84
	.byte	0
	.uleb128 0x7
	.4byte	.LASF622
	.byte	0x4
	.2byte	0x403
	.byte	0x7
	.4byte	.LASF623
	.4byte	0x6efe
	.byte	0x1
	.4byte	0x3a7f
	.4byte	0x3a8a
	.uleb128 0x2
	.4byte	0x7e7a
	.uleb128 0x2
	.4byte	0x3b
	.byte	0
	.uleb128 0x16
	.4byte	.LASF278
	.byte	0x7
	.byte	0x5f
	.byte	0x5
	.4byte	.LASF624
	.4byte	0x7e98
	.byte	0x1
	.4byte	0x3aa3
	.4byte	0x3aae
	.uleb128 0x2
	.4byte	0x7e7a
	.uleb128 0x1
	.4byte	0x7e8e
	.byte	0
	.uleb128 0x7
	.4byte	.LASF278
	.byte	0x4
	.2byte	0x41c
	.byte	0x7
	.4byte	.LASF625
	.4byte	0x7e98
	.byte	0x1
	.4byte	0x3ac8
	.4byte	0x3ad3
	.uleb128 0x2
	.4byte	0x7e7a
	.uleb128 0x1
	.4byte	0x7e93
	.byte	0
	.uleb128 0x7
	.4byte	.LASF278
	.byte	0x4
	.2byte	0x42f
	.byte	0x7
	.4byte	.LASF626
	.4byte	0x7e98
	.byte	0x1
	.4byte	0x3aed
	.4byte	0x3af8
	.uleb128 0x2
	.4byte	0x7e7a
	.uleb128 0x1
	.4byte	0x2a07
	.byte	0
	.uleb128 0xe
	.4byte	.LASF364
	.byte	0x4
	.2byte	0x442
	.byte	0x7
	.4byte	.LASF627
	.byte	0x1
	.4byte	0x3b0e
	.4byte	0x3b1e
	.uleb128 0x2
	.4byte	0x7e7a
	.uleb128 0x1
	.4byte	0x38ee
	.uleb128 0x1
	.4byte	0x7e89
	.byte	0
	.uleb128 0xe
	.4byte	.LASF364
	.byte	0x4
	.2byte	0x46e
	.byte	0x7
	.4byte	.LASF628
	.byte	0x1
	.4byte	0x3b34
	.4byte	0x3b3f
	.uleb128 0x2
	.4byte	0x7e7a
	.uleb128 0x1
	.4byte	0x2a07
	.byte	0
	.uleb128 0x7
	.4byte	.LASF314
	.byte	0x4
	.2byte	0x475
	.byte	0x7
	.4byte	.LASF629
	.4byte	0x38b3
	.byte	0x1
	.4byte	0x3b59
	.4byte	0x3b5f
	.uleb128 0x2
	.4byte	0x7e9d
	.byte	0
	.uleb128 0x1a
	.4byte	.LASF367
	.byte	0x4
	.2byte	0x333
	.byte	0x2a
	.4byte	0x33fa
	.byte	0x1
	.uleb128 0x7
	.4byte	.LASF368
	.byte	0x4
	.2byte	0x47f
	.byte	0x7
	.4byte	.LASF630
	.4byte	0x3b5f
	.byte	0x1
	.4byte	0x3b87
	.4byte	0x3b8d
	.uleb128 0x2
	.4byte	0x7e7a
	.byte	0
	.uleb128 0x1a
	.4byte	.LASF370
	.byte	0x4
	.2byte	0x334
	.byte	0x2f
	.4byte	0x37ce
	.byte	0x1
	.uleb128 0x7
	.4byte	.LASF368
	.byte	0x4
	.2byte	0x488
	.byte	0x7
	.4byte	.LASF631
	.4byte	0x3b8d
	.byte	0x1
	.4byte	0x3bb5
	.4byte	0x3bbb
	.uleb128 0x2
	.4byte	0x7e9d
	.byte	0
	.uleb128 0x33
	.ascii	"end\000"
	.byte	0x4
	.2byte	0x492
	.4byte	.LASF632
	.4byte	0x3b5f
	.4byte	0x3bd3
	.4byte	0x3bd9
	.uleb128 0x2
	.4byte	0x7e7a
	.byte	0
	.uleb128 0x33
	.ascii	"end\000"
	.byte	0x4
	.2byte	0x49c
	.4byte	.LASF633
	.4byte	0x3b8d
	.4byte	0x3bf1
	.4byte	0x3bf7
	.uleb128 0x2
	.4byte	0x7e9d
	.byte	0
	.uleb128 0x1a
	.4byte	.LASF374
	.byte	0x4
	.2byte	0x336
	.byte	0x30
	.4byte	0x4599
	.byte	0x1
	.uleb128 0x7
	.4byte	.LASF375
	.byte	0x4
	.2byte	0x4a6
	.byte	0x7
	.4byte	.LASF634
	.4byte	0x3bf7
	.byte	0x1
	.4byte	0x3c1f
	.4byte	0x3c25
	.uleb128 0x2
	.4byte	0x7e7a
	.byte	0
	.uleb128 0x1a
	.4byte	.LASF377
	.byte	0x4
	.2byte	0x335
	.byte	0x35
	.4byte	0x459e
	.byte	0x1
	.uleb128 0x7
	.4byte	.LASF375
	.byte	0x4
	.2byte	0x4b0
	.byte	0x7
	.4byte	.LASF635
	.4byte	0x3c25
	.byte	0x1
	.4byte	0x3c4d
	.4byte	0x3c53
	.uleb128 0x2
	.4byte	0x7e9d
	.byte	0
	.uleb128 0x7
	.4byte	.LASF379
	.byte	0x4
	.2byte	0x4ba
	.byte	0x7
	.4byte	.LASF636
	.4byte	0x3bf7
	.byte	0x1
	.4byte	0x3c6d
	.4byte	0x3c73
	.uleb128 0x2
	.4byte	0x7e7a
	.byte	0
	.uleb128 0x7
	.4byte	.LASF379
	.byte	0x4
	.2byte	0x4c4
	.byte	0x7
	.4byte	.LASF637
	.4byte	0x3c25
	.byte	0x1
	.4byte	0x3c8d
	.4byte	0x3c93
	.uleb128 0x2
	.4byte	0x7e9d
	.byte	0
	.uleb128 0x7
	.4byte	.LASF382
	.byte	0x4
	.2byte	0x4ce
	.byte	0x7
	.4byte	.LASF638
	.4byte	0x3b8d
	.byte	0x1
	.4byte	0x3cad
	.4byte	0x3cb3
	.uleb128 0x2
	.4byte	0x7e9d
	.byte	0
	.uleb128 0x7
	.4byte	.LASF384
	.byte	0x4
	.2byte	0x4d8
	.byte	0x7
	.4byte	.LASF639
	.4byte	0x3b8d
	.byte	0x1
	.4byte	0x3ccd
	.4byte	0x3cd3
	.uleb128 0x2
	.4byte	0x7e9d
	.byte	0
	.uleb128 0x7
	.4byte	.LASF386
	.byte	0x4
	.2byte	0x4e2
	.byte	0x7
	.4byte	.LASF640
	.4byte	0x3c25
	.byte	0x1
	.4byte	0x3ced
	.4byte	0x3cf3
	.uleb128 0x2
	.4byte	0x7e9d
	.byte	0
	.uleb128 0x7
	.4byte	.LASF388
	.byte	0x4
	.2byte	0x4ec
	.byte	0x7
	.4byte	.LASF641
	.4byte	0x3c25
	.byte	0x1
	.4byte	0x3d0d
	.4byte	0x3d13
	.uleb128 0x2
	.4byte	0x7e9d
	.byte	0
	.uleb128 0x7
	.4byte	.LASF390
	.byte	0x4
	.2byte	0x4f4
	.byte	0x7
	.4byte	.LASF642
	.4byte	0x38ee
	.byte	0x1
	.4byte	0x3d2d
	.4byte	0x3d33
	.uleb128 0x2
	.4byte	0x7e9d
	.byte	0
	.uleb128 0x7
	.4byte	.LASF267
	.byte	0x4
	.2byte	0x4fa
	.byte	0x7
	.4byte	.LASF643
	.4byte	0x38ee
	.byte	0x1
	.4byte	0x3d4d
	.4byte	0x3d53
	.uleb128 0x2
	.4byte	0x7e9d
	.byte	0
	.uleb128 0xe
	.4byte	.LASF393
	.byte	0x4
	.2byte	0x508
	.byte	0x7
	.4byte	.LASF644
	.byte	0x1
	.4byte	0x3d69
	.4byte	0x3d74
	.uleb128 0x2
	.4byte	0x7e7a
	.uleb128 0x1
	.4byte	0x38ee
	.byte	0
	.uleb128 0xe
	.4byte	.LASF393
	.byte	0x4
	.2byte	0x51e
	.byte	0x7
	.4byte	.LASF645
	.byte	0x1
	.4byte	0x3d8a
	.4byte	0x3d9a
	.uleb128 0x2
	.4byte	0x7e7a
	.uleb128 0x1
	.4byte	0x38ee
	.uleb128 0x1
	.4byte	0x7e89
	.byte	0
	.uleb128 0xe
	.4byte	.LASF396
	.byte	0x4
	.2byte	0x53a
	.byte	0x7
	.4byte	.LASF646
	.byte	0x1
	.4byte	0x3db0
	.4byte	0x3db6
	.uleb128 0x2
	.4byte	0x7e7a
	.byte	0
	.uleb128 0x7
	.4byte	.LASF400
	.byte	0x4
	.2byte	0x543
	.byte	0x7
	.4byte	.LASF647
	.4byte	0x66a4
	.byte	0x1
	.4byte	0x3dd0
	.4byte	0x3dd6
	.uleb128 0x2
	.4byte	0x7e9d
	.byte	0
	.uleb128 0x1a
	.4byte	.LASF258
	.byte	0x4
	.2byte	0x331
	.byte	0x32
	.4byte	0x67eb
	.byte	0x1
	.uleb128 0x7
	.4byte	.LASF404
	.byte	0x4
	.2byte	0x554
	.byte	0x7
	.4byte	.LASF648
	.4byte	0x3dd6
	.byte	0x1
	.4byte	0x3dfe
	.4byte	0x3e09
	.uleb128 0x2
	.4byte	0x7e7a
	.uleb128 0x1
	.4byte	0x38ee
	.byte	0
	.uleb128 0x1a
	.4byte	.LASF261
	.byte	0x4
	.2byte	0x332
	.byte	0x37
	.4byte	0x67f7
	.byte	0x1
	.uleb128 0x7
	.4byte	.LASF404
	.byte	0x4
	.2byte	0x567
	.byte	0x7
	.4byte	.LASF649
	.4byte	0x3e09
	.byte	0x1
	.4byte	0x3e31
	.4byte	0x3e3c
	.uleb128 0x2
	.4byte	0x7e9d
	.uleb128 0x1
	.4byte	0x38ee
	.byte	0
	.uleb128 0xe
	.4byte	.LASF407
	.byte	0x4
	.2byte	0x570
	.byte	0x7
	.4byte	.LASF650
	.byte	0x2
	.4byte	0x3e52
	.4byte	0x3e5d
	.uleb128 0x2
	.4byte	0x7e9d
	.uleb128 0x1
	.4byte	0x38ee
	.byte	0
	.uleb128 0x33
	.ascii	"at\000"
	.byte	0x4
	.2byte	0x586
	.4byte	.LASF651
	.4byte	0x3dd6
	.4byte	0x3e74
	.4byte	0x3e7f
	.uleb128 0x2
	.4byte	0x7e7a
	.uleb128 0x1
	.4byte	0x38ee
	.byte	0
	.uleb128 0x33
	.ascii	"at\000"
	.byte	0x4
	.2byte	0x598
	.4byte	.LASF652
	.4byte	0x3e09
	.4byte	0x3e96
	.4byte	0x3ea1
	.uleb128 0x2
	.4byte	0x7e9d
	.uleb128 0x1
	.4byte	0x38ee
	.byte	0
	.uleb128 0x7
	.4byte	.LASF411
	.byte	0x4
	.2byte	0x5a4
	.byte	0x7
	.4byte	.LASF653
	.4byte	0x3dd6
	.byte	0x1
	.4byte	0x3ebb
	.4byte	0x3ec1
	.uleb128 0x2
	.4byte	0x7e7a
	.byte	0
	.uleb128 0x7
	.4byte	.LASF411
	.byte	0x4
	.2byte	0x5b0
	.byte	0x7
	.4byte	.LASF654
	.4byte	0x3e09
	.byte	0x1
	.4byte	0x3edb
	.4byte	0x3ee1
	.uleb128 0x2
	.4byte	0x7e9d
	.byte	0
	.uleb128 0x7
	.4byte	.LASF414
	.byte	0x4
	.2byte	0x5bc
	.byte	0x7
	.4byte	.LASF655
	.4byte	0x3dd6
	.byte	0x1
	.4byte	0x3efb
	.4byte	0x3f01
	.uleb128 0x2
	.4byte	0x7e7a
	.byte	0
	.uleb128 0x7
	.4byte	.LASF414
	.byte	0x4
	.2byte	0x5ca
	.byte	0x7
	.4byte	.LASF656
	.4byte	0x3e09
	.byte	0x1
	.4byte	0x3f1b
	.4byte	0x3f21
	.uleb128 0x2
	.4byte	0x7e9d
	.byte	0
	.uleb128 0xe
	.4byte	.LASF657
	.byte	0x4
	.2byte	0x5dd
	.byte	0x7
	.4byte	.LASF658
	.byte	0x1
	.4byte	0x3f37
	.4byte	0x3f42
	.uleb128 0x2
	.4byte	0x7e7a
	.uleb128 0x1
	.4byte	0x7e89
	.byte	0
	.uleb128 0xe
	.4byte	.LASF657
	.byte	0x4
	.2byte	0x5ec
	.byte	0x7
	.4byte	.LASF659
	.byte	0x1
	.4byte	0x3f58
	.4byte	0x3f63
	.uleb128 0x2
	.4byte	0x7e7a
	.uleb128 0x1
	.4byte	0x7ea7
	.byte	0
	.uleb128 0xe
	.4byte	.LASF420
	.byte	0x4
	.2byte	0x602
	.byte	0x7
	.4byte	.LASF660
	.byte	0x1
	.4byte	0x3f79
	.4byte	0x3f84
	.uleb128 0x2
	.4byte	0x7e7a
	.uleb128 0x1
	.4byte	0x7e89
	.byte	0
	.uleb128 0xe
	.4byte	.LASF420
	.byte	0x4
	.2byte	0x611
	.byte	0x7
	.4byte	.LASF661
	.byte	0x1
	.4byte	0x3f9a
	.4byte	0x3fa5
	.uleb128 0x2
	.4byte	0x7e7a
	.uleb128 0x1
	.4byte	0x7ea7
	.byte	0
	.uleb128 0xe
	.4byte	.LASF662
	.byte	0x4
	.2byte	0x626
	.byte	0x7
	.4byte	.LASF663
	.byte	0x1
	.4byte	0x3fbb
	.4byte	0x3fc1
	.uleb128 0x2
	.4byte	0x7e7a
	.byte	0
	.uleb128 0xe
	.4byte	.LASF423
	.byte	0x4
	.2byte	0x63d
	.byte	0x7
	.4byte	.LASF664
	.byte	0x1
	.4byte	0x3fd7
	.4byte	0x3fdd
	.uleb128 0x2
	.4byte	0x7e7a
	.byte	0
	.uleb128 0x16
	.4byte	.LASF425
	.byte	0x7
	.byte	0xd2
	.byte	0x5
	.4byte	.LASF665
	.4byte	0x3b5f
	.byte	0x1
	.4byte	0x3ff6
	.4byte	0x4006
	.uleb128 0x2
	.4byte	0x7e7a
	.uleb128 0x1
	.4byte	0x3b8d
	.uleb128 0x1
	.4byte	0x7e89
	.byte	0
	.uleb128 0x7
	.4byte	.LASF425
	.byte	0x4
	.2byte	0x67d
	.byte	0x7
	.4byte	.LASF666
	.4byte	0x3b5f
	.byte	0x1
	.4byte	0x4020
	.4byte	0x4030
	.uleb128 0x2
	.4byte	0x7e7a
	.uleb128 0x1
	.4byte	0x3b8d
	.uleb128 0x1
	.4byte	0x7ea7
	.byte	0
	.uleb128 0x7
	.4byte	.LASF425
	.byte	0x4
	.2byte	0x68b
	.byte	0x7
	.4byte	.LASF667
	.4byte	0x3b5f
	.byte	0x1
	.4byte	0x404a
	.4byte	0x405a
	.uleb128 0x2
	.4byte	0x7e7a
	.uleb128 0x1
	.4byte	0x3b8d
	.uleb128 0x1
	.4byte	0x2a07
	.byte	0
	.uleb128 0x7
	.4byte	.LASF425
	.byte	0x4
	.2byte	0x69e
	.byte	0x7
	.4byte	.LASF668
	.4byte	0x3b5f
	.byte	0x1
	.4byte	0x4074
	.4byte	0x4089
	.uleb128 0x2
	.4byte	0x7e7a
	.uleb128 0x1
	.4byte	0x3b8d
	.uleb128 0x1
	.4byte	0x38ee
	.uleb128 0x1
	.4byte	0x7e89
	.byte	0
	.uleb128 0x7
	.4byte	.LASF430
	.byte	0x4
	.2byte	0x6ef
	.byte	0x7
	.4byte	.LASF669
	.4byte	0x3b5f
	.byte	0x1
	.4byte	0x40a3
	.4byte	0x40ae
	.uleb128 0x2
	.4byte	0x7e7a
	.uleb128 0x1
	.4byte	0x3b8d
	.byte	0
	.uleb128 0x7
	.4byte	.LASF430
	.byte	0x4
	.2byte	0x707
	.byte	0x7
	.4byte	.LASF670
	.4byte	0x3b5f
	.byte	0x1
	.4byte	0x40c8
	.4byte	0x40d8
	.uleb128 0x2
	.4byte	0x7e7a
	.uleb128 0x1
	.4byte	0x3b8d
	.uleb128 0x1
	.4byte	0x3b8d
	.byte	0
	.uleb128 0xe
	.4byte	.LASF433
	.byte	0x4
	.2byte	0x719
	.byte	0x7
	.4byte	.LASF671
	.byte	0x1
	.4byte	0x40ee
	.4byte	0x40f9
	.uleb128 0x2
	.4byte	0x7e7a
	.uleb128 0x1
	.4byte	0x7e98
	.byte	0
	.uleb128 0xe
	.4byte	.LASF435
	.byte	0x4
	.2byte	0x72b
	.byte	0x7
	.4byte	.LASF672
	.byte	0x1
	.4byte	0x410f
	.4byte	0x4115
	.uleb128 0x2
	.4byte	0x7e7a
	.byte	0
	.uleb128 0x4f
	.4byte	.LASF455
	.byte	0x4
	.2byte	0x74b
	.4byte	.LASF673
	.4byte	0x155
	.4byte	0x4134
	.uleb128 0x1
	.4byte	0x155
	.uleb128 0x1
	.4byte	0x7e84
	.byte	0
	.uleb128 0x4f
	.4byte	.LASF457
	.byte	0x4
	.2byte	0x754
	.4byte	.LASF674
	.4byte	0x38ee
	.4byte	0x414e
	.uleb128 0x1
	.4byte	0x7eac
	.byte	0
	.uleb128 0x22
	.4byte	.LASF310
	.byte	0x4
	.2byte	0x329
	.byte	0x2f
	.4byte	0x34cf
	.uleb128 0xb
	.4byte	0x414e
	.uleb128 0xe
	.4byte	.LASF437
	.byte	0x7
	.2byte	0x189
	.byte	0x5
	.4byte	.LASF675
	.byte	0x2
	.4byte	0x4176
	.4byte	0x4181
	.uleb128 0x2
	.4byte	0x7e7a
	.uleb128 0x1
	.4byte	0x7e89
	.byte	0
	.uleb128 0x3e
	.4byte	.LASF439
	.byte	0x7
	.byte	0x45
	.byte	0x5
	.4byte	.LASF676
	.byte	0x2
	.4byte	0x4196
	.4byte	0x419c
	.uleb128 0x2
	.4byte	0x7e7a
	.byte	0
	.uleb128 0xe
	.4byte	.LASF441
	.byte	0x4
	.2byte	0x7b7
	.byte	0x7
	.4byte	.LASF677
	.byte	0x2
	.4byte	0x41b2
	.4byte	0x41c2
	.uleb128 0x2
	.4byte	0x7e7a
	.uleb128 0x1
	.4byte	0x38ee
	.uleb128 0x1
	.4byte	0x7e89
	.byte	0
	.uleb128 0xe
	.4byte	.LASF678
	.byte	0x7
	.2byte	0x230
	.byte	0xa
	.4byte	.LASF679
	.byte	0x2
	.4byte	0x41d8
	.4byte	0x41de
	.uleb128 0x2
	.4byte	0x7e7a
	.byte	0
	.uleb128 0xe
	.4byte	.LASF680
	.byte	0x7
	.2byte	0x240
	.byte	0xa
	.4byte	.LASF681
	.byte	0x2
	.4byte	0x41f4
	.4byte	0x41fa
	.uleb128 0x2
	.4byte	0x7e7a
	.byte	0
	.uleb128 0xe
	.4byte	.LASF443
	.byte	0x7
	.2byte	0x133
	.byte	0x5
	.4byte	.LASF682
	.byte	0x2
	.4byte	0x4210
	.4byte	0x4225
	.uleb128 0x2
	.4byte	0x7e7a
	.uleb128 0x1
	.4byte	0x3b5f
	.uleb128 0x1
	.4byte	0x38ee
	.uleb128 0x1
	.4byte	0x7e89
	.byte	0
	.uleb128 0xe
	.4byte	.LASF683
	.byte	0x7
	.2byte	0x2ad
	.byte	0x5
	.4byte	.LASF684
	.byte	0x2
	.4byte	0x423b
	.4byte	0x4250
	.uleb128 0x2
	.4byte	0x7e7a
	.uleb128 0x1
	.4byte	0x3b5f
	.uleb128 0x1
	.4byte	0x38ee
	.uleb128 0x1
	.4byte	0x7e89
	.byte	0
	.uleb128 0xe
	.4byte	.LASF685
	.byte	0x7
	.2byte	0x35b
	.byte	0x6
	.4byte	.LASF686
	.byte	0x2
	.4byte	0x4266
	.4byte	0x4276
	.uleb128 0x2
	.4byte	0x7e7a
	.uleb128 0x1
	.4byte	0x3b5f
	.uleb128 0x1
	.4byte	0x3b5f
	.byte	0
	.uleb128 0xe
	.4byte	.LASF687
	.byte	0x4
	.2byte	0x827
	.byte	0x7
	.4byte	.LASF688
	.byte	0x2
	.4byte	0x428c
	.4byte	0x42a1
	.uleb128 0x2
	.4byte	0x7e7a
	.uleb128 0x1
	.4byte	0x3b5f
	.uleb128 0x1
	.4byte	0x3b5f
	.uleb128 0x1
	.4byte	0x7d17
	.byte	0
	.uleb128 0xe
	.4byte	.LASF689
	.byte	0x4
	.2byte	0x830
	.byte	0x7
	.4byte	.LASF690
	.byte	0x2
	.4byte	0x42b7
	.4byte	0x42c2
	.uleb128 0x2
	.4byte	0x7e7a
	.uleb128 0x1
	.4byte	0x3b5f
	.byte	0
	.uleb128 0xe
	.4byte	.LASF459
	.byte	0x4
	.2byte	0x83a
	.byte	0x7
	.4byte	.LASF691
	.byte	0x2
	.4byte	0x42d8
	.4byte	0x42e3
	.uleb128 0x2
	.4byte	0x7e7a
	.uleb128 0x1
	.4byte	0x3b5f
	.byte	0
	.uleb128 0x16
	.4byte	.LASF461
	.byte	0x7
	.byte	0xeb
	.byte	0x5
	.4byte	.LASF692
	.4byte	0x3b5f
	.byte	0x2
	.4byte	0x42fc
	.4byte	0x4307
	.uleb128 0x2
	.4byte	0x7e7a
	.uleb128 0x1
	.4byte	0x3b5f
	.byte	0
	.uleb128 0x7
	.4byte	.LASF461
	.byte	0x7
	.2byte	0x102
	.byte	0x5
	.4byte	.LASF693
	.4byte	0x3b5f
	.byte	0x2
	.4byte	0x4321
	.4byte	0x4331
	.uleb128 0x2
	.4byte	0x7e7a
	.uleb128 0x1
	.4byte	0x3b5f
	.uleb128 0x1
	.4byte	0x3b5f
	.byte	0
	.uleb128 0xe
	.4byte	.LASF445
	.byte	0x7
	.2byte	0x15e
	.byte	0x5
	.4byte	.LASF694
	.byte	0x2
	.4byte	0x4347
	.4byte	0x4352
	.uleb128 0x2
	.4byte	0x7e7a
	.uleb128 0x1
	.4byte	0x38ee
	.byte	0
	.uleb128 0x7
	.4byte	.LASF447
	.byte	0x7
	.2byte	0x176
	.byte	0x5
	.4byte	.LASF695
	.4byte	0x66a4
	.byte	0x2
	.4byte	0x436c
	.4byte	0x4372
	.uleb128 0x2
	.4byte	0x7e7a
	.byte	0
	.uleb128 0x7
	.4byte	.LASF696
	.byte	0x4
	.2byte	0x854
	.byte	0x7
	.4byte	.LASF697
	.4byte	0x3b5f
	.byte	0x2
	.4byte	0x438c
	.4byte	0x4397
	.uleb128 0x2
	.4byte	0x7e7a
	.uleb128 0x1
	.4byte	0x38ee
	.byte	0
	.uleb128 0x7
	.4byte	.LASF698
	.byte	0x4
	.2byte	0x85e
	.byte	0x7
	.4byte	.LASF699
	.4byte	0x3b5f
	.byte	0x2
	.4byte	0x43b1
	.4byte	0x43bc
	.uleb128 0x2
	.4byte	0x7e7a
	.uleb128 0x1
	.4byte	0x38ee
	.byte	0
	.uleb128 0xe
	.4byte	.LASF700
	.byte	0x7
	.2byte	0x371
	.byte	0x5
	.4byte	.LASF701
	.byte	0x2
	.4byte	0x43d2
	.4byte	0x43dd
	.uleb128 0x2
	.4byte	0x7e7a
	.uleb128 0x1
	.4byte	0x38ee
	.byte	0
	.uleb128 0xe
	.4byte	.LASF702
	.byte	0x7
	.2byte	0x38a
	.byte	0x5
	.4byte	.LASF703
	.byte	0x2
	.4byte	0x43f3
	.4byte	0x43fe
	.uleb128 0x2
	.4byte	0x7e7a
	.uleb128 0x1
	.4byte	0x38ee
	.byte	0
	.uleb128 0xe
	.4byte	.LASF704
	.byte	0x4
	.2byte	0x878
	.byte	0x7
	.4byte	.LASF705
	.byte	0x2
	.4byte	0x4414
	.4byte	0x441f
	.uleb128 0x2
	.4byte	0x7e7a
	.uleb128 0x1
	.4byte	0x38ee
	.byte	0
	.uleb128 0xe
	.4byte	.LASF706
	.byte	0x4
	.2byte	0x880
	.byte	0x7
	.4byte	.LASF707
	.byte	0x2
	.4byte	0x4435
	.4byte	0x4440
	.uleb128 0x2
	.4byte	0x7e7a
	.uleb128 0x1
	.4byte	0x38ee
	.byte	0
	.uleb128 0xe
	.4byte	.LASF708
	.byte	0x7
	.2byte	0x3a3
	.byte	0x5
	.4byte	.LASF709
	.byte	0x2
	.4byte	0x4456
	.4byte	0x4466
	.uleb128 0x2
	.4byte	0x7e7a
	.uleb128 0x1
	.4byte	0x38ee
	.uleb128 0x1
	.4byte	0x66a4
	.byte	0
	.uleb128 0xe
	.4byte	.LASF710
	.byte	0x4
	.2byte	0x88f
	.byte	0x7
	.4byte	.LASF711
	.byte	0x2
	.4byte	0x447c
	.4byte	0x448c
	.uleb128 0x2
	.4byte	0x7e7a
	.uleb128 0x1
	.4byte	0x7e93
	.uleb128 0x1
	.4byte	0x1411
	.byte	0
	.uleb128 0xe
	.4byte	.LASF710
	.byte	0x4
	.2byte	0x89a
	.byte	0x7
	.4byte	.LASF712
	.byte	0x2
	.4byte	0x44a2
	.4byte	0x44b2
	.uleb128 0x2
	.4byte	0x7e7a
	.uleb128 0x1
	.4byte	0x7e93
	.uleb128 0x1
	.4byte	0x13d
	.byte	0
	.uleb128 0xe
	.4byte	.LASF713
	.byte	0x4
	.2byte	0x8b8
	.byte	0x7
	.4byte	.LASF714
	.byte	0x2
	.4byte	0x44c8
	.4byte	0x44d8
	.uleb128 0x2
	.4byte	0x7e7a
	.uleb128 0x1
	.4byte	0x7e93
	.uleb128 0x1
	.4byte	0x1411
	.byte	0
	.uleb128 0xe
	.4byte	.LASF713
	.byte	0x4
	.2byte	0x8c6
	.byte	0x7
	.4byte	.LASF715
	.byte	0x2
	.4byte	0x44ee
	.4byte	0x44fe
	.uleb128 0x2
	.4byte	0x7e7a
	.uleb128 0x1
	.4byte	0x7e93
	.uleb128 0x1
	.4byte	0x13d
	.byte	0
	.uleb128 0x22
	.4byte	.LASF510
	.byte	0x4
	.2byte	0x32b
	.byte	0x2d
	.4byte	0x33ec
	.uleb128 0x1a
	.4byte	.LASF533
	.byte	0x4
	.2byte	0x338
	.byte	0x1d
	.4byte	0x13ff
	.byte	0x1
	.uleb128 0xb
	.4byte	0x450b
	.uleb128 0xe
	.4byte	.LASF716
	.byte	0x7
	.2byte	0x1e4
	.byte	0x7
	.4byte	.LASF717
	.byte	0x2
	.4byte	0x4543
	.4byte	0x454e
	.uleb128 0x31
	.4byte	.LASF293
	.4byte	0x4543
	.uleb128 0x32
	.4byte	0x6e69
	.byte	0
	.uleb128 0x2
	.4byte	0x7e7a
	.uleb128 0x1
	.4byte	0x8027
	.byte	0
	.uleb128 0x16
	.4byte	.LASF471
	.byte	0x7
	.byte	0xa4
	.byte	0x7
	.4byte	.LASF718
	.4byte	0x3dd6
	.byte	0x1
	.4byte	0x4576
	.4byte	0x4581
	.uleb128 0x31
	.4byte	.LASF293
	.4byte	0x4576
	.uleb128 0x32
	.4byte	0x6e69
	.byte	0
	.uleb128 0x2
	.4byte	0x7e7a
	.uleb128 0x1
	.4byte	0x8027
	.byte	0
	.uleb128 0x8
	.ascii	"_Tp\000"
	.4byte	0x6e69
	.uleb128 0x62
	.4byte	.LASF334
	.4byte	0x173f
	.byte	0
	.uleb128 0xb
	.4byte	0x37f4
	.uleb128 0x40
	.4byte	.LASF719
	.uleb128 0x40
	.4byte	.LASF720
	.uleb128 0x4d
	.4byte	.LASF721
	.byte	0xc
	.byte	0x2
	.2byte	0x1ac
	.4byte	0x51d4
	.uleb128 0x24
	.byte	0x2
	.2byte	0x1ac
	.byte	0xb
	.4byte	0x5897
	.uleb128 0x24
	.byte	0x2
	.2byte	0x1ac
	.byte	0xb
	.4byte	0x58bb
	.uleb128 0x24
	.byte	0x2
	.2byte	0x1ac
	.byte	0xb
	.4byte	0x5889
	.uleb128 0x24
	.byte	0x2
	.2byte	0x1ac
	.byte	0xb
	.4byte	0x56eb
	.uleb128 0x24
	.byte	0x2
	.2byte	0x1ac
	.byte	0xb
	.4byte	0x56cc
	.uleb128 0x24
	.byte	0x2
	.2byte	0x1ac
	.byte	0xb
	.4byte	0x571c
	.uleb128 0x4c
	.4byte	0x552c
	.byte	0x2
	.uleb128 0x6
	.4byte	.LASF339
	.byte	0x2
	.2byte	0x1d6
	.byte	0x7
	.4byte	.LASF722
	.4byte	0x66a4
	.4byte	0x4607
	.uleb128 0x1
	.4byte	0x1411
	.byte	0
	.uleb128 0x6
	.4byte	.LASF339
	.byte	0x2
	.2byte	0x1df
	.byte	0x7
	.4byte	.LASF723
	.4byte	0x66a4
	.4byte	0x4622
	.uleb128 0x1
	.4byte	0x13d
	.byte	0
	.uleb128 0x61
	.4byte	.LASF504
	.byte	0x2
	.2byte	0x1e3
	.byte	0x7
	.4byte	.LASF724
	.4byte	0x66a4
	.uleb128 0x1a
	.4byte	.LASF257
	.byte	0x2
	.2byte	0x1c6
	.byte	0x29
	.4byte	0x55ec
	.byte	0x1
	.uleb128 0x6
	.4byte	.LASF342
	.byte	0x2
	.2byte	0x1ec
	.byte	0x7
	.4byte	.LASF725
	.4byte	0x4633
	.4byte	0x4670
	.uleb128 0x1
	.4byte	0x4633
	.uleb128 0x1
	.4byte	0x4633
	.uleb128 0x1
	.4byte	0x4633
	.uleb128 0x1
	.4byte	0x7f66
	.uleb128 0x1
	.4byte	0x1411
	.byte	0
	.uleb128 0x22
	.4byte	.LASF310
	.byte	0x2
	.2byte	0x1c1
	.byte	0x2f
	.4byte	0x56bb
	.uleb128 0xb
	.4byte	0x4670
	.uleb128 0x6
	.4byte	.LASF342
	.byte	0x2
	.2byte	0x1f3
	.byte	0x7
	.4byte	.LASF726
	.4byte	0x4633
	.4byte	0x46b1
	.uleb128 0x1
	.4byte	0x4633
	.uleb128 0x1
	.4byte	0x4633
	.uleb128 0x1
	.4byte	0x4633
	.uleb128 0x1
	.4byte	0x7f66
	.uleb128 0x1
	.4byte	0x13d
	.byte	0
	.uleb128 0x6
	.4byte	.LASF345
	.byte	0x2
	.2byte	0x1f8
	.byte	0x7
	.4byte	.LASF727
	.4byte	0x4633
	.4byte	0x46db
	.uleb128 0x1
	.4byte	0x4633
	.uleb128 0x1
	.4byte	0x4633
	.uleb128 0x1
	.4byte	0x4633
	.uleb128 0x1
	.4byte	0x7f66
	.byte	0
	.uleb128 0x4e
	.4byte	.LASF347
	.byte	0x2
	.2byte	0x213
	.4byte	.LASF728
	.4byte	0x7f6b
	.4byte	0x46f3
	.4byte	0x46f9
	.uleb128 0x2
	.4byte	0x7f6b
	.byte	0
	.uleb128 0x46
	.4byte	.LASF347
	.byte	0x2
	.2byte	0x21e
	.4byte	.LASF729
	.4byte	0x7f6b
	.4byte	0x4711
	.4byte	0x471c
	.uleb128 0x2
	.4byte	0x7f6b
	.uleb128 0x1
	.4byte	0x7f75
	.byte	0
	.uleb128 0x1a
	.4byte	.LASF285
	.byte	0x2
	.2byte	0x1d1
	.byte	0x1a
	.4byte	0x5392
	.byte	0x1
	.uleb128 0xb
	.4byte	0x471c
	.uleb128 0x46
	.4byte	.LASF347
	.byte	0x2
	.2byte	0x22c
	.4byte	.LASF730
	.4byte	0x7f6b
	.4byte	0x4747
	.4byte	0x4757
	.uleb128 0x2
	.4byte	0x7f6b
	.uleb128 0x1
	.4byte	0x4757
	.uleb128 0x1
	.4byte	0x7f75
	.byte	0
	.uleb128 0x1a
	.4byte	.LASF264
	.byte	0x2
	.2byte	0x1cf
	.byte	0x1a
	.4byte	0x155
	.byte	0x1
	.uleb128 0x7
	.4byte	.LASF347
	.byte	0x2
	.2byte	0x239
	.byte	0x7
	.4byte	.LASF731
	.4byte	0x7f6b
	.byte	0x1
	.4byte	0x477f
	.4byte	0x4794
	.uleb128 0x2
	.4byte	0x7f6b
	.uleb128 0x1
	.4byte	0x4757
	.uleb128 0x1
	.4byte	0x7f7a
	.uleb128 0x1
	.4byte	0x7f75
	.byte	0
	.uleb128 0x1a
	.4byte	.LASF9
	.byte	0x2
	.2byte	0x1c5
	.byte	0x17
	.4byte	0x34
	.byte	0x1
	.uleb128 0xb
	.4byte	0x4794
	.uleb128 0x7
	.4byte	.LASF347
	.byte	0x2
	.2byte	0x259
	.byte	0x7
	.4byte	.LASF732
	.4byte	0x7f6b
	.byte	0x1
	.4byte	0x47c1
	.4byte	0x47cc
	.uleb128 0x2
	.4byte	0x7f6b
	.uleb128 0x1
	.4byte	0x7f7f
	.byte	0
	.uleb128 0x4e
	.4byte	.LASF347
	.byte	0x2
	.2byte	0x26c
	.4byte	.LASF733
	.4byte	0x7f6b
	.4byte	0x47e4
	.4byte	0x47ef
	.uleb128 0x2
	.4byte	0x7f6b
	.uleb128 0x1
	.4byte	0x7f84
	.byte	0
	.uleb128 0x7
	.4byte	.LASF347
	.byte	0x2
	.2byte	0x270
	.byte	0x7
	.4byte	.LASF734
	.4byte	0x7f6b
	.byte	0x1
	.4byte	0x4809
	.4byte	0x4819
	.uleb128 0x2
	.4byte	0x7f6b
	.uleb128 0x1
	.4byte	0x7f7f
	.uleb128 0x1
	.4byte	0x7f89
	.byte	0
	.uleb128 0x1c
	.4byte	.LASF347
	.byte	0x2
	.2byte	0x27b
	.byte	0x7
	.4byte	.LASF735
	.4byte	0x7f6b
	.4byte	0x4832
	.4byte	0x4847
	.uleb128 0x2
	.4byte	0x7f6b
	.uleb128 0x1
	.4byte	0x7f84
	.uleb128 0x1
	.4byte	0x7f75
	.uleb128 0x1
	.4byte	0x1411
	.byte	0
	.uleb128 0x1c
	.4byte	.LASF347
	.byte	0x2
	.2byte	0x280
	.byte	0x7
	.4byte	.LASF736
	.4byte	0x7f6b
	.4byte	0x4860
	.4byte	0x4875
	.uleb128 0x2
	.4byte	0x7f6b
	.uleb128 0x1
	.4byte	0x7f84
	.uleb128 0x1
	.4byte	0x7f75
	.uleb128 0x1
	.4byte	0x13d
	.byte	0
	.uleb128 0x7
	.4byte	.LASF347
	.byte	0x2
	.2byte	0x293
	.byte	0x7
	.4byte	.LASF737
	.4byte	0x7f6b
	.byte	0x1
	.4byte	0x488f
	.4byte	0x489f
	.uleb128 0x2
	.4byte	0x7f6b
	.uleb128 0x1
	.4byte	0x7f84
	.uleb128 0x1
	.4byte	0x7f89
	.byte	0
	.uleb128 0x7
	.4byte	.LASF347
	.byte	0x2
	.2byte	0x2a6
	.byte	0x7
	.4byte	.LASF738
	.4byte	0x7f6b
	.byte	0x1
	.4byte	0x48b9
	.4byte	0x48c9
	.uleb128 0x2
	.4byte	0x7f6b
	.uleb128 0x1
	.4byte	0x594c
	.uleb128 0x1
	.4byte	0x7f75
	.byte	0
	.uleb128 0x7
	.4byte	.LASF359
	.byte	0x2
	.2byte	0x2dd
	.byte	0x7
	.4byte	.LASF739
	.4byte	0x6efe
	.byte	0x1
	.4byte	0x48e3
	.4byte	0x48ee
	.uleb128 0x2
	.4byte	0x7f6b
	.uleb128 0x2
	.4byte	0x3b
	.byte	0
	.uleb128 0x16
	.4byte	.LASF278
	.byte	0x9
	.byte	0xd2
	.byte	0x5
	.4byte	.LASF740
	.4byte	0x7f8e
	.byte	0x1
	.4byte	0x4907
	.4byte	0x4912
	.uleb128 0x2
	.4byte	0x7f6b
	.uleb128 0x1
	.4byte	0x7f7f
	.byte	0
	.uleb128 0x7
	.4byte	.LASF278
	.byte	0x2
	.2byte	0x2fe
	.byte	0x7
	.4byte	.LASF741
	.4byte	0x7f8e
	.byte	0x1
	.4byte	0x492c
	.4byte	0x4937
	.uleb128 0x2
	.4byte	0x7f6b
	.uleb128 0x1
	.4byte	0x7f84
	.byte	0
	.uleb128 0x7
	.4byte	.LASF278
	.byte	0x2
	.2byte	0x314
	.byte	0x7
	.4byte	.LASF742
	.4byte	0x7f8e
	.byte	0x1
	.4byte	0x4951
	.4byte	0x495c
	.uleb128 0x2
	.4byte	0x7f6b
	.uleb128 0x1
	.4byte	0x594c
	.byte	0
	.uleb128 0xe
	.4byte	.LASF364
	.byte	0x2
	.2byte	0x328
	.byte	0x7
	.4byte	.LASF743
	.byte	0x1
	.4byte	0x4972
	.4byte	0x4982
	.uleb128 0x2
	.4byte	0x7f6b
	.uleb128 0x1
	.4byte	0x4757
	.uleb128 0x1
	.4byte	0x7f7a
	.byte	0
	.uleb128 0xe
	.4byte	.LASF364
	.byte	0x2
	.2byte	0x357
	.byte	0x7
	.4byte	.LASF744
	.byte	0x1
	.4byte	0x4998
	.4byte	0x49a3
	.uleb128 0x2
	.4byte	0x7f6b
	.uleb128 0x1
	.4byte	0x594c
	.byte	0
	.uleb128 0x1a
	.4byte	.LASF367
	.byte	0x2
	.2byte	0x1ca
	.byte	0x3d
	.4byte	0x6bb3
	.byte	0x1
	.uleb128 0x7
	.4byte	.LASF368
	.byte	0x2
	.2byte	0x369
	.byte	0x7
	.4byte	.LASF745
	.4byte	0x49a3
	.byte	0x1
	.4byte	0x49cb
	.4byte	0x49d1
	.uleb128 0x2
	.4byte	0x7f6b
	.byte	0
	.uleb128 0x1a
	.4byte	.LASF370
	.byte	0x2
	.2byte	0x1cc
	.byte	0x7
	.4byte	0x6bb8
	.byte	0x1
	.uleb128 0x7
	.4byte	.LASF368
	.byte	0x2
	.2byte	0x373
	.byte	0x7
	.4byte	.LASF746
	.4byte	0x49d1
	.byte	0x1
	.4byte	0x49f9
	.4byte	0x49ff
	.uleb128 0x2
	.4byte	0x7f93
	.byte	0
	.uleb128 0x33
	.ascii	"end\000"
	.byte	0x2
	.2byte	0x37d
	.4byte	.LASF747
	.4byte	0x49a3
	.4byte	0x4a17
	.4byte	0x4a1d
	.uleb128 0x2
	.4byte	0x7f6b
	.byte	0
	.uleb128 0x33
	.ascii	"end\000"
	.byte	0x2
	.2byte	0x387
	.4byte	.LASF748
	.4byte	0x49d1
	.4byte	0x4a35
	.4byte	0x4a3b
	.uleb128 0x2
	.4byte	0x7f93
	.byte	0
	.uleb128 0x1a
	.4byte	.LASF374
	.byte	0x2
	.2byte	0x1ce
	.byte	0x30
	.4byte	0x5a4c
	.byte	0x1
	.uleb128 0x7
	.4byte	.LASF375
	.byte	0x2
	.2byte	0x391
	.byte	0x7
	.4byte	.LASF749
	.4byte	0x4a3b
	.byte	0x1
	.4byte	0x4a63
	.4byte	0x4a69
	.uleb128 0x2
	.4byte	0x7f6b
	.byte	0
	.uleb128 0x1a
	.4byte	.LASF377
	.byte	0x2
	.2byte	0x1cd
	.byte	0x35
	.4byte	0x5a51
	.byte	0x1
	.uleb128 0x7
	.4byte	.LASF375
	.byte	0x2
	.2byte	0x39b
	.byte	0x7
	.4byte	.LASF750
	.4byte	0x4a69
	.byte	0x1
	.4byte	0x4a91
	.4byte	0x4a97
	.uleb128 0x2
	.4byte	0x7f93
	.byte	0
	.uleb128 0x7
	.4byte	.LASF379
	.byte	0x2
	.2byte	0x3a5
	.byte	0x7
	.4byte	.LASF751
	.4byte	0x4a3b
	.byte	0x1
	.4byte	0x4ab1
	.4byte	0x4ab7
	.uleb128 0x2
	.4byte	0x7f6b
	.byte	0
	.uleb128 0x7
	.4byte	.LASF379
	.byte	0x2
	.2byte	0x3af
	.byte	0x7
	.4byte	.LASF752
	.4byte	0x4a69
	.byte	0x1
	.4byte	0x4ad1
	.4byte	0x4ad7
	.uleb128 0x2
	.4byte	0x7f93
	.byte	0
	.uleb128 0x7
	.4byte	.LASF382
	.byte	0x2
	.2byte	0x3ba
	.byte	0x7
	.4byte	.LASF753
	.4byte	0x49d1
	.byte	0x1
	.4byte	0x4af1
	.4byte	0x4af7
	.uleb128 0x2
	.4byte	0x7f93
	.byte	0
	.uleb128 0x7
	.4byte	.LASF384
	.byte	0x2
	.2byte	0x3c4
	.byte	0x7
	.4byte	.LASF754
	.4byte	0x49d1
	.byte	0x1
	.4byte	0x4b11
	.4byte	0x4b17
	.uleb128 0x2
	.4byte	0x7f93
	.byte	0
	.uleb128 0x7
	.4byte	.LASF386
	.byte	0x2
	.2byte	0x3ce
	.byte	0x7
	.4byte	.LASF755
	.4byte	0x4a69
	.byte	0x1
	.4byte	0x4b31
	.4byte	0x4b37
	.uleb128 0x2
	.4byte	0x7f93
	.byte	0
	.uleb128 0x7
	.4byte	.LASF388
	.byte	0x2
	.2byte	0x3d8
	.byte	0x7
	.4byte	.LASF756
	.4byte	0x4a69
	.byte	0x1
	.4byte	0x4b51
	.4byte	0x4b57
	.uleb128 0x2
	.4byte	0x7f93
	.byte	0
	.uleb128 0x7
	.4byte	.LASF390
	.byte	0x2
	.2byte	0x3e0
	.byte	0x7
	.4byte	.LASF757
	.4byte	0x4757
	.byte	0x1
	.4byte	0x4b71
	.4byte	0x4b77
	.uleb128 0x2
	.4byte	0x7f93
	.byte	0
	.uleb128 0x7
	.4byte	.LASF267
	.byte	0x2
	.2byte	0x3e6
	.byte	0x7
	.4byte	.LASF758
	.4byte	0x4757
	.byte	0x1
	.4byte	0x4b91
	.4byte	0x4b97
	.uleb128 0x2
	.4byte	0x7f93
	.byte	0
	.uleb128 0xe
	.4byte	.LASF393
	.byte	0x2
	.2byte	0x3f5
	.byte	0x7
	.4byte	.LASF759
	.byte	0x1
	.4byte	0x4bad
	.4byte	0x4bb8
	.uleb128 0x2
	.4byte	0x7f6b
	.uleb128 0x1
	.4byte	0x4757
	.byte	0
	.uleb128 0xe
	.4byte	.LASF393
	.byte	0x2
	.2byte	0x40a
	.byte	0x7
	.4byte	.LASF760
	.byte	0x1
	.4byte	0x4bce
	.4byte	0x4bde
	.uleb128 0x2
	.4byte	0x7f6b
	.uleb128 0x1
	.4byte	0x4757
	.uleb128 0x1
	.4byte	0x7f7a
	.byte	0
	.uleb128 0xe
	.4byte	.LASF396
	.byte	0x2
	.2byte	0x42c
	.byte	0x7
	.4byte	.LASF761
	.byte	0x1
	.4byte	0x4bf4
	.4byte	0x4bfa
	.uleb128 0x2
	.4byte	0x7f6b
	.byte	0
	.uleb128 0x7
	.4byte	.LASF398
	.byte	0x2
	.2byte	0x436
	.byte	0x7
	.4byte	.LASF762
	.4byte	0x4757
	.byte	0x1
	.4byte	0x4c14
	.4byte	0x4c1a
	.uleb128 0x2
	.4byte	0x7f93
	.byte	0
	.uleb128 0x7
	.4byte	.LASF400
	.byte	0x2
	.2byte	0x442
	.byte	0x7
	.4byte	.LASF763
	.4byte	0x66a4
	.byte	0x1
	.4byte	0x4c34
	.4byte	0x4c3a
	.uleb128 0x2
	.4byte	0x7f93
	.byte	0
	.uleb128 0x3e
	.4byte	.LASF402
	.byte	0x9
	.byte	0x43
	.byte	0x5
	.4byte	.LASF764
	.byte	0x1
	.4byte	0x4c4f
	.4byte	0x4c5a
	.uleb128 0x2
	.4byte	0x7f6b
	.uleb128 0x1
	.4byte	0x4757
	.byte	0
	.uleb128 0x1a
	.4byte	.LASF258
	.byte	0x2
	.2byte	0x1c8
	.byte	0x32
	.4byte	0x6b6e
	.byte	0x1
	.uleb128 0x7
	.4byte	.LASF404
	.byte	0x2
	.2byte	0x468
	.byte	0x7
	.4byte	.LASF765
	.4byte	0x4c5a
	.byte	0x1
	.4byte	0x4c82
	.4byte	0x4c8d
	.uleb128 0x2
	.4byte	0x7f6b
	.uleb128 0x1
	.4byte	0x4757
	.byte	0
	.uleb128 0x1a
	.4byte	.LASF261
	.byte	0x2
	.2byte	0x1c9
	.byte	0x37
	.4byte	0x6b7a
	.byte	0x1
	.uleb128 0x7
	.4byte	.LASF404
	.byte	0x2
	.2byte	0x47b
	.byte	0x7
	.4byte	.LASF766
	.4byte	0x4c8d
	.byte	0x1
	.4byte	0x4cb5
	.4byte	0x4cc0
	.uleb128 0x2
	.4byte	0x7f93
	.uleb128 0x1
	.4byte	0x4757
	.byte	0
	.uleb128 0xe
	.4byte	.LASF407
	.byte	0x2
	.2byte	0x485
	.byte	0x7
	.4byte	.LASF767
	.byte	0x2
	.4byte	0x4cd6
	.4byte	0x4ce1
	.uleb128 0x2
	.4byte	0x7f93
	.uleb128 0x1
	.4byte	0x4757
	.byte	0
	.uleb128 0x33
	.ascii	"at\000"
	.byte	0x2
	.2byte	0x49c
	.4byte	.LASF768
	.4byte	0x4c5a
	.4byte	0x4cf8
	.4byte	0x4d03
	.uleb128 0x2
	.4byte	0x7f6b
	.uleb128 0x1
	.4byte	0x4757
	.byte	0
	.uleb128 0x33
	.ascii	"at\000"
	.byte	0x2
	.2byte	0x4af
	.4byte	.LASF769
	.4byte	0x4c8d
	.4byte	0x4d1a
	.4byte	0x4d25
	.uleb128 0x2
	.4byte	0x7f93
	.uleb128 0x1
	.4byte	0x4757
	.byte	0
	.uleb128 0x7
	.4byte	.LASF411
	.byte	0x2
	.2byte	0x4bb
	.byte	0x7
	.4byte	.LASF770
	.4byte	0x4c5a
	.byte	0x1
	.4byte	0x4d3f
	.4byte	0x4d45
	.uleb128 0x2
	.4byte	0x7f6b
	.byte	0
	.uleb128 0x7
	.4byte	.LASF411
	.byte	0x2
	.2byte	0x4c7
	.byte	0x7
	.4byte	.LASF771
	.4byte	0x4c8d
	.byte	0x1
	.4byte	0x4d5f
	.4byte	0x4d65
	.uleb128 0x2
	.4byte	0x7f93
	.byte	0
	.uleb128 0x7
	.4byte	.LASF414
	.byte	0x2
	.2byte	0x4d3
	.byte	0x7
	.4byte	.LASF772
	.4byte	0x4c5a
	.byte	0x1
	.4byte	0x4d7f
	.4byte	0x4d85
	.uleb128 0x2
	.4byte	0x7f6b
	.byte	0
	.uleb128 0x7
	.4byte	.LASF414
	.byte	0x2
	.2byte	0x4df
	.byte	0x7
	.4byte	.LASF773
	.4byte	0x4c8d
	.byte	0x1
	.4byte	0x4d9f
	.4byte	0x4da5
	.uleb128 0x2
	.4byte	0x7f93
	.byte	0
	.uleb128 0x7
	.4byte	.LASF417
	.byte	0x2
	.2byte	0x4ee
	.byte	0x7
	.4byte	.LASF774
	.4byte	0x7166
	.byte	0x1
	.4byte	0x4dbf
	.4byte	0x4dc5
	.uleb128 0x2
	.4byte	0x7f6b
	.byte	0
	.uleb128 0x7
	.4byte	.LASF417
	.byte	0x2
	.2byte	0x4f3
	.byte	0x7
	.4byte	.LASF775
	.4byte	0x7ef3
	.byte	0x1
	.4byte	0x4ddf
	.4byte	0x4de5
	.uleb128 0x2
	.4byte	0x7f93
	.byte	0
	.uleb128 0xe
	.4byte	.LASF420
	.byte	0x2
	.2byte	0x503
	.byte	0x7
	.4byte	.LASF776
	.byte	0x1
	.4byte	0x4dfb
	.4byte	0x4e06
	.uleb128 0x2
	.4byte	0x7f6b
	.uleb128 0x1
	.4byte	0x7f7a
	.byte	0
	.uleb128 0xe
	.4byte	.LASF420
	.byte	0x2
	.2byte	0x514
	.byte	0x7
	.4byte	.LASF777
	.byte	0x1
	.4byte	0x4e1c
	.4byte	0x4e27
	.uleb128 0x2
	.4byte	0x7f6b
	.uleb128 0x1
	.4byte	0x7f9d
	.byte	0
	.uleb128 0xe
	.4byte	.LASF423
	.byte	0x2
	.2byte	0x52c
	.byte	0x7
	.4byte	.LASF778
	.byte	0x1
	.4byte	0x4e3d
	.4byte	0x4e43
	.uleb128 0x2
	.4byte	0x7f6b
	.byte	0
	.uleb128 0x16
	.4byte	.LASF425
	.byte	0x9
	.byte	0x85
	.byte	0x5
	.4byte	.LASF779
	.4byte	0x49a3
	.byte	0x1
	.4byte	0x4e5c
	.4byte	0x4e6c
	.uleb128 0x2
	.4byte	0x7f6b
	.uleb128 0x1
	.4byte	0x49d1
	.uleb128 0x1
	.4byte	0x7f7a
	.byte	0
	.uleb128 0x7
	.4byte	.LASF425
	.byte	0x2
	.2byte	0x573
	.byte	0x7
	.4byte	.LASF780
	.4byte	0x49a3
	.byte	0x1
	.4byte	0x4e86
	.4byte	0x4e96
	.uleb128 0x2
	.4byte	0x7f6b
	.uleb128 0x1
	.4byte	0x49d1
	.uleb128 0x1
	.4byte	0x7f9d
	.byte	0
	.uleb128 0x7
	.4byte	.LASF425
	.byte	0x2
	.2byte	0x585
	.byte	0x7
	.4byte	.LASF781
	.4byte	0x49a3
	.byte	0x1
	.4byte	0x4eb0
	.4byte	0x4ec0
	.uleb128 0x2
	.4byte	0x7f6b
	.uleb128 0x1
	.4byte	0x49d1
	.uleb128 0x1
	.4byte	0x594c
	.byte	0
	.uleb128 0x7
	.4byte	.LASF425
	.byte	0x2
	.2byte	0x59f
	.byte	0x7
	.4byte	.LASF782
	.4byte	0x49a3
	.byte	0x1
	.4byte	0x4eda
	.4byte	0x4eef
	.uleb128 0x2
	.4byte	0x7f6b
	.uleb128 0x1
	.4byte	0x49d1
	.uleb128 0x1
	.4byte	0x4757
	.uleb128 0x1
	.4byte	0x7f7a
	.byte	0
	.uleb128 0x7
	.4byte	.LASF430
	.byte	0x2
	.2byte	0x600
	.byte	0x7
	.4byte	.LASF783
	.4byte	0x49a3
	.byte	0x1
	.4byte	0x4f09
	.4byte	0x4f14
	.uleb128 0x2
	.4byte	0x7f6b
	.uleb128 0x1
	.4byte	0x49d1
	.byte	0
	.uleb128 0x7
	.4byte	.LASF430
	.byte	0x2
	.2byte	0x61c
	.byte	0x7
	.4byte	.LASF784
	.4byte	0x49a3
	.byte	0x1
	.4byte	0x4f2e
	.4byte	0x4f3e
	.uleb128 0x2
	.4byte	0x7f6b
	.uleb128 0x1
	.4byte	0x49d1
	.uleb128 0x1
	.4byte	0x49d1
	.byte	0
	.uleb128 0xe
	.4byte	.LASF433
	.byte	0x2
	.2byte	0x634
	.byte	0x7
	.4byte	.LASF785
	.byte	0x1
	.4byte	0x4f54
	.4byte	0x4f5f
	.uleb128 0x2
	.4byte	0x7f6b
	.uleb128 0x1
	.4byte	0x7f8e
	.byte	0
	.uleb128 0xe
	.4byte	.LASF435
	.byte	0x2
	.2byte	0x647
	.byte	0x7
	.4byte	.LASF786
	.byte	0x1
	.4byte	0x4f75
	.4byte	0x4f7b
	.uleb128 0x2
	.4byte	0x7f6b
	.byte	0
	.uleb128 0xe
	.4byte	.LASF437
	.byte	0x2
	.2byte	0x6aa
	.byte	0x7
	.4byte	.LASF787
	.byte	0x2
	.4byte	0x4f91
	.4byte	0x4fa1
	.uleb128 0x2
	.4byte	0x7f6b
	.uleb128 0x1
	.4byte	0x4757
	.uleb128 0x1
	.4byte	0x7f7a
	.byte	0
	.uleb128 0xe
	.4byte	.LASF439
	.byte	0x2
	.2byte	0x6b5
	.byte	0x7
	.4byte	.LASF788
	.byte	0x2
	.4byte	0x4fb7
	.4byte	0x4fc2
	.uleb128 0x2
	.4byte	0x7f6b
	.uleb128 0x1
	.4byte	0x4757
	.byte	0
	.uleb128 0xe
	.4byte	.LASF441
	.byte	0x9
	.2byte	0x10e
	.byte	0x5
	.4byte	.LASF789
	.byte	0x2
	.4byte	0x4fd8
	.4byte	0x4fe8
	.uleb128 0x2
	.4byte	0x7f6b
	.uleb128 0x1
	.4byte	0x155
	.uleb128 0x1
	.4byte	0x7f7a
	.byte	0
	.uleb128 0xe
	.4byte	.LASF443
	.byte	0x9
	.2byte	0x2bc
	.byte	0x5
	.4byte	.LASF790
	.byte	0x2
	.4byte	0x4ffe
	.4byte	0x5013
	.uleb128 0x2
	.4byte	0x7f6b
	.uleb128 0x1
	.4byte	0x49a3
	.uleb128 0x1
	.4byte	0x4757
	.uleb128 0x1
	.4byte	0x7f7a
	.byte	0
	.uleb128 0xe
	.4byte	.LASF445
	.byte	0x9
	.2byte	0x325
	.byte	0x5
	.4byte	.LASF791
	.byte	0x2
	.4byte	0x5029
	.4byte	0x5034
	.uleb128 0x2
	.4byte	0x7f6b
	.uleb128 0x1
	.4byte	0x4757
	.byte	0
	.uleb128 0x7
	.4byte	.LASF447
	.byte	0x9
	.2byte	0x396
	.byte	0x5
	.4byte	.LASF792
	.4byte	0x66a4
	.byte	0x2
	.4byte	0x504e
	.4byte	0x5054
	.uleb128 0x2
	.4byte	0x7f6b
	.byte	0
	.uleb128 0x7
	.4byte	.LASF449
	.byte	0x9
	.2byte	0x16b
	.byte	0x5
	.4byte	.LASF793
	.4byte	0x49a3
	.byte	0x2
	.4byte	0x506e
	.4byte	0x507e
	.uleb128 0x2
	.4byte	0x7f6b
	.uleb128 0x1
	.4byte	0x49d1
	.uleb128 0x1
	.4byte	0x7f9d
	.byte	0
	.uleb128 0x7
	.4byte	.LASF451
	.byte	0x2
	.2byte	0x76b
	.byte	0x7
	.4byte	.LASF794
	.4byte	0x49a3
	.byte	0x2
	.4byte	0x5098
	.4byte	0x50a8
	.uleb128 0x2
	.4byte	0x7f6b
	.uleb128 0x1
	.4byte	0x49d1
	.uleb128 0x1
	.4byte	0x7f9d
	.byte	0
	.uleb128 0x7
	.4byte	.LASF453
	.byte	0x2
	.2byte	0x772
	.byte	0x7
	.4byte	.LASF795
	.4byte	0x4757
	.byte	0x2
	.4byte	0x50c2
	.4byte	0x50d2
	.uleb128 0x2
	.4byte	0x7f93
	.uleb128 0x1
	.4byte	0x4757
	.uleb128 0x1
	.4byte	0x6f19
	.byte	0
	.uleb128 0x4f
	.4byte	.LASF455
	.byte	0x2
	.2byte	0x77d
	.4byte	.LASF796
	.4byte	0x4757
	.4byte	0x50f1
	.uleb128 0x1
	.4byte	0x4757
	.uleb128 0x1
	.4byte	0x7f75
	.byte	0
	.uleb128 0x4f
	.4byte	.LASF457
	.byte	0x2
	.2byte	0x786
	.4byte	.LASF797
	.4byte	0x4757
	.4byte	0x510b
	.uleb128 0x1
	.4byte	0x7fa2
	.byte	0
	.uleb128 0xe
	.4byte	.LASF459
	.byte	0x2
	.2byte	0x797
	.byte	0x7
	.4byte	.LASF798
	.byte	0x2
	.4byte	0x5121
	.4byte	0x512c
	.uleb128 0x2
	.4byte	0x7f6b
	.uleb128 0x1
	.4byte	0x4633
	.byte	0
	.uleb128 0x16
	.4byte	.LASF461
	.byte	0x9
	.byte	0xb5
	.byte	0x5
	.4byte	.LASF799
	.4byte	0x49a3
	.byte	0x2
	.4byte	0x5145
	.4byte	0x5150
	.uleb128 0x2
	.4byte	0x7f6b
	.uleb128 0x1
	.4byte	0x49a3
	.byte	0
	.uleb128 0x16
	.4byte	.LASF461
	.byte	0x9
	.byte	0xc3
	.byte	0x5
	.4byte	.LASF800
	.4byte	0x49a3
	.byte	0x2
	.4byte	0x5169
	.4byte	0x5179
	.uleb128 0x2
	.4byte	0x7f6b
	.uleb128 0x1
	.4byte	0x49a3
	.uleb128 0x1
	.4byte	0x49a3
	.byte	0
	.uleb128 0x45
	.4byte	.LASF464
	.byte	0x2
	.2byte	0x7b1
	.4byte	.LASF801
	.4byte	0x518d
	.4byte	0x519d
	.uleb128 0x2
	.4byte	0x7f6b
	.uleb128 0x1
	.4byte	0x7f84
	.uleb128 0x1
	.4byte	0x1411
	.byte	0
	.uleb128 0x45
	.4byte	.LASF464
	.byte	0x2
	.2byte	0x7bd
	.4byte	.LASF802
	.4byte	0x51b1
	.4byte	0x51c1
	.uleb128 0x2
	.4byte	0x7f6b
	.uleb128 0x1
	.4byte	0x7f84
	.uleb128 0x1
	.4byte	0x13d
	.byte	0
	.uleb128 0x8
	.ascii	"_Tp\000"
	.4byte	0x34
	.uleb128 0x62
	.4byte	.LASF334
	.4byte	0x5392
	.byte	0
	.uleb128 0xb
	.4byte	0x45a3
	.uleb128 0x48
	.4byte	.LASF803
	.byte	0x1
	.byte	0x5
	.byte	0x3f
	.4byte	0x538d
	.uleb128 0x16
	.4byte	.LASF250
	.byte	0x5
	.byte	0x58
	.byte	0x7
	.4byte	.LASF804
	.4byte	0x7eda
	.byte	0x1
	.4byte	0x51fe
	.4byte	0x5204
	.uleb128 0x2
	.4byte	0x7eda
	.byte	0
	.uleb128 0x16
	.4byte	.LASF250
	.byte	0x5
	.byte	0x5c
	.byte	0x7
	.4byte	.LASF805
	.4byte	0x7eda
	.byte	0x1
	.4byte	0x521d
	.4byte	0x5228
	.uleb128 0x2
	.4byte	0x7eda
	.uleb128 0x1
	.4byte	0x7edf
	.byte	0
	.uleb128 0x44
	.4byte	.LASF278
	.byte	0x5
	.byte	0x64
	.byte	0x18
	.4byte	.LASF806
	.4byte	0x7ee4
	.4byte	0x5240
	.4byte	0x524b
	.uleb128 0x2
	.4byte	0x7eda
	.uleb128 0x1
	.4byte	0x7edf
	.byte	0
	.uleb128 0x16
	.4byte	.LASF253
	.byte	0x5
	.byte	0x68
	.byte	0x7
	.4byte	.LASF807
	.4byte	0x6efe
	.byte	0x1
	.4byte	0x5264
	.4byte	0x526f
	.uleb128 0x2
	.4byte	0x7eda
	.uleb128 0x2
	.4byte	0x3b
	.byte	0
	.uleb128 0x28
	.4byte	.LASF257
	.byte	0x5
	.byte	0x46
	.byte	0x1a
	.4byte	0x7166
	.byte	0x1
	.uleb128 0x16
	.4byte	.LASF255
	.byte	0x5
	.byte	0x6b
	.byte	0x7
	.4byte	.LASF808
	.4byte	0x526f
	.byte	0x1
	.4byte	0x5295
	.4byte	0x52a0
	.uleb128 0x2
	.4byte	0x7ee9
	.uleb128 0x1
	.4byte	0x52a0
	.byte	0
	.uleb128 0x28
	.4byte	.LASF258
	.byte	0x5
	.byte	0x48
	.byte	0x1a
	.4byte	0x7eee
	.byte	0x1
	.uleb128 0x28
	.4byte	.LASF259
	.byte	0x5
	.byte	0x47
	.byte	0x1a
	.4byte	0x7ef3
	.byte	0x1
	.uleb128 0x16
	.4byte	.LASF255
	.byte	0x5
	.byte	0x6f
	.byte	0x7
	.4byte	.LASF809
	.4byte	0x52ad
	.byte	0x1
	.4byte	0x52d3
	.4byte	0x52de
	.uleb128 0x2
	.4byte	0x7ee9
	.uleb128 0x1
	.4byte	0x52de
	.byte	0
	.uleb128 0x28
	.4byte	.LASF261
	.byte	0x5
	.byte	0x49
	.byte	0x1a
	.4byte	0x7efd
	.byte	0x1
	.uleb128 0x16
	.4byte	.LASF262
	.byte	0x5
	.byte	0x7e
	.byte	0x7
	.4byte	.LASF810
	.4byte	0x7166
	.byte	0x1
	.4byte	0x5304
	.4byte	0x5314
	.uleb128 0x2
	.4byte	0x7eda
	.uleb128 0x1
	.4byte	0x5314
	.uleb128 0x1
	.4byte	0x6fef
	.byte	0
	.uleb128 0x28
	.4byte	.LASF264
	.byte	0x5
	.byte	0x43
	.byte	0x1f
	.4byte	0x155
	.byte	0x1
	.uleb128 0x3e
	.4byte	.LASF265
	.byte	0x5
	.byte	0x9c
	.byte	0x7
	.4byte	.LASF811
	.byte	0x1
	.4byte	0x5336
	.4byte	0x5346
	.uleb128 0x2
	.4byte	0x7eda
	.uleb128 0x1
	.4byte	0x7166
	.uleb128 0x1
	.4byte	0x5314
	.byte	0
	.uleb128 0x16
	.4byte	.LASF267
	.byte	0x5
	.byte	0xb6
	.byte	0x7
	.4byte	.LASF812
	.4byte	0x5314
	.byte	0x1
	.4byte	0x535f
	.4byte	0x5365
	.uleb128 0x2
	.4byte	0x7ee9
	.byte	0
	.uleb128 0x17
	.4byte	.LASF269
	.byte	0x5
	.byte	0xe6
	.byte	0x7
	.4byte	.LASF813
	.4byte	0x5314
	.4byte	0x537d
	.4byte	0x5383
	.uleb128 0x2
	.4byte	0x7ee9
	.byte	0
	.uleb128 0x8
	.ascii	"_Tp\000"
	.4byte	0x34
	.byte	0
	.uleb128 0xb
	.4byte	0x51d9
	.uleb128 0x48
	.4byte	.LASF814
	.byte	0x1
	.byte	0x8
	.byte	0x80
	.4byte	0x5429
	.uleb128 0x4c
	.4byte	0x51d9
	.byte	0x1
	.uleb128 0x16
	.4byte	.LASF275
	.byte	0x8
	.byte	0xa1
	.byte	0x7
	.4byte	.LASF815
	.4byte	0x7f02
	.byte	0x1
	.4byte	0x53bd
	.4byte	0x53c3
	.uleb128 0x2
	.4byte	0x7f02
	.byte	0
	.uleb128 0x16
	.4byte	.LASF275
	.byte	0x8
	.byte	0xa5
	.byte	0x7
	.4byte	.LASF816
	.4byte	0x7f02
	.byte	0x1
	.4byte	0x53dc
	.4byte	0x53e7
	.uleb128 0x2
	.4byte	0x7f02
	.uleb128 0x1
	.4byte	0x7f07
	.byte	0
	.uleb128 0x44
	.4byte	.LASF278
	.byte	0x8
	.byte	0xaa
	.byte	0x12
	.4byte	.LASF817
	.4byte	0x7f0c
	.4byte	0x53ff
	.4byte	0x540a
	.uleb128 0x2
	.4byte	0x7f02
	.uleb128 0x1
	.4byte	0x7f07
	.byte	0
	.uleb128 0x5e
	.4byte	.LASF281
	.byte	0xb6
	.byte	0x7
	.4byte	.LASF818
	.4byte	0x6efe
	.4byte	0x541d
	.uleb128 0x2
	.4byte	0x7f02
	.uleb128 0x2
	.4byte	0x3b
	.byte	0
	.byte	0
	.uleb128 0xb
	.4byte	0x5392
	.uleb128 0x39
	.4byte	.LASF819
	.byte	0x1
	.byte	0x6
	.2byte	0x1a8
	.byte	0xc
	.4byte	0x552c
	.uleb128 0x22
	.4byte	.LASF257
	.byte	0x6
	.2byte	0x1b1
	.byte	0xd
	.4byte	0x7166
	.uleb128 0x6
	.4byte	.LASF262
	.byte	0x6
	.2byte	0x1dd
	.byte	0x7
	.4byte	.LASF820
	.4byte	0x543c
	.4byte	0x5469
	.uleb128 0x1
	.4byte	0x7f11
	.uleb128 0x1
	.4byte	0x547b
	.byte	0
	.uleb128 0x22
	.4byte	.LASF285
	.byte	0x6
	.2byte	0x1ab
	.byte	0xd
	.4byte	0x5392
	.uleb128 0xb
	.4byte	0x5469
	.uleb128 0x22
	.4byte	.LASF264
	.byte	0x6
	.2byte	0x1c0
	.byte	0xd
	.4byte	0x155
	.uleb128 0x6
	.4byte	.LASF262
	.byte	0x6
	.2byte	0x1ec
	.byte	0x7
	.4byte	.LASF821
	.4byte	0x543c
	.4byte	0x54ad
	.uleb128 0x1
	.4byte	0x7f11
	.uleb128 0x1
	.4byte	0x547b
	.uleb128 0x1
	.4byte	0x54ad
	.byte	0
	.uleb128 0x22
	.4byte	.LASF287
	.byte	0x6
	.2byte	0x1ba
	.byte	0xd
	.4byte	0x6fef
	.uleb128 0x54
	.4byte	.LASF265
	.byte	0x6
	.2byte	0x200
	.byte	0x7
	.4byte	.LASF822
	.4byte	0x54db
	.uleb128 0x1
	.4byte	0x7f11
	.uleb128 0x1
	.4byte	0x543c
	.uleb128 0x1
	.4byte	0x547b
	.byte	0
	.uleb128 0x6
	.4byte	.LASF267
	.byte	0x6
	.2byte	0x237
	.byte	0x7
	.4byte	.LASF823
	.4byte	0x547b
	.4byte	0x54f6
	.uleb128 0x1
	.4byte	0x7f16
	.byte	0
	.uleb128 0x6
	.4byte	.LASF290
	.byte	0x6
	.2byte	0x247
	.byte	0x7
	.4byte	.LASF824
	.4byte	0x5469
	.4byte	0x5511
	.uleb128 0x1
	.4byte	0x7f16
	.byte	0
	.uleb128 0x22
	.4byte	.LASF9
	.byte	0x6
	.2byte	0x1ae
	.byte	0xd
	.4byte	0x34
	.uleb128 0x22
	.4byte	.LASF292
	.byte	0x6
	.2byte	0x1cf
	.byte	0x8
	.4byte	0x5392
	.byte	0
	.uleb128 0x21
	.4byte	.LASF825
	.byte	0xc
	.byte	0x2
	.byte	0x54
	.byte	0xc
	.4byte	0x5913
	.uleb128 0x21
	.4byte	.LASF295
	.byte	0xc
	.byte	0x2
	.byte	0x5b
	.byte	0xe
	.4byte	0x55e7
	.uleb128 0x20
	.4byte	.LASF296
	.byte	0x2
	.byte	0x5d
	.byte	0xa
	.4byte	0x55ec
	.byte	0
	.uleb128 0x20
	.4byte	.LASF297
	.byte	0x2
	.byte	0x5e
	.byte	0xa
	.4byte	0x55ec
	.byte	0x4
	.uleb128 0x20
	.4byte	.LASF298
	.byte	0x2
	.byte	0x5f
	.byte	0xa
	.4byte	0x55ec
	.byte	0x8
	.uleb128 0x17
	.4byte	.LASF295
	.byte	0x2
	.byte	0x62
	.byte	0x2
	.4byte	.LASF826
	.4byte	0x7f25
	.4byte	0x5585
	.4byte	0x558b
	.uleb128 0x2
	.4byte	0x7f25
	.byte	0
	.uleb128 0x17
	.4byte	.LASF295
	.byte	0x2
	.byte	0x68
	.byte	0x2
	.4byte	.LASF827
	.4byte	0x7f25
	.4byte	0x55a3
	.4byte	0x55ae
	.uleb128 0x2
	.4byte	0x7f25
	.uleb128 0x1
	.4byte	0x7f2a
	.byte	0
	.uleb128 0x5f
	.4byte	.LASF301
	.byte	0x2
	.byte	0x70
	.byte	0x2
	.4byte	.LASF828
	.4byte	0x55c2
	.4byte	0x55cd
	.uleb128 0x2
	.4byte	0x7f25
	.uleb128 0x1
	.4byte	0x7f2f
	.byte	0
	.uleb128 0x6e
	.4byte	.LASF303
	.byte	0x79
	.4byte	.LASF830
	.4byte	0x55db
	.uleb128 0x2
	.4byte	0x7f25
	.uleb128 0x1
	.4byte	0x7f34
	.byte	0
	.byte	0
	.uleb128 0xb
	.4byte	0x5539
	.uleb128 0xf
	.4byte	.LASF257
	.byte	0x2
	.byte	0x59
	.byte	0x9
	.4byte	0x6b62
	.uleb128 0x21
	.4byte	.LASF304
	.byte	0xc
	.byte	0x2
	.byte	0x84
	.byte	0xe
	.4byte	0x56bb
	.uleb128 0x2f
	.4byte	0x5392
	.uleb128 0x2f
	.4byte	0x5539
	.uleb128 0x17
	.4byte	.LASF304
	.byte	0x2
	.byte	0x88
	.byte	0x2
	.4byte	.LASF831
	.4byte	0x7f39
	.4byte	0x5627
	.4byte	0x562d
	.uleb128 0x2
	.4byte	0x7f39
	.byte	0
	.uleb128 0x17
	.4byte	.LASF304
	.byte	0x2
	.byte	0x91
	.byte	0x2
	.4byte	.LASF832
	.4byte	0x7f39
	.4byte	0x5645
	.4byte	0x5650
	.uleb128 0x2
	.4byte	0x7f39
	.uleb128 0x1
	.4byte	0x7f3e
	.byte	0
	.uleb128 0x17
	.4byte	.LASF304
	.byte	0x2
	.byte	0x99
	.byte	0x2
	.4byte	.LASF833
	.4byte	0x7f39
	.4byte	0x5668
	.4byte	0x5673
	.uleb128 0x2
	.4byte	0x7f39
	.uleb128 0x1
	.4byte	0x7f43
	.byte	0
	.uleb128 0x17
	.4byte	.LASF304
	.byte	0x2
	.byte	0x9e
	.byte	0x2
	.4byte	.LASF834
	.4byte	0x7f39
	.4byte	0x568b
	.4byte	0x5696
	.uleb128 0x2
	.4byte	0x7f39
	.uleb128 0x1
	.4byte	0x7f48
	.byte	0
	.uleb128 0x60
	.4byte	.LASF304
	.byte	0x2
	.byte	0xa3
	.byte	0x2
	.4byte	.LASF835
	.4byte	0x7f39
	.4byte	0x56aa
	.uleb128 0x2
	.4byte	0x7f39
	.uleb128 0x1
	.4byte	0x7f48
	.uleb128 0x1
	.4byte	0x7f43
	.byte	0
	.byte	0
	.uleb128 0xf
	.4byte	.LASF310
	.byte	0x2
	.byte	0x57
	.byte	0x15
	.4byte	0x6b93
	.uleb128 0xb
	.4byte	0x56bb
	.uleb128 0x1c
	.4byte	.LASF311
	.byte	0x2
	.2byte	0x12c
	.byte	0x7
	.4byte	.LASF836
	.4byte	0x7f4d
	.4byte	0x56e5
	.4byte	0x56eb
	.uleb128 0x2
	.4byte	0x7f52
	.byte	0
	.uleb128 0x1c
	.4byte	.LASF311
	.byte	0x2
	.2byte	0x131
	.byte	0x7
	.4byte	.LASF837
	.4byte	0x7f3e
	.4byte	0x5704
	.4byte	0x570a
	.uleb128 0x2
	.4byte	0x7f57
	.byte	0
	.uleb128 0x22
	.4byte	.LASF285
	.byte	0x2
	.2byte	0x128
	.byte	0x16
	.4byte	0x5392
	.uleb128 0xb
	.4byte	0x570a
	.uleb128 0x1c
	.4byte	.LASF314
	.byte	0x2
	.2byte	0x136
	.byte	0x7
	.4byte	.LASF838
	.4byte	0x570a
	.4byte	0x5735
	.4byte	0x573b
	.uleb128 0x2
	.4byte	0x7f57
	.byte	0
	.uleb128 0x49
	.4byte	.LASF316
	.byte	0x2
	.2byte	0x13a
	.byte	0x7
	.4byte	.LASF839
	.4byte	0x7f52
	.4byte	0x5754
	.4byte	0x575a
	.uleb128 0x2
	.4byte	0x7f52
	.byte	0
	.uleb128 0x1c
	.4byte	.LASF316
	.byte	0x2
	.2byte	0x140
	.byte	0x7
	.4byte	.LASF840
	.4byte	0x7f52
	.4byte	0x5773
	.4byte	0x577e
	.uleb128 0x2
	.4byte	0x7f52
	.uleb128 0x1
	.4byte	0x7f5c
	.byte	0
	.uleb128 0x1c
	.4byte	.LASF316
	.byte	0x2
	.2byte	0x146
	.byte	0x7
	.4byte	.LASF841
	.4byte	0x7f52
	.4byte	0x5797
	.4byte	0x57a2
	.uleb128 0x2
	.4byte	0x7f52
	.uleb128 0x1
	.4byte	0x155
	.byte	0
	.uleb128 0x1c
	.4byte	.LASF316
	.byte	0x2
	.2byte	0x14c
	.byte	0x7
	.4byte	.LASF842
	.4byte	0x7f52
	.4byte	0x57bb
	.4byte	0x57cb
	.uleb128 0x2
	.4byte	0x7f52
	.uleb128 0x1
	.4byte	0x155
	.uleb128 0x1
	.4byte	0x7f5c
	.byte	0
	.uleb128 0x49
	.4byte	.LASF316
	.byte	0x2
	.2byte	0x151
	.byte	0x7
	.4byte	.LASF843
	.4byte	0x7f52
	.4byte	0x57e4
	.4byte	0x57ef
	.uleb128 0x2
	.4byte	0x7f52
	.uleb128 0x1
	.4byte	0x7f61
	.byte	0
	.uleb128 0x1c
	.4byte	.LASF316
	.byte	0x2
	.2byte	0x156
	.byte	0x7
	.4byte	.LASF844
	.4byte	0x7f52
	.4byte	0x5808
	.4byte	0x5813
	.uleb128 0x2
	.4byte	0x7f52
	.uleb128 0x1
	.4byte	0x7f48
	.byte	0
	.uleb128 0x1c
	.4byte	.LASF316
	.byte	0x2
	.2byte	0x15a
	.byte	0x7
	.4byte	.LASF845
	.4byte	0x7f52
	.4byte	0x582c
	.4byte	0x583c
	.uleb128 0x2
	.4byte	0x7f52
	.uleb128 0x1
	.4byte	0x7f61
	.uleb128 0x1
	.4byte	0x7f5c
	.byte	0
	.uleb128 0x1c
	.4byte	.LASF316
	.byte	0x2
	.2byte	0x168
	.byte	0x7
	.4byte	.LASF846
	.4byte	0x7f52
	.4byte	0x5855
	.4byte	0x5865
	.uleb128 0x2
	.4byte	0x7f52
	.uleb128 0x1
	.4byte	0x7f5c
	.uleb128 0x1
	.4byte	0x7f61
	.byte	0
	.uleb128 0x1c
	.4byte	.LASF325
	.byte	0x2
	.2byte	0x16e
	.byte	0x7
	.4byte	.LASF847
	.4byte	0x6efe
	.4byte	0x587e
	.4byte	0x5889
	.uleb128 0x2
	.4byte	0x7f52
	.uleb128 0x2
	.4byte	0x3b
	.byte	0
	.uleb128 0x3f
	.4byte	.LASF327
	.byte	0x2
	.2byte	0x175
	.byte	0x14
	.4byte	0x55f8
	.byte	0
	.uleb128 0x1c
	.4byte	.LASF328
	.byte	0x2
	.2byte	0x179
	.byte	0x7
	.4byte	.LASF848
	.4byte	0x55ec
	.4byte	0x58b0
	.4byte	0x58bb
	.uleb128 0x2
	.4byte	0x7f52
	.uleb128 0x1
	.4byte	0x155
	.byte	0
	.uleb128 0x45
	.4byte	.LASF330
	.byte	0x2
	.2byte	0x181
	.4byte	.LASF849
	.4byte	0x58cf
	.4byte	0x58df
	.uleb128 0x2
	.4byte	0x7f52
	.uleb128 0x1
	.4byte	0x55ec
	.uleb128 0x1
	.4byte	0x155
	.byte	0
	.uleb128 0xe
	.4byte	.LASF332
	.byte	0x2
	.2byte	0x18c
	.byte	0x7
	.4byte	.LASF850
	.byte	0x2
	.4byte	0x58f5
	.4byte	0x5900
	.uleb128 0x2
	.4byte	0x7f52
	.uleb128 0x1
	.4byte	0x155
	.byte	0
	.uleb128 0x8
	.ascii	"_Tp\000"
	.4byte	0x34
	.uleb128 0xa
	.4byte	.LASF334
	.4byte	0x5392
	.byte	0
	.uleb128 0xb
	.4byte	0x552c
	.uleb128 0x21
	.4byte	.LASF851
	.byte	0x1
	.byte	0xe
	.byte	0xa1
	.byte	0xc
	.4byte	0x593b
	.uleb128 0xf
	.4byte	.LASF336
	.byte	0xe
	.byte	0xa2
	.byte	0xd
	.4byte	0x5392
	.uleb128 0xa
	.4byte	.LASF337
	.4byte	0x5392
	.byte	0
	.uleb128 0xf
	.4byte	.LASF473
	.byte	0xe
	.byte	0xa5
	.byte	0xb
	.4byte	0x5925
	.uleb128 0xb
	.4byte	0x593b
	.uleb128 0x48
	.4byte	.LASF852
	.byte	0x8
	.byte	0x16
	.byte	0x2d
	.4byte	0x5a47
	.uleb128 0x28
	.4byte	.LASF367
	.byte	0x16
	.byte	0x34
	.byte	0x1a
	.4byte	0x7ef3
	.byte	0x1
	.uleb128 0x20
	.4byte	.LASF853
	.byte	0x16
	.byte	0x38
	.byte	0x12
	.4byte	0x5958
	.byte	0
	.uleb128 0x28
	.4byte	.LASF264
	.byte	0x16
	.byte	0x33
	.byte	0x18
	.4byte	0x155
	.byte	0x1
	.uleb128 0x20
	.4byte	.LASF854
	.byte	0x16
	.byte	0x39
	.byte	0x13
	.4byte	0x5972
	.byte	0x4
	.uleb128 0x17
	.4byte	.LASF855
	.byte	0x16
	.byte	0x3c
	.byte	0x11
	.4byte	.LASF856
	.4byte	0x7fa7
	.4byte	0x59a4
	.4byte	0x59b4
	.uleb128 0x2
	.4byte	0x7fa7
	.uleb128 0x1
	.4byte	0x59b4
	.uleb128 0x1
	.4byte	0x5972
	.byte	0
	.uleb128 0x28
	.4byte	.LASF370
	.byte	0x16
	.byte	0x35
	.byte	0x1a
	.4byte	0x7ef3
	.byte	0x1
	.uleb128 0x16
	.4byte	.LASF855
	.byte	0x16
	.byte	0x40
	.byte	0x11
	.4byte	.LASF857
	.4byte	0x7fa7
	.byte	0x1
	.4byte	0x59da
	.4byte	0x59e0
	.uleb128 0x2
	.4byte	0x7fa7
	.byte	0
	.uleb128 0x16
	.4byte	.LASF390
	.byte	0x16
	.byte	0x45
	.byte	0x7
	.4byte	.LASF858
	.4byte	0x5972
	.byte	0x1
	.4byte	0x59f9
	.4byte	0x59ff
	.uleb128 0x2
	.4byte	0x7fac
	.byte	0
	.uleb128 0x16
	.4byte	.LASF368
	.byte	0x16
	.byte	0x49
	.byte	0x7
	.4byte	.LASF859
	.4byte	0x59b4
	.byte	0x1
	.4byte	0x5a18
	.4byte	0x5a1e
	.uleb128 0x2
	.4byte	0x7fac
	.byte	0
	.uleb128 0x86
	.ascii	"end\000"
	.byte	0x16
	.byte	0x4d
	.byte	0x7
	.4byte	.LASF1266
	.4byte	0x59b4
	.byte	0x1
	.4byte	0x5a38
	.4byte	0x5a3e
	.uleb128 0x2
	.4byte	0x7fac
	.byte	0
	.uleb128 0x8
	.ascii	"_E\000"
	.4byte	0x34
	.byte	0
	.uleb128 0xb
	.4byte	0x594c
	.uleb128 0x40
	.4byte	.LASF860
	.uleb128 0x40
	.4byte	.LASF861
	.uleb128 0x21
	.4byte	.LASF862
	.byte	0x1
	.byte	0x15
	.byte	0x7b
	.byte	0xc
	.4byte	0x5aa8
	.uleb128 0xf
	.4byte	.LASF257
	.byte	0x15
	.byte	0x7d
	.byte	0xd
	.4byte	0x7d08
	.uleb128 0x26
	.4byte	.LASF496
	.byte	0x15
	.byte	0x86
	.byte	0x7
	.4byte	.LASF863
	.4byte	0x5a63
	.4byte	0x5a89
	.uleb128 0x1
	.4byte	0x7fc8
	.byte	0
	.uleb128 0xf
	.4byte	.LASF498
	.byte	0x15
	.byte	0x7e
	.byte	0xd
	.4byte	0x6e70
	.uleb128 0xa
	.4byte	.LASF499
	.4byte	0x7d08
	.uleb128 0xa
	.4byte	.LASF500
	.4byte	0x6e70
	.byte	0
	.uleb128 0x21
	.4byte	.LASF864
	.byte	0x1
	.byte	0x15
	.byte	0xbb
	.byte	0xc
	.4byte	0x5adc
	.uleb128 0x2f
	.4byte	0x5a56
	.uleb128 0xf
	.4byte	.LASF502
	.byte	0x15
	.byte	0xc4
	.byte	0x24
	.4byte	0x7cef
	.uleb128 0xf
	.4byte	.LASF502
	.byte	0x15
	.byte	0xc4
	.byte	0x24
	.4byte	0x7dd5
	.uleb128 0xa
	.4byte	.LASF499
	.4byte	0x7d08
	.byte	0
	.uleb128 0xf
	.4byte	.LASF540
	.byte	0x15
	.byte	0xc9
	.byte	0xb
	.4byte	0x5aba
	.uleb128 0xf
	.4byte	.LASF540
	.byte	0x15
	.byte	0xc9
	.byte	0xb
	.4byte	0x5ac6
	.uleb128 0x5d
	.4byte	.LASF865
	.byte	0xe
	.byte	0xa7
	.byte	0xd
	.uleb128 0x21
	.4byte	.LASF866
	.byte	0x1
	.byte	0x10
	.byte	0xdd
	.byte	0xc
	.4byte	0x5b2e
	.uleb128 0xf
	.4byte	.LASF533
	.byte	0x10
	.byte	0xe1
	.byte	0x2b
	.4byte	0x13ff
	.uleb128 0xf
	.4byte	.LASF257
	.byte	0x10
	.byte	0xe2
	.byte	0x2b
	.4byte	0x7ef3
	.uleb128 0xf
	.4byte	.LASF258
	.byte	0x10
	.byte	0xe3
	.byte	0x2b
	.4byte	0x7efd
	.byte	0
	.uleb128 0x39
	.4byte	.LASF867
	.byte	0x1
	.byte	0x6
	.2byte	0x1a8
	.byte	0xc
	.4byte	0x5c0e
	.uleb128 0x22
	.4byte	.LASF257
	.byte	0x6
	.2byte	0x1b1
	.byte	0xd
	.4byte	0x7dd5
	.uleb128 0x6
	.4byte	.LASF262
	.byte	0x6
	.2byte	0x1dd
	.byte	0x7
	.4byte	.LASF868
	.4byte	0x5b3c
	.4byte	0x5b69
	.uleb128 0x1
	.4byte	0x8004
	.uleb128 0x1
	.4byte	0x5b7b
	.byte	0
	.uleb128 0x22
	.4byte	.LASF285
	.byte	0x6
	.2byte	0x1ab
	.byte	0xd
	.4byte	0x2a16
	.uleb128 0xb
	.4byte	0x5b69
	.uleb128 0x22
	.4byte	.LASF264
	.byte	0x6
	.2byte	0x1c0
	.byte	0xd
	.4byte	0x155
	.uleb128 0x6
	.4byte	.LASF262
	.byte	0x6
	.2byte	0x1ec
	.byte	0x7
	.4byte	.LASF869
	.4byte	0x5b3c
	.4byte	0x5bad
	.uleb128 0x1
	.4byte	0x8004
	.uleb128 0x1
	.4byte	0x5b7b
	.uleb128 0x1
	.4byte	0x5bad
	.byte	0
	.uleb128 0x22
	.4byte	.LASF287
	.byte	0x6
	.2byte	0x1ba
	.byte	0xd
	.4byte	0x6fef
	.uleb128 0x54
	.4byte	.LASF265
	.byte	0x6
	.2byte	0x200
	.byte	0x7
	.4byte	.LASF870
	.4byte	0x5bdb
	.uleb128 0x1
	.4byte	0x8004
	.uleb128 0x1
	.4byte	0x5b3c
	.uleb128 0x1
	.4byte	0x5b7b
	.byte	0
	.uleb128 0x6
	.4byte	.LASF267
	.byte	0x6
	.2byte	0x237
	.byte	0x7
	.4byte	.LASF871
	.4byte	0x5b7b
	.4byte	0x5bf6
	.uleb128 0x1
	.4byte	0x8009
	.byte	0
	.uleb128 0x71
	.4byte	.LASF290
	.byte	0x6
	.2byte	0x247
	.byte	0x7
	.4byte	.LASF872
	.4byte	0x5b69
	.uleb128 0x1
	.4byte	0x8009
	.byte	0
	.byte	0
	.uleb128 0x21
	.4byte	.LASF873
	.byte	0x1
	.byte	0x10
	.byte	0xd2
	.byte	0xc
	.4byte	0x5c40
	.uleb128 0xf
	.4byte	.LASF533
	.byte	0x10
	.byte	0xd6
	.byte	0x2b
	.4byte	0x13ff
	.uleb128 0xf
	.4byte	.LASF257
	.byte	0x10
	.byte	0xd7
	.byte	0x2b
	.4byte	0x7cef
	.uleb128 0xf
	.4byte	.LASF258
	.byte	0x10
	.byte	0xd8
	.byte	0x2b
	.4byte	0x7d03
	.byte	0
	.uleb128 0x21
	.4byte	.LASF874
	.byte	0x1
	.byte	0xe
	.byte	0x85
	.byte	0xc
	.4byte	0x5c63
	.uleb128 0xf
	.4byte	.LASF336
	.byte	0xe
	.byte	0x86
	.byte	0xd
	.4byte	0x7cef
	.uleb128 0x8
	.ascii	"_Tp\000"
	.4byte	0x7cef
	.byte	0
	.uleb128 0x39
	.4byte	.LASF875
	.byte	0x1
	.byte	0x3
	.2byte	0x1bb
	.byte	0xc
	.4byte	0x5cc6
	.uleb128 0x6
	.4byte	.LASF876
	.byte	0x3
	.2byte	0x1c0
	.byte	0x2
	.4byte	.LASF877
	.4byte	0x7dd5
	.4byte	0x5ca8
	.uleb128 0x8
	.ascii	"_Tp\000"
	.4byte	0x7cef
	.uleb128 0x8
	.ascii	"_Up\000"
	.4byte	0x7cef
	.uleb128 0x1
	.4byte	0x7dd5
	.uleb128 0x1
	.4byte	0x7dd5
	.uleb128 0x1
	.4byte	0x7dd5
	.byte	0
	.uleb128 0x18
	.4byte	.LASF23
	.4byte	0x66a4
	.byte	0
	.uleb128 0x18
	.4byte	.LASF24
	.4byte	0x66a4
	.byte	0x1
	.uleb128 0xa
	.4byte	.LASF25
	.4byte	0x1a5
	.byte	0
	.uleb128 0x39
	.4byte	.LASF878
	.byte	0x1
	.byte	0x3
	.2byte	0x2f5
	.byte	0xc
	.4byte	0x5d29
	.uleb128 0x6
	.4byte	.LASF879
	.byte	0x3
	.2byte	0x2fa
	.byte	0x2
	.4byte	.LASF880
	.4byte	0x7dd5
	.4byte	0x5d0b
	.uleb128 0x8
	.ascii	"_Tp\000"
	.4byte	0x7cef
	.uleb128 0x8
	.ascii	"_Up\000"
	.4byte	0x7cef
	.uleb128 0x1
	.4byte	0x7dd5
	.uleb128 0x1
	.4byte	0x7dd5
	.uleb128 0x1
	.4byte	0x7dd5
	.byte	0
	.uleb128 0x18
	.4byte	.LASF23
	.4byte	0x66a4
	.byte	0
	.uleb128 0x18
	.4byte	.LASF24
	.4byte	0x66a4
	.byte	0x1
	.uleb128 0xa
	.4byte	.LASF25
	.4byte	0x1a5
	.byte	0
	.uleb128 0x39
	.4byte	.LASF881
	.byte	0x1
	.byte	0x3
	.2byte	0x2f5
	.byte	0xc
	.4byte	0x5d8c
	.uleb128 0x6
	.4byte	.LASF882
	.byte	0x3
	.2byte	0x2fa
	.byte	0x2
	.4byte	.LASF883
	.4byte	0x7cef
	.4byte	0x5d6e
	.uleb128 0x8
	.ascii	"_Tp\000"
	.4byte	0x6e69
	.uleb128 0x8
	.ascii	"_Up\000"
	.4byte	0x6e69
	.uleb128 0x1
	.4byte	0x7cef
	.uleb128 0x1
	.4byte	0x7cef
	.uleb128 0x1
	.4byte	0x7cef
	.byte	0
	.uleb128 0x18
	.4byte	.LASF23
	.4byte	0x66a4
	.byte	0x1
	.uleb128 0x18
	.4byte	.LASF24
	.4byte	0x66a4
	.byte	0x1
	.uleb128 0xa
	.4byte	.LASF25
	.4byte	0x1a5
	.byte	0
	.uleb128 0x39
	.4byte	.LASF884
	.byte	0x1
	.byte	0x3
	.2byte	0x1bb
	.byte	0xc
	.4byte	0x5def
	.uleb128 0x6
	.4byte	.LASF885
	.byte	0x3
	.2byte	0x1c0
	.byte	0x2
	.4byte	.LASF886
	.4byte	0x7cef
	.4byte	0x5dd1
	.uleb128 0x8
	.ascii	"_Tp\000"
	.4byte	0x6e69
	.uleb128 0x8
	.ascii	"_Up\000"
	.4byte	0x6e69
	.uleb128 0x1
	.4byte	0x7cef
	.uleb128 0x1
	.4byte	0x7cef
	.uleb128 0x1
	.4byte	0x7cef
	.byte	0
	.uleb128 0x18
	.4byte	.LASF23
	.4byte	0x66a4
	.byte	0x1
	.uleb128 0x18
	.4byte	.LASF24
	.4byte	0x66a4
	.byte	0x1
	.uleb128 0xa
	.4byte	.LASF25
	.4byte	0x1a5
	.byte	0
	.uleb128 0x72
	.4byte	.LASF887
	.byte	0x35
	.4byte	.LASF888
	.uleb128 0x72
	.4byte	.LASF889
	.byte	0x38
	.4byte	.LASF890
	.uleb128 0x87
	.4byte	.LASF891
	.byte	0x17
	.byte	0x4c
	.byte	0x3
	.4byte	.LASF892
	.4byte	0x5e1a
	.uleb128 0x1
	.4byte	0x6f19
	.byte	0
	.uleb128 0x6
	.4byte	.LASF893
	.byte	0x3
	.2byte	0x200
	.byte	0x5
	.4byte	.LASF894
	.4byte	0x7cef
	.4byte	0x5e5b
	.uleb128 0x18
	.4byte	.LASF23
	.4byte	0x66a4
	.byte	0x1
	.uleb128 0x8
	.ascii	"_II\000"
	.4byte	0x7cef
	.uleb128 0x8
	.ascii	"_OI\000"
	.4byte	0x7cef
	.uleb128 0x1
	.4byte	0x7cef
	.uleb128 0x1
	.4byte	0x7cef
	.uleb128 0x1
	.4byte	0x7cef
	.byte	0
	.uleb128 0x6
	.4byte	.LASF895
	.byte	0x3
	.2byte	0x309
	.byte	0x5
	.4byte	.LASF896
	.4byte	0x7cef
	.4byte	0x5e9c
	.uleb128 0x18
	.4byte	.LASF23
	.4byte	0x66a4
	.byte	0x1
	.uleb128 0xa
	.4byte	.LASF897
	.4byte	0x7cef
	.uleb128 0xa
	.4byte	.LASF898
	.4byte	0x7cef
	.uleb128 0x1
	.4byte	0x7cef
	.uleb128 0x1
	.4byte	0x7cef
	.uleb128 0x1
	.4byte	0x7cef
	.byte	0
	.uleb128 0x6
	.4byte	.LASF899
	.byte	0x3
	.2byte	0x309
	.byte	0x5
	.4byte	.LASF900
	.4byte	0x7dd5
	.4byte	0x5edd
	.uleb128 0x18
	.4byte	.LASF23
	.4byte	0x66a4
	.byte	0
	.uleb128 0xa
	.4byte	.LASF897
	.4byte	0x7dd5
	.uleb128 0xa
	.4byte	.LASF898
	.4byte	0x7dd5
	.uleb128 0x1
	.4byte	0x7dd5
	.uleb128 0x1
	.4byte	0x7dd5
	.uleb128 0x1
	.4byte	0x7dd5
	.byte	0
	.uleb128 0x6
	.4byte	.LASF901
	.byte	0x3
	.2byte	0x200
	.byte	0x5
	.4byte	.LASF902
	.4byte	0x7dd5
	.4byte	0x5f1e
	.uleb128 0x18
	.4byte	.LASF23
	.4byte	0x66a4
	.byte	0
	.uleb128 0x8
	.ascii	"_II\000"
	.4byte	0x7dd5
	.uleb128 0x8
	.ascii	"_OI\000"
	.4byte	0x7dd5
	.uleb128 0x1
	.4byte	0x7dd5
	.uleb128 0x1
	.4byte	0x7dd5
	.uleb128 0x1
	.4byte	0x7dd5
	.byte	0
	.uleb128 0x6
	.4byte	.LASF903
	.byte	0x3
	.2byte	0x223
	.byte	0x5
	.4byte	.LASF904
	.4byte	0x7cef
	.4byte	0x5f5f
	.uleb128 0x18
	.4byte	.LASF23
	.4byte	0x66a4
	.byte	0x1
	.uleb128 0x8
	.ascii	"_II\000"
	.4byte	0x7cef
	.uleb128 0x8
	.ascii	"_OI\000"
	.4byte	0x7cef
	.uleb128 0x1
	.4byte	0x7cef
	.uleb128 0x1
	.4byte	0x7cef
	.uleb128 0x1
	.4byte	0x7cef
	.byte	0
	.uleb128 0x6
	.4byte	.LASF905
	.byte	0x3
	.2byte	0x31b
	.byte	0x5
	.4byte	.LASF906
	.4byte	0x7cef
	.4byte	0x5fa0
	.uleb128 0x18
	.4byte	.LASF23
	.4byte	0x66a4
	.byte	0x1
	.uleb128 0xa
	.4byte	.LASF897
	.4byte	0x7cef
	.uleb128 0xa
	.4byte	.LASF898
	.4byte	0x7cef
	.uleb128 0x1
	.4byte	0x7cef
	.uleb128 0x1
	.4byte	0x7cef
	.uleb128 0x1
	.4byte	0x7cef
	.byte	0
	.uleb128 0x6
	.4byte	.LASF907
	.byte	0x3
	.2byte	0x31b
	.byte	0x5
	.4byte	.LASF908
	.4byte	0x7dd5
	.4byte	0x5fe1
	.uleb128 0x18
	.4byte	.LASF23
	.4byte	0x66a4
	.byte	0
	.uleb128 0xa
	.4byte	.LASF897
	.4byte	0x7dd5
	.uleb128 0xa
	.4byte	.LASF898
	.4byte	0x7dd5
	.uleb128 0x1
	.4byte	0x7dd5
	.uleb128 0x1
	.4byte	0x7dd5
	.uleb128 0x1
	.4byte	0x7dd5
	.byte	0
	.uleb128 0x6
	.4byte	.LASF909
	.byte	0x3
	.2byte	0x161
	.byte	0x5
	.4byte	.LASF910
	.4byte	0x7dd5
	.4byte	0x600a
	.uleb128 0xa
	.4byte	.LASF911
	.4byte	0x7dd5
	.uleb128 0x1
	.4byte	0x802c
	.uleb128 0x1
	.4byte	0x7dd5
	.byte	0
	.uleb128 0x6
	.4byte	.LASF912
	.byte	0x3
	.2byte	0x223
	.byte	0x5
	.4byte	.LASF913
	.4byte	0x7dd5
	.4byte	0x604b
	.uleb128 0x18
	.4byte	.LASF23
	.4byte	0x66a4
	.byte	0
	.uleb128 0x8
	.ascii	"_II\000"
	.4byte	0x7dd5
	.uleb128 0x8
	.ascii	"_OI\000"
	.4byte	0x7dd5
	.uleb128 0x1
	.4byte	0x7dd5
	.uleb128 0x1
	.4byte	0x7dd5
	.uleb128 0x1
	.4byte	0x7dd5
	.byte	0
	.uleb128 0x6
	.4byte	.LASF914
	.byte	0x3
	.2byte	0x13c
	.byte	0x5
	.4byte	.LASF915
	.4byte	0x7dd5
	.4byte	0x606f
	.uleb128 0xa
	.4byte	.LASF911
	.4byte	0x7dd5
	.uleb128 0x1
	.4byte	0x7dd5
	.byte	0
	.uleb128 0x6
	.4byte	.LASF916
	.byte	0x7
	.2byte	0x419
	.byte	0x5
	.4byte	.LASF917
	.4byte	0x6e07
	.4byte	0x60b0
	.uleb128 0x18
	.4byte	.LASF23
	.4byte	0x66a4
	.byte	0x1
	.uleb128 0x8
	.ascii	"_II\000"
	.4byte	0x7cef
	.uleb128 0x8
	.ascii	"_Tp\000"
	.4byte	0x6e69
	.uleb128 0x1
	.4byte	0x7cef
	.uleb128 0x1
	.4byte	0x7cef
	.uleb128 0x1
	.4byte	0x2d1e
	.byte	0
	.uleb128 0x6
	.4byte	.LASF918
	.byte	0x7
	.2byte	0x493
	.byte	0x5
	.4byte	.LASF919
	.4byte	0x6e07
	.4byte	0x60f1
	.uleb128 0x18
	.4byte	.LASF23
	.4byte	0x66a4
	.byte	0x1
	.uleb128 0x8
	.ascii	"_II\000"
	.4byte	0x7cef
	.uleb128 0x8
	.ascii	"_Tp\000"
	.4byte	0x6e69
	.uleb128 0x1
	.4byte	0x7cef
	.uleb128 0x1
	.4byte	0x7cef
	.uleb128 0x1
	.4byte	0x2d1e
	.byte	0
	.uleb128 0x26
	.4byte	.LASF920
	.byte	0x3
	.byte	0xe9
	.byte	0x5
	.4byte	.LASF921
	.4byte	0x8a9d
	.4byte	0x6119
	.uleb128 0x8
	.ascii	"_Tp\000"
	.4byte	0x3b
	.uleb128 0x1
	.4byte	0x8a9d
	.uleb128 0x1
	.4byte	0x8a9d
	.byte	0
	.uleb128 0x6
	.4byte	.LASF922
	.byte	0x3
	.2byte	0x337
	.byte	0x5
	.4byte	.LASF923
	.4byte	0x7dd5
	.4byte	0x615a
	.uleb128 0x18
	.4byte	.LASF23
	.4byte	0x66a4
	.byte	0
	.uleb128 0x8
	.ascii	"_II\000"
	.4byte	0x7dd5
	.uleb128 0x8
	.ascii	"_OI\000"
	.4byte	0x7dd5
	.uleb128 0x1
	.4byte	0x7dd5
	.uleb128 0x1
	.4byte	0x7dd5
	.uleb128 0x1
	.4byte	0x7dd5
	.byte	0
	.uleb128 0x6
	.4byte	.LASF924
	.byte	0x3
	.2byte	0x229
	.byte	0x5
	.4byte	.LASF925
	.4byte	0x7dd5
	.4byte	0x619b
	.uleb128 0x18
	.4byte	.LASF23
	.4byte	0x66a4
	.byte	0
	.uleb128 0x8
	.ascii	"_II\000"
	.4byte	0x7dd5
	.uleb128 0x8
	.ascii	"_OI\000"
	.4byte	0x7dd5
	.uleb128 0x1
	.4byte	0x7dd5
	.uleb128 0x1
	.4byte	0x7dd5
	.uleb128 0x1
	.4byte	0x7dd5
	.byte	0
	.uleb128 0x6
	.4byte	.LASF926
	.byte	0xd
	.2byte	0x25f
	.byte	0x5
	.4byte	.LASF927
	.4byte	0x7dd5
	.4byte	0x61bf
	.uleb128 0xa
	.4byte	.LASF911
	.4byte	0x7dd5
	.uleb128 0x1
	.4byte	0x7dd5
	.byte	0
	.uleb128 0x6
	.4byte	.LASF928
	.byte	0x7
	.2byte	0x3eb
	.byte	0x5
	.4byte	.LASF929
	.4byte	0x2d1e
	.4byte	0x6212
	.uleb128 0x18
	.4byte	.LASF23
	.4byte	0x66a4
	.byte	0x1
	.uleb128 0x8
	.ascii	"_Tp\000"
	.4byte	0x6e69
	.uleb128 0xa
	.4byte	.LASF539
	.4byte	0x7d03
	.uleb128 0xa
	.4byte	.LASF499
	.4byte	0x7cef
	.uleb128 0x8
	.ascii	"_OI\000"
	.4byte	0x2d1e
	.uleb128 0x1
	.4byte	0x2d1e
	.uleb128 0x1
	.4byte	0x2d1e
	.uleb128 0x1
	.4byte	0x2d1e
	.byte	0
	.uleb128 0x6
	.4byte	.LASF930
	.byte	0x7
	.2byte	0x465
	.byte	0x5
	.4byte	.LASF931
	.4byte	0x2d1e
	.4byte	0x6265
	.uleb128 0x18
	.4byte	.LASF23
	.4byte	0x66a4
	.byte	0x1
	.uleb128 0x8
	.ascii	"_Tp\000"
	.4byte	0x6e69
	.uleb128 0xa
	.4byte	.LASF539
	.4byte	0x7d03
	.uleb128 0xa
	.4byte	.LASF499
	.4byte	0x7cef
	.uleb128 0x8
	.ascii	"_OI\000"
	.4byte	0x2d1e
	.uleb128 0x1
	.4byte	0x2d1e
	.uleb128 0x1
	.4byte	0x2d1e
	.uleb128 0x1
	.4byte	0x2d1e
	.byte	0
	.uleb128 0xf
	.4byte	.LASF932
	.byte	0xe
	.byte	0x8a
	.byte	0xb
	.4byte	0x5c4d
	.uleb128 0x6
	.4byte	.LASF933
	.byte	0xb
	.2byte	0x458
	.byte	0x5
	.4byte	.LASF934
	.4byte	0x6265
	.4byte	0x62ad
	.uleb128 0x8
	.ascii	"_Tp\000"
	.4byte	0x6e69
	.uleb128 0x8
	.ascii	"_Up\000"
	.4byte	0x6e69
	.uleb128 0x1
	.4byte	0x7cef
	.uleb128 0x1
	.4byte	0x7cef
	.uleb128 0x1
	.4byte	0x7cef
	.uleb128 0x1
	.4byte	0x7d1c
	.byte	0
	.uleb128 0x6
	.4byte	.LASF935
	.byte	0x3
	.2byte	0x13c
	.byte	0x5
	.4byte	.LASF936
	.4byte	0x7cef
	.4byte	0x62d1
	.uleb128 0xa
	.4byte	.LASF911
	.4byte	0x7cef
	.uleb128 0x1
	.4byte	0x7cef
	.byte	0
	.uleb128 0x6
	.4byte	.LASF937
	.byte	0x3
	.2byte	0x36e
	.byte	0x5
	.4byte	.LASF938
	.4byte	0x7dd5
	.4byte	0x6308
	.uleb128 0xa
	.4byte	.LASF897
	.4byte	0x7dd5
	.uleb128 0xa
	.4byte	.LASF898
	.4byte	0x7dd5
	.uleb128 0x1
	.4byte	0x7dd5
	.uleb128 0x1
	.4byte	0x7dd5
	.uleb128 0x1
	.4byte	0x7dd5
	.byte	0
	.uleb128 0x6
	.4byte	.LASF939
	.byte	0x3
	.2byte	0x282
	.byte	0x5
	.4byte	.LASF940
	.4byte	0x7dd5
	.4byte	0x633f
	.uleb128 0x8
	.ascii	"_II\000"
	.4byte	0x7dd5
	.uleb128 0x8
	.ascii	"_OI\000"
	.4byte	0x7dd5
	.uleb128 0x1
	.4byte	0x7dd5
	.uleb128 0x1
	.4byte	0x7dd5
	.uleb128 0x1
	.4byte	0x7dd5
	.byte	0
	.uleb128 0x6
	.4byte	.LASF941
	.byte	0x7
	.2byte	0x410
	.byte	0x5
	.4byte	.LASF942
	.4byte	0x2d1e
	.4byte	0x6392
	.uleb128 0x18
	.4byte	.LASF23
	.4byte	0x66a4
	.byte	0x1
	.uleb128 0xa
	.4byte	.LASF943
	.4byte	0x6e69
	.uleb128 0xa
	.4byte	.LASF944
	.4byte	0x7d03
	.uleb128 0xa
	.4byte	.LASF945
	.4byte	0x7cef
	.uleb128 0xa
	.4byte	.LASF946
	.4byte	0x6e69
	.uleb128 0x1
	.4byte	0x2d1e
	.uleb128 0x1
	.4byte	0x2d1e
	.uleb128 0x1
	.4byte	0x2d1e
	.byte	0
	.uleb128 0x6
	.4byte	.LASF947
	.byte	0x3
	.2byte	0x161
	.byte	0x5
	.4byte	.LASF948
	.4byte	0x2d1e
	.4byte	0x63bb
	.uleb128 0xa
	.4byte	.LASF911
	.4byte	0x2d1e
	.uleb128 0x1
	.4byte	0x7e16
	.uleb128 0x1
	.4byte	0x2d1e
	.byte	0
	.uleb128 0x6
	.4byte	.LASF949
	.byte	0x7
	.2byte	0x489
	.byte	0x5
	.4byte	.LASF950
	.4byte	0x2d1e
	.4byte	0x640e
	.uleb128 0x18
	.4byte	.LASF23
	.4byte	0x66a4
	.byte	0x1
	.uleb128 0xa
	.4byte	.LASF943
	.4byte	0x6e69
	.uleb128 0xa
	.4byte	.LASF944
	.4byte	0x7d03
	.uleb128 0xa
	.4byte	.LASF945
	.4byte	0x7cef
	.uleb128 0xa
	.4byte	.LASF946
	.4byte	0x6e69
	.uleb128 0x1
	.4byte	0x2d1e
	.uleb128 0x1
	.4byte	0x2d1e
	.uleb128 0x1
	.4byte	0x2d1e
	.byte	0
	.uleb128 0x6
	.4byte	.LASF951
	.byte	0x3
	.2byte	0x13c
	.byte	0x5
	.4byte	.LASF952
	.4byte	0x2d1e
	.4byte	0x6432
	.uleb128 0xa
	.4byte	.LASF911
	.4byte	0x2d1e
	.uleb128 0x1
	.4byte	0x2d1e
	.byte	0
	.uleb128 0x6
	.4byte	.LASF953
	.byte	0xb
	.2byte	0x473
	.byte	0x5
	.4byte	.LASF954
	.4byte	0x7cef
	.4byte	0x6477
	.uleb128 0xa
	.4byte	.LASF955
	.4byte	0x7cef
	.uleb128 0xa
	.4byte	.LASF956
	.4byte	0x7cef
	.uleb128 0xa
	.4byte	.LASF957
	.4byte	0x173f
	.uleb128 0x1
	.4byte	0x7cef
	.uleb128 0x1
	.4byte	0x7cef
	.uleb128 0x1
	.4byte	0x7cef
	.uleb128 0x1
	.4byte	0x7d1c
	.byte	0
	.uleb128 0x6
	.4byte	.LASF958
	.byte	0x3
	.2byte	0x229
	.byte	0x5
	.4byte	.LASF959
	.4byte	0x2d1e
	.4byte	0x64b8
	.uleb128 0x18
	.4byte	.LASF23
	.4byte	0x66a4
	.byte	0x1
	.uleb128 0x8
	.ascii	"_II\000"
	.4byte	0x2d1e
	.uleb128 0x8
	.ascii	"_OI\000"
	.4byte	0x2d1e
	.uleb128 0x1
	.4byte	0x2d1e
	.uleb128 0x1
	.4byte	0x2d1e
	.uleb128 0x1
	.4byte	0x2d1e
	.byte	0
	.uleb128 0x6
	.4byte	.LASF960
	.byte	0x3
	.2byte	0x337
	.byte	0x5
	.4byte	.LASF961
	.4byte	0x2d1e
	.4byte	0x64f9
	.uleb128 0x18
	.4byte	.LASF23
	.4byte	0x66a4
	.byte	0x1
	.uleb128 0x8
	.ascii	"_II\000"
	.4byte	0x2d1e
	.uleb128 0x8
	.ascii	"_OI\000"
	.4byte	0x2d1e
	.uleb128 0x1
	.4byte	0x2d1e
	.uleb128 0x1
	.4byte	0x2d1e
	.uleb128 0x1
	.4byte	0x2d1e
	.byte	0
	.uleb128 0x6
	.4byte	.LASF962
	.byte	0xd
	.2byte	0x25f
	.byte	0x5
	.4byte	.LASF963
	.4byte	0x2d1e
	.4byte	0x651d
	.uleb128 0xa
	.4byte	.LASF911
	.4byte	0x2d1e
	.uleb128 0x1
	.4byte	0x2d1e
	.byte	0
	.uleb128 0x26
	.4byte	.LASF964
	.byte	0x15
	.byte	0xcd
	.byte	0x5
	.4byte	.LASF965
	.4byte	0x7cef
	.4byte	0x6540
	.uleb128 0x8
	.ascii	"_Tp\000"
	.4byte	0x6e69
	.uleb128 0x1
	.4byte	0x7cef
	.byte	0
	.uleb128 0x6
	.4byte	.LASF966
	.byte	0x4
	.2byte	0x196
	.byte	0x7
	.4byte	.LASF967
	.4byte	0x2e9c
	.4byte	0x6560
	.uleb128 0x1
	.4byte	0x9549
	.uleb128 0x1
	.4byte	0x2f52
	.byte	0
	.uleb128 0x6
	.4byte	.LASF968
	.byte	0x3
	.2byte	0x2a3
	.byte	0x5
	.4byte	.LASF969
	.4byte	0x2d1e
	.4byte	0x6597
	.uleb128 0x8
	.ascii	"_II\000"
	.4byte	0x2d1e
	.uleb128 0x8
	.ascii	"_OI\000"
	.4byte	0x2d1e
	.uleb128 0x1
	.4byte	0x2d1e
	.uleb128 0x1
	.4byte	0x2d1e
	.uleb128 0x1
	.4byte	0x2d1e
	.byte	0
	.uleb128 0x6
	.4byte	.LASF970
	.byte	0x3
	.2byte	0x391
	.byte	0x5
	.4byte	.LASF971
	.4byte	0x2d1e
	.4byte	0x65ce
	.uleb128 0xa
	.4byte	.LASF897
	.4byte	0x2d1e
	.uleb128 0xa
	.4byte	.LASF898
	.4byte	0x2d1e
	.uleb128 0x1
	.4byte	0x2d1e
	.uleb128 0x1
	.4byte	0x2d1e
	.uleb128 0x1
	.4byte	0x2d1e
	.byte	0
	.uleb128 0x6
	.4byte	.LASF972
	.byte	0x4
	.2byte	0x12a
	.byte	0x7
	.4byte	.LASF973
	.4byte	0x66a4
	.4byte	0x65ee
	.uleb128 0x1
	.4byte	0x9549
	.uleb128 0x1
	.4byte	0x9549
	.byte	0
	.uleb128 0x6
	.4byte	.LASF974
	.byte	0x4
	.2byte	0x110
	.byte	0x7
	.4byte	.LASF975
	.4byte	0x66a4
	.4byte	0x660e
	.uleb128 0x1
	.4byte	0x9549
	.uleb128 0x1
	.4byte	0x9549
	.byte	0
	.uleb128 0x6
	.4byte	.LASF976
	.byte	0x3
	.2byte	0x101
	.byte	0x5
	.4byte	.LASF977
	.4byte	0xaa39
	.4byte	0x6637
	.uleb128 0x8
	.ascii	"_Tp\000"
	.4byte	0x2d
	.uleb128 0x1
	.4byte	0xaa39
	.uleb128 0x1
	.4byte	0xaa39
	.byte	0
	.uleb128 0x6
	.4byte	.LASF966
	.byte	0x4
	.2byte	0x172
	.byte	0x7
	.4byte	.LASF978
	.4byte	0x2f52
	.4byte	0x6657
	.uleb128 0x1
	.4byte	0x9549
	.uleb128 0x1
	.4byte	0x9549
	.byte	0
	.uleb128 0x6
	.4byte	.LASF979
	.byte	0x4
	.2byte	0x18d
	.byte	0x7
	.4byte	.LASF980
	.4byte	0x2e9c
	.4byte	0x6677
	.uleb128 0x1
	.4byte	0x9549
	.uleb128 0x1
	.4byte	0x2f52
	.byte	0
	.uleb128 0x88
	.4byte	.LASF981
	.byte	0x3
	.byte	0xe9
	.byte	0x5
	.4byte	.LASF982
	.4byte	0xaa39
	.uleb128 0x8
	.ascii	"_Tp\000"
	.4byte	0x2d
	.uleb128 0x1
	.4byte	0xaa39
	.uleb128 0x1
	.4byte	0xaa39
	.byte	0
	.byte	0
	.uleb128 0x2a
	.byte	0x1
	.byte	0x8
	.4byte	.LASF983
	.uleb128 0x2a
	.byte	0x1
	.byte	0x2
	.4byte	.LASF984
	.uleb128 0x89
	.4byte	.LASF985
	.byte	0xf
	.2byte	0x159
	.byte	0xb
	.4byte	0x6e43
	.uleb128 0x5d
	.4byte	.LASF986
	.byte	0x18
	.byte	0x25
	.byte	0xb
	.uleb128 0x4
	.byte	0x14
	.byte	0xcc
	.byte	0xb
	.4byte	0x6fbd
	.uleb128 0x4
	.byte	0x14
	.byte	0xdc
	.byte	0xb
	.4byte	0x7775
	.uleb128 0x4
	.byte	0x14
	.byte	0xe7
	.byte	0xb
	.4byte	0x7790
	.uleb128 0x4
	.byte	0x14
	.byte	0xe8
	.byte	0xb
	.4byte	0x77a6
	.uleb128 0x4
	.byte	0x14
	.byte	0xe9
	.byte	0xb
	.4byte	0x77c6
	.uleb128 0x4
	.byte	0x14
	.byte	0xeb
	.byte	0xb
	.4byte	0x77e6
	.uleb128 0x4
	.byte	0x14
	.byte	0xec
	.byte	0xb
	.4byte	0x7801
	.uleb128 0x36
	.ascii	"div\000"
	.byte	0x14
	.byte	0xd9
	.4byte	.LASF987
	.4byte	0x6fbd
	.4byte	0x6717
	.uleb128 0x1
	.4byte	0x6e75
	.uleb128 0x1
	.4byte	0x6e75
	.byte	0
	.uleb128 0x21
	.4byte	.LASF988
	.byte	0x1
	.byte	0x19
	.byte	0x2d
	.byte	0xa
	.4byte	0x6853
	.uleb128 0x4
	.byte	0x19
	.byte	0x2d
	.byte	0xa
	.4byte	0x1835
	.uleb128 0x4
	.byte	0x19
	.byte	0x2d
	.byte	0xa
	.4byte	0x17f6
	.uleb128 0x4
	.byte	0x19
	.byte	0x2d
	.byte	0xa
	.4byte	0x1867
	.uleb128 0x4
	.byte	0x19
	.byte	0x2d
	.byte	0xa
	.4byte	0x1888
	.uleb128 0x2f
	.4byte	0x17db
	.uleb128 0x26
	.4byte	.LASF989
	.byte	0x19
	.byte	0x61
	.byte	0x1d
	.4byte	.LASF990
	.4byte	0x173f
	.4byte	0x6763
	.uleb128 0x1
	.4byte	0x7d17
	.byte	0
	.uleb128 0x64
	.4byte	.LASF991
	.byte	0x19
	.byte	0x65
	.byte	0x26
	.4byte	.LASF992
	.4byte	0x677e
	.uleb128 0x1
	.4byte	0x7d1c
	.uleb128 0x1
	.4byte	0x7d1c
	.byte	0
	.uleb128 0x34
	.4byte	.LASF993
	.byte	0x19
	.byte	0x69
	.byte	0x1b
	.4byte	.LASF994
	.4byte	0x66a4
	.uleb128 0x34
	.4byte	.LASF995
	.byte	0x19
	.byte	0x6d
	.byte	0x1b
	.4byte	.LASF996
	.4byte	0x66a4
	.uleb128 0x34
	.4byte	.LASF997
	.byte	0x19
	.byte	0x71
	.byte	0x1b
	.4byte	.LASF998
	.4byte	0x66a4
	.uleb128 0x34
	.4byte	.LASF999
	.byte	0x19
	.byte	0x75
	.byte	0x1b
	.4byte	.LASF1000
	.4byte	0x66a4
	.uleb128 0x34
	.4byte	.LASF1001
	.byte	0x19
	.byte	0x79
	.byte	0x1b
	.4byte	.LASF1002
	.4byte	0x66a4
	.uleb128 0xf
	.4byte	.LASF9
	.byte	0x19
	.byte	0x35
	.byte	0x35
	.4byte	0x18be
	.uleb128 0xb
	.4byte	0x67ce
	.uleb128 0xf
	.4byte	.LASF257
	.byte	0x19
	.byte	0x36
	.byte	0x35
	.4byte	0x17e9
	.uleb128 0xf
	.4byte	.LASF258
	.byte	0x19
	.byte	0x3b
	.byte	0x35
	.4byte	0x7d2b
	.uleb128 0xf
	.4byte	.LASF261
	.byte	0x19
	.byte	0x3c
	.byte	0x35
	.4byte	0x7d30
	.uleb128 0x21
	.4byte	.LASF1003
	.byte	0x1
	.byte	0x19
	.byte	0x7d
	.byte	0xe
	.4byte	0x6826
	.uleb128 0xf
	.4byte	.LASF1004
	.byte	0x19
	.byte	0x7e
	.byte	0x41
	.4byte	0x18cb
	.uleb128 0x8
	.ascii	"_Tp\000"
	.4byte	0x6e69
	.byte	0
	.uleb128 0x21
	.4byte	.LASF1005
	.byte	0x1
	.byte	0x19
	.byte	0x7d
	.byte	0xe
	.4byte	0x6849
	.uleb128 0xf
	.4byte	.LASF1004
	.byte	0x19
	.byte	0x7e
	.byte	0x41
	.4byte	0x18d8
	.uleb128 0x8
	.ascii	"_Tp\000"
	.4byte	0x7cef
	.byte	0
	.uleb128 0xa
	.4byte	.LASF334
	.4byte	0x173f
	.byte	0
	.uleb128 0x4d
	.4byte	.LASF1006
	.byte	0x4
	.byte	0xa
	.2byte	0x40e
	.4byte	0x6a90
	.uleb128 0x63
	.4byte	.LASF1007
	.byte	0xa
	.2byte	0x411
	.byte	0x11
	.4byte	0x7cef
	.uleb128 0x7
	.4byte	.LASF1008
	.byte	0xa
	.2byte	0x427
	.byte	0x1a
	.4byte	.LASF1009
	.4byte	0x800e
	.byte	0x1
	.4byte	0x6887
	.4byte	0x688d
	.uleb128 0x2
	.4byte	0x800e
	.byte	0
	.uleb128 0x46
	.4byte	.LASF1008
	.byte	0xa
	.2byte	0x42b
	.4byte	.LASF1010
	.4byte	0x800e
	.4byte	0x68a5
	.4byte	0x68b0
	.uleb128 0x2
	.4byte	0x800e
	.uleb128 0x1
	.4byte	0x7dee
	.byte	0
	.uleb128 0x1a
	.4byte	.LASF258
	.byte	0xa
	.2byte	0x420
	.byte	0x32
	.4byte	0x5c33
	.byte	0x1
	.uleb128 0x7
	.4byte	.LASF520
	.byte	0xa
	.2byte	0x442
	.byte	0x7
	.4byte	.LASF1011
	.4byte	0x68b0
	.byte	0x1
	.4byte	0x68d8
	.4byte	0x68de
	.uleb128 0x2
	.4byte	0x8018
	.byte	0
	.uleb128 0x1a
	.4byte	.LASF257
	.byte	0xa
	.2byte	0x421
	.byte	0x32
	.4byte	0x5c27
	.byte	0x1
	.uleb128 0x7
	.4byte	.LASF522
	.byte	0xa
	.2byte	0x447
	.byte	0x7
	.4byte	.LASF1012
	.4byte	0x68de
	.byte	0x1
	.4byte	0x6906
	.4byte	0x690c
	.uleb128 0x2
	.4byte	0x8018
	.byte	0
	.uleb128 0x7
	.4byte	.LASF525
	.byte	0xa
	.2byte	0x44c
	.byte	0x7
	.4byte	.LASF1013
	.4byte	0x8022
	.byte	0x1
	.4byte	0x6926
	.4byte	0x692c
	.uleb128 0x2
	.4byte	0x800e
	.byte	0
	.uleb128 0x7
	.4byte	.LASF525
	.byte	0xa
	.2byte	0x454
	.byte	0x7
	.4byte	.LASF1014
	.4byte	0x6853
	.byte	0x1
	.4byte	0x6946
	.4byte	0x6951
	.uleb128 0x2
	.4byte	0x800e
	.uleb128 0x1
	.4byte	0x3b
	.byte	0
	.uleb128 0x7
	.4byte	.LASF528
	.byte	0xa
	.2byte	0x45a
	.byte	0x7
	.4byte	.LASF1015
	.4byte	0x8022
	.byte	0x1
	.4byte	0x696b
	.4byte	0x6971
	.uleb128 0x2
	.4byte	0x800e
	.byte	0
	.uleb128 0x7
	.4byte	.LASF528
	.byte	0xa
	.2byte	0x462
	.byte	0x7
	.4byte	.LASF1016
	.4byte	0x6853
	.byte	0x1
	.4byte	0x698b
	.4byte	0x6996
	.uleb128 0x2
	.4byte	0x800e
	.uleb128 0x1
	.4byte	0x3b
	.byte	0
	.uleb128 0x7
	.4byte	.LASF404
	.byte	0xa
	.2byte	0x468
	.byte	0x7
	.4byte	.LASF1017
	.4byte	0x68b0
	.byte	0x1
	.4byte	0x69b0
	.4byte	0x69bb
	.uleb128 0x2
	.4byte	0x8018
	.uleb128 0x1
	.4byte	0x69bb
	.byte	0
	.uleb128 0x1a
	.4byte	.LASF533
	.byte	0xa
	.2byte	0x41f
	.byte	0x38
	.4byte	0x5c1b
	.byte	0x1
	.uleb128 0x7
	.4byte	.LASF531
	.byte	0xa
	.2byte	0x46d
	.byte	0x7
	.4byte	.LASF1018
	.4byte	0x8022
	.byte	0x1
	.4byte	0x69e3
	.4byte	0x69ee
	.uleb128 0x2
	.4byte	0x800e
	.uleb128 0x1
	.4byte	0x69bb
	.byte	0
	.uleb128 0x7
	.4byte	.LASF979
	.byte	0xa
	.2byte	0x472
	.byte	0x7
	.4byte	.LASF1019
	.4byte	0x6853
	.byte	0x1
	.4byte	0x6a08
	.4byte	0x6a13
	.uleb128 0x2
	.4byte	0x8018
	.uleb128 0x1
	.4byte	0x69bb
	.byte	0
	.uleb128 0x7
	.4byte	.LASF534
	.byte	0xa
	.2byte	0x477
	.byte	0x7
	.4byte	.LASF1020
	.4byte	0x8022
	.byte	0x1
	.4byte	0x6a2d
	.4byte	0x6a38
	.uleb128 0x2
	.4byte	0x800e
	.uleb128 0x1
	.4byte	0x69bb
	.byte	0
	.uleb128 0x7
	.4byte	.LASF966
	.byte	0xa
	.2byte	0x47c
	.byte	0x7
	.4byte	.LASF1021
	.4byte	0x6853
	.byte	0x1
	.4byte	0x6a52
	.4byte	0x6a5d
	.uleb128 0x2
	.4byte	0x8018
	.uleb128 0x1
	.4byte	0x69bb
	.byte	0
	.uleb128 0x7
	.4byte	.LASF1022
	.byte	0xa
	.2byte	0x481
	.byte	0x7
	.4byte	.LASF1023
	.4byte	0x7dee
	.byte	0x1
	.4byte	0x6a77
	.4byte	0x6a7d
	.uleb128 0x2
	.4byte	0x8018
	.byte	0
	.uleb128 0xa
	.4byte	.LASF911
	.4byte	0x7cef
	.uleb128 0xa
	.4byte	.LASF1024
	.4byte	0x1d2b
	.byte	0
	.uleb128 0xb
	.4byte	0x6853
	.uleb128 0x40
	.4byte	.LASF1025
	.uleb128 0x21
	.4byte	.LASF1026
	.byte	0x1
	.byte	0x19
	.byte	0x2d
	.byte	0xa
	.4byte	0x6bb3
	.uleb128 0x4
	.byte	0x19
	.byte	0x2d
	.byte	0xa
	.4byte	0x5488
	.uleb128 0x4
	.byte	0x19
	.byte	0x2d
	.byte	0xa
	.4byte	0x5449
	.uleb128 0x4
	.byte	0x19
	.byte	0x2d
	.byte	0xa
	.4byte	0x54ba
	.uleb128 0x4
	.byte	0x19
	.byte	0x2d
	.byte	0xa
	.4byte	0x54db
	.uleb128 0x2f
	.4byte	0x542e
	.uleb128 0x26
	.4byte	.LASF989
	.byte	0x19
	.byte	0x61
	.byte	0x1d
	.4byte	.LASF1027
	.4byte	0x5392
	.4byte	0x6ae6
	.uleb128 0x1
	.4byte	0x7f07
	.byte	0
	.uleb128 0x64
	.4byte	.LASF991
	.byte	0x19
	.byte	0x65
	.byte	0x26
	.4byte	.LASF1028
	.4byte	0x6b01
	.uleb128 0x1
	.4byte	0x7f0c
	.uleb128 0x1
	.4byte	0x7f0c
	.byte	0
	.uleb128 0x34
	.4byte	.LASF993
	.byte	0x19
	.byte	0x69
	.byte	0x1b
	.4byte	.LASF1029
	.4byte	0x66a4
	.uleb128 0x34
	.4byte	.LASF995
	.byte	0x19
	.byte	0x6d
	.byte	0x1b
	.4byte	.LASF1030
	.4byte	0x66a4
	.uleb128 0x34
	.4byte	.LASF997
	.byte	0x19
	.byte	0x71
	.byte	0x1b
	.4byte	.LASF1031
	.4byte	0x66a4
	.uleb128 0x34
	.4byte	.LASF999
	.byte	0x19
	.byte	0x75
	.byte	0x1b
	.4byte	.LASF1032
	.4byte	0x66a4
	.uleb128 0x34
	.4byte	.LASF1001
	.byte	0x19
	.byte	0x79
	.byte	0x1b
	.4byte	.LASF1033
	.4byte	0x66a4
	.uleb128 0xf
	.4byte	.LASF9
	.byte	0x19
	.byte	0x35
	.byte	0x35
	.4byte	0x5511
	.uleb128 0xb
	.4byte	0x6b51
	.uleb128 0xf
	.4byte	.LASF257
	.byte	0x19
	.byte	0x36
	.byte	0x35
	.4byte	0x543c
	.uleb128 0xf
	.4byte	.LASF258
	.byte	0x19
	.byte	0x3b
	.byte	0x35
	.4byte	0x7f1b
	.uleb128 0xf
	.4byte	.LASF261
	.byte	0x19
	.byte	0x3c
	.byte	0x35
	.4byte	0x7f20
	.uleb128 0x21
	.4byte	.LASF1034
	.byte	0x1
	.byte	0x19
	.byte	0x7d
	.byte	0xe
	.4byte	0x6ba9
	.uleb128 0xf
	.4byte	.LASF1004
	.byte	0x19
	.byte	0x7e
	.byte	0x41
	.4byte	0x551e
	.uleb128 0x8
	.ascii	"_Tp\000"
	.4byte	0x34
	.byte	0
	.uleb128 0xa
	.4byte	.LASF334
	.4byte	0x5392
	.byte	0
	.uleb128 0x40
	.4byte	.LASF1035
	.uleb128 0x4d
	.4byte	.LASF1036
	.byte	0x4
	.byte	0xa
	.2byte	0x40e
	.4byte	0x6df5
	.uleb128 0x63
	.4byte	.LASF1007
	.byte	0xa
	.2byte	0x411
	.byte	0x11
	.4byte	0x7ef3
	.uleb128 0x7
	.4byte	.LASF1008
	.byte	0xa
	.2byte	0x427
	.byte	0x1a
	.4byte	.LASF1037
	.4byte	0x7ff0
	.byte	0x1
	.4byte	0x6bec
	.4byte	0x6bf2
	.uleb128 0x2
	.4byte	0x7ff0
	.byte	0
	.uleb128 0x46
	.4byte	.LASF1008
	.byte	0xa
	.2byte	0x42b
	.4byte	.LASF1038
	.4byte	0x7ff0
	.4byte	0x6c0a
	.4byte	0x6c15
	.uleb128 0x2
	.4byte	0x7ff0
	.uleb128 0x1
	.4byte	0x7ff5
	.byte	0
	.uleb128 0x1a
	.4byte	.LASF258
	.byte	0xa
	.2byte	0x420
	.byte	0x32
	.4byte	0x5b21
	.byte	0x1
	.uleb128 0x7
	.4byte	.LASF520
	.byte	0xa
	.2byte	0x442
	.byte	0x7
	.4byte	.LASF1039
	.4byte	0x6c15
	.byte	0x1
	.4byte	0x6c3d
	.4byte	0x6c43
	.uleb128 0x2
	.4byte	0x7ffa
	.byte	0
	.uleb128 0x1a
	.4byte	.LASF257
	.byte	0xa
	.2byte	0x421
	.byte	0x32
	.4byte	0x5b15
	.byte	0x1
	.uleb128 0x7
	.4byte	.LASF522
	.byte	0xa
	.2byte	0x447
	.byte	0x7
	.4byte	.LASF1040
	.4byte	0x6c43
	.byte	0x1
	.4byte	0x6c6b
	.4byte	0x6c71
	.uleb128 0x2
	.4byte	0x7ffa
	.byte	0
	.uleb128 0x7
	.4byte	.LASF525
	.byte	0xa
	.2byte	0x44c
	.byte	0x7
	.4byte	.LASF1041
	.4byte	0x7fff
	.byte	0x1
	.4byte	0x6c8b
	.4byte	0x6c91
	.uleb128 0x2
	.4byte	0x7ff0
	.byte	0
	.uleb128 0x7
	.4byte	.LASF525
	.byte	0xa
	.2byte	0x454
	.byte	0x7
	.4byte	.LASF1042
	.4byte	0x6bb8
	.byte	0x1
	.4byte	0x6cab
	.4byte	0x6cb6
	.uleb128 0x2
	.4byte	0x7ff0
	.uleb128 0x1
	.4byte	0x3b
	.byte	0
	.uleb128 0x7
	.4byte	.LASF528
	.byte	0xa
	.2byte	0x45a
	.byte	0x7
	.4byte	.LASF1043
	.4byte	0x7fff
	.byte	0x1
	.4byte	0x6cd0
	.4byte	0x6cd6
	.uleb128 0x2
	.4byte	0x7ff0
	.byte	0
	.uleb128 0x7
	.4byte	.LASF528
	.byte	0xa
	.2byte	0x462
	.byte	0x7
	.4byte	.LASF1044
	.4byte	0x6bb8
	.byte	0x1
	.4byte	0x6cf0
	.4byte	0x6cfb
	.uleb128 0x2
	.4byte	0x7ff0
	.uleb128 0x1
	.4byte	0x3b
	.byte	0
	.uleb128 0x7
	.4byte	.LASF404
	.byte	0xa
	.2byte	0x468
	.byte	0x7
	.4byte	.LASF1045
	.4byte	0x6c15
	.byte	0x1
	.4byte	0x6d15
	.4byte	0x6d20
	.uleb128 0x2
	.4byte	0x7ffa
	.uleb128 0x1
	.4byte	0x6d20
	.byte	0
	.uleb128 0x1a
	.4byte	.LASF533
	.byte	0xa
	.2byte	0x41f
	.byte	0x38
	.4byte	0x5b09
	.byte	0x1
	.uleb128 0x7
	.4byte	.LASF531
	.byte	0xa
	.2byte	0x46d
	.byte	0x7
	.4byte	.LASF1046
	.4byte	0x7fff
	.byte	0x1
	.4byte	0x6d48
	.4byte	0x6d53
	.uleb128 0x2
	.4byte	0x7ff0
	.uleb128 0x1
	.4byte	0x6d20
	.byte	0
	.uleb128 0x7
	.4byte	.LASF979
	.byte	0xa
	.2byte	0x472
	.byte	0x7
	.4byte	.LASF1047
	.4byte	0x6bb8
	.byte	0x1
	.4byte	0x6d6d
	.4byte	0x6d78
	.uleb128 0x2
	.4byte	0x7ffa
	.uleb128 0x1
	.4byte	0x6d20
	.byte	0
	.uleb128 0x7
	.4byte	.LASF534
	.byte	0xa
	.2byte	0x477
	.byte	0x7
	.4byte	.LASF1048
	.4byte	0x7fff
	.byte	0x1
	.4byte	0x6d92
	.4byte	0x6d9d
	.uleb128 0x2
	.4byte	0x7ff0
	.uleb128 0x1
	.4byte	0x6d20
	.byte	0
	.uleb128 0x7
	.4byte	.LASF966
	.byte	0xa
	.2byte	0x47c
	.byte	0x7
	.4byte	.LASF1049
	.4byte	0x6bb8
	.byte	0x1
	.4byte	0x6db7
	.4byte	0x6dc2
	.uleb128 0x2
	.4byte	0x7ffa
	.uleb128 0x1
	.4byte	0x6d20
	.byte	0
	.uleb128 0x7
	.4byte	.LASF1022
	.byte	0xa
	.2byte	0x481
	.byte	0x7
	.4byte	.LASF1050
	.4byte	0x7ff5
	.byte	0x1
	.4byte	0x6ddc
	.4byte	0x6de2
	.uleb128 0x2
	.4byte	0x7ffa
	.byte	0
	.uleb128 0xa
	.4byte	.LASF911
	.4byte	0x7ef3
	.uleb128 0xa
	.4byte	.LASF1024
	.4byte	0x45a3
	.byte	0
	.uleb128 0xb
	.4byte	0x6bb8
	.uleb128 0x21
	.4byte	.LASF1051
	.byte	0x1
	.byte	0x1a
	.byte	0x31
	.byte	0xc
	.4byte	0x6e14
	.uleb128 0xf
	.4byte	.LASF1052
	.byte	0x1a
	.byte	0x32
	.byte	0x13
	.4byte	0x2d1e
	.byte	0
	.uleb128 0x71
	.4byte	.LASF1053
	.byte	0xa
	.2byte	0x52d
	.byte	0x5
	.4byte	.LASF1054
	.4byte	0x69bb
	.uleb128 0xa
	.4byte	.LASF911
	.4byte	0x7cef
	.uleb128 0xa
	.4byte	.LASF1024
	.4byte	0x1d2b
	.uleb128 0x1
	.4byte	0x92c8
	.uleb128 0x1
	.4byte	0x92c8
	.byte	0
	.byte	0
	.uleb128 0x2a
	.byte	0x2
	.byte	0x7
	.4byte	.LASF1055
	.uleb128 0xb
	.4byte	0x2d
	.uleb128 0x2a
	.byte	0x4
	.byte	0x7
	.4byte	.LASF1056
	.uleb128 0x2a
	.byte	0x1
	.byte	0x6
	.4byte	.LASF1057
	.uleb128 0x2a
	.byte	0x2
	.byte	0x5
	.4byte	.LASF1058
	.uleb128 0xb
	.4byte	0x3b
	.uleb128 0x2a
	.byte	0x4
	.byte	0x5
	.4byte	.LASF1059
	.uleb128 0xb
	.4byte	0x6e69
	.uleb128 0x2a
	.byte	0x8
	.byte	0x5
	.4byte	.LASF1060
	.uleb128 0x2a
	.byte	0x8
	.byte	0x4
	.4byte	.LASF1061
	.uleb128 0x2a
	.byte	0x8
	.byte	0x4
	.4byte	.LASF1062
	.uleb128 0xb
	.4byte	0x34
	.uleb128 0xf
	.4byte	.LASF15
	.byte	0x1b
	.byte	0xd6
	.byte	0x17
	.4byte	0x2d
	.uleb128 0xb
	.4byte	0x6e8f
	.uleb128 0x8a
	.byte	0x10
	.byte	0x8
	.byte	0x1b
	.2byte	0x1a9
	.byte	0x10
	.4byte	.LASF1267
	.4byte	0x6ecb
	.uleb128 0x73
	.4byte	.LASF1063
	.2byte	0x1aa
	.byte	0xd
	.4byte	0x6e75
	.byte	0
	.uleb128 0x73
	.4byte	.LASF1064
	.2byte	0x1ab
	.byte	0xf
	.4byte	0x6e7c
	.byte	0x8
	.byte	0
	.uleb128 0x8b
	.4byte	.LASF1065
	.byte	0x1b
	.2byte	0x1b4
	.byte	0x3
	.4byte	0x6ea0
	.byte	0x8
	.uleb128 0xf
	.4byte	.LASF1066
	.byte	0x1c
	.byte	0x39
	.byte	0x19
	.4byte	0x6e43
	.uleb128 0xf
	.4byte	.LASF1067
	.byte	0x1c
	.byte	0x4d
	.byte	0x18
	.4byte	0x6e69
	.uleb128 0xf
	.4byte	.LASF1068
	.byte	0x1c
	.byte	0x4f
	.byte	0x19
	.4byte	0x6e4f
	.uleb128 0x8c
	.byte	0x4
	.uleb128 0x13
	.4byte	0x6f06
	.uleb128 0x8d
	.uleb128 0x13
	.4byte	0x6f0d
	.uleb128 0x2a
	.byte	0x1
	.byte	0x8
	.4byte	.LASF1069
	.uleb128 0xb
	.4byte	0x6f0d
	.uleb128 0x13
	.4byte	0x6f14
	.uleb128 0xf
	.4byte	.LASF1070
	.byte	0x1d
	.byte	0xa0
	.byte	0x14
	.4byte	0x34
	.uleb128 0xf
	.4byte	.LASF1071
	.byte	0x1d
	.byte	0xa1
	.byte	0x14
	.4byte	0x6e83
	.uleb128 0x65
	.byte	0x8
	.byte	0x24
	.4byte	.LASF1074
	.4byte	0x6f5b
	.uleb128 0x20
	.4byte	.LASF1072
	.byte	0x1e
	.byte	0x25
	.byte	0x7
	.4byte	0x3b
	.byte	0
	.uleb128 0x66
	.ascii	"rem\000"
	.byte	0x26
	.byte	0x7
	.4byte	0x3b
	.byte	0x4
	.byte	0
	.uleb128 0xf
	.4byte	.LASF1073
	.byte	0x1e
	.byte	0x27
	.byte	0x3
	.4byte	0x6f36
	.uleb128 0x65
	.byte	0x8
	.byte	0x2a
	.4byte	.LASF1075
	.4byte	0x6f8c
	.uleb128 0x20
	.4byte	.LASF1072
	.byte	0x1e
	.byte	0x2b
	.byte	0x8
	.4byte	0x6e69
	.byte	0
	.uleb128 0x66
	.ascii	"rem\000"
	.byte	0x2c
	.byte	0x8
	.4byte	0x6e69
	.byte	0x4
	.byte	0
	.uleb128 0xf
	.4byte	.LASF1076
	.byte	0x1e
	.byte	0x2d
	.byte	0x3
	.4byte	0x6f67
	.uleb128 0x65
	.byte	0x10
	.byte	0x31
	.4byte	.LASF1077
	.4byte	0x6fbd
	.uleb128 0x20
	.4byte	.LASF1072
	.byte	0x1e
	.byte	0x32
	.byte	0x11
	.4byte	0x6e75
	.byte	0
	.uleb128 0x66
	.ascii	"rem\000"
	.byte	0x33
	.byte	0x11
	.4byte	0x6e75
	.byte	0x8
	.byte	0
	.uleb128 0xf
	.4byte	.LASF1078
	.byte	0x1e
	.byte	0x34
	.byte	0x3
	.4byte	0x6f98
	.uleb128 0xf
	.4byte	.LASF1079
	.byte	0x1e
	.byte	0x39
	.byte	0xf
	.4byte	0x6fd5
	.uleb128 0x13
	.4byte	0x6fda
	.uleb128 0x8e
	.4byte	0x3b
	.4byte	0x6fef
	.uleb128 0x1
	.4byte	0x6fef
	.uleb128 0x1
	.4byte	0x6fef
	.byte	0
	.uleb128 0x13
	.4byte	0x6ff4
	.uleb128 0x8f
	.uleb128 0x13
	.4byte	0xca
	.uleb128 0x13
	.4byte	0x138
	.uleb128 0x2a
	.byte	0x4
	.byte	0x7
	.4byte	.LASF1080
	.uleb128 0xb
	.4byte	0x7000
	.uleb128 0x2a
	.byte	0x2
	.byte	0x10
	.4byte	.LASF1081
	.uleb128 0x2a
	.byte	0x4
	.byte	0x10
	.4byte	.LASF1082
	.uleb128 0x74
	.4byte	.LASF1083
	.byte	0x11
	.byte	0x38
	.4byte	0x702e
	.uleb128 0x75
	.byte	0x11
	.byte	0x3a
	.byte	0x18
	.4byte	0x1b8
	.byte	0
	.uleb128 0x2a
	.byte	0x4
	.byte	0x4
	.4byte	.LASF1084
	.uleb128 0x2a
	.byte	0x8
	.byte	0x4
	.4byte	.LASF1085
	.uleb128 0x4
	.byte	0x1f
	.byte	0x26
	.byte	0xc
	.4byte	0x274
	.uleb128 0x4
	.byte	0x1f
	.byte	0x26
	.byte	0xc
	.4byte	0x28d
	.uleb128 0x4
	.byte	0x1f
	.byte	0x26
	.byte	0xc
	.4byte	0x2a6
	.uleb128 0x4
	.byte	0x1f
	.byte	0x26
	.byte	0xc
	.4byte	0x2bf
	.uleb128 0x4
	.byte	0x1f
	.byte	0x26
	.byte	0xc
	.4byte	0x2d8
	.uleb128 0x4
	.byte	0x1f
	.byte	0x27
	.byte	0xc
	.4byte	0x2f1
	.uleb128 0x4
	.byte	0x1f
	.byte	0x27
	.byte	0xc
	.4byte	0x30b
	.uleb128 0x4
	.byte	0x1f
	.byte	0x28
	.byte	0xc
	.4byte	0x325
	.uleb128 0x4
	.byte	0x1f
	.byte	0x28
	.byte	0xc
	.4byte	0x33f
	.uleb128 0x4
	.byte	0x1f
	.byte	0x29
	.byte	0xc
	.4byte	0x359
	.uleb128 0x4
	.byte	0x1f
	.byte	0x29
	.byte	0xc
	.4byte	0x373
	.uleb128 0x4
	.byte	0x1f
	.byte	0x2a
	.byte	0xc
	.4byte	0x38d
	.uleb128 0x4
	.byte	0x1f
	.byte	0x2a
	.byte	0xc
	.4byte	0x3ac
	.uleb128 0x4
	.byte	0x1f
	.byte	0x2b
	.byte	0xc
	.4byte	0x3cb
	.uleb128 0x4
	.byte	0x1f
	.byte	0x2b
	.byte	0xc
	.4byte	0x3e4
	.uleb128 0x4
	.byte	0x1f
	.byte	0x2c
	.byte	0xc
	.4byte	0x3fd
	.uleb128 0x4
	.byte	0x1f
	.byte	0x2c
	.byte	0xc
	.4byte	0x416
	.uleb128 0x4
	.byte	0x1f
	.byte	0x2d
	.byte	0xc
	.4byte	0x42f
	.uleb128 0x4
	.byte	0x1f
	.byte	0x2d
	.byte	0xc
	.4byte	0x448
	.uleb128 0x4
	.byte	0x1f
	.byte	0x2e
	.byte	0xc
	.4byte	0x461
	.uleb128 0x4
	.byte	0x1f
	.byte	0x2e
	.byte	0xc
	.4byte	0x47b
	.uleb128 0x4
	.byte	0x1f
	.byte	0x2f
	.byte	0xc
	.4byte	0x495
	.uleb128 0x4
	.byte	0x1f
	.byte	0x2f
	.byte	0xc
	.4byte	0x4b0
	.uleb128 0x4
	.byte	0x1f
	.byte	0x30
	.byte	0xc
	.4byte	0x4cb
	.uleb128 0x4
	.byte	0x1f
	.byte	0x30
	.byte	0xc
	.4byte	0x4e6
	.uleb128 0x4
	.byte	0x1f
	.byte	0x31
	.byte	0xc
	.4byte	0x501
	.uleb128 0x4
	.byte	0x1f
	.byte	0x31
	.byte	0xc
	.4byte	0x51a
	.uleb128 0x13
	.4byte	0x3b
	.uleb128 0x4
	.byte	0x1f
	.byte	0x32
	.byte	0xc
	.4byte	0x533
	.uleb128 0x4
	.byte	0x1f
	.byte	0x32
	.byte	0xc
	.4byte	0x553
	.uleb128 0x4
	.byte	0x1f
	.byte	0x33
	.byte	0xc
	.4byte	0x573
	.uleb128 0x4
	.byte	0x1f
	.byte	0x33
	.byte	0xc
	.4byte	0x593
	.uleb128 0x4
	.byte	0x1f
	.byte	0x34
	.byte	0xc
	.4byte	0x5b3
	.uleb128 0x4
	.byte	0x1f
	.byte	0x34
	.byte	0xc
	.4byte	0x5cc
	.uleb128 0x4
	.byte	0x1f
	.byte	0x35
	.byte	0xc
	.4byte	0x5e5
	.uleb128 0x4
	.byte	0x1f
	.byte	0x35
	.byte	0xc
	.4byte	0x600
	.uleb128 0x13
	.4byte	0x6e7c
	.uleb128 0x4
	.byte	0x1f
	.byte	0x36
	.byte	0xc
	.4byte	0x61b
	.uleb128 0x13
	.4byte	0x34
	.uleb128 0x4
	.byte	0x1f
	.byte	0x36
	.byte	0xc
	.4byte	0x63b
	.uleb128 0x4
	.byte	0x1f
	.byte	0x37
	.byte	0xc
	.4byte	0x65b
	.uleb128 0x4
	.byte	0x1f
	.byte	0x37
	.byte	0xc
	.4byte	0x679
	.uleb128 0x4
	.byte	0x1f
	.byte	0x38
	.byte	0xc
	.4byte	0x697
	.uleb128 0x4
	.byte	0x1f
	.byte	0x38
	.byte	0xc
	.4byte	0x6b2
	.uleb128 0x4
	.byte	0x1f
	.byte	0x39
	.byte	0xc
	.4byte	0x6cd
	.uleb128 0x4
	.byte	0x1f
	.byte	0x39
	.byte	0xc
	.4byte	0x6e7
	.uleb128 0x4
	.byte	0x1f
	.byte	0x3a
	.byte	0xc
	.4byte	0x701
	.uleb128 0x4
	.byte	0x1f
	.byte	0x3a
	.byte	0xc
	.4byte	0x71b
	.uleb128 0x4
	.byte	0x1f
	.byte	0x3b
	.byte	0xc
	.4byte	0x735
	.uleb128 0x4
	.byte	0x1f
	.byte	0x3b
	.byte	0xc
	.4byte	0x750
	.uleb128 0x4
	.byte	0x1f
	.byte	0x3c
	.byte	0xc
	.4byte	0x76b
	.uleb128 0x4
	.byte	0x1f
	.byte	0x3c
	.byte	0xc
	.4byte	0x78b
	.uleb128 0x4
	.byte	0x1f
	.byte	0x3f
	.byte	0xc
	.4byte	0x7ab
	.uleb128 0x4
	.byte	0x1f
	.byte	0x3f
	.byte	0xc
	.4byte	0x7c6
	.uleb128 0x4
	.byte	0x1f
	.byte	0x3f
	.byte	0xc
	.4byte	0x7e1
	.uleb128 0x4
	.byte	0x1f
	.byte	0x40
	.byte	0xc
	.4byte	0x7fc
	.uleb128 0x4
	.byte	0x1f
	.byte	0x40
	.byte	0xc
	.4byte	0x817
	.uleb128 0x4
	.byte	0x1f
	.byte	0x40
	.byte	0xc
	.4byte	0x832
	.uleb128 0x4
	.byte	0x1f
	.byte	0x41
	.byte	0xc
	.4byte	0x84d
	.uleb128 0x4
	.byte	0x1f
	.byte	0x41
	.byte	0xc
	.4byte	0x868
	.uleb128 0x4
	.byte	0x1f
	.byte	0x41
	.byte	0xc
	.4byte	0x883
	.uleb128 0x4
	.byte	0x1f
	.byte	0x42
	.byte	0xc
	.4byte	0x89e
	.uleb128 0x4
	.byte	0x1f
	.byte	0x42
	.byte	0xc
	.4byte	0x8b9
	.uleb128 0x4
	.byte	0x1f
	.byte	0x42
	.byte	0xc
	.4byte	0x8d4
	.uleb128 0x4
	.byte	0x1f
	.byte	0x43
	.byte	0xc
	.4byte	0x8ef
	.uleb128 0x4
	.byte	0x1f
	.byte	0x43
	.byte	0xc
	.4byte	0x90a
	.uleb128 0x4
	.byte	0x1f
	.byte	0x43
	.byte	0xc
	.4byte	0x925
	.uleb128 0x4
	.byte	0x1f
	.byte	0x44
	.byte	0xc
	.4byte	0x940
	.uleb128 0x4
	.byte	0x1f
	.byte	0x44
	.byte	0xc
	.4byte	0x95b
	.uleb128 0x4
	.byte	0x1f
	.byte	0x44
	.byte	0xc
	.4byte	0x976
	.uleb128 0x4
	.byte	0x1f
	.byte	0x45
	.byte	0xc
	.4byte	0x991
	.uleb128 0x4
	.byte	0x1f
	.byte	0x45
	.byte	0xc
	.4byte	0x9b1
	.uleb128 0x4
	.byte	0x1f
	.byte	0x45
	.byte	0xc
	.4byte	0x9d1
	.uleb128 0x4
	.byte	0x1f
	.byte	0x46
	.byte	0xc
	.4byte	0x9f1
	.uleb128 0x4
	.byte	0x1f
	.byte	0x46
	.byte	0xc
	.4byte	0xa11
	.uleb128 0x4
	.byte	0x1f
	.byte	0x46
	.byte	0xc
	.4byte	0xa31
	.uleb128 0x4
	.byte	0x1f
	.byte	0x47
	.byte	0xc
	.4byte	0xa51
	.uleb128 0x4
	.byte	0x1f
	.byte	0x47
	.byte	0xc
	.4byte	0xa71
	.uleb128 0x4
	.byte	0x1f
	.byte	0x47
	.byte	0xc
	.4byte	0xa91
	.uleb128 0x4
	.byte	0x1f
	.byte	0x48
	.byte	0xc
	.4byte	0xab1
	.uleb128 0x4
	.byte	0x1f
	.byte	0x48
	.byte	0xc
	.4byte	0xad1
	.uleb128 0x4
	.byte	0x1f
	.byte	0x48
	.byte	0xc
	.4byte	0xaf1
	.uleb128 0x4
	.byte	0x1f
	.byte	0x49
	.byte	0xc
	.4byte	0xb11
	.uleb128 0x4
	.byte	0x1f
	.byte	0x49
	.byte	0xc
	.4byte	0xb31
	.uleb128 0x4
	.byte	0x1f
	.byte	0x49
	.byte	0xc
	.4byte	0xb51
	.uleb128 0x4
	.byte	0x1f
	.byte	0x4a
	.byte	0xc
	.4byte	0xb71
	.uleb128 0x4
	.byte	0x1f
	.byte	0x4a
	.byte	0xc
	.4byte	0xb91
	.uleb128 0x4
	.byte	0x1f
	.byte	0x4a
	.byte	0xc
	.4byte	0xbb1
	.uleb128 0x4
	.byte	0x1f
	.byte	0x4e
	.byte	0xc
	.4byte	0xbd1
	.uleb128 0x4
	.byte	0x1f
	.byte	0x4e
	.byte	0xc
	.4byte	0xbec
	.uleb128 0x4
	.byte	0x1f
	.byte	0x4f
	.byte	0xc
	.4byte	0xc07
	.uleb128 0x4
	.byte	0x1f
	.byte	0x4f
	.byte	0xc
	.4byte	0xc22
	.uleb128 0x4
	.byte	0x1f
	.byte	0x50
	.byte	0xc
	.4byte	0xc3d
	.uleb128 0x4
	.byte	0x1f
	.byte	0x50
	.byte	0xc
	.4byte	0xc58
	.uleb128 0x4
	.byte	0x1f
	.byte	0x51
	.byte	0xc
	.4byte	0xc73
	.uleb128 0x4
	.byte	0x1f
	.byte	0x51
	.byte	0xc
	.4byte	0xc8e
	.uleb128 0x4
	.byte	0x1f
	.byte	0x52
	.byte	0xc
	.4byte	0xca9
	.uleb128 0x4
	.byte	0x1f
	.byte	0x52
	.byte	0xc
	.4byte	0xcc9
	.uleb128 0x4
	.byte	0x1f
	.byte	0x53
	.byte	0xc
	.4byte	0xce9
	.uleb128 0x4
	.byte	0x1f
	.byte	0x53
	.byte	0xc
	.4byte	0xd02
	.uleb128 0x4
	.byte	0x1f
	.byte	0x54
	.byte	0xc
	.4byte	0xd1b
	.uleb128 0x4
	.byte	0x1f
	.byte	0x54
	.byte	0xc
	.4byte	0xd36
	.uleb128 0x4
	.byte	0x1f
	.byte	0x55
	.byte	0xc
	.4byte	0xd51
	.uleb128 0x4
	.byte	0x1f
	.byte	0x55
	.byte	0xc
	.4byte	0xd6c
	.uleb128 0x4
	.byte	0x1f
	.byte	0x56
	.byte	0xc
	.4byte	0xd87
	.uleb128 0x4
	.byte	0x1f
	.byte	0x56
	.byte	0xc
	.4byte	0xda2
	.uleb128 0x4
	.byte	0x1f
	.byte	0x57
	.byte	0xc
	.4byte	0xdbd
	.uleb128 0x4
	.byte	0x1f
	.byte	0x57
	.byte	0xc
	.4byte	0xddd
	.uleb128 0x4
	.byte	0x1f
	.byte	0x58
	.byte	0xc
	.4byte	0xdfd
	.uleb128 0x4
	.byte	0x1f
	.byte	0x58
	.byte	0xc
	.4byte	0xe20
	.uleb128 0x4
	.byte	0x1f
	.byte	0x59
	.byte	0xc
	.4byte	0xe43
	.uleb128 0x4
	.byte	0x1f
	.byte	0x59
	.byte	0xc
	.4byte	0xe63
	.uleb128 0x4
	.byte	0x1f
	.byte	0x5a
	.byte	0xc
	.4byte	0xe83
	.uleb128 0x4
	.byte	0x1f
	.byte	0x5a
	.byte	0xc
	.4byte	0xea3
	.uleb128 0x4
	.byte	0x1f
	.byte	0x5b
	.byte	0xc
	.4byte	0xec3
	.uleb128 0x4
	.byte	0x1f
	.byte	0x5b
	.byte	0xc
	.4byte	0xee8
	.uleb128 0x4
	.byte	0x1f
	.byte	0x5b
	.byte	0xc
	.4byte	0xf0d
	.uleb128 0x4
	.byte	0x1f
	.byte	0x5b
	.byte	0xc
	.4byte	0xf32
	.uleb128 0x4
	.byte	0x1f
	.byte	0x5b
	.byte	0xc
	.4byte	0xf52
	.uleb128 0x4
	.byte	0x1f
	.byte	0x5c
	.byte	0xc
	.4byte	0xf72
	.uleb128 0x4
	.byte	0x1f
	.byte	0x5c
	.byte	0xc
	.4byte	0xf8d
	.uleb128 0x4
	.byte	0x1f
	.byte	0x5d
	.byte	0xc
	.4byte	0xfa8
	.uleb128 0x4
	.byte	0x1f
	.byte	0x5d
	.byte	0xc
	.4byte	0xfc3
	.uleb128 0x4
	.byte	0x1f
	.byte	0x5e
	.byte	0xc
	.4byte	0xfde
	.uleb128 0x4
	.byte	0x1f
	.byte	0x5e
	.byte	0xc
	.4byte	0xff9
	.uleb128 0x4
	.byte	0x1f
	.byte	0x5f
	.byte	0xc
	.4byte	0x1014
	.uleb128 0x4
	.byte	0x1f
	.byte	0x5f
	.byte	0xc
	.4byte	0x102f
	.uleb128 0x4
	.byte	0x1f
	.byte	0x60
	.byte	0xc
	.4byte	0x104a
	.uleb128 0x4
	.byte	0x1f
	.byte	0x60
	.byte	0xc
	.4byte	0x1065
	.uleb128 0x4
	.byte	0x1f
	.byte	0x61
	.byte	0xc
	.4byte	0x1080
	.uleb128 0x4
	.byte	0x1f
	.byte	0x61
	.byte	0xc
	.4byte	0x109b
	.uleb128 0x4
	.byte	0x1f
	.byte	0x62
	.byte	0xc
	.4byte	0x10b6
	.uleb128 0x4
	.byte	0x1f
	.byte	0x62
	.byte	0xc
	.4byte	0x10d1
	.uleb128 0x4
	.byte	0x1f
	.byte	0x63
	.byte	0xc
	.4byte	0x10ec
	.uleb128 0x4
	.byte	0x1f
	.byte	0x63
	.byte	0xc
	.4byte	0x1107
	.uleb128 0x4
	.byte	0x1f
	.byte	0x64
	.byte	0xc
	.4byte	0x1122
	.uleb128 0x4
	.byte	0x1f
	.byte	0x64
	.byte	0xc
	.4byte	0x113d
	.uleb128 0x4
	.byte	0x1f
	.byte	0x65
	.byte	0xc
	.4byte	0x1158
	.uleb128 0x4
	.byte	0x1f
	.byte	0x65
	.byte	0xc
	.4byte	0x1173
	.uleb128 0x4
	.byte	0x1f
	.byte	0x66
	.byte	0xc
	.4byte	0x118e
	.uleb128 0x4
	.byte	0x1f
	.byte	0x66
	.byte	0xc
	.4byte	0x11ae
	.uleb128 0x4
	.byte	0x1f
	.byte	0x67
	.byte	0xc
	.4byte	0x11ce
	.uleb128 0x4
	.byte	0x1f
	.byte	0x67
	.byte	0xc
	.4byte	0x11ee
	.uleb128 0x4
	.byte	0x1f
	.byte	0x68
	.byte	0xc
	.4byte	0x120e
	.uleb128 0x4
	.byte	0x1f
	.byte	0x68
	.byte	0xc
	.4byte	0x122e
	.uleb128 0x4
	.byte	0x1f
	.byte	0x69
	.byte	0xc
	.4byte	0x124e
	.uleb128 0x4
	.byte	0x1f
	.byte	0x69
	.byte	0xc
	.4byte	0x1273
	.uleb128 0x4
	.byte	0x1f
	.byte	0x6a
	.byte	0xc
	.4byte	0x1298
	.uleb128 0x4
	.byte	0x1f
	.byte	0x6a
	.byte	0xc
	.4byte	0x12b3
	.uleb128 0x4
	.byte	0x1f
	.byte	0x6b
	.byte	0xc
	.4byte	0x12ce
	.uleb128 0x4
	.byte	0x1f
	.byte	0x6b
	.byte	0xc
	.4byte	0x12e9
	.uleb128 0x4
	.byte	0x1f
	.byte	0x6c
	.byte	0xc
	.4byte	0x1304
	.uleb128 0x4
	.byte	0x1f
	.byte	0x6c
	.byte	0xc
	.4byte	0x1324
	.uleb128 0x4
	.byte	0x1f
	.byte	0x6d
	.byte	0xc
	.4byte	0x1344
	.uleb128 0x4
	.byte	0x1f
	.byte	0x6d
	.byte	0xc
	.4byte	0x1364
	.uleb128 0x4
	.byte	0x1f
	.byte	0x6e
	.byte	0xc
	.4byte	0x1384
	.uleb128 0x4
	.byte	0x1f
	.byte	0x6e
	.byte	0xc
	.4byte	0x139f
	.uleb128 0x4
	.byte	0x1f
	.byte	0x6f
	.byte	0xc
	.4byte	0x13ba
	.uleb128 0x4
	.byte	0x1f
	.byte	0x6f
	.byte	0xc
	.4byte	0x13d5
	.uleb128 0xf
	.4byte	.LASF1086
	.byte	0x20
	.byte	0x24
	.byte	0x14
	.4byte	0x6eda
	.uleb128 0xb
	.4byte	0x752b
	.uleb128 0xf
	.4byte	.LASF1087
	.byte	0x20
	.byte	0x2c
	.byte	0x13
	.4byte	0x6ee6
	.uleb128 0xf
	.4byte	.LASF1088
	.byte	0x20
	.byte	0x30
	.byte	0x14
	.4byte	0x6ef2
	.uleb128 0x13
	.4byte	0x7000
	.uleb128 0x13
	.4byte	0x7007
	.uleb128 0x2d
	.4byte	.LASF1089
	.byte	0x1e
	.byte	0x4c
	.byte	0x5
	.4byte	0x3b
	.4byte	0x7574
	.uleb128 0x1
	.4byte	0x6f01
	.byte	0
	.uleb128 0x2d
	.4byte	.LASF1090
	.byte	0x1e
	.byte	0x4d
	.byte	0x8
	.4byte	0x6e83
	.4byte	0x758a
	.uleb128 0x1
	.4byte	0x6f19
	.byte	0
	.uleb128 0x2d
	.4byte	.LASF1091
	.byte	0x1e
	.byte	0x51
	.byte	0x5
	.4byte	0x3b
	.4byte	0x75a0
	.uleb128 0x1
	.4byte	0x6f19
	.byte	0
	.uleb128 0x2d
	.4byte	.LASF1092
	.byte	0x1e
	.byte	0x53
	.byte	0x6
	.4byte	0x6e69
	.4byte	0x75b6
	.uleb128 0x1
	.4byte	0x6f19
	.byte	0
	.uleb128 0x2d
	.4byte	.LASF1093
	.byte	0x1e
	.byte	0x55
	.byte	0x8
	.4byte	0x6efe
	.4byte	0x75e0
	.uleb128 0x1
	.4byte	0x6fef
	.uleb128 0x1
	.4byte	0x6fef
	.uleb128 0x1
	.4byte	0x6e8f
	.uleb128 0x1
	.4byte	0x6e8f
	.uleb128 0x1
	.4byte	0x6fc9
	.byte	0
	.uleb128 0x90
	.ascii	"div\000"
	.byte	0x1e
	.byte	0x5c
	.byte	0x7
	.4byte	0x6f5b
	.4byte	0x75fc
	.uleb128 0x1
	.4byte	0x3b
	.uleb128 0x1
	.4byte	0x3b
	.byte	0
	.uleb128 0x2d
	.4byte	.LASF1094
	.byte	0x1e
	.byte	0x5f
	.byte	0x9
	.4byte	0x6f08
	.4byte	0x7612
	.uleb128 0x1
	.4byte	0x6f19
	.byte	0
	.uleb128 0x2d
	.4byte	.LASF1095
	.byte	0x1e
	.byte	0x6b
	.byte	0x8
	.4byte	0x6f8c
	.4byte	0x762d
	.uleb128 0x1
	.4byte	0x6e69
	.uleb128 0x1
	.4byte	0x6e69
	.byte	0
	.uleb128 0x2d
	.4byte	.LASF1096
	.byte	0x1e
	.byte	0x6d
	.byte	0x5
	.4byte	0x3b
	.4byte	0x7648
	.uleb128 0x1
	.4byte	0x6f19
	.uleb128 0x1
	.4byte	0x6e8f
	.byte	0
	.uleb128 0x2d
	.4byte	.LASF1097
	.byte	0x1e
	.byte	0x73
	.byte	0x8
	.4byte	0x6e8f
	.4byte	0x7668
	.uleb128 0x1
	.4byte	0x7554
	.uleb128 0x1
	.4byte	0x6f19
	.uleb128 0x1
	.4byte	0x6e8f
	.byte	0
	.uleb128 0x2d
	.4byte	.LASF1098
	.byte	0x1e
	.byte	0x6f
	.byte	0x5
	.4byte	0x3b
	.4byte	0x7688
	.uleb128 0x1
	.4byte	0x7554
	.uleb128 0x1
	.4byte	0x6f19
	.uleb128 0x1
	.4byte	0x6e8f
	.byte	0
	.uleb128 0x76
	.4byte	.LASF1099
	.byte	0x8f
	.4byte	0x76a7
	.uleb128 0x1
	.4byte	0x6efe
	.uleb128 0x1
	.4byte	0x6e8f
	.uleb128 0x1
	.4byte	0x6e8f
	.uleb128 0x1
	.4byte	0x6fc9
	.byte	0
	.uleb128 0x91
	.4byte	.LASF1268
	.byte	0x1e
	.byte	0x90
	.byte	0x5
	.4byte	0x3b
	.uleb128 0x76
	.4byte	.LASF1100
	.byte	0x9f
	.4byte	0x76c4
	.uleb128 0x1
	.4byte	0x2d
	.byte	0
	.uleb128 0x2d
	.4byte	.LASF1101
	.byte	0x1e
	.byte	0xa0
	.byte	0x8
	.4byte	0x6e83
	.4byte	0x76df
	.uleb128 0x1
	.4byte	0x6f19
	.uleb128 0x1
	.4byte	0x76df
	.byte	0
	.uleb128 0x13
	.4byte	0x6f08
	.uleb128 0x2d
	.4byte	.LASF1102
	.byte	0x1e
	.byte	0xab
	.byte	0x6
	.4byte	0x6e69
	.4byte	0x7704
	.uleb128 0x1
	.4byte	0x6f19
	.uleb128 0x1
	.4byte	0x76df
	.uleb128 0x1
	.4byte	0x3b
	.byte	0
	.uleb128 0x2d
	.4byte	.LASF1103
	.byte	0x1e
	.byte	0xad
	.byte	0xf
	.4byte	0x6e4f
	.4byte	0x7724
	.uleb128 0x1
	.4byte	0x6f19
	.uleb128 0x1
	.4byte	0x76df
	.uleb128 0x1
	.4byte	0x3b
	.byte	0
	.uleb128 0x2d
	.4byte	.LASF1104
	.byte	0x1e
	.byte	0xbf
	.byte	0x5
	.4byte	0x3b
	.4byte	0x773a
	.uleb128 0x1
	.4byte	0x6f19
	.byte	0
	.uleb128 0x2d
	.4byte	.LASF1105
	.byte	0x1e
	.byte	0x75
	.byte	0x8
	.4byte	0x6e8f
	.4byte	0x775a
	.uleb128 0x1
	.4byte	0x6f08
	.uleb128 0x1
	.4byte	0x7559
	.uleb128 0x1
	.4byte	0x6e8f
	.byte	0
	.uleb128 0x2d
	.4byte	.LASF1106
	.byte	0x1e
	.byte	0x71
	.byte	0x5
	.4byte	0x3b
	.4byte	0x7775
	.uleb128 0x1
	.4byte	0x6f08
	.uleb128 0x1
	.4byte	0x7000
	.byte	0
	.uleb128 0x55
	.4byte	.LASF1107
	.2byte	0x10c
	.byte	0x9
	.4byte	0x6fbd
	.4byte	0x7790
	.uleb128 0x1
	.4byte	0x6e75
	.uleb128 0x1
	.4byte	0x6e75
	.byte	0
	.uleb128 0x55
	.4byte	.LASF1108
	.2byte	0x107
	.byte	0xb
	.4byte	0x6e75
	.4byte	0x77a6
	.uleb128 0x1
	.4byte	0x6f19
	.byte	0
	.uleb128 0x55
	.4byte	.LASF1109
	.2byte	0x10d
	.byte	0xb
	.4byte	0x6e75
	.4byte	0x77c6
	.uleb128 0x1
	.4byte	0x6f19
	.uleb128 0x1
	.4byte	0x76df
	.uleb128 0x1
	.4byte	0x3b
	.byte	0
	.uleb128 0x55
	.4byte	.LASF1110
	.2byte	0x111
	.byte	0x14
	.4byte	0x26
	.4byte	0x77e6
	.uleb128 0x1
	.4byte	0x6f19
	.uleb128 0x1
	.4byte	0x76df
	.uleb128 0x1
	.4byte	0x3b
	.byte	0
	.uleb128 0x2d
	.4byte	.LASF1111
	.byte	0x1e
	.byte	0xa3
	.byte	0x7
	.4byte	0x34
	.4byte	0x7801
	.uleb128 0x1
	.4byte	0x6f19
	.uleb128 0x1
	.4byte	0x76df
	.byte	0
	.uleb128 0x55
	.4byte	.LASF1112
	.2byte	0x144
	.byte	0x14
	.4byte	0x6e7c
	.4byte	0x781c
	.uleb128 0x1
	.4byte	0x6f19
	.uleb128 0x1
	.4byte	0x76df
	.byte	0
	.uleb128 0x4
	.byte	0x21
	.byte	0x27
	.byte	0xc
	.4byte	0x755e
	.uleb128 0x4
	.byte	0x21
	.byte	0x36
	.byte	0xc
	.4byte	0x6f5b
	.uleb128 0x4
	.byte	0x21
	.byte	0x37
	.byte	0xc
	.4byte	0x6f8c
	.uleb128 0x4
	.byte	0x21
	.byte	0x39
	.byte	0xc
	.4byte	0x274
	.uleb128 0x4
	.byte	0x21
	.byte	0x39
	.byte	0xc
	.4byte	0x28d
	.uleb128 0x4
	.byte	0x21
	.byte	0x39
	.byte	0xc
	.4byte	0x2a6
	.uleb128 0x4
	.byte	0x21
	.byte	0x39
	.byte	0xc
	.4byte	0x2bf
	.uleb128 0x4
	.byte	0x21
	.byte	0x39
	.byte	0xc
	.4byte	0x2d8
	.uleb128 0x4
	.byte	0x21
	.byte	0x3a
	.byte	0xc
	.4byte	0x7574
	.uleb128 0x4
	.byte	0x21
	.byte	0x3b
	.byte	0xc
	.4byte	0x758a
	.uleb128 0x4
	.byte	0x21
	.byte	0x3c
	.byte	0xc
	.4byte	0x75a0
	.uleb128 0x4
	.byte	0x21
	.byte	0x3d
	.byte	0xc
	.4byte	0x75b6
	.uleb128 0x4
	.byte	0x21
	.byte	0x3f
	.byte	0xc
	.4byte	0x66f9
	.uleb128 0x4
	.byte	0x21
	.byte	0x3f
	.byte	0xc
	.4byte	0x152b
	.uleb128 0x4
	.byte	0x21
	.byte	0x3f
	.byte	0xc
	.4byte	0x75e0
	.uleb128 0x4
	.byte	0x21
	.byte	0x41
	.byte	0xc
	.4byte	0x75fc
	.uleb128 0x4
	.byte	0x21
	.byte	0x43
	.byte	0xc
	.4byte	0x7612
	.uleb128 0x4
	.byte	0x21
	.byte	0x46
	.byte	0xc
	.4byte	0x762d
	.uleb128 0x4
	.byte	0x21
	.byte	0x47
	.byte	0xc
	.4byte	0x7648
	.uleb128 0x4
	.byte	0x21
	.byte	0x48
	.byte	0xc
	.4byte	0x7668
	.uleb128 0x4
	.byte	0x21
	.byte	0x4a
	.byte	0xc
	.4byte	0x7688
	.uleb128 0x4
	.byte	0x21
	.byte	0x4b
	.byte	0xc
	.4byte	0x76a7
	.uleb128 0x4
	.byte	0x21
	.byte	0x4d
	.byte	0xc
	.4byte	0x76b4
	.uleb128 0x4
	.byte	0x21
	.byte	0x4e
	.byte	0xc
	.4byte	0x76c4
	.uleb128 0x4
	.byte	0x21
	.byte	0x4f
	.byte	0xc
	.4byte	0x76e4
	.uleb128 0x4
	.byte	0x21
	.byte	0x50
	.byte	0xc
	.4byte	0x7704
	.uleb128 0x4
	.byte	0x21
	.byte	0x51
	.byte	0xc
	.4byte	0x7724
	.uleb128 0x4
	.byte	0x21
	.byte	0x53
	.byte	0xc
	.4byte	0x773a
	.uleb128 0x4
	.byte	0x21
	.byte	0x54
	.byte	0xc
	.4byte	0x775a
	.uleb128 0x67
	.4byte	0x753c
	.4byte	0x7914
	.uleb128 0x68
	.4byte	0x2d
	.byte	0xf
	.byte	0
	.uleb128 0x67
	.4byte	0x753c
	.4byte	0x7924
	.uleb128 0x68
	.4byte	0x2d
	.byte	0x7f
	.byte	0
	.uleb128 0x74
	.4byte	.LASF1113
	.byte	0x22
	.byte	0x8
	.4byte	0x7ccc
	.uleb128 0x58
	.4byte	.LASF1114
	.byte	0xa
	.4byte	0x6e9b
	.byte	0x80
	.uleb128 0x58
	.4byte	.LASF1115
	.byte	0xb
	.4byte	0x6e9b
	.byte	0x80
	.uleb128 0x58
	.4byte	.LASF1116
	.byte	0xc
	.4byte	0x6e9b
	.byte	0x80
	.uleb128 0x92
	.4byte	.LASF1117
	.2byte	0x158
	.byte	0x22
	.byte	0xe
	.byte	0x7
	.4byte	0x7b59
	.uleb128 0x16
	.4byte	.LASF1117
	.byte	0x22
	.byte	0x10
	.byte	0x5
	.4byte	.LASF1118
	.4byte	0x7eb1
	.byte	0x1
	.4byte	0x7978
	.4byte	0x798d
	.uleb128 0x2
	.4byte	0x7eb1
	.uleb128 0x1
	.4byte	0x45a3
	.uleb128 0x1
	.4byte	0x6e8f
	.uleb128 0x1
	.4byte	0x7548
	.byte	0
	.uleb128 0x44
	.4byte	.LASF1119
	.byte	0x22
	.byte	0x15
	.byte	0x5
	.4byte	.LASF1120
	.4byte	0x6efe
	.4byte	0x79a5
	.4byte	0x79b0
	.uleb128 0x2
	.4byte	0x7eb1
	.uleb128 0x2
	.4byte	0x3b
	.byte	0
	.uleb128 0x3e
	.4byte	.LASF1121
	.byte	0x22
	.byte	0x17
	.byte	0xa
	.4byte	.LASF1122
	.byte	0x1
	.4byte	0x79c5
	.4byte	0x79da
	.uleb128 0x2
	.4byte	0x7eb1
	.uleb128 0x1
	.4byte	0x7ebb
	.uleb128 0x1
	.4byte	0x6e8f
	.uleb128 0x1
	.4byte	0x6e8f
	.byte	0
	.uleb128 0x16
	.4byte	.LASF1123
	.byte	0x22
	.byte	0x18
	.byte	0xc
	.4byte	.LASF1124
	.4byte	0x6e8f
	.byte	0x1
	.4byte	0x79f3
	.4byte	0x79f9
	.uleb128 0x2
	.4byte	0x7eb1
	.byte	0
	.uleb128 0x16
	.4byte	.LASF1125
	.byte	0x22
	.byte	0x19
	.byte	0xc
	.4byte	.LASF1126
	.4byte	0x6e8f
	.byte	0x1
	.4byte	0x7a12
	.4byte	0x7a22
	.uleb128 0x2
	.4byte	0x7eb1
	.uleb128 0x1
	.4byte	0x7ec0
	.uleb128 0x1
	.4byte	0x6e8f
	.byte	0
	.uleb128 0x16
	.4byte	.LASF1125
	.byte	0x22
	.byte	0x1a
	.byte	0xc
	.4byte	.LASF1127
	.4byte	0x6e8f
	.byte	0x1
	.4byte	0x7a3b
	.4byte	0x7a4b
	.uleb128 0x2
	.4byte	0x7eb1
	.uleb128 0x1
	.4byte	0x7ec5
	.uleb128 0x1
	.4byte	0x6e8f
	.byte	0
	.uleb128 0x16
	.4byte	.LASF1128
	.byte	0x22
	.byte	0x1c
	.byte	0xa
	.4byte	.LASF1129
	.4byte	0x66a4
	.byte	0x1
	.4byte	0x7a64
	.4byte	0x7a6a
	.uleb128 0x2
	.4byte	0x7eb1
	.byte	0
	.uleb128 0x59
	.4byte	.LASF1130
	.byte	0x1d
	.4byte	0x7548
	.byte	0
	.uleb128 0x59
	.4byte	.LASF1131
	.byte	0x1e
	.4byte	0x7548
	.byte	0x4
	.uleb128 0x20
	.4byte	.LASF1132
	.byte	0x22
	.byte	0x20
	.byte	0x1a
	.4byte	0x1d2b
	.byte	0x8
	.uleb128 0x20
	.4byte	.LASF1133
	.byte	0x22
	.byte	0x21
	.byte	0x19
	.4byte	0x37f4
	.byte	0x14
	.uleb128 0x20
	.4byte	.LASF1134
	.byte	0x22
	.byte	0x22
	.byte	0x11
	.4byte	0x6e8f
	.byte	0x3c
	.uleb128 0x20
	.4byte	.LASF1135
	.byte	0x22
	.byte	0x23
	.byte	0x11
	.4byte	0x7eca
	.byte	0x40
	.uleb128 0x50
	.4byte	.LASF1136
	.byte	0x24
	.4byte	0x6e8f
	.2byte	0x140
	.uleb128 0x50
	.4byte	.LASF1137
	.byte	0x25
	.4byte	0x6e8f
	.2byte	0x144
	.uleb128 0x50
	.4byte	.LASF1138
	.byte	0x26
	.4byte	0x6e8f
	.2byte	0x148
	.uleb128 0x50
	.4byte	.LASF1139
	.byte	0x27
	.4byte	0x6e8f
	.2byte	0x14c
	.uleb128 0x50
	.4byte	.LASF1140
	.byte	0x28
	.4byte	0x66a4
	.2byte	0x150
	.uleb128 0x50
	.4byte	.LASF1141
	.byte	0x29
	.4byte	0x7548
	.2byte	0x154
	.uleb128 0x5f
	.4byte	.LASF1142
	.byte	0x22
	.byte	0x2b
	.byte	0xa
	.4byte	.LASF1143
	.4byte	0x7b10
	.4byte	0x7b20
	.uleb128 0x2
	.4byte	0x7eb1
	.uleb128 0x1
	.4byte	0x45a3
	.uleb128 0x1
	.4byte	0x7548
	.byte	0
	.uleb128 0x17
	.4byte	.LASF1144
	.byte	0x22
	.byte	0x2c
	.byte	0xd
	.4byte	.LASF1145
	.4byte	0x753c
	.4byte	0x7b38
	.4byte	0x7b3e
	.uleb128 0x2
	.4byte	0x7eb1
	.byte	0
	.uleb128 0x60
	.4byte	.LASF1146
	.byte	0x22
	.byte	0x2d
	.byte	0xd
	.4byte	.LASF1147
	.4byte	0x753c
	.4byte	0x7b52
	.uleb128 0x2
	.4byte	0x7eb1
	.byte	0
	.byte	0
	.uleb128 0x58
	.4byte	.LASF1148
	.byte	0x30
	.4byte	0x6e9b
	.byte	0x8
	.uleb128 0x93
	.4byte	.LASF1149
	.2byte	0x260
	.byte	0x22
	.byte	0x32
	.byte	0x7
	.uleb128 0x16
	.4byte	.LASF1149
	.byte	0x22
	.byte	0x34
	.byte	0x5
	.4byte	.LASF1150
	.4byte	0x7fb6
	.byte	0x1
	.4byte	0x7b88
	.4byte	0x7b98
	.uleb128 0x2
	.4byte	0x7fb6
	.uleb128 0x1
	.4byte	0x7548
	.uleb128 0x1
	.4byte	0x7548
	.byte	0
	.uleb128 0x44
	.4byte	.LASF1151
	.byte	0x22
	.byte	0x3e
	.byte	0x5
	.4byte	.LASF1152
	.4byte	0x6efe
	.4byte	0x7bb0
	.4byte	0x7bbb
	.uleb128 0x2
	.4byte	0x7fb6
	.uleb128 0x2
	.4byte	0x3b
	.byte	0
	.uleb128 0x3e
	.4byte	.LASF1121
	.byte	0x22
	.byte	0x40
	.byte	0xa
	.4byte	.LASF1153
	.byte	0x1
	.4byte	0x7bd0
	.4byte	0x7be5
	.uleb128 0x2
	.4byte	0x7fb6
	.uleb128 0x1
	.4byte	0x7ebb
	.uleb128 0x1
	.4byte	0x6e8f
	.uleb128 0x1
	.4byte	0x6e8f
	.byte	0
	.uleb128 0x16
	.4byte	.LASF1123
	.byte	0x22
	.byte	0x41
	.byte	0xc
	.4byte	.LASF1154
	.4byte	0x6e8f
	.byte	0x1
	.4byte	0x7bfe
	.4byte	0x7c04
	.uleb128 0x2
	.4byte	0x7fb6
	.byte	0
	.uleb128 0x16
	.4byte	.LASF1125
	.byte	0x22
	.byte	0x42
	.byte	0xc
	.4byte	.LASF1155
	.4byte	0x6e8f
	.byte	0x1
	.4byte	0x7c1d
	.4byte	0x7c2d
	.uleb128 0x2
	.4byte	0x7fb6
	.uleb128 0x1
	.4byte	0x7ec5
	.uleb128 0x1
	.4byte	0x6e8f
	.byte	0
	.uleb128 0x16
	.4byte	.LASF1156
	.byte	0x22
	.byte	0x43
	.byte	0xb
	.4byte	.LASF1157
	.4byte	0x34
	.byte	0x1
	.4byte	0x7c46
	.4byte	0x7c4c
	.uleb128 0x2
	.4byte	0x7fb6
	.byte	0
	.uleb128 0x59
	.4byte	.LASF1130
	.byte	0x45
	.4byte	0x7548
	.byte	0
	.uleb128 0x59
	.4byte	.LASF1131
	.byte	0x46
	.4byte	0x7548
	.byte	0x4
	.uleb128 0x20
	.4byte	.LASF1158
	.byte	0x22
	.byte	0x48
	.byte	0x11
	.4byte	0x7904
	.byte	0x8
	.uleb128 0x20
	.4byte	.LASF1159
	.byte	0x22
	.byte	0x49
	.byte	0x11
	.4byte	0x7548
	.byte	0x48
	.uleb128 0x20
	.4byte	.LASF1160
	.byte	0x22
	.byte	0x4a
	.byte	0x11
	.4byte	0x34
	.byte	0x4c
	.uleb128 0x20
	.4byte	.LASF1161
	.byte	0x22
	.byte	0x4b
	.byte	0x11
	.4byte	0x6e8f
	.byte	0x50
	.uleb128 0x20
	.4byte	.LASF1134
	.byte	0x22
	.byte	0x4c
	.byte	0x11
	.4byte	0x6e8f
	.byte	0x54
	.uleb128 0x20
	.4byte	.LASF1162
	.byte	0x22
	.byte	0x4d
	.byte	0x11
	.4byte	0x6e8f
	.byte	0x58
	.uleb128 0x20
	.4byte	.LASF1163
	.byte	0x22
	.byte	0x4e
	.byte	0x11
	.4byte	0x6e8f
	.byte	0x5c
	.uleb128 0x20
	.4byte	.LASF1164
	.byte	0x22
	.byte	0x4f
	.byte	0x11
	.4byte	0x7914
	.byte	0x60
	.byte	0
	.byte	0
	.uleb128 0x5a
	.4byte	0x792f
	.uleb128 0x5a
	.4byte	0x793a
	.uleb128 0x5a
	.4byte	0x7945
	.uleb128 0x13
	.4byte	0x1549
	.uleb128 0xb
	.4byte	0x7cdb
	.uleb128 0xd
	.4byte	0x173a
	.uleb128 0xd
	.4byte	0x1549
	.uleb128 0x13
	.4byte	0x6e69
	.uleb128 0xb
	.4byte	0x7cef
	.uleb128 0x13
	.4byte	0x173a
	.uleb128 0xb
	.4byte	0x7cf9
	.uleb128 0xd
	.4byte	0x6e69
	.uleb128 0x13
	.4byte	0x6e70
	.uleb128 0xd
	.4byte	0x6e70
	.uleb128 0x13
	.4byte	0x173f
	.uleb128 0xd
	.4byte	0x17d6
	.uleb128 0xd
	.4byte	0x173f
	.uleb128 0xd
	.4byte	0x1816
	.uleb128 0xd
	.4byte	0x1823
	.uleb128 0xd
	.4byte	0x67ce
	.uleb128 0xd
	.4byte	0x67da
	.uleb128 0x13
	.4byte	0x1929
	.uleb128 0x2b
	.4byte	0x1929
	.uleb128 0xd
	.4byte	0x19d7
	.uleb128 0xd
	.4byte	0x1929
	.uleb128 0x13
	.4byte	0x19e8
	.uleb128 0xd
	.4byte	0x1ab7
	.uleb128 0x2b
	.4byte	0x19e8
	.uleb128 0x2b
	.4byte	0x1aab
	.uleb128 0xd
	.4byte	0x1aab
	.uleb128 0x13
	.4byte	0x191c
	.uleb128 0xb
	.4byte	0x7d62
	.uleb128 0x13
	.4byte	0x1d03
	.uleb128 0xb
	.4byte	0x7d6c
	.uleb128 0xd
	.4byte	0x1b07
	.uleb128 0x2b
	.4byte	0x191c
	.uleb128 0xd
	.4byte	0x1df8
	.uleb128 0x13
	.4byte	0x1d2b
	.uleb128 0xb
	.4byte	0x7d85
	.uleb128 0xd
	.4byte	0x1eb2
	.uleb128 0xd
	.4byte	0x1f2f
	.uleb128 0xd
	.4byte	0x29f1
	.uleb128 0x2b
	.4byte	0x1d2b
	.uleb128 0xd
	.4byte	0x2a02
	.uleb128 0xd
	.4byte	0x1d2b
	.uleb128 0x13
	.4byte	0x29f1
	.uleb128 0xb
	.4byte	0x7dad
	.uleb128 0x2b
	.4byte	0x1f21
	.uleb128 0xd
	.4byte	0x1e05
	.uleb128 0x13
	.4byte	0x2adf
	.uleb128 0xb
	.4byte	0x7dc1
	.uleb128 0xd
	.4byte	0x2c93
	.uleb128 0xd
	.4byte	0x2adf
	.uleb128 0x13
	.4byte	0x7cef
	.uleb128 0xb
	.4byte	0x7dd5
	.uleb128 0x13
	.4byte	0x2c93
	.uleb128 0xd
	.4byte	0x7cef
	.uleb128 0x13
	.4byte	0x7cf4
	.uleb128 0xd
	.4byte	0x7cf4
	.uleb128 0x13
	.4byte	0x2a16
	.uleb128 0xb
	.4byte	0x7df3
	.uleb128 0xd
	.4byte	0x2ada
	.uleb128 0xd
	.4byte	0x2a16
	.uleb128 0xd
	.4byte	0x2ccb
	.uleb128 0x13
	.4byte	0x2d1e
	.uleb128 0xb
	.4byte	0x7e0c
	.uleb128 0xd
	.4byte	0x2fe4
	.uleb128 0xd
	.4byte	0x2d1e
	.uleb128 0x13
	.4byte	0x2fe4
	.uleb128 0xb
	.4byte	0x7e20
	.uleb128 0xd
	.4byte	0x2e9c
	.uleb128 0x13
	.4byte	0x32fb
	.uleb128 0xd
	.4byte	0x33e7
	.uleb128 0xd
	.4byte	0x32fb
	.uleb128 0x2b
	.4byte	0x32fb
	.uleb128 0x13
	.4byte	0x3408
	.uleb128 0xd
	.4byte	0x34dd
	.uleb128 0x2b
	.4byte	0x3408
	.uleb128 0x2b
	.4byte	0x34cf
	.uleb128 0x13
	.4byte	0x37ef
	.uleb128 0xb
	.4byte	0x7e57
	.uleb128 0x13
	.4byte	0x32ee
	.uleb128 0xb
	.4byte	0x7e61
	.uleb128 0xd
	.4byte	0x34f0
	.uleb128 0x2b
	.4byte	0x32ee
	.uleb128 0xd
	.4byte	0x34cf
	.uleb128 0x13
	.4byte	0x37f4
	.uleb128 0xb
	.4byte	0x7e7a
	.uleb128 0xd
	.4byte	0x38c1
	.uleb128 0xd
	.4byte	0x393e
	.uleb128 0xd
	.4byte	0x4594
	.uleb128 0x2b
	.4byte	0x37f4
	.uleb128 0xd
	.4byte	0x37f4
	.uleb128 0x13
	.4byte	0x4594
	.uleb128 0xb
	.4byte	0x7e9d
	.uleb128 0x2b
	.4byte	0x3930
	.uleb128 0xd
	.4byte	0x415b
	.uleb128 0x13
	.4byte	0x7950
	.uleb128 0xb
	.4byte	0x7eb1
	.uleb128 0x13
	.4byte	0x7537
	.uleb128 0x13
	.4byte	0x753c
	.uleb128 0x13
	.4byte	0x752b
	.uleb128 0x67
	.4byte	0x752b
	.4byte	0x7eda
	.uleb128 0x68
	.4byte	0x2d
	.byte	0x7f
	.byte	0
	.uleb128 0x13
	.4byte	0x51d9
	.uleb128 0xd
	.4byte	0x538d
	.uleb128 0xd
	.4byte	0x51d9
	.uleb128 0x13
	.4byte	0x538d
	.uleb128 0xd
	.4byte	0x34
	.uleb128 0x13
	.4byte	0x6e8a
	.uleb128 0xb
	.4byte	0x7ef3
	.uleb128 0xd
	.4byte	0x6e8a
	.uleb128 0x13
	.4byte	0x5392
	.uleb128 0xd
	.4byte	0x5429
	.uleb128 0xd
	.4byte	0x5392
	.uleb128 0xd
	.4byte	0x5469
	.uleb128 0xd
	.4byte	0x5476
	.uleb128 0xd
	.4byte	0x6b51
	.uleb128 0xd
	.4byte	0x6b5d
	.uleb128 0x13
	.4byte	0x5539
	.uleb128 0x2b
	.4byte	0x5539
	.uleb128 0xd
	.4byte	0x55e7
	.uleb128 0xd
	.4byte	0x5539
	.uleb128 0x13
	.4byte	0x55f8
	.uleb128 0xd
	.4byte	0x56c7
	.uleb128 0x2b
	.4byte	0x55f8
	.uleb128 0x2b
	.4byte	0x56bb
	.uleb128 0xd
	.4byte	0x56bb
	.uleb128 0x13
	.4byte	0x552c
	.uleb128 0x13
	.4byte	0x5913
	.uleb128 0xd
	.4byte	0x5717
	.uleb128 0x2b
	.4byte	0x552c
	.uleb128 0xd
	.4byte	0x4670
	.uleb128 0x13
	.4byte	0x45a3
	.uleb128 0xb
	.4byte	0x7f6b
	.uleb128 0xd
	.4byte	0x472a
	.uleb128 0xd
	.4byte	0x47a2
	.uleb128 0xd
	.4byte	0x51d4
	.uleb128 0x2b
	.4byte	0x45a3
	.uleb128 0xd
	.4byte	0x5947
	.uleb128 0xd
	.4byte	0x45a3
	.uleb128 0x13
	.4byte	0x51d4
	.uleb128 0xb
	.4byte	0x7f93
	.uleb128 0x2b
	.4byte	0x4794
	.uleb128 0xd
	.4byte	0x467d
	.uleb128 0x13
	.4byte	0x594c
	.uleb128 0x13
	.4byte	0x5a47
	.uleb128 0x5a
	.4byte	0x7b59
	.uleb128 0x13
	.4byte	0x7b64
	.uleb128 0xb
	.4byte	0x7fb6
	.uleb128 0x75
	.byte	0x1
	.byte	0x6
	.byte	0x11
	.4byte	0x7924
	.uleb128 0xd
	.4byte	0x5a89
	.uleb128 0x13
	.4byte	0x3001
	.uleb128 0xb
	.4byte	0x7fcd
	.uleb128 0xd
	.4byte	0x32e9
	.uleb128 0xd
	.4byte	0x3001
	.uleb128 0x13
	.4byte	0x32e9
	.uleb128 0xb
	.4byte	0x7fe1
	.uleb128 0xd
	.4byte	0x317f
	.uleb128 0x13
	.4byte	0x6bb8
	.uleb128 0xd
	.4byte	0x7ef8
	.uleb128 0x13
	.4byte	0x6df5
	.uleb128 0xd
	.4byte	0x6bb8
	.uleb128 0xd
	.4byte	0x5b69
	.uleb128 0xd
	.4byte	0x5b76
	.uleb128 0x13
	.4byte	0x6853
	.uleb128 0xb
	.4byte	0x800e
	.uleb128 0x13
	.4byte	0x6a90
	.uleb128 0xb
	.4byte	0x8018
	.uleb128 0xd
	.4byte	0x6853
	.uleb128 0x2b
	.4byte	0x6e69
	.uleb128 0xd
	.4byte	0x7dda
	.uleb128 0x2d
	.4byte	.LASF1165
	.byte	0x23
	.byte	0x20
	.byte	0x9
	.4byte	0x6efe
	.4byte	0x8051
	.uleb128 0x1
	.4byte	0x6efe
	.uleb128 0x1
	.4byte	0x6fef
	.uleb128 0x1
	.4byte	0x6e8f
	.byte	0
	.uleb128 0x64
	.4byte	.LASF1166
	.byte	0x24
	.byte	0x8c
	.byte	0x6
	.4byte	.LASF1167
	.4byte	0x806c
	.uleb128 0x1
	.4byte	0x6efe
	.uleb128 0x1
	.4byte	0x155
	.byte	0
	.uleb128 0x26
	.4byte	.LASF1168
	.byte	0x24
	.byte	0x83
	.byte	0x1a
	.4byte	.LASF1169
	.4byte	0x6efe
	.4byte	0x8086
	.uleb128 0x1
	.4byte	0x155
	.byte	0
	.uleb128 0x15
	.4byte	0x228
	.byte	0x3
	.4byte	0x80bd
	.uleb128 0x8
	.ascii	"_Tp\000"
	.4byte	0x6e69
	.uleb128 0x8
	.ascii	"_Up\000"
	.4byte	0x6e69
	.uleb128 0x9
	.4byte	.LASF1170
	.byte	0x3
	.2byte	0x1b5
	.byte	0x14
	.4byte	0x7cef
	.uleb128 0x9
	.4byte	.LASF1171
	.byte	0x3
	.2byte	0x1b5
	.byte	0x1f
	.4byte	0x7cef
	.byte	0
	.uleb128 0x15
	.4byte	0x1ce
	.byte	0x3
	.4byte	0x80f4
	.uleb128 0x8
	.ascii	"_Tp\000"
	.4byte	0x7cef
	.uleb128 0x8
	.ascii	"_Up\000"
	.4byte	0x7cef
	.uleb128 0x9
	.4byte	.LASF1170
	.byte	0x3
	.2byte	0x19c
	.byte	0x14
	.4byte	0x7dd5
	.uleb128 0x9
	.4byte	.LASF1171
	.byte	0x3
	.2byte	0x19c
	.byte	0x1f
	.4byte	0x7dd5
	.byte	0
	.uleb128 0x15
	.4byte	0x5d9a
	.byte	0x3
	.4byte	0x8145
	.uleb128 0x8
	.ascii	"_Tp\000"
	.4byte	0x6e69
	.uleb128 0x8
	.ascii	"_Up\000"
	.4byte	0x6e69
	.uleb128 0x9
	.4byte	.LASF1172
	.byte	0x3
	.2byte	0x1c0
	.byte	0x10
	.4byte	0x7cef
	.uleb128 0x9
	.4byte	.LASF1173
	.byte	0x3
	.2byte	0x1c0
	.byte	0x1e
	.4byte	0x7cef
	.uleb128 0x9
	.4byte	.LASF1174
	.byte	0x3
	.2byte	0x1c0
	.byte	0x2b
	.4byte	0x7cef
	.uleb128 0x23
	.4byte	.LASF1175
	.byte	0x3
	.2byte	0x1c2
	.byte	0x14
	.4byte	0x140c
	.byte	0
	.uleb128 0x15
	.4byte	0x5d37
	.byte	0x3
	.4byte	0x8196
	.uleb128 0x8
	.ascii	"_Tp\000"
	.4byte	0x6e69
	.uleb128 0x8
	.ascii	"_Up\000"
	.4byte	0x6e69
	.uleb128 0x9
	.4byte	.LASF1172
	.byte	0x3
	.2byte	0x2fa
	.byte	0x15
	.4byte	0x7cef
	.uleb128 0x9
	.4byte	.LASF1173
	.byte	0x3
	.2byte	0x2fa
	.byte	0x23
	.4byte	0x7cef
	.uleb128 0x9
	.4byte	.LASF1174
	.byte	0x3
	.2byte	0x2fa
	.byte	0x30
	.4byte	0x7cef
	.uleb128 0x23
	.4byte	.LASF1175
	.byte	0x3
	.2byte	0x2fc
	.byte	0x14
	.4byte	0x140c
	.byte	0
	.uleb128 0x15
	.4byte	0x5cd4
	.byte	0x3
	.4byte	0x81e7
	.uleb128 0x8
	.ascii	"_Tp\000"
	.4byte	0x7cef
	.uleb128 0x8
	.ascii	"_Up\000"
	.4byte	0x7cef
	.uleb128 0x9
	.4byte	.LASF1172
	.byte	0x3
	.2byte	0x2fa
	.byte	0x15
	.4byte	0x7dd5
	.uleb128 0x9
	.4byte	.LASF1173
	.byte	0x3
	.2byte	0x2fa
	.byte	0x23
	.4byte	0x7dd5
	.uleb128 0x9
	.4byte	.LASF1174
	.byte	0x3
	.2byte	0x2fa
	.byte	0x30
	.4byte	0x7dd5
	.uleb128 0x23
	.4byte	.LASF1175
	.byte	0x3
	.2byte	0x2fc
	.byte	0x14
	.4byte	0x140c
	.byte	0
	.uleb128 0x15
	.4byte	0x5c71
	.byte	0x3
	.4byte	0x8238
	.uleb128 0x8
	.ascii	"_Tp\000"
	.4byte	0x7cef
	.uleb128 0x8
	.ascii	"_Up\000"
	.4byte	0x7cef
	.uleb128 0x9
	.4byte	.LASF1172
	.byte	0x3
	.2byte	0x1c0
	.byte	0x10
	.4byte	0x7dd5
	.uleb128 0x9
	.4byte	.LASF1173
	.byte	0x3
	.2byte	0x1c0
	.byte	0x1e
	.4byte	0x7dd5
	.uleb128 0x9
	.4byte	.LASF1174
	.byte	0x3
	.2byte	0x1c0
	.byte	0x2b
	.4byte	0x7dd5
	.uleb128 0x23
	.4byte	.LASF1175
	.byte	0x3
	.2byte	0x1c2
	.byte	0x14
	.4byte	0x140c
	.byte	0
	.uleb128 0x15
	.4byte	0x5e1a
	.byte	0x3
	.4byte	0x8286
	.uleb128 0x18
	.4byte	.LASF23
	.4byte	0x66a4
	.byte	0x1
	.uleb128 0x8
	.ascii	"_II\000"
	.4byte	0x7cef
	.uleb128 0x8
	.ascii	"_OI\000"
	.4byte	0x7cef
	.uleb128 0x9
	.4byte	.LASF1172
	.byte	0x3
	.2byte	0x200
	.byte	0x18
	.4byte	0x7cef
	.uleb128 0x9
	.4byte	.LASF1173
	.byte	0x3
	.2byte	0x200
	.byte	0x25
	.4byte	0x7cef
	.uleb128 0x9
	.4byte	.LASF1174
	.byte	0x3
	.2byte	0x200
	.byte	0x31
	.4byte	0x7cef
	.byte	0
	.uleb128 0x15
	.4byte	0x5e5b
	.byte	0x3
	.4byte	0x82d4
	.uleb128 0x18
	.4byte	.LASF23
	.4byte	0x66a4
	.byte	0x1
	.uleb128 0xa
	.4byte	.LASF897
	.4byte	0x7cef
	.uleb128 0xa
	.4byte	.LASF898
	.4byte	0x7cef
	.uleb128 0x9
	.4byte	.LASF1172
	.byte	0x3
	.2byte	0x309
	.byte	0x22
	.4byte	0x7cef
	.uleb128 0x9
	.4byte	.LASF1173
	.byte	0x3
	.2byte	0x309
	.byte	0x30
	.4byte	0x7cef
	.uleb128 0x9
	.4byte	.LASF1174
	.byte	0x3
	.2byte	0x309
	.byte	0x3d
	.4byte	0x7cef
	.byte	0
	.uleb128 0x15
	.4byte	0x5e9c
	.byte	0x3
	.4byte	0x8322
	.uleb128 0x18
	.4byte	.LASF23
	.4byte	0x66a4
	.byte	0
	.uleb128 0xa
	.4byte	.LASF897
	.4byte	0x7dd5
	.uleb128 0xa
	.4byte	.LASF898
	.4byte	0x7dd5
	.uleb128 0x9
	.4byte	.LASF1172
	.byte	0x3
	.2byte	0x309
	.byte	0x22
	.4byte	0x7dd5
	.uleb128 0x9
	.4byte	.LASF1173
	.byte	0x3
	.2byte	0x309
	.byte	0x30
	.4byte	0x7dd5
	.uleb128 0x9
	.4byte	.LASF1174
	.byte	0x3
	.2byte	0x309
	.byte	0x3d
	.4byte	0x7dd5
	.byte	0
	.uleb128 0x15
	.4byte	0x5edd
	.byte	0x3
	.4byte	0x8370
	.uleb128 0x18
	.4byte	.LASF23
	.4byte	0x66a4
	.byte	0
	.uleb128 0x8
	.ascii	"_II\000"
	.4byte	0x7dd5
	.uleb128 0x8
	.ascii	"_OI\000"
	.4byte	0x7dd5
	.uleb128 0x9
	.4byte	.LASF1172
	.byte	0x3
	.2byte	0x200
	.byte	0x18
	.4byte	0x7dd5
	.uleb128 0x9
	.4byte	.LASF1173
	.byte	0x3
	.2byte	0x200
	.byte	0x25
	.4byte	0x7dd5
	.uleb128 0x9
	.4byte	.LASF1174
	.byte	0x3
	.2byte	0x200
	.byte	0x31
	.4byte	0x7dd5
	.byte	0
	.uleb128 0x15
	.4byte	0x5f1e
	.byte	0x3
	.4byte	0x83be
	.uleb128 0x18
	.4byte	.LASF23
	.4byte	0x66a4
	.byte	0x1
	.uleb128 0x8
	.ascii	"_II\000"
	.4byte	0x7cef
	.uleb128 0x8
	.ascii	"_OI\000"
	.4byte	0x7cef
	.uleb128 0x9
	.4byte	.LASF1172
	.byte	0x3
	.2byte	0x223
	.byte	0x18
	.4byte	0x7cef
	.uleb128 0x9
	.4byte	.LASF1173
	.byte	0x3
	.2byte	0x223
	.byte	0x25
	.4byte	0x7cef
	.uleb128 0x9
	.4byte	.LASF1174
	.byte	0x3
	.2byte	0x223
	.byte	0x31
	.4byte	0x7cef
	.byte	0
	.uleb128 0x15
	.4byte	0x5f5f
	.byte	0x3
	.4byte	0x840c
	.uleb128 0x18
	.4byte	.LASF23
	.4byte	0x66a4
	.byte	0x1
	.uleb128 0xa
	.4byte	.LASF897
	.4byte	0x7cef
	.uleb128 0xa
	.4byte	.LASF898
	.4byte	0x7cef
	.uleb128 0x9
	.4byte	.LASF1172
	.byte	0x3
	.2byte	0x31b
	.byte	0x22
	.4byte	0x7cef
	.uleb128 0x9
	.4byte	.LASF1173
	.byte	0x3
	.2byte	0x31b
	.byte	0x30
	.4byte	0x7cef
	.uleb128 0x9
	.4byte	.LASF1174
	.byte	0x3
	.2byte	0x31b
	.byte	0x3d
	.4byte	0x7cef
	.byte	0
	.uleb128 0x15
	.4byte	0x5fa0
	.byte	0x3
	.4byte	0x845a
	.uleb128 0x18
	.4byte	.LASF23
	.4byte	0x66a4
	.byte	0
	.uleb128 0xa
	.4byte	.LASF897
	.4byte	0x7dd5
	.uleb128 0xa
	.4byte	.LASF898
	.4byte	0x7dd5
	.uleb128 0x9
	.4byte	.LASF1172
	.byte	0x3
	.2byte	0x31b
	.byte	0x22
	.4byte	0x7dd5
	.uleb128 0x9
	.4byte	.LASF1173
	.byte	0x3
	.2byte	0x31b
	.byte	0x30
	.4byte	0x7dd5
	.uleb128 0x9
	.4byte	.LASF1174
	.byte	0x3
	.2byte	0x31b
	.byte	0x3d
	.4byte	0x7dd5
	.byte	0
	.uleb128 0x15
	.4byte	0x5fe1
	.byte	0x3
	.4byte	0x8480
	.uleb128 0xa
	.4byte	.LASF911
	.4byte	0x7dd5
	.uleb128 0x1
	.4byte	0x802c
	.uleb128 0x9
	.4byte	.LASF1176
	.byte	0x3
	.2byte	0x161
	.byte	0x2e
	.4byte	0x7dd5
	.byte	0
	.uleb128 0x15
	.4byte	0x600a
	.byte	0x3
	.4byte	0x84ce
	.uleb128 0x18
	.4byte	.LASF23
	.4byte	0x66a4
	.byte	0
	.uleb128 0x8
	.ascii	"_II\000"
	.4byte	0x7dd5
	.uleb128 0x8
	.ascii	"_OI\000"
	.4byte	0x7dd5
	.uleb128 0x9
	.4byte	.LASF1172
	.byte	0x3
	.2byte	0x223
	.byte	0x18
	.4byte	0x7dd5
	.uleb128 0x9
	.4byte	.LASF1173
	.byte	0x3
	.2byte	0x223
	.byte	0x25
	.4byte	0x7dd5
	.uleb128 0x9
	.4byte	.LASF1174
	.byte	0x3
	.2byte	0x223
	.byte	0x31
	.4byte	0x7dd5
	.byte	0
	.uleb128 0x15
	.4byte	0x604b
	.byte	0x3
	.4byte	0x84ef
	.uleb128 0xa
	.4byte	.LASF911
	.4byte	0x7dd5
	.uleb128 0x9
	.4byte	.LASF1177
	.byte	0x3
	.2byte	0x13c
	.byte	0x1c
	.4byte	0x7dd5
	.byte	0
	.uleb128 0x77
	.4byte	0x606f
	.4byte	.LFB2487
	.4byte	.LFE2487-.LFB2487
	.uleb128 0x1
	.byte	0x9c
	.4byte	0x8795
	.uleb128 0x18
	.4byte	.LASF23
	.4byte	0x66a4
	.byte	0x1
	.uleb128 0x8
	.ascii	"_II\000"
	.4byte	0x7cef
	.uleb128 0x8
	.ascii	"_Tp\000"
	.4byte	0x6e69
	.uleb128 0x3a
	.4byte	.LASF1172
	.byte	0x7
	.2byte	0x419
	.byte	0x18
	.4byte	0x7cef
	.4byte	.LLST314
	.4byte	.LVUS314
	.uleb128 0x3a
	.4byte	.LASF1173
	.byte	0x7
	.2byte	0x419
	.byte	0x25
	.4byte	0x7cef
	.4byte	.LLST315
	.4byte	.LVUS315
	.uleb128 0x3a
	.4byte	.LASF1174
	.byte	0x7
	.2byte	0x41a
	.byte	0x37
	.4byte	0x2d1e
	.4byte	.LLST316
	.4byte	.LVUS316
	.uleb128 0x22
	.4byte	.LASF533
	.byte	0x7
	.2byte	0x41d
	.byte	0x2f
	.4byte	0x2f52
	.uleb128 0x3b
	.4byte	.LASF1179
	.byte	0x7
	.2byte	0x41f
	.byte	0x17
	.4byte	0x855d
	.4byte	.LLST317
	.4byte	.LVUS317
	.uleb128 0x51
	.4byte	.LLRL318
	.4byte	0x8762
	.uleb128 0x23
	.4byte	.LASF1178
	.byte	0x7
	.2byte	0x422
	.byte	0x1a
	.4byte	0x8595
	.uleb128 0xb
	.4byte	0x855d
	.uleb128 0x1e
	.4byte	0xbfcd
	.4byte	.LBI1232
	.2byte	.LVU740
	.4byte	.LLRL319
	.byte	0x7
	.2byte	0x428
	.byte	0xd
	.4byte	0x8627
	.uleb128 0x3
	.4byte	0xbfdb
	.4byte	.LLST320
	.4byte	.LVUS320
	.uleb128 0x3
	.4byte	0xbfe4
	.4byte	.LLST321
	.4byte	.LVUS321
	.uleb128 0x1d
	.4byte	.LLRL319
	.uleb128 0x1f
	.4byte	0xbff0
	.4byte	.LLST322
	.4byte	.LVUS322
	.uleb128 0x41
	.4byte	0xbffc
	.4byte	.LLRL323
	.uleb128 0x1f
	.4byte	0xbffd
	.4byte	.LLST324
	.4byte	.LVUS324
	.uleb128 0x27
	.4byte	0xa9e2
	.4byte	.LBI1236
	.2byte	.LVU710
	.4byte	.LBB1236
	.4byte	.LBE1236-.LBB1236
	.byte	0x4
	.byte	0xf1
	.byte	0x11
	.uleb128 0x3
	.4byte	0xa9f0
	.4byte	.LLST325
	.4byte	.LVUS325
	.uleb128 0x3
	.4byte	0xa9f9
	.4byte	.LLST326
	.4byte	.LVUS326
	.byte	0
	.byte	0
	.byte	0
	.byte	0
	.uleb128 0x1e
	.4byte	0x8370
	.4byte	.LBI1244
	.2byte	.LVU734
	.4byte	.LLRL327
	.byte	0x7
	.2byte	0x424
	.byte	0x20
	.4byte	0x873b
	.uleb128 0x3
	.4byte	0x8396
	.4byte	.LLST328
	.4byte	.LVUS328
	.uleb128 0x3
	.4byte	0x83a3
	.4byte	.LLST329
	.4byte	.LVUS329
	.uleb128 0x3
	.4byte	0x83b0
	.4byte	.LLST330
	.4byte	.LVUS330
	.uleb128 0x1b
	.4byte	0x8238
	.4byte	.LBI1245
	.2byte	.LVU735
	.4byte	.LLRL327
	.byte	0x3
	.2byte	0x224
	.byte	0x2a
	.uleb128 0x3
	.4byte	0x825e
	.4byte	.LLST331
	.4byte	.LVUS331
	.uleb128 0x3
	.4byte	0x826b
	.4byte	.LLST332
	.4byte	.LVUS332
	.uleb128 0x3
	.4byte	0x8278
	.4byte	.LLST333
	.4byte	.LVUS333
	.uleb128 0x1d
	.4byte	.LLRL327
	.uleb128 0x1b
	.4byte	0x80f4
	.4byte	.LBI1247
	.2byte	.LVU736
	.4byte	.LLRL327
	.byte	0x3
	.2byte	0x209
	.byte	0x1e
	.uleb128 0x3
	.4byte	0x8110
	.4byte	.LLST334
	.4byte	.LVUS334
	.uleb128 0x3
	.4byte	0x811d
	.4byte	.LLST335
	.4byte	.LVUS335
	.uleb128 0x3
	.4byte	0x812a
	.4byte	.LLST336
	.4byte	.LVUS336
	.uleb128 0x1d
	.4byte	.LLRL327
	.uleb128 0x1f
	.4byte	0x8137
	.4byte	.LLST337
	.4byte	.LVUS337
	.uleb128 0xc
	.4byte	0x8086
	.4byte	.LBI1249
	.2byte	.LVU703
	.4byte	.LBB1249
	.4byte	.LBE1249-.LBB1249
	.byte	0x3
	.2byte	0x1c7
	.byte	0x14
	.4byte	0x8726
	.uleb128 0x3
	.4byte	0x80a2
	.4byte	.LLST338
	.4byte	.LVUS338
	.uleb128 0x3
	.4byte	0x80af
	.4byte	.LLST339
	.4byte	.LVUS339
	.byte	0
	.uleb128 0x25
	.4byte	.LVL310
	.4byte	0xd90a
	.uleb128 0x12
	.uleb128 0x1
	.byte	0x52
	.uleb128 0x2
	.byte	0x77
	.sleb128 0
	.byte	0
	.byte	0
	.byte	0
	.byte	0
	.byte	0
	.byte	0
	.uleb128 0x1b
	.4byte	0x8aa2
	.4byte	.LBI1256
	.2byte	.LVU727
	.4byte	.LLRL340
	.byte	0x7
	.2byte	0x423
	.byte	0x10
	.uleb128 0x3
	.4byte	0x8ab5
	.4byte	.LLST341
	.4byte	.LVUS341
	.uleb128 0x5
	.4byte	0x8ac1
	.byte	0
	.byte	0
	.uleb128 0x10
	.4byte	0xc00b
	.4byte	.LBI1262
	.2byte	.LVU750
	.4byte	.LBB1262
	.4byte	.LBE1262-.LBB1262
	.byte	0x7
	.2byte	0x42c
	.byte	0xe
	.uleb128 0x3
	.4byte	0xc019
	.4byte	.LLST342
	.4byte	.LVUS342
	.uleb128 0x3
	.4byte	0xc022
	.4byte	.LLST343
	.4byte	.LVUS343
	.byte	0
	.byte	0
	.uleb128 0x77
	.4byte	0x60b0
	.4byte	.LFB2485
	.4byte	.LFE2485-.LFB2485
	.uleb128 0x1
	.byte	0x9c
	.4byte	0x8a9d
	.uleb128 0x18
	.4byte	.LASF23
	.4byte	0x66a4
	.byte	0x1
	.uleb128 0x8
	.ascii	"_II\000"
	.4byte	0x7cef
	.uleb128 0x8
	.ascii	"_Tp\000"
	.4byte	0x6e69
	.uleb128 0x3a
	.4byte	.LASF1172
	.byte	0x7
	.2byte	0x493
	.byte	0x21
	.4byte	0x7cef
	.4byte	.LLST281
	.4byte	.LVUS281
	.uleb128 0x3a
	.4byte	.LASF1173
	.byte	0x7
	.2byte	0x493
	.byte	0x2e
	.4byte	0x7cef
	.4byte	.LLST282
	.4byte	.LVUS282
	.uleb128 0x3a
	.4byte	.LASF1174
	.byte	0x7
	.2byte	0x494
	.byte	0x34
	.4byte	0x2d1e
	.4byte	.LLST283
	.4byte	.LVUS283
	.uleb128 0x22
	.4byte	.LASF533
	.byte	0x7
	.2byte	0x497
	.byte	0x2f
	.4byte	0x2f52
	.uleb128 0x3b
	.4byte	.LASF1179
	.byte	0x7
	.2byte	0x499
	.byte	0x17
	.4byte	0x8803
	.4byte	.LLST284
	.4byte	.LVUS284
	.uleb128 0x51
	.4byte	.LLRL285
	.4byte	0x8a6a
	.uleb128 0x3b
	.4byte	.LASF1180
	.byte	0x7
	.2byte	0x49c
	.byte	0x14
	.4byte	0x8803
	.4byte	.LLST286
	.4byte	.LVUS286
	.uleb128 0x3b
	.4byte	.LASF1181
	.byte	0x7
	.2byte	0x49d
	.byte	0x9
	.4byte	0x7cef
	.4byte	.LLST287
	.4byte	.LVUS287
	.uleb128 0x23
	.4byte	.LASF1178
	.byte	0x7
	.2byte	0x4a4
	.byte	0x1a
	.4byte	0x8865
	.uleb128 0xb
	.4byte	0x8803
	.uleb128 0x1e
	.4byte	0x9125
	.4byte	.LBI1179
	.2byte	.LVU674
	.4byte	.LLRL288
	.byte	0x7
	.2byte	0x4a8
	.byte	0xd
	.4byte	0x891c
	.uleb128 0x3
	.4byte	0x9133
	.4byte	.LLST289
	.4byte	.LVUS289
	.uleb128 0x5
	.4byte	0x913c
	.uleb128 0x52
	.4byte	0xbfcd
	.4byte	.LBI1180
	.2byte	.LVU675
	.4byte	.LLRL288
	.byte	0x4
	.byte	0xfa
	.byte	0x16
	.uleb128 0x3
	.4byte	0xbfdb
	.4byte	.LLST290
	.4byte	.LVUS290
	.uleb128 0x3
	.4byte	0xbfe4
	.4byte	.LLST291
	.4byte	.LVUS291
	.uleb128 0x1d
	.4byte	.LLRL288
	.uleb128 0x1f
	.4byte	0xbff0
	.4byte	.LLST292
	.4byte	.LVUS292
	.uleb128 0x41
	.4byte	0xbffc
	.4byte	.LLRL293
	.uleb128 0x1f
	.4byte	0xbffd
	.4byte	.LLST294
	.4byte	.LVUS294
	.uleb128 0x27
	.4byte	0xa9e2
	.4byte	.LBI1184
	.2byte	.LVU639
	.4byte	.LBB1184
	.4byte	.LBE1184-.LBB1184
	.byte	0x4
	.byte	0xf1
	.byte	0x11
	.uleb128 0x3
	.4byte	0xa9f0
	.4byte	.LLST295
	.4byte	.LVUS295
	.uleb128 0x3
	.4byte	0xa9f9
	.4byte	.LLST296
	.4byte	.LVUS296
	.byte	0
	.byte	0
	.byte	0
	.byte	0
	.byte	0
	.uleb128 0x1e
	.4byte	0x83be
	.4byte	.LBI1194
	.2byte	.LVU667
	.4byte	.LLRL297
	.byte	0x7
	.2byte	0x4a5
	.byte	0x29
	.4byte	0x8a37
	.uleb128 0x3
	.4byte	0x83e4
	.4byte	.LLST298
	.4byte	.LVUS298
	.uleb128 0x3
	.4byte	0x83f1
	.4byte	.LLST298
	.4byte	.LVUS298
	.uleb128 0x3
	.4byte	0x83fe
	.4byte	.LLST300
	.4byte	.LVUS300
	.uleb128 0x1b
	.4byte	0x8286
	.4byte	.LBI1195
	.2byte	.LVU668
	.4byte	.LLRL297
	.byte	0x3
	.2byte	0x31c
	.byte	0x33
	.uleb128 0x3
	.4byte	0x82ac
	.4byte	.LLST301
	.4byte	.LVUS301
	.uleb128 0x3
	.4byte	0x82b9
	.4byte	.LLST301
	.4byte	.LVUS301
	.uleb128 0x3
	.4byte	0x82c6
	.4byte	.LLST303
	.4byte	.LVUS303
	.uleb128 0x1d
	.4byte	.LLRL297
	.uleb128 0x1b
	.4byte	0x8145
	.4byte	.LBI1197
	.2byte	.LVU669
	.4byte	.LLRL297
	.byte	0x3
	.2byte	0x313
	.byte	0x25
	.uleb128 0x3
	.4byte	0x8161
	.4byte	.LLST304
	.4byte	.LVUS304
	.uleb128 0x3
	.4byte	0x816e
	.4byte	.LLST304
	.4byte	.LVUS304
	.uleb128 0x3
	.4byte	0x817b
	.4byte	.LLST306
	.4byte	.LVUS306
	.uleb128 0x1d
	.4byte	.LLRL297
	.uleb128 0x1f
	.4byte	0x8188
	.4byte	.LLST307
	.4byte	.LVUS307
	.uleb128 0xc
	.4byte	0x8086
	.4byte	.LBI1199
	.2byte	.LVU631
	.4byte	.LBB1199
	.4byte	.LBE1199-.LBB1199
	.byte	0x3
	.2byte	0x301
	.byte	0x14
	.4byte	0x8a1b
	.uleb128 0x3
	.4byte	0x80a2
	.4byte	.LLST308
	.4byte	.LVUS308
	.uleb128 0x3
	.4byte	0x80af
	.4byte	.LLST309
	.4byte	.LVUS309
	.byte	0
	.uleb128 0x25
	.4byte	.LVL280
	.4byte	0xd90a
	.uleb128 0x12
	.uleb128 0x1
	.byte	0x51
	.uleb128 0x2
	.byte	0x77
	.sleb128 0
	.uleb128 0x12
	.uleb128 0x1
	.byte	0x52
	.uleb128 0x3
	.byte	0x79
	.sleb128 0
	.byte	0x1f
	.byte	0
	.byte	0
	.byte	0
	.byte	0
	.byte	0
	.byte	0
	.uleb128 0x10
	.4byte	0x8aa2
	.4byte	.LBI1206
	.2byte	.LVU660
	.4byte	.LBB1206
	.4byte	.LBE1206-.LBB1206
	.byte	0x7
	.2byte	0x4a4
	.byte	0x2b
	.uleb128 0x3
	.4byte	0x8ab5
	.4byte	.LLST310
	.4byte	.LVUS310
	.uleb128 0x3
	.4byte	0x8ac1
	.4byte	.LLST311
	.4byte	.LVUS311
	.byte	0
	.byte	0
	.uleb128 0x10
	.4byte	0xc00b
	.4byte	.LBI1211
	.2byte	.LVU686
	.4byte	.LBB1211
	.4byte	.LBE1211-.LBB1211
	.byte	0x7
	.2byte	0x4ac
	.byte	0xe
	.uleb128 0x3
	.4byte	0xc019
	.4byte	.LLST312
	.4byte	.LVUS312
	.uleb128 0x3
	.4byte	0xc022
	.4byte	.LLST313
	.4byte	.LVUS313
	.byte	0
	.byte	0
	.uleb128 0xd
	.4byte	0x6e64
	.uleb128 0x15
	.4byte	0x60f1
	.byte	0x3
	.4byte	0x8ace
	.uleb128 0x8
	.ascii	"_Tp\000"
	.4byte	0x3b
	.uleb128 0x2c
	.ascii	"__a\000"
	.byte	0x3
	.byte	0xe9
	.byte	0x14
	.4byte	0x8a9d
	.uleb128 0x2c
	.ascii	"__b\000"
	.byte	0x3
	.byte	0xe9
	.byte	0x24
	.4byte	0x8a9d
	.byte	0
	.uleb128 0x15
	.4byte	0x6119
	.byte	0x3
	.4byte	0x8b1c
	.uleb128 0x18
	.4byte	.LASF23
	.4byte	0x66a4
	.byte	0
	.uleb128 0x8
	.ascii	"_II\000"
	.4byte	0x7dd5
	.uleb128 0x8
	.ascii	"_OI\000"
	.4byte	0x7dd5
	.uleb128 0x9
	.4byte	.LASF1172
	.byte	0x3
	.2byte	0x337
	.byte	0x20
	.4byte	0x7dd5
	.uleb128 0x9
	.4byte	.LASF1173
	.byte	0x3
	.2byte	0x337
	.byte	0x2d
	.4byte	0x7dd5
	.uleb128 0x9
	.4byte	.LASF1174
	.byte	0x3
	.2byte	0x337
	.byte	0x39
	.4byte	0x7dd5
	.byte	0
	.uleb128 0x15
	.4byte	0x615a
	.byte	0x3
	.4byte	0x8b6a
	.uleb128 0x18
	.4byte	.LASF23
	.4byte	0x66a4
	.byte	0
	.uleb128 0x8
	.ascii	"_II\000"
	.4byte	0x7dd5
	.uleb128 0x8
	.ascii	"_OI\000"
	.4byte	0x7dd5
	.uleb128 0x9
	.4byte	.LASF1172
	.byte	0x3
	.2byte	0x229
	.byte	0x17
	.4byte	0x7dd5
	.uleb128 0x9
	.4byte	.LASF1173
	.byte	0x3
	.2byte	0x229
	.byte	0x24
	.4byte	0x7dd5
	.uleb128 0x9
	.4byte	.LASF1174
	.byte	0x3
	.2byte	0x229
	.byte	0x30
	.4byte	0x7dd5
	.byte	0
	.uleb128 0x15
	.4byte	0x619b
	.byte	0x3
	.4byte	0x8b8b
	.uleb128 0xa
	.4byte	.LASF911
	.4byte	0x7dd5
	.uleb128 0x9
	.4byte	.LASF1177
	.byte	0xd
	.2byte	0x25f
	.byte	0x1c
	.4byte	0x7dd5
	.byte	0
	.uleb128 0x14
	.4byte	0x16b6
	.4byte	0x8b99
	.byte	0x3
	.4byte	0x8ba3
	.uleb128 0x11
	.4byte	.LASF1185
	.4byte	0x7cfe
	.byte	0
	.uleb128 0x15
	.4byte	0x61bf
	.byte	0x1
	.4byte	0x8c12
	.uleb128 0x18
	.4byte	.LASF23
	.4byte	0x66a4
	.byte	0x1
	.uleb128 0x8
	.ascii	"_Tp\000"
	.4byte	0x6e69
	.uleb128 0xa
	.4byte	.LASF539
	.4byte	0x7d03
	.uleb128 0xa
	.4byte	.LASF499
	.4byte	0x7cef
	.uleb128 0x8
	.ascii	"_OI\000"
	.4byte	0x2d1e
	.uleb128 0x9
	.4byte	.LASF1172
	.byte	0x7
	.2byte	0x3eb
	.byte	0x46
	.4byte	0x2d1e
	.uleb128 0x9
	.4byte	.LASF1173
	.byte	0x7
	.2byte	0x3ec
	.byte	0x38
	.4byte	0x2d1e
	.uleb128 0x9
	.4byte	.LASF1174
	.byte	0x7
	.2byte	0x3ed
	.byte	0xb
	.4byte	0x2d1e
	.uleb128 0x53
	.uleb128 0x23
	.4byte	.LASF1182
	.byte	0x7
	.2byte	0x3f6
	.byte	0x26
	.4byte	0x2d6e
	.byte	0
	.byte	0
	.uleb128 0x15
	.4byte	0x6212
	.byte	0x1
	.4byte	0x8c81
	.uleb128 0x18
	.4byte	.LASF23
	.4byte	0x66a4
	.byte	0x1
	.uleb128 0x8
	.ascii	"_Tp\000"
	.4byte	0x6e69
	.uleb128 0xa
	.4byte	.LASF539
	.4byte	0x7d03
	.uleb128 0xa
	.4byte	.LASF499
	.4byte	0x7cef
	.uleb128 0x8
	.ascii	"_OI\000"
	.4byte	0x2d1e
	.uleb128 0x9
	.4byte	.LASF1172
	.byte	0x7
	.2byte	0x466
	.byte	0x34
	.4byte	0x2d1e
	.uleb128 0x9
	.4byte	.LASF1173
	.byte	0x7
	.2byte	0x467
	.byte	0x34
	.4byte	0x2d1e
	.uleb128 0x9
	.4byte	.LASF1174
	.byte	0x7
	.2byte	0x468
	.byte	0x7
	.4byte	0x2d1e
	.uleb128 0x53
	.uleb128 0x23
	.4byte	.LASF1182
	.byte	0x7
	.2byte	0x470
	.byte	0x26
	.4byte	0x2d6e
	.byte	0
	.byte	0
	.uleb128 0x15
	.4byte	0x6271
	.byte	0x3
	.4byte	0x8cdf
	.uleb128 0x8
	.ascii	"_Tp\000"
	.4byte	0x6e69
	.uleb128 0x8
	.ascii	"_Up\000"
	.4byte	0x6e69
	.uleb128 0x9
	.4byte	.LASF1172
	.byte	0xb
	.2byte	0x458
	.byte	0x19
	.4byte	0x7cef
	.uleb128 0x9
	.4byte	.LASF1173
	.byte	0xb
	.2byte	0x458
	.byte	0x27
	.4byte	0x7cef
	.uleb128 0x9
	.4byte	.LASF1174
	.byte	0xb
	.2byte	0x459
	.byte	0xb
	.4byte	0x7cef
	.uleb128 0x9
	.4byte	.LASF1183
	.byte	0xb
	.2byte	0x45a
	.byte	0x2b
	.4byte	0x7d1c
	.uleb128 0x23
	.4byte	.LASF1184
	.byte	0xb
	.2byte	0x45c
	.byte	0x11
	.4byte	0x13ff
	.byte	0
	.uleb128 0x15
	.4byte	0x62ad
	.byte	0x3
	.4byte	0x8d00
	.uleb128 0xa
	.4byte	.LASF911
	.4byte	0x7cef
	.uleb128 0x9
	.4byte	.LASF1177
	.byte	0x3
	.2byte	0x13c
	.byte	0x1c
	.4byte	0x7cef
	.byte	0
	.uleb128 0x14
	.4byte	0x1adb
	.4byte	0x8d0e
	.byte	0x3
	.4byte	0x8d18
	.uleb128 0x11
	.4byte	.LASF1185
	.4byte	0x7d71
	.byte	0
	.uleb128 0x15
	.4byte	0x287e
	.byte	0x3
	.4byte	0x8d4a
	.uleb128 0x19
	.ascii	"__a\000"
	.byte	0x2
	.2byte	0x786
	.byte	0x29
	.4byte	0x7dbc
	.uleb128 0x23
	.4byte	.LASF1186
	.byte	0x2
	.2byte	0x78b
	.byte	0xf
	.4byte	0x162
	.uleb128 0x23
	.4byte	.LASF1187
	.byte	0x2
	.2byte	0x78d
	.byte	0xf
	.4byte	0x162
	.byte	0
	.uleb128 0x15
	.4byte	0x62d1
	.byte	0x3
	.4byte	0x8d8e
	.uleb128 0xa
	.4byte	.LASF897
	.4byte	0x7dd5
	.uleb128 0xa
	.4byte	.LASF898
	.4byte	0x7dd5
	.uleb128 0x9
	.4byte	.LASF1172
	.byte	0x3
	.2byte	0x36e
	.byte	0x18
	.4byte	0x7dd5
	.uleb128 0x9
	.4byte	.LASF1173
	.byte	0x3
	.2byte	0x36e
	.byte	0x26
	.4byte	0x7dd5
	.uleb128 0x9
	.4byte	.LASF1174
	.byte	0x3
	.2byte	0x36e
	.byte	0x33
	.4byte	0x7dd5
	.byte	0
	.uleb128 0x15
	.4byte	0x6308
	.byte	0x3
	.4byte	0x8dd2
	.uleb128 0x8
	.ascii	"_II\000"
	.4byte	0x7dd5
	.uleb128 0x8
	.ascii	"_OI\000"
	.4byte	0x7dd5
	.uleb128 0x9
	.4byte	.LASF1172
	.byte	0x3
	.2byte	0x282
	.byte	0xe
	.4byte	0x7dd5
	.uleb128 0x9
	.4byte	.LASF1173
	.byte	0x3
	.2byte	0x282
	.byte	0x1b
	.4byte	0x7dd5
	.uleb128 0x9
	.4byte	.LASF1174
	.byte	0x3
	.2byte	0x282
	.byte	0x27
	.4byte	0x7dd5
	.byte	0
	.uleb128 0x15
	.4byte	0x1888
	.byte	0x3
	.4byte	0x8dea
	.uleb128 0x19
	.ascii	"__a\000"
	.byte	0x6
	.2byte	0x237
	.byte	0x26
	.4byte	0x7d26
	.byte	0
	.uleb128 0x14
	.4byte	0x165b
	.4byte	0x8df8
	.byte	0x3
	.4byte	0x8e21
	.uleb128 0x11
	.4byte	.LASF1185
	.4byte	0x7ce0
	.uleb128 0x2c
	.ascii	"__n\000"
	.byte	0x5
	.byte	0x7e
	.byte	0x1a
	.4byte	0x1684
	.uleb128 0x1
	.4byte	0x6fef
	.uleb128 0x53
	.uleb128 0x4a
	.4byte	.LASF1188
	.byte	0x5
	.byte	0x92
	.byte	0x17
	.4byte	0x13f0
	.byte	0
	.byte	0
	.uleb128 0x15
	.4byte	0x633f
	.byte	0x1
	.4byte	0x8e81
	.uleb128 0x18
	.4byte	.LASF23
	.4byte	0x66a4
	.byte	0x1
	.uleb128 0xa
	.4byte	.LASF943
	.4byte	0x6e69
	.uleb128 0xa
	.4byte	.LASF944
	.4byte	0x7d03
	.uleb128 0xa
	.4byte	.LASF945
	.4byte	0x7cef
	.uleb128 0xa
	.4byte	.LASF946
	.4byte	0x6e69
	.uleb128 0x9
	.4byte	.LASF1172
	.byte	0x7
	.2byte	0x410
	.byte	0x48
	.4byte	0x2d1e
	.uleb128 0x9
	.4byte	.LASF1173
	.byte	0x7
	.2byte	0x411
	.byte	0x3a
	.4byte	0x2d1e
	.uleb128 0x9
	.4byte	.LASF1174
	.byte	0x7
	.2byte	0x412
	.byte	0x3a
	.4byte	0x2d1e
	.byte	0
	.uleb128 0x15
	.4byte	0x6392
	.byte	0x3
	.4byte	0x8ea7
	.uleb128 0xa
	.4byte	.LASF911
	.4byte	0x2d1e
	.uleb128 0x1
	.4byte	0x7e16
	.uleb128 0x9
	.4byte	.LASF1176
	.byte	0x3
	.2byte	0x161
	.byte	0x2e
	.4byte	0x2d1e
	.byte	0
	.uleb128 0x15
	.4byte	0x63bb
	.byte	0x1
	.4byte	0x8f07
	.uleb128 0x18
	.4byte	.LASF23
	.4byte	0x66a4
	.byte	0x1
	.uleb128 0xa
	.4byte	.LASF943
	.4byte	0x6e69
	.uleb128 0xa
	.4byte	.LASF944
	.4byte	0x7d03
	.uleb128 0xa
	.4byte	.LASF945
	.4byte	0x7cef
	.uleb128 0xa
	.4byte	.LASF946
	.4byte	0x6e69
	.uleb128 0x9
	.4byte	.LASF1172
	.byte	0x7
	.2byte	0x48a
	.byte	0x37
	.4byte	0x2d1e
	.uleb128 0x9
	.4byte	.LASF1173
	.byte	0x7
	.2byte	0x48b
	.byte	0x37
	.4byte	0x2d1e
	.uleb128 0x9
	.4byte	.LASF1174
	.byte	0x7
	.2byte	0x48c
	.byte	0x37
	.4byte	0x2d1e
	.byte	0
	.uleb128 0x15
	.4byte	0x640e
	.byte	0x3
	.4byte	0x8f28
	.uleb128 0xa
	.4byte	.LASF911
	.4byte	0x2d1e
	.uleb128 0x9
	.4byte	.LASF1177
	.byte	0x3
	.2byte	0x13c
	.byte	0x1c
	.4byte	0x2d1e
	.byte	0
	.uleb128 0x15
	.4byte	0x6432
	.byte	0x3
	.4byte	0x8f82
	.uleb128 0xa
	.4byte	.LASF955
	.4byte	0x7cef
	.uleb128 0xa
	.4byte	.LASF956
	.4byte	0x7cef
	.uleb128 0xa
	.4byte	.LASF957
	.4byte	0x173f
	.uleb128 0x9
	.4byte	.LASF1172
	.byte	0xb
	.2byte	0x473
	.byte	0x21
	.4byte	0x7cef
	.uleb128 0x9
	.4byte	.LASF1173
	.byte	0xb
	.2byte	0x473
	.byte	0x39
	.4byte	0x7cef
	.uleb128 0x9
	.4byte	.LASF1174
	.byte	0xb
	.2byte	0x474
	.byte	0x15
	.4byte	0x7cef
	.uleb128 0x9
	.4byte	.LASF1183
	.byte	0xb
	.2byte	0x474
	.byte	0x2b
	.4byte	0x7d1c
	.byte	0
	.uleb128 0x14
	.4byte	0x6a5d
	.4byte	0x8f90
	.byte	0x3
	.4byte	0x8f9a
	.uleb128 0x11
	.4byte	.LASF1185
	.4byte	0x801d
	.byte	0
	.uleb128 0x14
	.4byte	0x688d
	.4byte	0x8fa8
	.byte	0x2
	.4byte	0x8fbf
	.uleb128 0x11
	.4byte	.LASF1185
	.4byte	0x8013
	.uleb128 0x19
	.ascii	"__i\000"
	.byte	0xa
	.2byte	0x42b
	.byte	0x2a
	.4byte	0x7dee
	.byte	0
	.uleb128 0x42
	.4byte	0x8f9a
	.4byte	.LASF1196
	.4byte	0x8fd0
	.4byte	0x8fdb
	.uleb128 0x5
	.4byte	0x8fa8
	.uleb128 0x5
	.4byte	0x8fb1
	.byte	0
	.uleb128 0x14
	.4byte	0x2304
	.4byte	0x8fe9
	.byte	0x3
	.4byte	0x8ff3
	.uleb128 0x11
	.4byte	.LASF1185
	.4byte	0x7db2
	.byte	0
	.uleb128 0x14
	.4byte	0x4440
	.4byte	0x9001
	.byte	0x1
	.4byte	0x9068
	.uleb128 0x11
	.4byte	.LASF1185
	.4byte	0x7e7f
	.uleb128 0x9
	.4byte	.LASF1189
	.byte	0x7
	.2byte	0x3a4
	.byte	0x21
	.4byte	0x38ee
	.uleb128 0x9
	.4byte	.LASF1190
	.byte	0x7
	.2byte	0x3a4
	.byte	0x36
	.4byte	0x66a4
	.uleb128 0x23
	.4byte	.LASF1191
	.byte	0x7
	.2byte	0x3a6
	.byte	0x17
	.4byte	0x38fc
	.uleb128 0x23
	.4byte	.LASF1192
	.byte	0x7
	.2byte	0x3a8
	.byte	0x17
	.4byte	0x38fc
	.uleb128 0x23
	.4byte	.LASF1193
	.byte	0x7
	.2byte	0x3aa
	.byte	0x14
	.4byte	0x44fe
	.uleb128 0x53
	.uleb128 0x23
	.4byte	.LASF1194
	.byte	0x7
	.2byte	0x3bb
	.byte	0xe
	.4byte	0x38ee
	.uleb128 0x23
	.4byte	.LASF1195
	.byte	0x7
	.2byte	0x3bf
	.byte	0x11
	.4byte	0x44fe
	.byte	0
	.byte	0
	.uleb128 0x15
	.4byte	0x4134
	.byte	0x3
	.4byte	0x909a
	.uleb128 0x19
	.ascii	"__a\000"
	.byte	0x4
	.2byte	0x754
	.byte	0x29
	.4byte	0x7eac
	.uleb128 0x23
	.4byte	.LASF1186
	.byte	0x4
	.2byte	0x756
	.byte	0xf
	.4byte	0x162
	.uleb128 0x23
	.4byte	.LASF1187
	.byte	0x4
	.2byte	0x757
	.byte	0xf
	.4byte	0x162
	.byte	0
	.uleb128 0x14
	.4byte	0x2aeb
	.4byte	0x90a8
	.byte	0x2
	.4byte	0x90b2
	.uleb128 0x11
	.4byte	.LASF1185
	.4byte	0x7dc6
	.byte	0
	.uleb128 0x42
	.4byte	0x909a
	.4byte	.LASF1197
	.4byte	0x90c3
	.4byte	0x90c9
	.uleb128 0x5
	.4byte	0x90a8
	.byte	0
	.uleb128 0x15
	.4byte	0x17f6
	.byte	0x3
	.4byte	0x90ee
	.uleb128 0x19
	.ascii	"__a\000"
	.byte	0x6
	.2byte	0x1dd
	.byte	0x20
	.4byte	0x7d21
	.uleb128 0x19
	.ascii	"__n\000"
	.byte	0x6
	.2byte	0x1dd
	.byte	0x2f
	.4byte	0x1828
	.byte	0
	.uleb128 0x14
	.4byte	0x2bf1
	.4byte	0x90fc
	.byte	0x3
	.4byte	0x9125
	.uleb128 0x11
	.4byte	.LASF1185
	.4byte	0x7dc6
	.uleb128 0x2c
	.ascii	"__n\000"
	.byte	0x5
	.byte	0x7e
	.byte	0x1a
	.4byte	0x2c1a
	.uleb128 0x1
	.4byte	0x6fef
	.uleb128 0x53
	.uleb128 0x4a
	.4byte	.LASF1188
	.byte	0x5
	.byte	0x92
	.byte	0x17
	.4byte	0x13f0
	.byte	0
	.byte	0
	.uleb128 0x14
	.4byte	0x2f63
	.4byte	0x9133
	.byte	0x3
	.4byte	0x9149
	.uleb128 0x11
	.4byte	.LASF1185
	.4byte	0x7e11
	.uleb128 0x2c
	.ascii	"__n\000"
	.byte	0x4
	.byte	0xf9
	.byte	0x22
	.4byte	0x2f52
	.byte	0
	.uleb128 0x15
	.4byte	0x6477
	.byte	0x3
	.4byte	0x9197
	.uleb128 0x18
	.4byte	.LASF23
	.4byte	0x66a4
	.byte	0x1
	.uleb128 0x8
	.ascii	"_II\000"
	.4byte	0x2d1e
	.uleb128 0x8
	.ascii	"_OI\000"
	.4byte	0x2d1e
	.uleb128 0x9
	.4byte	.LASF1172
	.byte	0x3
	.2byte	0x229
	.byte	0x17
	.4byte	0x2d1e
	.uleb128 0x9
	.4byte	.LASF1173
	.byte	0x3
	.2byte	0x229
	.byte	0x24
	.4byte	0x2d1e
	.uleb128 0x9
	.4byte	.LASF1174
	.byte	0x3
	.2byte	0x229
	.byte	0x30
	.4byte	0x2d1e
	.byte	0
	.uleb128 0x15
	.4byte	0x64b8
	.byte	0x3
	.4byte	0x91e5
	.uleb128 0x18
	.4byte	.LASF23
	.4byte	0x66a4
	.byte	0x1
	.uleb128 0x8
	.ascii	"_II\000"
	.4byte	0x2d1e
	.uleb128 0x8
	.ascii	"_OI\000"
	.4byte	0x2d1e
	.uleb128 0x9
	.4byte	.LASF1172
	.byte	0x3
	.2byte	0x337
	.byte	0x20
	.4byte	0x2d1e
	.uleb128 0x9
	.4byte	.LASF1173
	.byte	0x3
	.2byte	0x337
	.byte	0x2d
	.4byte	0x2d1e
	.uleb128 0x9
	.4byte	.LASF1174
	.byte	0x3
	.2byte	0x337
	.byte	0x39
	.4byte	0x2d1e
	.byte	0
	.uleb128 0x15
	.4byte	0x64f9
	.byte	0x3
	.4byte	0x9206
	.uleb128 0xa
	.4byte	.LASF911
	.4byte	0x2d1e
	.uleb128 0x9
	.4byte	.LASF1177
	.byte	0xd
	.2byte	0x25f
	.byte	0x1c
	.4byte	0x2d1e
	.byte	0
	.uleb128 0x14
	.4byte	0x68be
	.4byte	0x9214
	.byte	0x3
	.4byte	0x921e
	.uleb128 0x11
	.4byte	.LASF1185
	.4byte	0x801d
	.byte	0
	.uleb128 0x14
	.4byte	0x6a38
	.4byte	0x922c
	.byte	0x3
	.4byte	0x9243
	.uleb128 0x11
	.4byte	.LASF1185
	.4byte	0x801d
	.uleb128 0x19
	.ascii	"__n\000"
	.byte	0xa
	.2byte	0x47c
	.byte	0x21
	.4byte	0x69bb
	.byte	0
	.uleb128 0x15
	.4byte	0x1e39
	.byte	0x3
	.4byte	0x9282
	.uleb128 0x9
	.4byte	.LASF1172
	.byte	0x2
	.2byte	0x1f8
	.byte	0x1b
	.4byte	0x1dbb
	.uleb128 0x9
	.4byte	.LASF1173
	.byte	0x2
	.2byte	0x1f8
	.byte	0x2c
	.4byte	0x1dbb
	.uleb128 0x9
	.4byte	.LASF1174
	.byte	0x2
	.2byte	0x1f8
	.byte	0x3c
	.4byte	0x1dbb
	.uleb128 0x9
	.4byte	.LASF1183
	.byte	0x2
	.2byte	0x1f9
	.byte	0x15
	.4byte	0x7d80
	.byte	0
	.uleb128 0x15
	.4byte	0x651d
	.byte	0x3
	.4byte	0x92a3
	.uleb128 0x8
	.ascii	"_Tp\000"
	.4byte	0x6e69
	.uleb128 0x94
	.4byte	.LASF1198
	.byte	0x15
	.byte	0xcd
	.byte	0x17
	.4byte	0x7cef
	.byte	0
	.uleb128 0x14
	.4byte	0x1c87
	.4byte	0x92b1
	.byte	0x3
	.4byte	0x92c8
	.uleb128 0x11
	.4byte	.LASF1185
	.4byte	0x7d67
	.uleb128 0x19
	.ascii	"__n\000"
	.byte	0x2
	.2byte	0x179
	.byte	0x1a
	.4byte	0x155
	.byte	0
	.uleb128 0xd
	.4byte	0x6a90
	.uleb128 0x15
	.4byte	0x6e14
	.byte	0x3
	.4byte	0x9304
	.uleb128 0xa
	.4byte	.LASF911
	.4byte	0x7cef
	.uleb128 0xa
	.4byte	.LASF1024
	.4byte	0x1d2b
	.uleb128 0x9
	.4byte	.LASF1199
	.byte	0xa
	.2byte	0x52d
	.byte	0x3f
	.4byte	0x92c8
	.uleb128 0x9
	.4byte	.LASF1200
	.byte	0xa
	.2byte	0x52e
	.byte	0x38
	.4byte	0x92c8
	.byte	0
	.uleb128 0x14
	.4byte	0x213e
	.4byte	0x9312
	.byte	0x3
	.4byte	0x931c
	.uleb128 0x11
	.4byte	.LASF1185
	.4byte	0x7d8a
	.byte	0
	.uleb128 0x14
	.4byte	0x218c
	.4byte	0x932a
	.byte	0x3
	.4byte	0x9334
	.uleb128 0x11
	.4byte	.LASF1185
	.4byte	0x7d8a
	.byte	0
	.uleb128 0x14
	.4byte	0x2835
	.4byte	0x9342
	.byte	0x3
	.4byte	0x9373
	.uleb128 0x11
	.4byte	.LASF1185
	.4byte	0x7db2
	.uleb128 0x19
	.ascii	"__n\000"
	.byte	0x2
	.2byte	0x772
	.byte	0x1e
	.4byte	0x1edf
	.uleb128 0x19
	.ascii	"__s\000"
	.byte	0x2
	.2byte	0x772
	.byte	0x2f
	.4byte	0x6f19
	.uleb128 0x23
	.4byte	.LASF1179
	.byte	0x2
	.2byte	0x777
	.byte	0x12
	.4byte	0x1eed
	.byte	0
	.uleb128 0x14
	.4byte	0x2eee
	.4byte	0x9381
	.byte	0x3
	.4byte	0x938b
	.uleb128 0x11
	.4byte	.LASF1185
	.4byte	0x7e11
	.byte	0
	.uleb128 0x14
	.4byte	0x43fe
	.4byte	0x9399
	.byte	0x3
	.4byte	0x93b0
	.uleb128 0x11
	.4byte	.LASF1185
	.4byte	0x7e7f
	.uleb128 0x9
	.4byte	.LASF1189
	.byte	0x4
	.2byte	0x878
	.byte	0x28
	.4byte	0x38ee
	.byte	0
	.uleb128 0x14
	.4byte	0x3d33
	.4byte	0x93be
	.byte	0x3
	.4byte	0x93c8
	.uleb128 0x11
	.4byte	.LASF1185
	.4byte	0x7ea2
	.byte	0
	.uleb128 0x14
	.4byte	0x16f3
	.4byte	0x93ee
	.byte	0x3
	.4byte	0x940e
	.uleb128 0x8
	.ascii	"_Up\000"
	.4byte	0x6e69
	.uleb128 0x31
	.4byte	.LASF293
	.4byte	0x93ee
	.uleb128 0x32
	.4byte	0x6e69
	.byte	0
	.uleb128 0x11
	.4byte	.LASF1185
	.4byte	0x7ce0
	.uleb128 0x2c
	.ascii	"__p\000"
	.byte	0x5
	.byte	0xbd
	.byte	0x11
	.4byte	0x7cef
	.uleb128 0x69
	.byte	0x5
	.byte	0xbd
	.byte	0x1d
	.uleb128 0x1
	.4byte	0x8027
	.byte	0
	.byte	0
	.uleb128 0x14
	.4byte	0x2c27
	.4byte	0x941c
	.byte	0x3
	.4byte	0x943e
	.uleb128 0x11
	.4byte	.LASF1185
	.4byte	0x7dc6
	.uleb128 0x2c
	.ascii	"__p\000"
	.byte	0x5
	.byte	0x9c
	.byte	0x17
	.4byte	0x7dd5
	.uleb128 0x2c
	.ascii	"__n\000"
	.byte	0x5
	.byte	0x9c
	.byte	0x26
	.4byte	0x2c1a
	.byte	0
	.uleb128 0x78
	.4byte	0x2b51
	.4byte	0x6efe
	.4byte	0x944f
	.4byte	0x9462
	.uleb128 0x11
	.4byte	.LASF1185
	.4byte	0x7dc6
	.uleb128 0x11
	.4byte	.LASF1201
	.4byte	0x6e64
	.byte	0
	.uleb128 0x42
	.4byte	0x943e
	.4byte	.LASF1202
	.4byte	0x9473
	.4byte	0x9479
	.uleb128 0x5
	.4byte	0x944f
	.byte	0
	.uleb128 0x14
	.4byte	0x2ab2
	.4byte	0x9490
	.byte	0x2
	.4byte	0x949f
	.uleb128 0xa
	.4byte	.LASF483
	.4byte	0x6e69
	.uleb128 0x11
	.4byte	.LASF1185
	.4byte	0x7df8
	.uleb128 0x1
	.4byte	0x7d17
	.byte	0
	.uleb128 0x42
	.4byte	0x9479
	.4byte	.LASF1203
	.4byte	0x94b9
	.4byte	0x94c4
	.uleb128 0xa
	.4byte	.LASF483
	.4byte	0x6e69
	.uleb128 0x5
	.4byte	0x9490
	.uleb128 0x5
	.4byte	0x9499
	.byte	0
	.uleb128 0x14
	.4byte	0x366c
	.4byte	0x94d2
	.byte	0x3
	.4byte	0x94dc
	.uleb128 0x11
	.4byte	.LASF1185
	.4byte	0x7e5c
	.byte	0
	.uleb128 0x14
	.4byte	0x36c8
	.4byte	0x94ea
	.byte	0x3
	.4byte	0x94f4
	.uleb128 0x11
	.4byte	.LASF1185
	.4byte	0x7e66
	.byte	0
	.uleb128 0x15
	.4byte	0x5b49
	.byte	0x3
	.4byte	0x9519
	.uleb128 0x19
	.ascii	"__a\000"
	.byte	0x6
	.2byte	0x1dd
	.byte	0x20
	.4byte	0x8004
	.uleb128 0x19
	.ascii	"__n\000"
	.byte	0x6
	.2byte	0x1dd
	.byte	0x2f
	.4byte	0x5b7b
	.byte	0
	.uleb128 0x14
	.4byte	0x1691
	.4byte	0x9527
	.byte	0x3
	.4byte	0x9549
	.uleb128 0x11
	.4byte	.LASF1185
	.4byte	0x7ce0
	.uleb128 0x2c
	.ascii	"__p\000"
	.byte	0x5
	.byte	0x9c
	.byte	0x17
	.4byte	0x7cef
	.uleb128 0x2c
	.ascii	"__n\000"
	.byte	0x5
	.byte	0x9c
	.byte	0x26
	.4byte	0x1684
	.byte	0
	.uleb128 0xd
	.4byte	0x2ea8
	.uleb128 0x15
	.4byte	0x6540
	.byte	0x3
	.4byte	0x9580
	.uleb128 0x19
	.ascii	"__x\000"
	.byte	0x4
	.2byte	0x196
	.byte	0x1e
	.4byte	0x9549
	.uleb128 0x19
	.ascii	"__n\000"
	.byte	0x4
	.2byte	0x196
	.byte	0x33
	.4byte	0x2f52
	.uleb128 0x23
	.4byte	.LASF1204
	.byte	0x4
	.2byte	0x198
	.byte	0x8
	.4byte	0x2e9c
	.byte	0
	.uleb128 0x14
	.4byte	0x42c2
	.4byte	0x958e
	.byte	0x3
	.4byte	0x95a5
	.uleb128 0x11
	.4byte	.LASF1185
	.4byte	0x7e7f
	.uleb128 0x9
	.4byte	.LASF1205
	.byte	0x4
	.2byte	0x83a
	.byte	0x20
	.4byte	0x3b5f
	.byte	0
	.uleb128 0x15
	.4byte	0x6560
	.byte	0x3
	.4byte	0x95e9
	.uleb128 0x8
	.ascii	"_II\000"
	.4byte	0x2d1e
	.uleb128 0x8
	.ascii	"_OI\000"
	.4byte	0x2d1e
	.uleb128 0x9
	.4byte	.LASF1172
	.byte	0x3
	.2byte	0x2a3
	.byte	0xe
	.4byte	0x2d1e
	.uleb128 0x9
	.4byte	.LASF1173
	.byte	0x3
	.2byte	0x2a3
	.byte	0x1b
	.4byte	0x2d1e
	.uleb128 0x9
	.4byte	.LASF1174
	.byte	0x3
	.2byte	0x2a3
	.byte	0x27
	.4byte	0x2d1e
	.byte	0
	.uleb128 0x14
	.4byte	0x42a1
	.4byte	0x95f7
	.byte	0x3
	.4byte	0x960e
	.uleb128 0x11
	.4byte	.LASF1185
	.4byte	0x7e7f
	.uleb128 0x9
	.4byte	.LASF1205
	.byte	0x4
	.2byte	0x830
	.byte	0x22
	.4byte	0x3b5f
	.byte	0
	.uleb128 0x15
	.4byte	0x6597
	.byte	0x3
	.4byte	0x9652
	.uleb128 0xa
	.4byte	.LASF897
	.4byte	0x2d1e
	.uleb128 0xa
	.4byte	.LASF898
	.4byte	0x2d1e
	.uleb128 0x9
	.4byte	.LASF1172
	.byte	0x3
	.2byte	0x391
	.byte	0x18
	.4byte	0x2d1e
	.uleb128 0x9
	.4byte	.LASF1173
	.byte	0x3
	.2byte	0x391
	.byte	0x26
	.4byte	0x2d1e
	.uleb128 0x9
	.4byte	.LASF1174
	.byte	0x3
	.2byte	0x391
	.byte	0x33
	.4byte	0x2d1e
	.byte	0
	.uleb128 0x15
	.4byte	0x65ce
	.byte	0x3
	.4byte	0x9677
	.uleb128 0x19
	.ascii	"__x\000"
	.byte	0x4
	.2byte	0x12a
	.byte	0x1f
	.4byte	0x9549
	.uleb128 0x19
	.ascii	"__y\000"
	.byte	0x4
	.2byte	0x12a
	.byte	0x31
	.4byte	0x9549
	.byte	0
	.uleb128 0x14
	.4byte	0x40f9
	.4byte	0x9685
	.byte	0x3
	.4byte	0x968f
	.uleb128 0x11
	.4byte	.LASF1185
	.4byte	0x7e7f
	.byte	0
	.uleb128 0x15
	.4byte	0x65ee
	.byte	0x3
	.4byte	0x96b4
	.uleb128 0x19
	.ascii	"__x\000"
	.byte	0x4
	.2byte	0x110
	.byte	0x1f
	.4byte	0x9549
	.uleb128 0x19
	.ascii	"__y\000"
	.byte	0x4
	.2byte	0x110
	.byte	0x31
	.4byte	0x9549
	.byte	0
	.uleb128 0x14
	.4byte	0x2d87
	.4byte	0x96c2
	.byte	0x2
	.4byte	0x96e4
	.uleb128 0x11
	.4byte	.LASF1185
	.4byte	0x7e11
	.uleb128 0x2c
	.ascii	"__x\000"
	.byte	0x4
	.byte	0x93
	.byte	0x24
	.4byte	0x2d3b
	.uleb128 0x2c
	.ascii	"__y\000"
	.byte	0x4
	.byte	0x93
	.byte	0x36
	.4byte	0x2d6e
	.byte	0
	.uleb128 0x42
	.4byte	0x96b4
	.4byte	.LASF1206
	.4byte	0x96f5
	.4byte	0x9705
	.uleb128 0x5
	.4byte	0x96c2
	.uleb128 0x5
	.4byte	0x96cb
	.uleb128 0x5
	.4byte	0x96d7
	.byte	0
	.uleb128 0x14
	.4byte	0x2e54
	.4byte	0x9713
	.byte	0x3
	.4byte	0x971d
	.uleb128 0x11
	.4byte	.LASF1185
	.4byte	0x7e25
	.byte	0
	.uleb128 0x14
	.4byte	0x24f2
	.4byte	0x972b
	.byte	0x3
	.4byte	0x9735
	.uleb128 0x11
	.4byte	.LASF1185
	.4byte	0x7d8a
	.byte	0
	.uleb128 0x5b
	.4byte	0x294e
	.4byte	0x975b
	.4byte	.LFB2348
	.4byte	.LFE2348-.LFB2348
	.uleb128 0x1
	.byte	0x9c
	.4byte	0x9d81
	.uleb128 0x31
	.4byte	.LASF293
	.4byte	0x975b
	.uleb128 0x32
	.4byte	0x6e69
	.byte	0
	.uleb128 0x35
	.4byte	.LASF1185
	.4byte	0x7d8a
	.4byte	.LLST203
	.4byte	.LVUS203
	.uleb128 0x79
	.byte	0x9
	.2byte	0x246
	.byte	0x20
	.4byte	0x9783
	.uleb128 0x7a
	.4byte	0x8027
	.4byte	.LLST204
	.4byte	.LVUS204
	.byte	0
	.uleb128 0x23
	.4byte	.LASF1179
	.byte	0x9
	.2byte	0x24e
	.byte	0x17
	.4byte	0x1eed
	.uleb128 0x3b
	.4byte	.LASF1207
	.byte	0x9
	.2byte	0x251
	.byte	0xf
	.4byte	0x1dbb
	.4byte	.LLST205
	.4byte	.LVUS205
	.uleb128 0x3b
	.4byte	.LASF1208
	.byte	0x9
	.2byte	0x252
	.byte	0xf
	.4byte	0x1dbb
	.4byte	.LLST206
	.4byte	.LVUS206
	.uleb128 0x3b
	.4byte	.LASF1209
	.byte	0x9
	.2byte	0x253
	.byte	0x17
	.4byte	0x1eed
	.4byte	.LLST207
	.4byte	.LVUS207
	.uleb128 0x3b
	.4byte	.LASF1210
	.byte	0x9
	.2byte	0x254
	.byte	0xf
	.4byte	0x1dbb
	.4byte	.LLST208
	.4byte	.LVUS208
	.uleb128 0x3b
	.4byte	.LASF1211
	.byte	0x9
	.2byte	0x255
	.byte	0xf
	.4byte	0x1dbb
	.4byte	.LLST209
	.4byte	.LVUS209
	.uleb128 0x39
	.4byte	.LASF1212
	.byte	0xc
	.byte	0x9
	.2byte	0x258
	.byte	0xe
	.4byte	0x9914
	.uleb128 0x3f
	.4byte	.LASF1213
	.byte	0x9
	.2byte	0x25a
	.byte	0xa
	.4byte	0x1dbb
	.byte	0
	.uleb128 0x3f
	.4byte	.LASF854
	.byte	0x9
	.2byte	0x25b
	.byte	0xc
	.4byte	0x1edf
	.byte	0x4
	.uleb128 0x3f
	.4byte	.LASF1214
	.byte	0x9
	.2byte	0x25c
	.byte	0x12
	.4byte	0x7d80
	.byte	0x8
	.uleb128 0x7b
	.4byte	.LASF1212
	.2byte	0x25f
	.4byte	.LASF1215
	.4byte	0x9879
	.4byte	0x9848
	.4byte	0x9879
	.uleb128 0x11
	.4byte	.LASF1185
	.4byte	0x989e
	.uleb128 0x19
	.ascii	"__s\000"
	.byte	0x9
	.2byte	0x25f
	.byte	0x11
	.4byte	0x1dbb
	.uleb128 0x19
	.ascii	"__l\000"
	.byte	0x9
	.2byte	0x25f
	.byte	0x20
	.4byte	0x1edf
	.uleb128 0x19
	.ascii	"__a\000"
	.byte	0x9
	.2byte	0x25f
	.byte	0x35
	.4byte	0x7d80
	.byte	0
	.uleb128 0x13
	.4byte	0x97f9
	.uleb128 0x7b
	.4byte	.LASF1216
	.2byte	0x264
	.4byte	.LASF1217
	.4byte	0x6efe
	.4byte	0x9895
	.4byte	0x98ad
	.uleb128 0x11
	.4byte	.LASF1185
	.4byte	0x989e
	.uleb128 0xb
	.4byte	0x9879
	.uleb128 0x11
	.4byte	.LASF1201
	.4byte	0x6e64
	.byte	0
	.uleb128 0x95
	.4byte	.LASF1212
	.byte	0x9
	.2byte	0x26c
	.byte	0x2
	.4byte	0x9879
	.byte	0x3
	.4byte	0x98c4
	.4byte	0x98d9
	.uleb128 0x2
	.4byte	0x9879
	.uleb128 0x1
	.4byte	0x98ce
	.uleb128 0xd
	.4byte	0x98d3
	.uleb128 0xb
	.4byte	0x97f9
	.byte	0
	.uleb128 0x42
	.4byte	0x9831
	.4byte	.LASF1218
	.4byte	0x98ea
	.4byte	0x98ff
	.uleb128 0x5
	.4byte	0x9848
	.uleb128 0x5
	.4byte	0x9851
	.uleb128 0x5
	.4byte	0x985e
	.uleb128 0x5
	.4byte	0x986b
	.byte	0
	.uleb128 0x96
	.4byte	0x987e
	.4byte	.LASF1269
	.4byte	0x990d
	.uleb128 0x5
	.4byte	0x9895
	.byte	0
	.byte	0
	.uleb128 0x56
	.4byte	.LBB1085
	.4byte	.LBE1085-.LBB1085
	.4byte	0x9b85
	.uleb128 0x23
	.4byte	.LASF1219
	.byte	0x9
	.2byte	0x270
	.byte	0x9
	.4byte	0x97f9
	.uleb128 0xc
	.4byte	0x9831
	.4byte	.LBI1086
	.2byte	.LVU509
	.4byte	.LBB1086
	.4byte	.LBE1086-.LBB1086
	.byte	0x9
	.2byte	0x270
	.byte	0x9
	.4byte	0x9976
	.uleb128 0x3
	.4byte	0x9848
	.4byte	.LLST224
	.4byte	.LVUS224
	.uleb128 0x3
	.4byte	0x9851
	.4byte	.LLST225
	.4byte	.LVUS225
	.uleb128 0x5
	.4byte	0x985e
	.uleb128 0x3
	.4byte	0x986b
	.4byte	.LLST226
	.4byte	.LVUS226
	.byte	0
	.uleb128 0xc
	.4byte	0xa8e8
	.4byte	.LBI1087
	.2byte	.LVU511
	.4byte	.LBB1087
	.4byte	.LBE1087-.LBB1087
	.byte	0x9
	.2byte	0x27a
	.byte	0x1a
	.4byte	0x99f8
	.uleb128 0x3
	.4byte	0xa90a
	.4byte	.LLST227
	.4byte	.LVUS227
	.uleb128 0x3
	.4byte	0xa917
	.4byte	.LLST228
	.4byte	.LVUS228
	.uleb128 0x3
	.4byte	0xa92a
	.4byte	.LLST229
	.4byte	.LVUS229
	.uleb128 0x10
	.4byte	0x93c8
	.4byte	.LBI1088
	.2byte	.LVU512
	.4byte	.LBB1088
	.4byte	.LBE1088-.LBB1088
	.byte	0x6
	.2byte	0x216
	.byte	0x11
	.uleb128 0x3
	.4byte	0x93ee
	.4byte	.LLST230
	.4byte	.LVUS230
	.uleb128 0x3
	.4byte	0x93f7
	.4byte	.LLST231
	.4byte	.LVUS231
	.uleb128 0x3
	.4byte	0x9407
	.4byte	.LLST232
	.4byte	.LVUS232
	.byte	0
	.byte	0
	.uleb128 0x1e
	.4byte	0x9243
	.4byte	.LBI1090
	.2byte	.LVU515
	.4byte	.LLRL233
	.byte	0x9
	.2byte	0x287
	.byte	0x20
	.4byte	0x9ae5
	.uleb128 0x3
	.4byte	0x924d
	.4byte	.LLST234
	.4byte	.LVUS234
	.uleb128 0x5
	.4byte	0x925a
	.uleb128 0x3
	.4byte	0x9267
	.4byte	.LLST235
	.4byte	.LVUS235
	.uleb128 0x3
	.4byte	0x9274
	.4byte	.LLST236
	.4byte	.LVUS236
	.uleb128 0x1b
	.4byte	0x8f28
	.4byte	.LBI1091
	.2byte	.LVU516
	.4byte	.LLRL233
	.byte	0x2
	.2byte	0x1fd
	.byte	0x1a
	.uleb128 0x3
	.4byte	0x8f4d
	.4byte	.LLST237
	.4byte	.LVUS237
	.uleb128 0x5
	.4byte	0x8f5a
	.uleb128 0x3
	.4byte	0x8f67
	.4byte	.LLST238
	.4byte	.LVUS238
	.uleb128 0x3
	.4byte	0x8f74
	.4byte	.LLST239
	.4byte	.LVUS239
	.uleb128 0x1b
	.4byte	0x8c81
	.4byte	.LBI1092
	.2byte	.LVU517
	.4byte	.LLRL233
	.byte	0xb
	.2byte	0x479
	.byte	0x21
	.uleb128 0x3
	.4byte	0x8c9d
	.4byte	.LLST240
	.4byte	.LVUS240
	.uleb128 0x5
	.4byte	0x8caa
	.uleb128 0x3
	.4byte	0x8cb7
	.4byte	.LLST241
	.4byte	.LVUS241
	.uleb128 0x3
	.4byte	0x8cc4
	.4byte	.LLST242
	.4byte	.LVUS242
	.uleb128 0x1d
	.4byte	.LLRL233
	.uleb128 0x1f
	.4byte	0x8cd1
	.4byte	.LLST243
	.4byte	.LVUS243
	.uleb128 0x25
	.4byte	.LVL209
	.4byte	0xd913
	.uleb128 0x12
	.uleb128 0x1
	.byte	0x51
	.uleb128 0x2
	.byte	0x77
	.sleb128 0
	.uleb128 0x12
	.uleb128 0x1
	.byte	0x52
	.uleb128 0x2
	.byte	0x74
	.sleb128 0
	.byte	0
	.byte	0
	.byte	0
	.byte	0
	.byte	0
	.uleb128 0x1b
	.4byte	0x987e
	.4byte	.LBI1097
	.2byte	.LVU522
	.4byte	.LLRL244
	.byte	0x9
	.2byte	0x2b0
	.byte	0x7
	.uleb128 0x3
	.4byte	0x9895
	.4byte	.LLST245
	.4byte	.LVUS245
	.uleb128 0x10
	.4byte	0xaa6c
	.4byte	.LBI1099
	.2byte	.LVU531
	.4byte	.LBB1099
	.4byte	.LBE1099-.LBB1099
	.byte	0x9
	.2byte	0x268
	.byte	0x12
	.uleb128 0x5
	.4byte	0xaa76
	.uleb128 0x3
	.4byte	0xaa83
	.4byte	.LLST246
	.4byte	.LVUS246
	.uleb128 0x3
	.4byte	0xaa90
	.4byte	.LLST247
	.4byte	.LVUS247
	.uleb128 0x10
	.4byte	0x9519
	.4byte	.LBI1101
	.2byte	.LVU532
	.4byte	.LBB1101
	.4byte	.LBE1101-.LBB1101
	.byte	0x6
	.2byte	0x201
	.byte	0x17
	.uleb128 0x5
	.4byte	0x9527
	.uleb128 0x3
	.4byte	0x9530
	.4byte	.LLST248
	.4byte	.LVUS248
	.uleb128 0x3
	.4byte	0x953c
	.4byte	.LLST249
	.4byte	.LVUS249
	.uleb128 0x25
	.4byte	.LVL213
	.4byte	0x8051
	.uleb128 0x12
	.uleb128 0x1
	.byte	0x50
	.uleb128 0x2
	.byte	0x77
	.sleb128 0
	.byte	0
	.byte	0
	.byte	0
	.byte	0
	.byte	0
	.uleb128 0xc
	.4byte	0x9334
	.4byte	.LBI1070
	.2byte	.LVU480
	.4byte	.LBB1070
	.4byte	.LBE1070-.LBB1070
	.byte	0x9
	.2byte	0x24e
	.byte	0x2b
	.4byte	0x9c3f
	.uleb128 0x3
	.4byte	0x9342
	.4byte	.LLST210
	.4byte	.LVUS210
	.uleb128 0x3
	.4byte	0x934b
	.4byte	.LLST211
	.4byte	.LVUS211
	.uleb128 0x3
	.4byte	0x9358
	.4byte	.LLST212
	.4byte	.LVUS212
	.uleb128 0x1f
	.4byte	0x9365
	.4byte	.LLST213
	.4byte	.LVUS213
	.uleb128 0xc
	.4byte	0xc4d1
	.4byte	.LBI1072
	.2byte	.LVU481
	.4byte	.LBB1072
	.4byte	.LBE1072-.LBB1072
	.byte	0x2
	.2byte	0x774
	.byte	0x17
	.4byte	0x9bfd
	.uleb128 0x3
	.4byte	0xc4df
	.4byte	.LLST214
	.4byte	.LVUS214
	.byte	0
	.uleb128 0xc
	.4byte	0xaa3e
	.4byte	.LBI1074
	.2byte	.LVU486
	.4byte	.LBB1074
	.4byte	.LBE1074-.LBB1074
	.byte	0x2
	.2byte	0x777
	.byte	0x2d
	.4byte	0x9c2b
	.uleb128 0x5
	.4byte	0xaa51
	.uleb128 0x3
	.4byte	0xaa5e
	.4byte	.LLST215
	.4byte	.LVUS215
	.byte	0
	.uleb128 0x25
	.4byte	.LVL199
	.4byte	0x5e03
	.uleb128 0x12
	.uleb128 0x1
	.byte	0x50
	.uleb128 0x5
	.byte	0x3
	.4byte	.LC2
	.byte	0
	.byte	0
	.uleb128 0xc
	.4byte	0x931c
	.4byte	.LBI1076
	.2byte	.LVU496
	.4byte	.LBB1076
	.4byte	.LBE1076-.LBB1076
	.byte	0x9
	.2byte	0x253
	.byte	0x24
	.4byte	0x9c92
	.uleb128 0x3
	.4byte	0x932a
	.4byte	.LLST216
	.4byte	.LVUS216
	.uleb128 0x10
	.4byte	0x8f9a
	.4byte	.LBI1077
	.2byte	.LVU497
	.4byte	.LBB1077
	.4byte	.LBE1077-.LBB1077
	.byte	0x2
	.2byte	0x37e
	.byte	0x10
	.uleb128 0x5
	.4byte	0x8fa8
	.uleb128 0x3
	.4byte	0x8fb1
	.4byte	.LLST217
	.4byte	.LVUS217
	.byte	0
	.byte	0
	.uleb128 0xc
	.4byte	0x9304
	.4byte	.LBI1078
	.2byte	.LVU499
	.4byte	.LBB1078
	.4byte	.LBE1078-.LBB1078
	.byte	0x9
	.2byte	0x253
	.byte	0x2e
	.4byte	0x9ce5
	.uleb128 0x3
	.4byte	0x9312
	.4byte	.LLST218
	.4byte	.LVUS218
	.uleb128 0x10
	.4byte	0x8f9a
	.4byte	.LBI1079
	.2byte	.LVU500
	.4byte	.LBB1079
	.4byte	.LBE1079-.LBB1079
	.byte	0x2
	.2byte	0x36a
	.byte	0x10
	.uleb128 0x5
	.4byte	0x8fa8
	.uleb128 0x3
	.4byte	0x8fb1
	.4byte	.LLST219
	.4byte	.LVUS219
	.byte	0
	.byte	0
	.uleb128 0x10
	.4byte	0x92a3
	.4byte	.LBI1080
	.2byte	.LVU502
	.4byte	.LBB1080
	.4byte	.LBE1080-.LBB1080
	.byte	0x9
	.2byte	0x254
	.byte	0x2c
	.uleb128 0x3
	.4byte	0x92b1
	.4byte	.LLST220
	.4byte	.LVUS220
	.uleb128 0x5
	.4byte	0x92ba
	.uleb128 0x10
	.4byte	0x90c9
	.4byte	.LBI1082
	.2byte	.LVU503
	.4byte	.LBB1082
	.4byte	.LBE1082-.LBB1082
	.byte	0x2
	.2byte	0x17c
	.byte	0x21
	.uleb128 0x3
	.4byte	0x90d3
	.4byte	.LLST221
	.4byte	.LVUS221
	.uleb128 0x5
	.4byte	0x90e0
	.uleb128 0x10
	.4byte	0x8dea
	.4byte	.LBI1083
	.2byte	.LVU504
	.4byte	.LBB1083
	.4byte	.LBE1083-.LBB1083
	.byte	0x6
	.2byte	0x1de
	.byte	0x1c
	.uleb128 0x3
	.4byte	0x8df8
	.4byte	.LLST222
	.4byte	.LVUS222
	.uleb128 0x5
	.4byte	0x8e01
	.uleb128 0x3
	.4byte	0x8e0d
	.4byte	.LLST223
	.4byte	.LVUS223
	.uleb128 0x25
	.4byte	.LVL202
	.4byte	0x806c
	.uleb128 0x12
	.uleb128 0x1
	.byte	0x50
	.uleb128 0x2
	.byte	0x78
	.sleb128 0
	.byte	0
	.byte	0
	.byte	0
	.byte	0
	.byte	0
	.uleb128 0x14
	.4byte	0x3ee1
	.4byte	0x9d8f
	.byte	0x3
	.4byte	0x9da6
	.uleb128 0x11
	.4byte	.LASF1185
	.4byte	0x7e7f
	.uleb128 0x23
	.4byte	.LASF1204
	.byte	0x4
	.2byte	0x5bf
	.byte	0xb
	.4byte	0x3b5f
	.byte	0
	.uleb128 0x5b
	.4byte	0x451e
	.4byte	0x9dcc
	.4byte	.LFB2346
	.4byte	.LFE2346-.LFB2346
	.uleb128 0x1
	.byte	0x9c
	.4byte	0xa8e8
	.uleb128 0x31
	.4byte	.LASF293
	.4byte	0x9dcc
	.uleb128 0x32
	.4byte	0x6e69
	.byte	0
	.uleb128 0x35
	.4byte	.LASF1185
	.4byte	0x7e7f
	.4byte	.LLST49
	.4byte	.LVUS49
	.uleb128 0x79
	.byte	0x7
	.2byte	0x1e5
	.byte	0x1f
	.4byte	0x9df4
	.uleb128 0x7a
	.4byte	0x8027
	.4byte	.LLST50
	.4byte	.LVUS50
	.byte	0
	.uleb128 0xc
	.4byte	0xc4e9
	.4byte	.LBI871
	.2byte	.LVU236
	.4byte	.LBB871
	.4byte	.LBE871-.LBB871
	.byte	0x7
	.2byte	0x1ec
	.byte	0xa
	.4byte	0x9e4f
	.uleb128 0x3
	.4byte	0xc4f7
	.4byte	.LLST51
	.4byte	.LVUS51
	.uleb128 0x10
	.4byte	0xc0ff
	.4byte	.LBI872
	.2byte	.LVU237
	.4byte	.LBB872
	.4byte	.LBE872-.LBB872
	.byte	0x4
	.2byte	0x4f5
	.byte	0x28
	.uleb128 0x3
	.4byte	0xc109
	.4byte	.LLST52
	.4byte	.LVUS52
	.uleb128 0x3
	.4byte	0xc116
	.4byte	.LLST53
	.4byte	.LVUS53
	.byte	0
	.byte	0
	.uleb128 0x1e
	.4byte	0x938b
	.4byte	.LBI874
	.2byte	.LVU250
	.4byte	.LLRL54
	.byte	0x7
	.2byte	0x1f0
	.byte	0x18
	.4byte	0xa775
	.uleb128 0x3
	.4byte	0x9399
	.4byte	.LLST55
	.4byte	.LVUS55
	.uleb128 0x3
	.4byte	0x93a2
	.4byte	.LLST56
	.4byte	.LVUS56
	.uleb128 0x1b
	.4byte	0x8ff3
	.4byte	.LBI876
	.2byte	.LVU282
	.4byte	.LLRL57
	.byte	0x4
	.2byte	0x87c
	.byte	0x15
	.uleb128 0x3
	.4byte	0x9001
	.4byte	.LLST58
	.4byte	.LVUS58
	.uleb128 0x3
	.4byte	0x900a
	.4byte	.LLST59
	.4byte	.LVUS59
	.uleb128 0x3
	.4byte	0x9017
	.4byte	.LLST60
	.4byte	.LVUS60
	.uleb128 0x1d
	.4byte	.LLRL57
	.uleb128 0x1f
	.4byte	0x9024
	.4byte	.LLST61
	.4byte	.LVUS61
	.uleb128 0x1f
	.4byte	0x9031
	.4byte	.LLST62
	.4byte	.LVUS62
	.uleb128 0x1f
	.4byte	0x903e
	.4byte	.LLST63
	.4byte	.LVUS63
	.uleb128 0x1e
	.4byte	0x8d8e
	.4byte	.LBI879
	.2byte	.LVU291
	.4byte	.LLRL64
	.byte	0x7
	.2byte	0x3b1
	.byte	0xf
	.4byte	0xa070
	.uleb128 0x3
	.4byte	0x8daa
	.4byte	.LLST65
	.4byte	.LVUS65
	.uleb128 0x3
	.4byte	0x8db7
	.4byte	.LLST66
	.4byte	.LVUS66
	.uleb128 0x3
	.4byte	0x8dc4
	.4byte	.LLST67
	.4byte	.LVUS67
	.uleb128 0x1b
	.4byte	0x8b1c
	.4byte	.LBI880
	.2byte	.LVU292
	.4byte	.LLRL64
	.byte	0x3
	.2byte	0x28b
	.byte	0x7
	.uleb128 0x3
	.4byte	0x8b42
	.4byte	.LLST68
	.4byte	.LVUS68
	.uleb128 0x3
	.4byte	0x8b4f
	.4byte	.LLST69
	.4byte	.LVUS69
	.uleb128 0x3
	.4byte	0x8b5c
	.4byte	.LLST70
	.4byte	.LVUS70
	.uleb128 0x1b
	.4byte	0x8480
	.4byte	.LBI881
	.2byte	.LVU293
	.4byte	.LLRL64
	.byte	0x3
	.2byte	0x22b
	.byte	0x1f
	.uleb128 0x3
	.4byte	0x84a6
	.4byte	.LLST71
	.4byte	.LVUS71
	.uleb128 0x3
	.4byte	0x84b3
	.4byte	.LLST72
	.4byte	.LVUS72
	.uleb128 0x3
	.4byte	0x84c0
	.4byte	.LLST73
	.4byte	.LVUS73
	.uleb128 0x1b
	.4byte	0x8322
	.4byte	.LBI882
	.2byte	.LVU294
	.4byte	.LLRL64
	.byte	0x3
	.2byte	0x224
	.byte	0x2a
	.uleb128 0x3
	.4byte	0x8348
	.4byte	.LLST74
	.4byte	.LVUS74
	.uleb128 0x3
	.4byte	0x8355
	.4byte	.LLST75
	.4byte	.LVUS75
	.uleb128 0x3
	.4byte	0x8362
	.4byte	.LLST76
	.4byte	.LVUS76
	.uleb128 0x1d
	.4byte	.LLRL64
	.uleb128 0x1b
	.4byte	0x81e7
	.4byte	.LBI884
	.2byte	.LVU295
	.4byte	.LLRL64
	.byte	0x3
	.2byte	0x209
	.byte	0x1e
	.uleb128 0x3
	.4byte	0x8203
	.4byte	.LLST77
	.4byte	.LVUS77
	.uleb128 0x3
	.4byte	0x8210
	.4byte	.LLST78
	.4byte	.LVUS78
	.uleb128 0x3
	.4byte	0x821d
	.4byte	.LLST79
	.4byte	.LVUS79
	.uleb128 0x1d
	.4byte	.LLRL80
	.uleb128 0x1f
	.4byte	0x822a
	.4byte	.LLST81
	.4byte	.LVUS81
	.uleb128 0xc
	.4byte	0x80bd
	.4byte	.LBI886
	.2byte	.LVU315
	.4byte	.LBB886
	.4byte	.LBE886-.LBB886
	.byte	0x3
	.2byte	0x1c7
	.byte	0x14
	.4byte	0xa059
	.uleb128 0x3
	.4byte	0x80d9
	.4byte	.LLST82
	.4byte	.LVUS82
	.uleb128 0x3
	.4byte	0x80e6
	.4byte	.LLST83
	.4byte	.LVUS83
	.byte	0
	.uleb128 0x25
	.4byte	.LVL127
	.4byte	0xd90a
	.uleb128 0x12
	.uleb128 0x1
	.byte	0x50
	.uleb128 0x2
	.byte	0x77
	.sleb128 0
	.byte	0
	.byte	0
	.byte	0
	.byte	0
	.byte	0
	.byte	0
	.byte	0
	.byte	0
	.uleb128 0x1e
	.4byte	0x8d4a
	.4byte	.LBI901
	.2byte	.LVU321
	.4byte	.LLRL84
	.byte	0x7
	.2byte	0x3b5
	.byte	0x18
	.4byte	0xa1ed
	.uleb128 0x3
	.4byte	0x8d66
	.4byte	.LLST85
	.4byte	.LVUS85
	.uleb128 0x3
	.4byte	0x8d73
	.4byte	.LLST86
	.4byte	.LVUS86
	.uleb128 0x3
	.4byte	0x8d80
	.4byte	.LLST87
	.4byte	.LVUS87
	.uleb128 0x1b
	.4byte	0x8ace
	.4byte	.LBI902
	.2byte	.LVU322
	.4byte	.LLRL84
	.byte	0x3
	.2byte	0x378
	.byte	0x7
	.uleb128 0x3
	.4byte	0x8af4
	.4byte	.LLST88
	.4byte	.LVUS88
	.uleb128 0x3
	.4byte	0x8b01
	.4byte	.LLST89
	.4byte	.LVUS89
	.uleb128 0x3
	.4byte	0x8b0e
	.4byte	.LLST90
	.4byte	.LVUS90
	.uleb128 0x1b
	.4byte	0x840c
	.4byte	.LBI903
	.2byte	.LVU323
	.4byte	.LLRL84
	.byte	0x3
	.2byte	0x339
	.byte	0x1f
	.uleb128 0x3
	.4byte	0x8432
	.4byte	.LLST91
	.4byte	.LVUS91
	.uleb128 0x3
	.4byte	0x843f
	.4byte	.LLST92
	.4byte	.LVUS92
	.uleb128 0x3
	.4byte	0x844c
	.4byte	.LLST93
	.4byte	.LVUS93
	.uleb128 0x1b
	.4byte	0x82d4
	.4byte	.LBI904
	.2byte	.LVU324
	.4byte	.LLRL84
	.byte	0x3
	.2byte	0x31c
	.byte	0x33
	.uleb128 0x3
	.4byte	0x82fa
	.4byte	.LLST94
	.4byte	.LVUS94
	.uleb128 0x3
	.4byte	0x8307
	.4byte	.LLST95
	.4byte	.LVUS95
	.uleb128 0x3
	.4byte	0x8314
	.4byte	.LLST96
	.4byte	.LVUS96
	.uleb128 0x1d
	.4byte	.LLRL84
	.uleb128 0x1e
	.4byte	0x8196
	.4byte	.LBI906
	.2byte	.LVU325
	.4byte	.LLRL84
	.byte	0x3
	.2byte	0x313
	.byte	0x25
	.4byte	0xa1df
	.uleb128 0x3
	.4byte	0x81b2
	.4byte	.LLST97
	.4byte	.LVUS97
	.uleb128 0x3
	.4byte	0x81bf
	.4byte	.LLST98
	.4byte	.LVUS98
	.uleb128 0x3
	.4byte	0x81cc
	.4byte	.LLST99
	.4byte	.LVUS99
	.uleb128 0x1f
	.4byte	0x81d9
	.4byte	.LLST100
	.4byte	.LVUS100
	.uleb128 0x10
	.4byte	0x80bd
	.4byte	.LBI908
	.2byte	.LVU333
	.4byte	.LBB908
	.4byte	.LBE908-.LBB908
	.byte	0x3
	.2byte	0x301
	.byte	0x14
	.uleb128 0x3
	.4byte	0x80d9
	.4byte	.LLST101
	.4byte	.LVUS101
	.uleb128 0x3
	.4byte	0x80e6
	.4byte	.LLST102
	.4byte	.LVUS102
	.byte	0
	.byte	0
	.uleb128 0x43
	.4byte	.LVL140
	.4byte	0xd90a
	.byte	0
	.byte	0
	.byte	0
	.byte	0
	.byte	0
	.uleb128 0x6a
	.4byte	0x904b
	.4byte	.LBB916
	.4byte	.LBE916-.LBB916
	.4byte	0xa70a
	.uleb128 0x1f
	.4byte	0x904c
	.4byte	.LLST103
	.4byte	.LVUS103
	.uleb128 0x1f
	.4byte	0x9059
	.4byte	.LLST104
	.4byte	.LVUS104
	.uleb128 0xc
	.4byte	0xaa3e
	.4byte	.LBI917
	.2byte	.LVU339
	.4byte	.LBB917
	.4byte	.LBE917-.LBB917
	.byte	0x7
	.2byte	0x3bc
	.byte	0x14
	.4byte	0xa24e
	.uleb128 0x3
	.4byte	0xaa51
	.4byte	.LLST105
	.4byte	.LVUS105
	.uleb128 0x3
	.4byte	0xaa5e
	.4byte	.LLST106
	.4byte	.LVUS106
	.byte	0
	.uleb128 0x1e
	.4byte	0xaa07
	.4byte	.LBI919
	.2byte	.LVU345
	.4byte	.LLRL107
	.byte	0x7
	.2byte	0x3bf
	.byte	0x32
	.4byte	0xa3e8
	.uleb128 0x3
	.4byte	0xaa15
	.4byte	.LLST108
	.4byte	.LVUS108
	.uleb128 0x3
	.4byte	0xaa1e
	.4byte	.LLST109
	.4byte	.LVUS109
	.uleb128 0x1d
	.4byte	.LLRL107
	.uleb128 0x3c
	.4byte	0xaa2b
	.uleb128 0xc
	.4byte	0xa9a5
	.4byte	.LBI921
	.2byte	.LVU346
	.4byte	.LBB921
	.4byte	.LBE921-.LBB921
	.byte	0x4
	.2byte	0x254
	.byte	0x12
	.4byte	0xa308
	.uleb128 0x3
	.4byte	0xa9b3
	.4byte	.LLST110
	.4byte	.LVUS110
	.uleb128 0x10
	.4byte	0x9479
	.4byte	.LBI922
	.2byte	.LVU347
	.4byte	.LBB922
	.4byte	.LBE922-.LBB922
	.byte	0x4
	.2byte	0x241
	.byte	0x35
	.uleb128 0x3
	.4byte	0x9490
	.4byte	.LLST111
	.4byte	.LVUS111
	.uleb128 0x3
	.4byte	0x9499
	.4byte	.LLST112
	.4byte	.LVUS112
	.uleb128 0x27
	.4byte	0x909a
	.4byte	.LBI923
	.2byte	.LVU348
	.4byte	.LBB923
	.4byte	.LBE923-.LBB923
	.byte	0x8
	.byte	0xb0
	.byte	0x35
	.uleb128 0x3
	.4byte	0x90a8
	.4byte	.LLST113
	.4byte	.LVUS113
	.byte	0
	.byte	0
	.byte	0
	.uleb128 0x1e
	.4byte	0x94f4
	.4byte	.LBI924
	.2byte	.LVU350
	.4byte	.LLRL114
	.byte	0x4
	.2byte	0x255
	.byte	0x24
	.4byte	0xa39d
	.uleb128 0x3
	.4byte	0x94fe
	.4byte	.LLST115
	.4byte	.LVUS115
	.uleb128 0x3
	.4byte	0x950b
	.4byte	.LLST116
	.4byte	.LVUS116
	.uleb128 0x1b
	.4byte	0x90ee
	.4byte	.LBI925
	.2byte	.LVU351
	.4byte	.LLRL114
	.byte	0x6
	.2byte	0x1de
	.byte	0x1c
	.uleb128 0x3
	.4byte	0x90fc
	.4byte	.LLST117
	.4byte	.LVUS117
	.uleb128 0x3
	.4byte	0x9105
	.4byte	.LLST118
	.4byte	.LVUS118
	.uleb128 0x3
	.4byte	0x9111
	.4byte	.LLST119
	.4byte	.LVUS119
	.uleb128 0x57
	.4byte	.LVL150
	.4byte	0x806c
	.4byte	0xa389
	.uleb128 0x12
	.uleb128 0x1
	.byte	0x50
	.uleb128 0x4
	.byte	0x7a
	.sleb128 0
	.byte	0x32
	.byte	0x24
	.byte	0
	.uleb128 0x43
	.4byte	.LVL161
	.4byte	0x5df9
	.uleb128 0x43
	.4byte	.LVL162
	.4byte	0x5def
	.byte	0
	.byte	0
	.uleb128 0x10
	.4byte	0xa96a
	.4byte	.LBI929
	.2byte	.LVU356
	.4byte	.LBB929
	.4byte	.LBE929-.LBB929
	.byte	0x4
	.2byte	0x256
	.byte	0x7
	.uleb128 0x3
	.4byte	0xa97b
	.4byte	.LLST120
	.4byte	.LVUS120
	.uleb128 0x27
	.4byte	0x943e
	.4byte	.LBI930
	.2byte	.LVU357
	.4byte	.LBB930
	.4byte	.LBE930-.LBB930
	.byte	0x8
	.byte	0xb6
	.byte	0x27
	.uleb128 0x3
	.4byte	0x944f
	.4byte	.LLST121
	.4byte	.LVUS121
	.byte	0
	.byte	0
	.byte	0
	.byte	0
	.uleb128 0x1e
	.4byte	0x8d8e
	.4byte	.LBI933
	.2byte	.LVU364
	.4byte	.LLRL122
	.byte	0x7
	.2byte	0x3c2
	.byte	0xd
	.4byte	0xa572
	.uleb128 0x3
	.4byte	0x8daa
	.4byte	.LLST123
	.4byte	.LVUS123
	.uleb128 0x3
	.4byte	0x8db7
	.4byte	.LLST124
	.4byte	.LVUS124
	.uleb128 0x3
	.4byte	0x8dc4
	.4byte	.LLST125
	.4byte	.LVUS125
	.uleb128 0x1b
	.4byte	0x8b1c
	.4byte	.LBI934
	.2byte	.LVU365
	.4byte	.LLRL122
	.byte	0x3
	.2byte	0x28b
	.byte	0x7
	.uleb128 0x3
	.4byte	0x8b42
	.4byte	.LLST126
	.4byte	.LVUS126
	.uleb128 0x3
	.4byte	0x8b4f
	.4byte	.LLST127
	.4byte	.LVUS127
	.uleb128 0x3
	.4byte	0x8b5c
	.4byte	.LLST128
	.4byte	.LVUS128
	.uleb128 0x1b
	.4byte	0x8480
	.4byte	.LBI935
	.2byte	.LVU366
	.4byte	.LLRL122
	.byte	0x3
	.2byte	0x22b
	.byte	0x1f
	.uleb128 0x3
	.4byte	0x84a6
	.4byte	.LLST129
	.4byte	.LVUS129
	.uleb128 0x3
	.4byte	0x84b3
	.4byte	.LLST130
	.4byte	.LVUS130
	.uleb128 0x3
	.4byte	0x84c0
	.4byte	.LLST131
	.4byte	.LVUS131
	.uleb128 0x1b
	.4byte	0x8322
	.4byte	.LBI936
	.2byte	.LVU367
	.4byte	.LLRL122
	.byte	0x3
	.2byte	0x224
	.byte	0x2a
	.uleb128 0x3
	.4byte	0x8348
	.4byte	.LLST132
	.4byte	.LVUS132
	.uleb128 0x3
	.4byte	0x8355
	.4byte	.LLST133
	.4byte	.LVUS133
	.uleb128 0x3
	.4byte	0x8362
	.4byte	.LLST134
	.4byte	.LVUS134
	.uleb128 0x1d
	.4byte	.LLRL122
	.uleb128 0x1b
	.4byte	0x81e7
	.4byte	.LBI938
	.2byte	.LVU368
	.4byte	.LLRL122
	.byte	0x3
	.2byte	0x209
	.byte	0x1e
	.uleb128 0x3
	.4byte	0x8203
	.4byte	.LLST135
	.4byte	.LVUS135
	.uleb128 0x3
	.4byte	0x8210
	.4byte	.LLST136
	.4byte	.LVUS136
	.uleb128 0x3
	.4byte	0x821d
	.4byte	.LLST137
	.4byte	.LVUS137
	.uleb128 0x1d
	.4byte	.LLRL138
	.uleb128 0x1f
	.4byte	0x822a
	.4byte	.LLST139
	.4byte	.LVUS139
	.uleb128 0xc
	.4byte	0x80bd
	.4byte	.LBI940
	.2byte	.LVU394
	.4byte	.LBB940
	.4byte	.LBE940-.LBB940
	.byte	0x3
	.2byte	0x1c7
	.byte	0x14
	.4byte	0xa55b
	.uleb128 0x3
	.4byte	0x80d9
	.4byte	.LLST140
	.4byte	.LVUS140
	.uleb128 0x3
	.4byte	0x80e6
	.4byte	.LLST141
	.4byte	.LVUS141
	.byte	0
	.uleb128 0x25
	.4byte	.LVL158
	.4byte	0xd90a
	.uleb128 0x12
	.uleb128 0x1
	.byte	0x50
	.uleb128 0x2
	.byte	0x77
	.sleb128 0
	.byte	0
	.byte	0
	.byte	0
	.byte	0
	.byte	0
	.byte	0
	.byte	0
	.byte	0
	.uleb128 0x10
	.4byte	0xc18b
	.4byte	.LBI954
	.2byte	.LVU375
	.4byte	.LBB954
	.4byte	.LBE954-.LBB954
	.byte	0x7
	.2byte	0x3c5
	.byte	0x15
	.uleb128 0x3
	.4byte	0xc199
	.4byte	.LLST142
	.4byte	.LVUS142
	.uleb128 0x3
	.4byte	0xc1a2
	.4byte	.LLST143
	.4byte	.LVUS143
	.uleb128 0x3
	.4byte	0xc1af
	.4byte	.LLST144
	.4byte	.LVUS144
	.uleb128 0x3c
	.4byte	0xc1bc
	.uleb128 0xc
	.4byte	0xa9a5
	.4byte	.LBI956
	.2byte	.LVU376
	.4byte	.LBB956
	.4byte	.LBE956-.LBB956
	.byte	0x4
	.2byte	0x25b
	.byte	0x12
	.4byte	0xa634
	.uleb128 0x3
	.4byte	0xa9b3
	.4byte	.LLST145
	.4byte	.LVUS145
	.uleb128 0x10
	.4byte	0x9479
	.4byte	.LBI957
	.2byte	.LVU377
	.4byte	.LBB957
	.4byte	.LBE957-.LBB957
	.byte	0x4
	.2byte	0x241
	.byte	0x35
	.uleb128 0x3
	.4byte	0x9490
	.4byte	.LLST146
	.4byte	.LVUS146
	.uleb128 0x3
	.4byte	0x9499
	.4byte	.LLST147
	.4byte	.LVUS147
	.uleb128 0x27
	.4byte	0x909a
	.4byte	.LBI958
	.2byte	.LVU378
	.4byte	.LBB958
	.4byte	.LBE958-.LBB958
	.byte	0x8
	.byte	0xb0
	.byte	0x35
	.uleb128 0x3
	.4byte	0x90a8
	.4byte	.LLST148
	.4byte	.LVUS148
	.byte	0
	.byte	0
	.byte	0
	.uleb128 0xc
	.4byte	0xa938
	.4byte	.LBI959
	.2byte	.LVU380
	.4byte	.LBB959
	.4byte	.LBE959-.LBB959
	.byte	0x4
	.2byte	0x25c
	.byte	0x1f
	.4byte	0xa6bf
	.uleb128 0x3
	.4byte	0xa942
	.4byte	.LLST149
	.4byte	.LVUS149
	.uleb128 0x3
	.4byte	0xa94f
	.4byte	.LLST150
	.4byte	.LVUS150
	.uleb128 0x3
	.4byte	0xa95c
	.4byte	.LLST151
	.4byte	.LVUS151
	.uleb128 0x10
	.4byte	0x940e
	.4byte	.LBI960
	.2byte	.LVU381
	.4byte	.LBB960
	.4byte	.LBE960-.LBB960
	.byte	0x6
	.2byte	0x201
	.byte	0x17
	.uleb128 0x3
	.4byte	0x941c
	.4byte	.LLST152
	.4byte	.LVUS152
	.uleb128 0x3
	.4byte	0x9425
	.4byte	.LLST153
	.4byte	.LVUS153
	.uleb128 0x3
	.4byte	0x9431
	.4byte	.LLST154
	.4byte	.LVUS154
	.uleb128 0x43
	.4byte	.LVL159
	.4byte	0x8051
	.byte	0
	.byte	0
	.uleb128 0x10
	.4byte	0xa96a
	.4byte	.LBI962
	.2byte	.LVU384
	.4byte	.LBB962
	.4byte	.LBE962-.LBB962
	.byte	0x4
	.2byte	0x25d
	.byte	0x7
	.uleb128 0x3
	.4byte	0xa97b
	.4byte	.LLST155
	.4byte	.LVUS155
	.uleb128 0x27
	.4byte	0x943e
	.4byte	.LBI963
	.2byte	.LVU385
	.4byte	.LBB963
	.4byte	.LBE963-.LBB963
	.byte	0x8
	.byte	0xb6
	.byte	0x27
	.uleb128 0x3
	.4byte	0x944f
	.4byte	.LLST156
	.4byte	.LVUS156
	.byte	0
	.byte	0
	.byte	0
	.byte	0
	.uleb128 0xc
	.4byte	0xa9e2
	.4byte	.LBI966
	.2byte	.LVU301
	.4byte	.LBB966
	.4byte	.LBE966-.LBB966
	.byte	0x7
	.2byte	0x3cb
	.byte	0x29
	.4byte	0xa740
	.uleb128 0x3
	.4byte	0xa9f0
	.4byte	.LLST157
	.4byte	.LVUS157
	.uleb128 0x3
	.4byte	0xa9f9
	.4byte	.LLST158
	.4byte	.LVUS158
	.byte	0
	.uleb128 0x10
	.4byte	0xa9e2
	.4byte	.LBI968
	.2byte	.LVU308
	.4byte	.LBB968
	.4byte	.LBE968-.LBB968
	.byte	0x7
	.2byte	0x3cc
	.byte	0x2a
	.uleb128 0x3
	.4byte	0xa9f0
	.4byte	.LLST159
	.4byte	.LVUS159
	.uleb128 0x3
	.4byte	0xa9f9
	.4byte	.LLST160
	.4byte	.LVUS160
	.byte	0
	.byte	0
	.byte	0
	.byte	0
	.uleb128 0xc
	.4byte	0x94dc
	.4byte	.LBI974
	.2byte	.LVU258
	.4byte	.LBB974
	.4byte	.LBE974-.LBB974
	.byte	0x7
	.2byte	0x1f1
	.byte	0x41
	.4byte	0xa820
	.uleb128 0x3
	.4byte	0x94ea
	.4byte	.LLST161
	.4byte	.LVUS161
	.uleb128 0x10
	.4byte	0x90c9
	.4byte	.LBI976
	.2byte	.LVU259
	.4byte	.LBB976
	.4byte	.LBE976-.LBB976
	.byte	0x4
	.2byte	0x247
	.byte	0x1a
	.uleb128 0x3
	.4byte	0x90d3
	.4byte	.LLST162
	.4byte	.LVUS162
	.uleb128 0x3
	.4byte	0x90e0
	.4byte	.LLST163
	.4byte	.LVUS163
	.uleb128 0x10
	.4byte	0x8dea
	.4byte	.LBI977
	.2byte	.LVU260
	.4byte	.LBB977
	.4byte	.LBE977-.LBB977
	.byte	0x6
	.2byte	0x1de
	.byte	0x1c
	.uleb128 0x3
	.4byte	0x8df8
	.4byte	.LLST164
	.4byte	.LVUS164
	.uleb128 0x3
	.4byte	0x8e01
	.4byte	.LLST165
	.4byte	.LVUS165
	.uleb128 0x3
	.4byte	0x8e0d
	.4byte	.LLST166
	.4byte	.LVUS166
	.uleb128 0x25
	.4byte	.LVL110
	.4byte	0x806c
	.uleb128 0x12
	.uleb128 0x1
	.byte	0x50
	.uleb128 0x3
	.byte	0xa
	.2byte	0x200
	.byte	0
	.byte	0
	.byte	0
	.byte	0
	.uleb128 0xc
	.4byte	0xa8e8
	.4byte	.LBI979
	.2byte	.LVU265
	.4byte	.LBB979
	.4byte	.LBE979-.LBB979
	.byte	0x7
	.2byte	0x1f5
	.byte	0x1e
	.4byte	0xa8a2
	.uleb128 0x3
	.4byte	0xa90a
	.4byte	.LLST167
	.4byte	.LVUS167
	.uleb128 0x3
	.4byte	0xa917
	.4byte	.LLST168
	.4byte	.LVUS168
	.uleb128 0x3
	.4byte	0xa92a
	.4byte	.LLST169
	.4byte	.LVUS169
	.uleb128 0x10
	.4byte	0x93c8
	.4byte	.LBI980
	.2byte	.LVU266
	.4byte	.LBB980
	.4byte	.LBE980-.LBB980
	.byte	0x6
	.2byte	0x216
	.byte	0x11
	.uleb128 0x3
	.4byte	0x93ee
	.4byte	.LLST170
	.4byte	.LVUS170
	.uleb128 0x3
	.4byte	0x93f7
	.4byte	.LLST171
	.4byte	.LVUS171
	.uleb128 0x3
	.4byte	0x9407
	.4byte	.LLST172
	.4byte	.LVUS172
	.byte	0
	.byte	0
	.uleb128 0x1e
	.4byte	0xa9e2
	.4byte	.LBI982
	.2byte	.LVU270
	.4byte	.LLRL173
	.byte	0x7
	.2byte	0x1fb
	.byte	0x29
	.4byte	0xa8d4
	.uleb128 0x3
	.4byte	0xa9f0
	.4byte	.LLST174
	.4byte	.LVUS174
	.uleb128 0x3
	.4byte	0xa9f9
	.4byte	.LLST175
	.4byte	.LVUS175
	.byte	0
	.uleb128 0x25
	.4byte	.LVL120
	.4byte	0x5e03
	.uleb128 0x12
	.uleb128 0x1
	.byte	0x50
	.uleb128 0x5
	.byte	0x3
	.4byte	.LC0
	.byte	0
	.byte	0
	.uleb128 0x15
	.4byte	0x18e5
	.byte	0x3
	.4byte	0xa931
	.uleb128 0x8
	.ascii	"_Up\000"
	.4byte	0x6e69
	.uleb128 0x31
	.4byte	.LASF293
	.4byte	0xa90a
	.uleb128 0x32
	.4byte	0x6e69
	.byte	0
	.uleb128 0x19
	.ascii	"__a\000"
	.byte	0x6
	.2byte	0x211
	.byte	0x1c
	.4byte	0x7d21
	.uleb128 0x19
	.ascii	"__p\000"
	.byte	0x6
	.2byte	0x211
	.byte	0x42
	.4byte	0x7cef
	.uleb128 0x97
	.byte	0x6
	.2byte	0x212
	.byte	0xc
	.uleb128 0x1
	.4byte	0x8027
	.byte	0
	.byte	0
	.uleb128 0x98
	.4byte	0x2d2b
	.byte	0x3
	.uleb128 0x15
	.4byte	0x5bba
	.byte	0x3
	.4byte	0xa96a
	.uleb128 0x19
	.ascii	"__a\000"
	.byte	0x6
	.2byte	0x200
	.byte	0x22
	.4byte	0x8004
	.uleb128 0x19
	.ascii	"__p\000"
	.byte	0x6
	.2byte	0x200
	.byte	0x2f
	.4byte	0x5b3c
	.uleb128 0x19
	.ascii	"__n\000"
	.byte	0x6
	.2byte	0x200
	.byte	0x3e
	.4byte	0x5b7b
	.byte	0
	.uleb128 0x78
	.4byte	0x2a8e
	.4byte	0x6efe
	.4byte	0xa97b
	.4byte	0xa98e
	.uleb128 0x11
	.4byte	.LASF1185
	.4byte	0x7df8
	.uleb128 0x11
	.4byte	.LASF1201
	.4byte	0x6e64
	.byte	0
	.uleb128 0x42
	.4byte	0xa96a
	.4byte	.LASF1220
	.4byte	0xa99f
	.4byte	0xa9a5
	.uleb128 0x5
	.4byte	0xa97b
	.byte	0
	.uleb128 0x14
	.4byte	0x369a
	.4byte	0xa9b3
	.byte	0x3
	.4byte	0xa9bd
	.uleb128 0x11
	.4byte	.LASF1185
	.4byte	0x7e5c
	.byte	0
	.uleb128 0x14
	.4byte	0x36e8
	.4byte	0xa9cb
	.byte	0x3
	.4byte	0xa9e2
	.uleb128 0x11
	.4byte	.LASF1185
	.4byte	0x7e66
	.uleb128 0x19
	.ascii	"__p\000"
	.byte	0x4
	.2byte	0x24b
	.byte	0x1f
	.4byte	0x36ba
	.byte	0
	.uleb128 0x14
	.4byte	0x2fa9
	.4byte	0xa9f0
	.byte	0x3
	.4byte	0xaa07
	.uleb128 0x11
	.4byte	.LASF1185
	.4byte	0x7e11
	.uleb128 0x9
	.4byte	.LASF1221
	.byte	0x4
	.2byte	0x107
	.byte	0x20
	.4byte	0x2d6e
	.byte	0
	.uleb128 0x14
	.4byte	0x3709
	.4byte	0xaa15
	.byte	0x3
	.4byte	0xaa39
	.uleb128 0x11
	.4byte	.LASF1185
	.4byte	0x7e66
	.uleb128 0x19
	.ascii	"__n\000"
	.byte	0x4
	.2byte	0x252
	.byte	0x1e
	.4byte	0x155
	.uleb128 0x23
	.4byte	.LASF1222
	.byte	0x4
	.2byte	0x254
	.byte	0x12
	.4byte	0x368c
	.byte	0
	.uleb128 0xd
	.4byte	0x6e4a
	.uleb128 0x15
	.4byte	0x660e
	.byte	0x3
	.4byte	0xaa6c
	.uleb128 0x8
	.ascii	"_Tp\000"
	.4byte	0x2d
	.uleb128 0x19
	.ascii	"__a\000"
	.byte	0x3
	.2byte	0x101
	.byte	0x14
	.4byte	0xaa39
	.uleb128 0x19
	.ascii	"__b\000"
	.byte	0x3
	.2byte	0x101
	.byte	0x24
	.4byte	0xaa39
	.byte	0
	.uleb128 0x15
	.4byte	0x1867
	.byte	0x3
	.4byte	0xaa9e
	.uleb128 0x19
	.ascii	"__a\000"
	.byte	0x6
	.2byte	0x200
	.byte	0x22
	.4byte	0x7d21
	.uleb128 0x19
	.ascii	"__p\000"
	.byte	0x6
	.2byte	0x200
	.byte	0x2f
	.4byte	0x17e9
	.uleb128 0x19
	.ascii	"__n\000"
	.byte	0x6
	.2byte	0x200
	.byte	0x3e
	.4byte	0x1828
	.byte	0
	.uleb128 0x5b
	.4byte	0x4307
	.4byte	0xaab5
	.4byte	.LFB2278
	.4byte	.LFE2278-.LFB2278
	.uleb128 0x1
	.byte	0x9c
	.4byte	0xbfb5
	.uleb128 0x35
	.4byte	.LASF1185
	.4byte	0x7e7f
	.4byte	.LLST344
	.4byte	.LVUS344
	.uleb128 0x3a
	.4byte	.LASF1172
	.byte	0x7
	.2byte	0x103
	.byte	0x17
	.4byte	0x3b5f
	.4byte	.LLST345
	.4byte	.LVUS345
	.uleb128 0x3a
	.4byte	.LASF1173
	.byte	0x7
	.2byte	0x103
	.byte	0x29
	.4byte	0x3b5f
	.4byte	.LLST346
	.4byte	.LVUS346
	.uleb128 0x51
	.4byte	.LLRL353
	.4byte	0xbd1e
	.uleb128 0x7c
	.ascii	"__n\000"
	.byte	0x7
	.2byte	0x10e
	.byte	0x1a
	.4byte	0x4519
	.4byte	.LLST354
	.4byte	.LVUS354
	.uleb128 0x3b
	.4byte	.LASF1223
	.byte	0x7
	.2byte	0x10f
	.byte	0x1a
	.4byte	0x4519
	.4byte	.LLST355
	.4byte	.LVUS355
	.uleb128 0xc
	.4byte	0xc0ff
	.4byte	.LBI1519
	.2byte	.LVU773
	.4byte	.LBB1519
	.4byte	.LBE1519-.LBB1519
	.byte	0x7
	.2byte	0x10e
	.byte	0x27
	.4byte	0xab59
	.uleb128 0x3
	.4byte	0xc109
	.4byte	.LLST356
	.4byte	.LVUS356
	.uleb128 0x3
	.4byte	0xc116
	.4byte	.LLST357
	.4byte	.LVUS357
	.byte	0
	.uleb128 0xc
	.4byte	0xc3c9
	.4byte	.LBI1521
	.2byte	.LVU788
	.4byte	.LBB1521
	.4byte	.LBE1521-.LBB1521
	.byte	0x7
	.2byte	0x10f
	.byte	0x3a
	.4byte	0xabac
	.uleb128 0x3
	.4byte	0xc3d7
	.4byte	.LLST358
	.4byte	.LVUS358
	.uleb128 0x10
	.4byte	0xc00b
	.4byte	.LBI1522
	.2byte	.LVU789
	.4byte	.LBB1522
	.4byte	.LBE1522-.LBB1522
	.byte	0x4
	.2byte	0x480
	.byte	0x1e
	.uleb128 0x5
	.4byte	0xc019
	.uleb128 0x3
	.4byte	0xc022
	.4byte	.LLST360
	.4byte	.LVUS360
	.byte	0
	.byte	0
	.uleb128 0xc
	.4byte	0xc0ff
	.4byte	.LBI1523
	.2byte	.LVU791
	.4byte	.LBB1523
	.4byte	.LBE1523-.LBB1523
	.byte	0x7
	.2byte	0x10f
	.byte	0x33
	.4byte	0xabda
	.uleb128 0x3
	.4byte	0xc109
	.4byte	.LLST361
	.4byte	.LVUS361
	.uleb128 0x5
	.4byte	0xc116
	.byte	0
	.uleb128 0xc
	.4byte	0xc4e9
	.4byte	.LBI1525
	.2byte	.LVU804
	.4byte	.LBB1525
	.4byte	.LBE1525-.LBB1525
	.byte	0x7
	.2byte	0x110
	.byte	0x37
	.4byte	0xac35
	.uleb128 0x3
	.4byte	0xc4f7
	.4byte	.LLST363
	.4byte	.LVUS363
	.uleb128 0x10
	.4byte	0xc0ff
	.4byte	.LBI1527
	.2byte	.LVU805
	.4byte	.LBB1527
	.4byte	.LBE1527-.LBB1527
	.byte	0x4
	.2byte	0x4f5
	.byte	0x28
	.uleb128 0x3
	.4byte	0xc109
	.4byte	.LLST364
	.4byte	.LVUS364
	.uleb128 0x3
	.4byte	0xc116
	.4byte	.LLST365
	.4byte	.LVUS365
	.byte	0
	.byte	0
	.uleb128 0xc
	.4byte	0xc3c9
	.4byte	.LBI1529
	.2byte	.LVU820
	.4byte	.LBB1529
	.4byte	.LBE1529-.LBB1529
	.byte	0x7
	.2byte	0x112
	.byte	0x1c
	.4byte	0xac88
	.uleb128 0x3
	.4byte	0xc3d7
	.4byte	.LLST366
	.4byte	.LVUS366
	.uleb128 0x10
	.4byte	0xc00b
	.4byte	.LBI1530
	.2byte	.LVU821
	.4byte	.LBB1530
	.4byte	.LBE1530-.LBB1530
	.byte	0x4
	.2byte	0x480
	.byte	0x1e
	.uleb128 0x5
	.4byte	0xc019
	.uleb128 0x3
	.4byte	0xc022
	.4byte	.LLST368
	.4byte	.LVUS368
	.byte	0
	.byte	0
	.uleb128 0xc
	.4byte	0xc3c9
	.4byte	.LBI1531
	.2byte	.LVU824
	.4byte	.LBB1531
	.4byte	.LBE1531-.LBB1531
	.byte	0x7
	.2byte	0x113
	.byte	0x3
	.4byte	0xacdb
	.uleb128 0x3
	.4byte	0xc3d7
	.4byte	.LLST369
	.4byte	.LVUS369
	.uleb128 0x10
	.4byte	0xc00b
	.4byte	.LBI1532
	.2byte	.LVU825
	.4byte	.LBB1532
	.4byte	.LBE1532-.LBB1532
	.byte	0x4
	.2byte	0x480
	.byte	0x1e
	.uleb128 0x5
	.4byte	0xc019
	.uleb128 0x3
	.4byte	0xc022
	.4byte	.LLST371
	.4byte	.LVUS371
	.byte	0
	.byte	0
	.uleb128 0xc
	.4byte	0xc00b
	.4byte	.LBI1533
	.2byte	.LVU827
	.4byte	.LBB1533
	.4byte	.LBE1533-.LBB1533
	.byte	0x7
	.2byte	0x113
	.byte	0x3
	.4byte	0xad09
	.uleb128 0x5
	.4byte	0xc019
	.uleb128 0x3
	.4byte	0xc022
	.4byte	.LLST373
	.4byte	.LVUS373
	.byte	0
	.uleb128 0xc
	.4byte	0xc00b
	.4byte	.LBI1534
	.2byte	.LVU829
	.4byte	.LBB1534
	.4byte	.LBE1534-.LBB1534
	.byte	0x7
	.2byte	0x113
	.byte	0x3
	.4byte	0xad37
	.uleb128 0x5
	.4byte	0xc019
	.uleb128 0x3
	.4byte	0xc022
	.4byte	.LLST375
	.4byte	.LVUS375
	.byte	0
	.uleb128 0x1e
	.4byte	0x960e
	.4byte	.LBI1536
	.2byte	.LVU832
	.4byte	.LLRL376
	.byte	0x7
	.2byte	0x113
	.byte	0x3
	.4byte	0xb21e
	.uleb128 0x5
	.4byte	0x962a
	.uleb128 0x5
	.4byte	0x9637
	.uleb128 0x5
	.4byte	0x9644
	.uleb128 0xc
	.4byte	0xc00b
	.4byte	.LBI1537
	.2byte	.LVU833
	.4byte	.LBB1537
	.4byte	.LBE1537-.LBB1537
	.byte	0x3
	.2byte	0x39a
	.byte	0x41
	.4byte	0xad83
	.uleb128 0x5
	.4byte	0xc019
	.uleb128 0x5
	.4byte	0xc022
	.byte	0
	.uleb128 0xc
	.4byte	0x91e5
	.4byte	.LBI1538
	.2byte	.LVU835
	.4byte	.LBB1538
	.4byte	.LBE1538-.LBB1538
	.byte	0x3
	.2byte	0x39a
	.byte	0x41
	.4byte	0xadc6
	.uleb128 0x5
	.4byte	0x91f8
	.uleb128 0x10
	.4byte	0xc00b
	.4byte	.LBI1539
	.2byte	.LVU836
	.4byte	.LBB1539
	.4byte	.LBE1539-.LBB1539
	.byte	0xd
	.2byte	0x260
	.byte	0xe
	.uleb128 0x5
	.4byte	0xc019
	.uleb128 0x5
	.4byte	0xc022
	.byte	0
	.byte	0
	.uleb128 0xc
	.4byte	0xc00b
	.4byte	.LBI1540
	.2byte	.LVU838
	.4byte	.LBB1540
	.4byte	.LBE1540-.LBB1540
	.byte	0x3
	.2byte	0x39b
	.byte	0x1e
	.4byte	0xadec
	.uleb128 0x5
	.4byte	0xc019
	.uleb128 0x5
	.4byte	0xc022
	.byte	0
	.uleb128 0xc
	.4byte	0x91e5
	.4byte	.LBI1541
	.2byte	.LVU840
	.4byte	.LBB1541
	.4byte	.LBE1541-.LBB1541
	.byte	0x3
	.2byte	0x39b
	.byte	0x1e
	.4byte	0xae2f
	.uleb128 0x5
	.4byte	0x91f8
	.uleb128 0x10
	.4byte	0xc00b
	.4byte	.LBI1542
	.2byte	.LVU841
	.4byte	.LBB1542
	.4byte	.LBE1542-.LBB1542
	.byte	0xd
	.2byte	0x260
	.byte	0xe
	.uleb128 0x5
	.4byte	0xc019
	.uleb128 0x5
	.4byte	0xc022
	.byte	0
	.byte	0
	.uleb128 0xc
	.4byte	0xc00b
	.4byte	.LBI1543
	.2byte	.LVU843
	.4byte	.LBB1543
	.4byte	.LBE1543-.LBB1543
	.byte	0x3
	.2byte	0x39a
	.byte	0x2f
	.4byte	0xae55
	.uleb128 0x5
	.4byte	0xc019
	.uleb128 0x5
	.4byte	0xc022
	.byte	0
	.uleb128 0x1b
	.4byte	0x9197
	.4byte	.LBI1544
	.2byte	.LVU845
	.4byte	.LLRL383
	.byte	0x3
	.2byte	0x39c
	.byte	0x15
	.uleb128 0x5
	.4byte	0x91bd
	.uleb128 0x5
	.4byte	0x91ca
	.uleb128 0x5
	.4byte	0x91d7
	.uleb128 0xc
	.4byte	0xc00b
	.4byte	.LBI1546
	.2byte	.LVU846
	.4byte	.LBB1546
	.4byte	.LBE1546-.LBB1546
	.byte	0x3
	.2byte	0x33b
	.byte	0x17
	.4byte	0xae9d
	.uleb128 0x5
	.4byte	0xc019
	.uleb128 0x5
	.4byte	0xc022
	.byte	0
	.uleb128 0xc
	.4byte	0x8f07
	.4byte	.LBI1547
	.2byte	.LVU848
	.4byte	.LBB1547
	.4byte	.LBE1547-.LBB1547
	.byte	0x3
	.2byte	0x33b
	.byte	0x17
	.4byte	0xaee0
	.uleb128 0x5
	.4byte	0x8f1a
	.uleb128 0x10
	.4byte	0xc00b
	.4byte	.LBI1548
	.2byte	.LVU849
	.4byte	.LBB1548
	.4byte	.LBE1548-.LBB1548
	.byte	0x3
	.2byte	0x13e
	.byte	0xe
	.uleb128 0x5
	.4byte	0xc019
	.uleb128 0x5
	.4byte	0xc022
	.byte	0
	.byte	0
	.uleb128 0xc
	.4byte	0xc00b
	.4byte	.LBI1549
	.2byte	.LVU851
	.4byte	.LBB1549
	.4byte	.LBE1549-.LBB1549
	.byte	0x3
	.2byte	0x33b
	.byte	0x33
	.4byte	0xaf06
	.uleb128 0x5
	.4byte	0xc019
	.uleb128 0x5
	.4byte	0xc022
	.byte	0
	.uleb128 0xc
	.4byte	0x8f07
	.4byte	.LBI1550
	.2byte	.LVU853
	.4byte	.LBB1550
	.4byte	.LBE1550-.LBB1550
	.byte	0x3
	.2byte	0x33b
	.byte	0x33
	.4byte	0xaf49
	.uleb128 0x5
	.4byte	0x8f1a
	.uleb128 0x10
	.4byte	0xc00b
	.4byte	.LBI1551
	.2byte	.LVU854
	.4byte	.LBB1551
	.4byte	.LBE1551-.LBB1551
	.byte	0x3
	.2byte	0x13e
	.byte	0xe
	.uleb128 0x5
	.4byte	0xc019
	.uleb128 0x5
	.4byte	0xc022
	.byte	0
	.byte	0
	.uleb128 0xc
	.4byte	0xc00b
	.4byte	.LBI1552
	.2byte	.LVU856
	.4byte	.LBB1552
	.4byte	.LBE1552-.LBB1552
	.byte	0x3
	.2byte	0x33c
	.byte	0x17
	.4byte	0xaf6f
	.uleb128 0x5
	.4byte	0xc019
	.uleb128 0x5
	.4byte	0xc022
	.byte	0
	.uleb128 0xc
	.4byte	0x8f07
	.4byte	.LBI1553
	.2byte	.LVU858
	.4byte	.LBB1553
	.4byte	.LBE1553-.LBB1553
	.byte	0x3
	.2byte	0x33c
	.byte	0x17
	.4byte	0xafb2
	.uleb128 0x5
	.4byte	0x8f1a
	.uleb128 0x10
	.4byte	0xc00b
	.4byte	.LBI1554
	.2byte	.LVU859
	.4byte	.LBB1554
	.4byte	.LBE1554-.LBB1554
	.byte	0x3
	.2byte	0x13e
	.byte	0xe
	.uleb128 0x5
	.4byte	0xc019
	.uleb128 0x5
	.4byte	0xc022
	.byte	0
	.byte	0
	.uleb128 0x1e
	.4byte	0x8ea7
	.4byte	.LBI1555
	.2byte	.LVU861
	.4byte	.LLRL390
	.byte	0x3
	.2byte	0x33b
	.byte	0x5
	.4byte	0xb1c8
	.uleb128 0x5
	.4byte	0x8edf
	.uleb128 0x5
	.4byte	0x8eec
	.uleb128 0x5
	.4byte	0x8ef9
	.uleb128 0xc
	.4byte	0xc00b
	.4byte	.LBI1556
	.2byte	.LVU862
	.4byte	.LBB1556
	.4byte	.LBE1556-.LBB1556
	.byte	0x7
	.2byte	0x48d
	.byte	0x2f
	.4byte	0xaffe
	.uleb128 0x5
	.4byte	0xc019
	.uleb128 0x5
	.4byte	0xc022
	.byte	0
	.uleb128 0xc
	.4byte	0xc00b
	.4byte	.LBI1557
	.2byte	.LVU864
	.4byte	.LBB1557
	.4byte	.LBE1557-.LBB1557
	.byte	0x7
	.2byte	0x48d
	.byte	0x2f
	.4byte	0xb024
	.uleb128 0x5
	.4byte	0xc019
	.uleb128 0x5
	.4byte	0xc022
	.byte	0
	.uleb128 0xc
	.4byte	0xc00b
	.4byte	.LBI1558
	.2byte	.LVU866
	.4byte	.LBB1558
	.4byte	.LBE1558-.LBB1558
	.byte	0x7
	.2byte	0x48d
	.byte	0x2f
	.4byte	0xb04a
	.uleb128 0x5
	.4byte	0xc019
	.uleb128 0x5
	.4byte	0xc022
	.byte	0
	.uleb128 0x1b
	.4byte	0x8c12
	.4byte	.LBI1559
	.2byte	.LVU868
	.4byte	.LLRL397
	.byte	0x7
	.2byte	0x48d
	.byte	0x49
	.uleb128 0x5
	.4byte	0x8c4a
	.uleb128 0x5
	.4byte	0x8c57
	.uleb128 0x5
	.4byte	0x8c64
	.uleb128 0x1d
	.4byte	.LLRL397
	.uleb128 0xc
	.4byte	0xc00b
	.4byte	.LBI1563
	.2byte	.LVU870
	.4byte	.LBB1563
	.4byte	.LBE1563-.LBB1563
	.byte	0x7
	.2byte	0x46d
	.byte	0x34
	.4byte	0xb09f
	.uleb128 0x3
	.4byte	0xc019
	.4byte	.LLST398
	.4byte	.LVUS398
	.uleb128 0x5
	.4byte	0xc022
	.byte	0
	.uleb128 0x6a
	.4byte	0x8c71
	.4byte	.LBB1566
	.4byte	.LBE1566-.LBB1566
	.4byte	0xb0fe
	.uleb128 0x1f
	.4byte	0x8c72
	.4byte	.LLST400
	.4byte	.LVUS400
	.uleb128 0x1e
	.4byte	0xc00b
	.4byte	.LBI1567
	.2byte	.LVU887
	.4byte	.LLRL401
	.byte	0x7
	.2byte	0x472
	.byte	0x36
	.4byte	0xb0e7
	.uleb128 0x3
	.4byte	0xc019
	.4byte	.LLST402
	.4byte	.LVUS402
	.uleb128 0x5
	.4byte	0xc022
	.byte	0
	.uleb128 0x25
	.4byte	.LVL347
	.4byte	0x8795
	.uleb128 0x12
	.uleb128 0x1
	.byte	0x50
	.uleb128 0x2
	.byte	0x75
	.sleb128 0
	.uleb128 0x12
	.uleb128 0x1
	.byte	0x53
	.uleb128 0x2
	.byte	0x77
	.sleb128 0
	.byte	0
	.byte	0
	.uleb128 0xc
	.4byte	0xc00b
	.4byte	.LBI1573
	.2byte	.LVU900
	.4byte	.LBB1573
	.4byte	.LBE1573-.LBB1573
	.byte	0x7
	.2byte	0x475
	.byte	0x30
	.4byte	0xb12c
	.uleb128 0x3
	.4byte	0xc019
	.4byte	.LLST404
	.4byte	.LVUS404
	.uleb128 0x5
	.4byte	0xc022
	.byte	0
	.uleb128 0xc
	.4byte	0xc00b
	.4byte	.LBI1576
	.2byte	.LVU965
	.4byte	.LBB1576
	.4byte	.LBE1576-.LBB1576
	.byte	0x7
	.2byte	0x479
	.byte	0x33
	.4byte	0xb15a
	.uleb128 0x3
	.4byte	0xc019
	.4byte	.LLST406
	.4byte	.LVUS406
	.uleb128 0x5
	.4byte	0xc022
	.byte	0
	.uleb128 0x57
	.4byte	.LVL339
	.4byte	0x8795
	.4byte	0xb17d
	.uleb128 0x12
	.uleb128 0x1
	.byte	0x50
	.uleb128 0x2
	.byte	0x75
	.sleb128 0
	.uleb128 0x12
	.uleb128 0x1
	.byte	0x51
	.uleb128 0x4
	.byte	0x91
	.sleb128 -288
	.byte	0x6
	.uleb128 0x12
	.uleb128 0x1
	.byte	0x53
	.uleb128 0x3
	.byte	0x91
	.sleb128 -184
	.byte	0
	.uleb128 0x57
	.4byte	.LVL353
	.4byte	0x8795
	.4byte	0xb1a7
	.uleb128 0x12
	.uleb128 0x1
	.byte	0x50
	.uleb128 0x3
	.byte	0x91
	.sleb128 -264
	.uleb128 0x12
	.uleb128 0x1
	.byte	0x51
	.uleb128 0x2
	.byte	0x7b
	.sleb128 0
	.uleb128 0x12
	.uleb128 0x1
	.byte	0x52
	.uleb128 0x4
	.byte	0x91
	.sleb128 -284
	.byte	0x6
	.uleb128 0x12
	.uleb128 0x1
	.byte	0x53
	.uleb128 0x3
	.byte	0x91
	.sleb128 -232
	.byte	0
	.uleb128 0x25
	.4byte	.LVL371
	.4byte	0x8795
	.uleb128 0x12
	.uleb128 0x1
	.byte	0x50
	.uleb128 0x3
	.byte	0x91
	.sleb128 -264
	.uleb128 0x12
	.uleb128 0x1
	.byte	0x51
	.uleb128 0x2
	.byte	0x7b
	.sleb128 0
	.uleb128 0x12
	.uleb128 0x1
	.byte	0x53
	.uleb128 0x3
	.byte	0x91
	.sleb128 -248
	.byte	0
	.byte	0
	.byte	0
	.byte	0
	.uleb128 0x10
	.4byte	0x8e81
	.4byte	.LBI1582
	.2byte	.LVU975
	.4byte	.LBB1582
	.4byte	.LBE1582-.LBB1582
	.byte	0x3
	.2byte	0x33c
	.byte	0x22
	.uleb128 0x5
	.4byte	0x8e94
	.uleb128 0x3
	.4byte	0x8e99
	.4byte	.LLST409
	.4byte	.LVUS409
	.uleb128 0x10
	.4byte	0xc00b
	.4byte	.LBI1583
	.2byte	.LVU976
	.4byte	.LBB1583
	.4byte	.LBE1583-.LBB1583
	.byte	0x3
	.2byte	0x162
	.byte	0xe
	.uleb128 0x5
	.4byte	0xc019
	.uleb128 0x3
	.4byte	0xc022
	.4byte	.LLST411
	.4byte	.LVUS411
	.byte	0
	.byte	0
	.byte	0
	.byte	0
	.uleb128 0x1e
	.4byte	0xc3c9
	.4byte	.LBI1586
	.2byte	.LVU909
	.4byte	.LLRL412
	.byte	0x7
	.2byte	0x114
	.byte	0x1f
	.4byte	0xb269
	.uleb128 0x3
	.4byte	0xc3d7
	.4byte	.LLST413
	.4byte	.LVUS413
	.uleb128 0x1b
	.4byte	0xc00b
	.4byte	.LBI1587
	.2byte	.LVU910
	.4byte	.LLRL412
	.byte	0x4
	.2byte	0x480
	.byte	0x1e
	.uleb128 0x5
	.4byte	0xc019
	.uleb128 0x3
	.4byte	0xc022
	.4byte	.LLST415
	.4byte	.LVUS415
	.byte	0
	.byte	0
	.uleb128 0x1e
	.4byte	0xc397
	.4byte	.LBI1591
	.2byte	.LVU915
	.4byte	.LLRL416
	.byte	0x7
	.2byte	0x114
	.byte	0x22
	.4byte	0xb339
	.uleb128 0x5
	.4byte	0xc3a1
	.uleb128 0x3
	.4byte	0xc3ae
	.4byte	.LLST418
	.4byte	.LVUS418
	.uleb128 0x1d
	.4byte	.LLRL416
	.uleb128 0x3c
	.4byte	0xc3bb
	.uleb128 0x1e
	.4byte	0xc00b
	.4byte	.LBI1593
	.2byte	.LVU916
	.4byte	.LLRL419
	.byte	0x4
	.2byte	0x18f
	.byte	0x8
	.4byte	0xb2be
	.uleb128 0x5
	.4byte	0xc019
	.uleb128 0x5
	.4byte	0xc022
	.byte	0
	.uleb128 0x1b
	.4byte	0xbfcd
	.4byte	.LBI1595
	.2byte	.LVU918
	.4byte	.LLRL422
	.byte	0x4
	.2byte	0x190
	.byte	0x8
	.uleb128 0x5
	.4byte	0xbfdb
	.uleb128 0x3
	.4byte	0xbfe4
	.4byte	.LLST424
	.4byte	.LVUS424
	.uleb128 0x1d
	.4byte	.LLRL422
	.uleb128 0x1f
	.4byte	0xbff0
	.4byte	.LLST425
	.4byte	.LVUS425
	.uleb128 0x41
	.4byte	0xbffc
	.4byte	.LLRL426
	.uleb128 0x1f
	.4byte	0xbffd
	.4byte	.LLST427
	.4byte	.LVUS427
	.uleb128 0x27
	.4byte	0xa9e2
	.4byte	.LBI1599
	.2byte	.LVU983
	.4byte	.LBB1599
	.4byte	.LBE1599-.LBB1599
	.byte	0x4
	.byte	0xf1
	.byte	0x11
	.uleb128 0x5
	.4byte	0xa9f0
	.uleb128 0x3
	.4byte	0xa9f9
	.4byte	.LLST429
	.4byte	.LVUS429
	.byte	0
	.byte	0
	.byte	0
	.byte	0
	.byte	0
	.byte	0
	.uleb128 0xc
	.4byte	0x95e9
	.4byte	.LBI1622
	.2byte	.LVU991
	.4byte	.LBB1622
	.4byte	.LBE1622-.LBB1622
	.byte	0x7
	.2byte	0x114
	.byte	0x19
	.4byte	0xb3f6
	.uleb128 0x3
	.4byte	0x95f7
	.4byte	.LLST430
	.4byte	.LVUS430
	.uleb128 0x5
	.4byte	0x9600
	.uleb128 0xc
	.4byte	0xc3c9
	.4byte	.LBI1624
	.2byte	.LVU992
	.4byte	.LBB1624
	.4byte	.LBE1624-.LBB1624
	.byte	0x4
	.2byte	0x832
	.byte	0x17
	.4byte	0xb3b9
	.uleb128 0x3
	.4byte	0xc3d7
	.4byte	.LLST431
	.4byte	.LVUS431
	.uleb128 0x10
	.4byte	0xc00b
	.4byte	.LBI1625
	.2byte	.LVU993
	.4byte	.LBB1625
	.4byte	.LBE1625-.LBB1625
	.byte	0x4
	.2byte	0x480
	.byte	0x1e
	.uleb128 0x5
	.4byte	0xc019
	.uleb128 0x3
	.4byte	0xc022
	.4byte	.LLST432
	.4byte	.LVUS432
	.byte	0
	.byte	0
	.uleb128 0xc
	.4byte	0xc00b
	.4byte	.LBI1626
	.2byte	.LVU995
	.4byte	.LBB1626
	.4byte	.LBE1626-.LBB1626
	.byte	0x4
	.2byte	0x832
	.byte	0x11
	.4byte	0xb3df
	.uleb128 0x5
	.4byte	0xc019
	.uleb128 0x5
	.4byte	0xc022
	.byte	0
	.uleb128 0x25
	.4byte	.LVL379
	.4byte	0xc1ca
	.uleb128 0x12
	.uleb128 0x1
	.byte	0x50
	.uleb128 0x2
	.byte	0x74
	.sleb128 0
	.uleb128 0x12
	.uleb128 0x1
	.byte	0x52
	.uleb128 0x2
	.byte	0x79
	.sleb128 0
	.byte	0
	.byte	0
	.uleb128 0xc
	.4byte	0xc3c9
	.4byte	.LBI1627
	.2byte	.LVU1000
	.4byte	.LBB1627
	.4byte	.LBE1627-.LBB1627
	.byte	0x7
	.2byte	0x11c
	.byte	0x10
	.4byte	0xb449
	.uleb128 0x3
	.4byte	0xc3d7
	.4byte	.LLST434
	.4byte	.LVUS434
	.uleb128 0x10
	.4byte	0xc00b
	.4byte	.LBI1628
	.2byte	.LVU1001
	.4byte	.LBB1628
	.4byte	.LBE1628-.LBB1628
	.byte	0x4
	.2byte	0x480
	.byte	0x1e
	.uleb128 0x5
	.4byte	0xc019
	.uleb128 0x3
	.4byte	0xc022
	.4byte	.LLST436
	.4byte	.LVUS436
	.byte	0
	.byte	0
	.uleb128 0x1e
	.4byte	0xc397
	.4byte	.LBI1630
	.2byte	.LVU1007
	.4byte	.LLRL437
	.byte	0x7
	.2byte	0x11c
	.byte	0x15
	.4byte	0xb535
	.uleb128 0x5
	.4byte	0xc3a1
	.uleb128 0x3
	.4byte	0xc3ae
	.4byte	.LLST439
	.4byte	.LVUS439
	.uleb128 0x1d
	.4byte	.LLRL437
	.uleb128 0x3c
	.4byte	0xc3bb
	.uleb128 0xc
	.4byte	0xc00b
	.4byte	.LBI1632
	.2byte	.LVU1008
	.4byte	.LBB1632
	.4byte	.LBE1632-.LBB1632
	.byte	0x4
	.2byte	0x18f
	.byte	0x8
	.4byte	0xb4aa
	.uleb128 0x3
	.4byte	0xc019
	.4byte	.LLST440
	.4byte	.LVUS440
	.uleb128 0x5
	.4byte	0xc022
	.byte	0
	.uleb128 0x1b
	.4byte	0xbfcd
	.4byte	.LBI1634
	.2byte	.LVU1014
	.4byte	.LLRL442
	.byte	0x4
	.2byte	0x190
	.byte	0x8
	.uleb128 0x3
	.4byte	0xbfdb
	.4byte	.LLST443
	.4byte	.LVUS443
	.uleb128 0x3
	.4byte	0xbfe4
	.4byte	.LLST444
	.4byte	.LVUS444
	.uleb128 0x1d
	.4byte	.LLRL442
	.uleb128 0x1f
	.4byte	0xbff0
	.4byte	.LLST445
	.4byte	.LVUS445
	.uleb128 0x41
	.4byte	0xbffc
	.4byte	.LLRL446
	.uleb128 0x1f
	.4byte	0xbffd
	.4byte	.LLST447
	.4byte	.LVUS447
	.uleb128 0x27
	.4byte	0xa9e2
	.4byte	.LBI1638
	.2byte	.LVU1180
	.4byte	.LBB1638
	.4byte	.LBE1638-.LBB1638
	.byte	0x4
	.byte	0xf1
	.byte	0x11
	.uleb128 0x3
	.4byte	0xa9f0
	.4byte	.LLST448
	.4byte	.LVUS448
	.uleb128 0x3
	.4byte	0xa9f9
	.4byte	.LLST449
	.4byte	.LVUS449
	.byte	0
	.byte	0
	.byte	0
	.byte	0
	.byte	0
	.byte	0
	.uleb128 0xc
	.4byte	0xc173
	.4byte	.LBI1650
	.2byte	.LVU1027
	.4byte	.LBB1650
	.4byte	.LBE1650-.LBB1650
	.byte	0x7
	.2byte	0x118
	.byte	0x19
	.4byte	0xb588
	.uleb128 0x3
	.4byte	0xc181
	.4byte	.LLST450
	.4byte	.LVUS450
	.uleb128 0x10
	.4byte	0xc00b
	.4byte	.LBI1651
	.2byte	.LVU1028
	.4byte	.LBB1651
	.4byte	.LBE1651-.LBB1651
	.byte	0x4
	.2byte	0x493
	.byte	0x1e
	.uleb128 0x5
	.4byte	0xc019
	.uleb128 0x3
	.4byte	0xc022
	.4byte	.LLST452
	.4byte	.LVUS452
	.byte	0
	.byte	0
	.uleb128 0x1e
	.4byte	0xc00b
	.4byte	.LBI1652
	.2byte	.LVU1031
	.4byte	.LLRL453
	.byte	0x7
	.2byte	0x119
	.byte	0x3
	.4byte	0xb5b2
	.uleb128 0x5
	.4byte	0xc019
	.uleb128 0x3
	.4byte	0xc022
	.4byte	.LLST455
	.4byte	.LVUS455
	.byte	0
	.uleb128 0xc
	.4byte	0xc173
	.4byte	.LBI1654
	.2byte	.LVU1033
	.4byte	.LBB1654
	.4byte	.LBE1654-.LBB1654
	.byte	0x7
	.2byte	0x119
	.byte	0x3
	.4byte	0xb605
	.uleb128 0x3
	.4byte	0xc181
	.4byte	.LLST456
	.4byte	.LVUS456
	.uleb128 0x10
	.4byte	0xc00b
	.4byte	.LBI1655
	.2byte	.LVU1034
	.4byte	.LBB1655
	.4byte	.LBE1655-.LBB1655
	.byte	0x4
	.2byte	0x493
	.byte	0x1e
	.uleb128 0x5
	.4byte	0xc019
	.uleb128 0x3
	.4byte	0xc022
	.4byte	.LLST458
	.4byte	.LVUS458
	.byte	0
	.byte	0
	.uleb128 0xc
	.4byte	0xc00b
	.4byte	.LBI1656
	.2byte	.LVU1036
	.4byte	.LBB1656
	.4byte	.LBE1656-.LBB1656
	.byte	0x7
	.2byte	0x119
	.byte	0x3
	.4byte	0xb633
	.uleb128 0x5
	.4byte	0xc019
	.uleb128 0x3
	.4byte	0xc022
	.4byte	.LLST460
	.4byte	.LVUS460
	.byte	0
	.uleb128 0x1e
	.4byte	0x95a5
	.4byte	.LBI1657
	.2byte	.LVU1038
	.4byte	.LLRL461
	.byte	0x7
	.2byte	0x119
	.byte	0x3
	.4byte	0xbb24
	.uleb128 0x5
	.4byte	0x95c1
	.uleb128 0x5
	.4byte	0x95ce
	.uleb128 0x5
	.4byte	0x95db
	.uleb128 0xc
	.4byte	0xc00b
	.4byte	.LBI1658
	.2byte	.LVU1039
	.4byte	.LBB1658
	.4byte	.LBE1658-.LBB1658
	.byte	0x3
	.2byte	0x2ab
	.byte	0x38
	.4byte	0xb67f
	.uleb128 0x5
	.4byte	0xc019
	.uleb128 0x5
	.4byte	0xc022
	.byte	0
	.uleb128 0xc
	.4byte	0x91e5
	.4byte	.LBI1659
	.2byte	.LVU1041
	.4byte	.LBB1659
	.4byte	.LBE1659-.LBB1659
	.byte	0x3
	.2byte	0x2ab
	.byte	0x38
	.4byte	0xb6c2
	.uleb128 0x5
	.4byte	0x91f8
	.uleb128 0x10
	.4byte	0xc00b
	.4byte	.LBI1660
	.2byte	.LVU1042
	.4byte	.LBB1660
	.4byte	.LBE1660-.LBB1660
	.byte	0xd
	.2byte	0x260
	.byte	0xe
	.uleb128 0x5
	.4byte	0xc019
	.uleb128 0x5
	.4byte	0xc022
	.byte	0
	.byte	0
	.uleb128 0xc
	.4byte	0xc00b
	.4byte	.LBI1661
	.2byte	.LVU1044
	.4byte	.LBB1661
	.4byte	.LBE1661-.LBB1661
	.byte	0x3
	.2byte	0x2ac
	.byte	0x1c
	.4byte	0xb6e8
	.uleb128 0x5
	.4byte	0xc019
	.uleb128 0x5
	.4byte	0xc022
	.byte	0
	.uleb128 0xc
	.4byte	0x91e5
	.4byte	.LBI1662
	.2byte	.LVU1046
	.4byte	.LBB1662
	.4byte	.LBE1662-.LBB1662
	.byte	0x3
	.2byte	0x2ac
	.byte	0x1c
	.4byte	0xb72b
	.uleb128 0x5
	.4byte	0x91f8
	.uleb128 0x10
	.4byte	0xc00b
	.4byte	.LBI1663
	.2byte	.LVU1047
	.4byte	.LBB1663
	.4byte	.LBE1663-.LBB1663
	.byte	0xd
	.2byte	0x260
	.byte	0xe
	.uleb128 0x5
	.4byte	0xc019
	.uleb128 0x5
	.4byte	0xc022
	.byte	0
	.byte	0
	.uleb128 0xc
	.4byte	0xc00b
	.4byte	.LBI1664
	.2byte	.LVU1049
	.4byte	.LBB1664
	.4byte	.LBE1664-.LBB1664
	.byte	0x3
	.2byte	0x2ab
	.byte	0x26
	.4byte	0xb751
	.uleb128 0x5
	.4byte	0xc019
	.uleb128 0x5
	.4byte	0xc022
	.byte	0
	.uleb128 0x1b
	.4byte	0x9149
	.4byte	.LBI1665
	.2byte	.LVU1051
	.4byte	.LLRL468
	.byte	0x3
	.2byte	0x2ac
	.byte	0x2e
	.uleb128 0x5
	.4byte	0x916f
	.uleb128 0x5
	.4byte	0x917c
	.uleb128 0x5
	.4byte	0x9189
	.uleb128 0xc
	.4byte	0xc00b
	.4byte	.LBI1667
	.2byte	.LVU1052
	.4byte	.LBB1667
	.4byte	.LBE1667-.LBB1667
	.byte	0x3
	.2byte	0x22c
	.byte	0x31
	.4byte	0xb799
	.uleb128 0x5
	.4byte	0xc019
	.uleb128 0x5
	.4byte	0xc022
	.byte	0
	.uleb128 0xc
	.4byte	0x8f07
	.4byte	.LBI1668
	.2byte	.LVU1054
	.4byte	.LBB1668
	.4byte	.LBE1668-.LBB1668
	.byte	0x3
	.2byte	0x22c
	.byte	0x31
	.4byte	0xb7dc
	.uleb128 0x5
	.4byte	0x8f1a
	.uleb128 0x10
	.4byte	0xc00b
	.4byte	.LBI1669
	.2byte	.LVU1055
	.4byte	.LBB1669
	.4byte	.LBE1669-.LBB1669
	.byte	0x3
	.2byte	0x13e
	.byte	0xe
	.uleb128 0x5
	.4byte	0xc019
	.uleb128 0x5
	.4byte	0xc022
	.byte	0
	.byte	0
	.uleb128 0xc
	.4byte	0xc00b
	.4byte	.LBI1670
	.2byte	.LVU1057
	.4byte	.LBB1670
	.4byte	.LBE1670-.LBB1670
	.byte	0x3
	.2byte	0x22d
	.byte	0x1c
	.4byte	0xb802
	.uleb128 0x5
	.4byte	0xc019
	.uleb128 0x5
	.4byte	0xc022
	.byte	0
	.uleb128 0xc
	.4byte	0x8f07
	.4byte	.LBI1671
	.2byte	.LVU1059
	.4byte	.LBB1671
	.4byte	.LBE1671-.LBB1671
	.byte	0x3
	.2byte	0x22d
	.byte	0x1c
	.4byte	0xb845
	.uleb128 0x5
	.4byte	0x8f1a
	.uleb128 0x10
	.4byte	0xc00b
	.4byte	.LBI1672
	.2byte	.LVU1060
	.4byte	.LBB1672
	.4byte	.LBE1672-.LBB1672
	.byte	0x3
	.2byte	0x13e
	.byte	0xe
	.uleb128 0x5
	.4byte	0xc019
	.uleb128 0x5
	.4byte	0xc022
	.byte	0
	.byte	0
	.uleb128 0xc
	.4byte	0xc00b
	.4byte	.LBI1673
	.2byte	.LVU1062
	.4byte	.LBB1673
	.4byte	.LBE1673-.LBB1673
	.byte	0x3
	.2byte	0x22e
	.byte	0x1c
	.4byte	0xb86b
	.uleb128 0x5
	.4byte	0xc019
	.uleb128 0x5
	.4byte	0xc022
	.byte	0
	.uleb128 0xc
	.4byte	0x8f07
	.4byte	.LBI1674
	.2byte	.LVU1064
	.4byte	.LBB1674
	.4byte	.LBE1674-.LBB1674
	.byte	0x3
	.2byte	0x22e
	.byte	0x1c
	.4byte	0xb8ae
	.uleb128 0x5
	.4byte	0x8f1a
	.uleb128 0x10
	.4byte	0xc00b
	.4byte	.LBI1675
	.2byte	.LVU1065
	.4byte	.LBB1675
	.4byte	.LBE1675-.LBB1675
	.byte	0x3
	.2byte	0x13e
	.byte	0xe
	.uleb128 0x5
	.4byte	0xc019
	.uleb128 0x5
	.4byte	0xc022
	.byte	0
	.byte	0
	.uleb128 0x1e
	.4byte	0x8e21
	.4byte	.LBI1676
	.2byte	.LVU1067
	.4byte	.LLRL475
	.byte	0x3
	.2byte	0x22c
	.byte	0x1f
	.4byte	0xbace
	.uleb128 0x5
	.4byte	0x8e59
	.uleb128 0x5
	.4byte	0x8e66
	.uleb128 0x5
	.4byte	0x8e73
	.uleb128 0xc
	.4byte	0xc00b
	.4byte	.LBI1677
	.2byte	.LVU1068
	.4byte	.LBB1677
	.4byte	.LBE1677-.LBB1677
	.byte	0x7
	.2byte	0x413
	.byte	0x26
	.4byte	0xb8fa
	.uleb128 0x5
	.4byte	0xc019
	.uleb128 0x5
	.4byte	0xc022
	.byte	0
	.uleb128 0xc
	.4byte	0xc00b
	.4byte	.LBI1678
	.2byte	.LVU1070
	.4byte	.LBB1678
	.4byte	.LBE1678-.LBB1678
	.byte	0x7
	.2byte	0x413
	.byte	0x26
	.4byte	0xb920
	.uleb128 0x5
	.4byte	0xc019
	.uleb128 0x5
	.4byte	0xc022
	.byte	0
	.uleb128 0xc
	.4byte	0xc00b
	.4byte	.LBI1679
	.2byte	.LVU1072
	.4byte	.LBB1679
	.4byte	.LBE1679-.LBB1679
	.byte	0x7
	.2byte	0x413
	.byte	0x26
	.4byte	0xb946
	.uleb128 0x5
	.4byte	0xc019
	.uleb128 0x5
	.4byte	0xc022
	.byte	0
	.uleb128 0x1b
	.4byte	0x8ba3
	.4byte	.LBI1680
	.2byte	.LVU1074
	.4byte	.LLRL482
	.byte	0x7
	.2byte	0x413
	.byte	0x40
	.uleb128 0x5
	.4byte	0x8bdb
	.uleb128 0x5
	.4byte	0x8be8
	.uleb128 0x5
	.4byte	0x8bf5
	.uleb128 0x1d
	.4byte	.LLRL482
	.uleb128 0xc
	.4byte	0xc00b
	.4byte	.LBI1684
	.2byte	.LVU1078
	.4byte	.LBB1684
	.4byte	.LBE1684-.LBB1684
	.byte	0x7
	.2byte	0x3f3
	.byte	0x24
	.4byte	0xb99b
	.uleb128 0x3
	.4byte	0xc019
	.4byte	.LLST483
	.4byte	.LVUS483
	.uleb128 0x5
	.4byte	0xc022
	.byte	0
	.uleb128 0x6a
	.4byte	0x8c02
	.4byte	.LBB1687
	.4byte	.LBE1687-.LBB1687
	.4byte	0xb9fa
	.uleb128 0x1f
	.4byte	0x8c03
	.4byte	.LLST485
	.4byte	.LVUS485
	.uleb128 0x1e
	.4byte	0xc00b
	.4byte	.LBI1688
	.2byte	.LVU1094
	.4byte	.LLRL486
	.byte	0x7
	.2byte	0x3f9
	.byte	0x26
	.4byte	0xb9e3
	.uleb128 0x3
	.4byte	0xc019
	.4byte	.LLST487
	.4byte	.LVUS487
	.uleb128 0x5
	.4byte	0xc022
	.byte	0
	.uleb128 0x25
	.4byte	.LVL401
	.4byte	0x84ef
	.uleb128 0x12
	.uleb128 0x1
	.byte	0x50
	.uleb128 0x2
	.byte	0x77
	.sleb128 0
	.uleb128 0x12
	.uleb128 0x1
	.byte	0x53
	.uleb128 0x2
	.byte	0x74
	.sleb128 0
	.byte	0
	.byte	0
	.uleb128 0xc
	.4byte	0xc00b
	.4byte	.LBI1694
	.2byte	.LVU1106
	.4byte	.LBB1694
	.4byte	.LBE1694-.LBB1694
	.byte	0x7
	.2byte	0x3fd
	.byte	0x27
	.4byte	0xba28
	.uleb128 0x3
	.4byte	0xc019
	.4byte	.LLST489
	.4byte	.LVUS489
	.uleb128 0x5
	.4byte	0xc022
	.byte	0
	.uleb128 0xc
	.4byte	0xc00b
	.4byte	.LBI1698
	.2byte	.LVU1135
	.4byte	.LBB1698
	.4byte	.LBE1698-.LBB1698
	.byte	0x7
	.2byte	0x401
	.byte	0x2a
	.4byte	0xba56
	.uleb128 0x3
	.4byte	0xc019
	.4byte	.LLST491
	.4byte	.LVUS491
	.uleb128 0x5
	.4byte	0xc022
	.byte	0
	.uleb128 0x57
	.4byte	.LVL395
	.4byte	0x84ef
	.4byte	0xba77
	.uleb128 0x12
	.uleb128 0x1
	.byte	0x50
	.uleb128 0x2
	.byte	0x75
	.sleb128 0
	.uleb128 0x12
	.uleb128 0x1
	.byte	0x51
	.uleb128 0x2
	.byte	0x77
	.sleb128 0
	.uleb128 0x12
	.uleb128 0x1
	.byte	0x53
	.uleb128 0x3
	.byte	0x91
	.sleb128 -72
	.byte	0
	.uleb128 0x57
	.4byte	.LVL407
	.4byte	0x84ef
	.4byte	0xbaa3
	.uleb128 0x12
	.uleb128 0x1
	.byte	0x50
	.uleb128 0x3
	.byte	0x91
	.sleb128 -152
	.uleb128 0x12
	.uleb128 0x1
	.byte	0x51
	.uleb128 0x4
	.byte	0x91
	.sleb128 -276
	.byte	0x6
	.uleb128 0x12
	.uleb128 0x1
	.byte	0x52
	.uleb128 0x4
	.byte	0x91
	.sleb128 -272
	.byte	0x6
	.uleb128 0x12
	.uleb128 0x1
	.byte	0x53
	.uleb128 0x3
	.byte	0x91
	.sleb128 -120
	.byte	0
	.uleb128 0x25
	.4byte	.LVL416
	.4byte	0x84ef
	.uleb128 0x12
	.uleb128 0x1
	.byte	0x50
	.uleb128 0x3
	.byte	0x91
	.sleb128 -152
	.uleb128 0x12
	.uleb128 0x1
	.byte	0x51
	.uleb128 0x4
	.byte	0x91
	.sleb128 -300
	.byte	0x6
	.uleb128 0x12
	.uleb128 0x1
	.byte	0x52
	.uleb128 0x4
	.byte	0x91
	.sleb128 -272
	.byte	0x6
	.uleb128 0x12
	.uleb128 0x1
	.byte	0x53
	.uleb128 0x3
	.byte	0x91
	.sleb128 -136
	.byte	0
	.byte	0
	.byte	0
	.byte	0
	.uleb128 0x10
	.4byte	0x8e81
	.4byte	.LBI1707
	.2byte	.LVU1146
	.4byte	.LBB1707
	.4byte	.LBE1707-.LBB1707
	.byte	0x3
	.2byte	0x22e
	.byte	0x27
	.uleb128 0x5
	.4byte	0x8e94
	.uleb128 0x3
	.4byte	0x8e99
	.4byte	.LLST494
	.4byte	.LVUS494
	.uleb128 0x10
	.4byte	0xc00b
	.4byte	.LBI1708
	.2byte	.LVU1147
	.4byte	.LBB1708
	.4byte	.LBE1708-.LBB1708
	.byte	0x3
	.2byte	0x162
	.byte	0xe
	.uleb128 0x5
	.4byte	0xc019
	.uleb128 0x3
	.4byte	0xc022
	.4byte	.LLST496
	.4byte	.LVUS496
	.byte	0
	.byte	0
	.byte	0
	.byte	0
	.uleb128 0x1e
	.4byte	0xc173
	.4byte	.LBI1715
	.2byte	.LVU1116
	.4byte	.LLRL497
	.byte	0x7
	.2byte	0x11a
	.byte	0x1b
	.4byte	0xbb6f
	.uleb128 0x3
	.4byte	0xc181
	.4byte	.LLST498
	.4byte	.LVUS498
	.uleb128 0x1b
	.4byte	0xc00b
	.4byte	.LBI1716
	.2byte	.LVU1117
	.4byte	.LLRL497
	.byte	0x4
	.2byte	0x493
	.byte	0x1e
	.uleb128 0x5
	.4byte	0xc019
	.uleb128 0x3
	.4byte	0xc022
	.4byte	.LLST500
	.4byte	.LVUS500
	.byte	0
	.byte	0
	.uleb128 0x1e
	.4byte	0x954e
	.4byte	.LBI1720
	.2byte	.LVU1122
	.4byte	.LLRL501
	.byte	0x7
	.2byte	0x11a
	.byte	0x1e
	.4byte	0xbc64
	.uleb128 0x5
	.4byte	0x9558
	.uleb128 0x3
	.4byte	0x9565
	.4byte	.LLST503
	.4byte	.LVUS503
	.uleb128 0x1d
	.4byte	.LLRL501
	.uleb128 0x3c
	.4byte	0x9572
	.uleb128 0x1e
	.4byte	0xc00b
	.4byte	.LBI1722
	.2byte	.LVU1123
	.4byte	.LLRL504
	.byte	0x4
	.2byte	0x198
	.byte	0x8
	.4byte	0xbbc4
	.uleb128 0x5
	.4byte	0xc019
	.uleb128 0x5
	.4byte	0xc022
	.byte	0
	.uleb128 0x1b
	.4byte	0x9125
	.4byte	.LBI1724
	.2byte	.LVU1125
	.4byte	.LLRL507
	.byte	0x4
	.2byte	0x199
	.byte	0x8
	.uleb128 0x5
	.4byte	0x9133
	.uleb128 0x3
	.4byte	0x913c
	.4byte	.LLST509
	.4byte	.LVUS509
	.uleb128 0x52
	.4byte	0xbfcd
	.4byte	.LBI1725
	.2byte	.LVU1126
	.4byte	.LLRL507
	.byte	0x4
	.byte	0xfa
	.byte	0x16
	.uleb128 0x5
	.4byte	0xbfdb
	.uleb128 0x3
	.4byte	0xbfe4
	.4byte	.LLST511
	.4byte	.LVUS511
	.uleb128 0x1d
	.4byte	.LLRL507
	.uleb128 0x1f
	.4byte	0xbff0
	.4byte	.LLST512
	.4byte	.LVUS512
	.uleb128 0x41
	.4byte	0xbffc
	.4byte	.LLRL513
	.uleb128 0x1f
	.4byte	0xbffd
	.4byte	.LLST514
	.4byte	.LVUS514
	.uleb128 0x27
	.4byte	0xa9e2
	.4byte	.LBI1729
	.2byte	.LVU1154
	.4byte	.LBB1729
	.4byte	.LBE1729-.LBB1729
	.byte	0x4
	.byte	0xf1
	.byte	0x11
	.uleb128 0x5
	.4byte	0xa9f0
	.uleb128 0x3
	.4byte	0xa9f9
	.4byte	.LLST516
	.4byte	.LVUS516
	.byte	0
	.byte	0
	.byte	0
	.byte	0
	.byte	0
	.byte	0
	.byte	0
	.uleb128 0x10
	.4byte	0x9580
	.4byte	.LBI1756
	.2byte	.LVU1162
	.4byte	.LBB1756
	.4byte	.LBE1756-.LBB1756
	.byte	0x7
	.2byte	0x11a
	.byte	0x17
	.uleb128 0x3
	.4byte	0x958e
	.4byte	.LLST517
	.4byte	.LVUS517
	.uleb128 0x5
	.4byte	0x9597
	.uleb128 0xc
	.4byte	0xc00b
	.4byte	.LBI1758
	.2byte	.LVU1163
	.4byte	.LBB1758
	.4byte	.LBE1758-.LBB1758
	.byte	0x4
	.2byte	0x83c
	.byte	0x11
	.4byte	0xbcb3
	.uleb128 0x5
	.4byte	0xc019
	.uleb128 0x5
	.4byte	0xc022
	.byte	0
	.uleb128 0xc
	.4byte	0xc173
	.4byte	.LBI1759
	.2byte	.LVU1165
	.4byte	.LBB1759
	.4byte	.LBE1759-.LBB1759
	.byte	0x4
	.2byte	0x83c
	.byte	0x1c
	.4byte	0xbd06
	.uleb128 0x3
	.4byte	0xc181
	.4byte	.LLST519
	.4byte	.LVUS519
	.uleb128 0x10
	.4byte	0xc00b
	.4byte	.LBI1760
	.2byte	.LVU1166
	.4byte	.LBB1760
	.4byte	.LBE1760-.LBB1760
	.byte	0x4
	.2byte	0x493
	.byte	0x1e
	.uleb128 0x5
	.4byte	0xc019
	.uleb128 0x3
	.4byte	0xc022
	.4byte	.LLST520
	.4byte	.LVUS520
	.byte	0
	.byte	0
	.uleb128 0x25
	.4byte	.LVL425
	.4byte	0xc1ca
	.uleb128 0x12
	.uleb128 0x1
	.byte	0x50
	.uleb128 0x2
	.byte	0x74
	.sleb128 0
	.uleb128 0x12
	.uleb128 0x1
	.byte	0x51
	.uleb128 0x2
	.byte	0x79
	.sleb128 4
	.byte	0
	.byte	0
	.byte	0
	.uleb128 0xc
	.4byte	0x968f
	.4byte	.LBI1510
	.2byte	.LVU760
	.4byte	.LBB1510
	.4byte	.LBE1510-.LBB1510
	.byte	0x7
	.2byte	0x105
	.byte	0x13
	.4byte	0xbd54
	.uleb128 0x3
	.4byte	0x9699
	.4byte	.LLST347
	.4byte	.LVUS347
	.uleb128 0x3
	.4byte	0x96a6
	.4byte	.LLST348
	.4byte	.LVUS348
	.byte	0
	.uleb128 0x1e
	.4byte	0xc3c9
	.4byte	.LBI1513
	.2byte	.LVU766
	.4byte	.LLRL349
	.byte	0x7
	.2byte	0x107
	.byte	0x20
	.4byte	0xbd9f
	.uleb128 0x3
	.4byte	0xc3d7
	.4byte	.LLST350
	.4byte	.LVUS350
	.uleb128 0x1b
	.4byte	0xc00b
	.4byte	.LBI1514
	.2byte	.LVU767
	.4byte	.LLRL349
	.byte	0x4
	.2byte	0x480
	.byte	0x1e
	.uleb128 0x5
	.4byte	0xc019
	.uleb128 0x3
	.4byte	0xc022
	.4byte	.LLST352
	.4byte	.LVUS352
	.byte	0
	.byte	0
	.uleb128 0xc
	.4byte	0xc173
	.4byte	.LBI1764
	.2byte	.LVU935
	.4byte	.LBB1764
	.4byte	.LBE1764-.LBB1764
	.byte	0x7
	.2byte	0x107
	.byte	0x33
	.4byte	0xbdf2
	.uleb128 0x3
	.4byte	0xc181
	.4byte	.LLST521
	.4byte	.LVUS521
	.uleb128 0x10
	.4byte	0xc00b
	.4byte	.LBI1765
	.2byte	.LVU936
	.4byte	.LBB1765
	.4byte	.LBE1765-.LBB1765
	.byte	0x4
	.2byte	0x493
	.byte	0x1e
	.uleb128 0x5
	.4byte	0xc019
	.uleb128 0x3
	.4byte	0xc022
	.4byte	.LLST523
	.4byte	.LVUS523
	.byte	0
	.byte	0
	.uleb128 0xc
	.4byte	0x9677
	.4byte	.LBI1767
	.2byte	.LVU941
	.4byte	.LBB1767
	.4byte	.LBE1767-.LBB1767
	.byte	0x7
	.2byte	0x109
	.byte	0x9
	.4byte	0xbf27
	.uleb128 0x3
	.4byte	0x9685
	.4byte	.LLST524
	.4byte	.LVUS524
	.uleb128 0xc
	.4byte	0xc3c9
	.4byte	.LBI1768
	.2byte	.LVU942
	.4byte	.LBB1768
	.4byte	.LBE1768-.LBB1768
	.byte	0x4
	.2byte	0x72c
	.byte	0x1e
	.4byte	0xbe6d
	.uleb128 0x3
	.4byte	0xc3d7
	.4byte	.LLST525
	.4byte	.LVUS525
	.uleb128 0x10
	.4byte	0xc00b
	.4byte	.LBI1769
	.2byte	.LVU943
	.4byte	.LBB1769
	.4byte	.LBE1769-.LBB1769
	.byte	0x4
	.2byte	0x480
	.byte	0x1e
	.uleb128 0x5
	.4byte	0xc019
	.uleb128 0x3
	.4byte	0xc022
	.4byte	.LLST527
	.4byte	.LVUS527
	.byte	0
	.byte	0
	.uleb128 0x10
	.4byte	0x9580
	.4byte	.LBI1770
	.2byte	.LVU945
	.4byte	.LBB1770
	.4byte	.LBE1770-.LBB1770
	.byte	0x4
	.2byte	0x72c
	.byte	0x18
	.uleb128 0x3
	.4byte	0x958e
	.4byte	.LLST528
	.4byte	.LVUS528
	.uleb128 0x5
	.4byte	0x9597
	.uleb128 0xc
	.4byte	0xc00b
	.4byte	.LBI1772
	.2byte	.LVU946
	.4byte	.LBB1772
	.4byte	.LBE1772-.LBB1772
	.byte	0x4
	.2byte	0x83c
	.byte	0x11
	.4byte	0xbebc
	.uleb128 0x5
	.4byte	0xc019
	.uleb128 0x5
	.4byte	0xc022
	.byte	0
	.uleb128 0xc
	.4byte	0xc173
	.4byte	.LBI1773
	.2byte	.LVU948
	.4byte	.LBB1773
	.4byte	.LBE1773-.LBB1773
	.byte	0x4
	.2byte	0x83c
	.byte	0x1c
	.4byte	0xbf0f
	.uleb128 0x3
	.4byte	0xc181
	.4byte	.LLST530
	.4byte	.LVUS530
	.uleb128 0x10
	.4byte	0xc00b
	.4byte	.LBI1774
	.2byte	.LVU949
	.4byte	.LBB1774
	.4byte	.LBE1774-.LBB1774
	.byte	0x4
	.2byte	0x493
	.byte	0x1e
	.uleb128 0x5
	.4byte	0xc019
	.uleb128 0x3
	.4byte	0xc022
	.4byte	.LLST531
	.4byte	.LVUS531
	.byte	0
	.byte	0
	.uleb128 0x25
	.4byte	.LVL364
	.4byte	0xc1ca
	.uleb128 0x12
	.uleb128 0x1
	.byte	0x50
	.uleb128 0x2
	.byte	0x74
	.sleb128 0
	.uleb128 0x12
	.uleb128 0x1
	.byte	0x51
	.uleb128 0x2
	.byte	0x78
	.sleb128 4
	.byte	0
	.byte	0
	.byte	0
	.uleb128 0xc
	.4byte	0xc173
	.4byte	.LBI1775
	.2byte	.LVU956
	.4byte	.LBB1775
	.4byte	.LBE1775-.LBB1775
	.byte	0x7
	.2byte	0x10a
	.byte	0xf
	.4byte	0xbf82
	.uleb128 0x3
	.4byte	0xc181
	.4byte	.LLST532
	.4byte	.LVUS532
	.uleb128 0x10
	.4byte	0xc00b
	.4byte	.LBI1777
	.2byte	.LVU957
	.4byte	.LBB1777
	.4byte	.LBE1777-.LBB1777
	.byte	0x4
	.2byte	0x493
	.byte	0x1e
	.uleb128 0x3
	.4byte	0xc019
	.4byte	.LLST533
	.4byte	.LVUS533
	.uleb128 0x3
	.4byte	0xc022
	.4byte	.LLST534
	.4byte	.LVUS534
	.byte	0
	.byte	0
	.uleb128 0x10
	.4byte	0xc00b
	.4byte	.LBI1781
	.2byte	.LVU927
	.4byte	.LBB1781
	.4byte	.LBE1781-.LBB1781
	.byte	0x7
	.2byte	0x106
	.byte	0x9
	.uleb128 0x3
	.4byte	0xc019
	.4byte	.LLST535
	.4byte	.LVUS535
	.uleb128 0x3
	.4byte	0xc022
	.4byte	.LLST536
	.4byte	.LVUS536
	.byte	0
	.byte	0
	.uleb128 0x14
	.4byte	0x310d
	.4byte	0xbfc3
	.byte	0x3
	.4byte	0xbfcd
	.uleb128 0x11
	.4byte	.LASF1185
	.4byte	0x7fe6
	.byte	0
	.uleb128 0x14
	.4byte	0x2f2f
	.4byte	0xbfdb
	.byte	0x3
	.4byte	0xc00b
	.uleb128 0x11
	.4byte	.LASF1185
	.4byte	0x7e11
	.uleb128 0x2c
	.ascii	"__n\000"
	.byte	0x4
	.byte	0xe6
	.byte	0x22
	.4byte	0x2f52
	.uleb128 0x4a
	.4byte	.LASF1224
	.byte	0x4
	.byte	0xe8
	.byte	0x18
	.4byte	0x2f5e
	.uleb128 0x53
	.uleb128 0x4a
	.4byte	.LASF1225
	.byte	0x4
	.byte	0xed
	.byte	0x1c
	.4byte	0x2f5e
	.byte	0
	.byte	0
	.uleb128 0x14
	.4byte	0x2dcd
	.4byte	0xc019
	.byte	0x2
	.4byte	0xc02f
	.uleb128 0x11
	.4byte	.LASF1185
	.4byte	0x7e11
	.uleb128 0x2c
	.ascii	"__x\000"
	.byte	0x4
	.byte	0xa8
	.byte	0x2e
	.4byte	0x7e16
	.byte	0
	.uleb128 0x42
	.4byte	0xc00b
	.4byte	.LASF1226
	.4byte	0xc040
	.4byte	0xc04b
	.uleb128 0x5
	.4byte	0xc019
	.uleb128 0x5
	.4byte	0xc022
	.byte	0
	.uleb128 0x14
	.4byte	0x2f86
	.4byte	0xc059
	.byte	0x3
	.4byte	0xc06f
	.uleb128 0x11
	.4byte	.LASF1185
	.4byte	0x7e25
	.uleb128 0x2c
	.ascii	"__n\000"
	.byte	0x4
	.byte	0xfe
	.byte	0x22
	.4byte	0x2f52
	.byte	0
	.uleb128 0x14
	.4byte	0x297e
	.4byte	0xc086
	.byte	0x3
	.4byte	0xc09d
	.uleb128 0x8
	.ascii	"_Up\000"
	.4byte	0x6e69
	.uleb128 0x11
	.4byte	.LASF1185
	.4byte	0x7db2
	.uleb128 0x9
	.4byte	.LASF1198
	.byte	0x2
	.2byte	0x7d0
	.byte	0x13
	.4byte	0x7cef
	.byte	0
	.uleb128 0x14
	.4byte	0x29ab
	.4byte	0xc0ba
	.byte	0x1
	.4byte	0xc0ce
	.uleb128 0x31
	.4byte	.LASF293
	.4byte	0xc0ba
	.uleb128 0x32
	.4byte	0x6e69
	.byte	0
	.uleb128 0x11
	.4byte	.LASF1185
	.4byte	0x7d8a
	.uleb128 0x69
	.byte	0x9
	.byte	0x70
	.byte	0x1b
	.uleb128 0x1
	.4byte	0x8027
	.byte	0
	.byte	0
	.uleb128 0x14
	.4byte	0x454e
	.4byte	0xc0eb
	.byte	0x1
	.4byte	0xc0ff
	.uleb128 0x31
	.4byte	.LASF293
	.4byte	0xc0eb
	.uleb128 0x32
	.4byte	0x6e69
	.byte	0
	.uleb128 0x11
	.4byte	.LASF1185
	.4byte	0x7e7f
	.uleb128 0x69
	.byte	0x7
	.byte	0xa5
	.byte	0x1b
	.uleb128 0x1
	.4byte	0x8027
	.byte	0
	.byte	0
	.uleb128 0x15
	.4byte	0x6637
	.byte	0x3
	.4byte	0xc124
	.uleb128 0x19
	.ascii	"__x\000"
	.byte	0x4
	.2byte	0x172
	.byte	0x1e
	.4byte	0x9549
	.uleb128 0x19
	.ascii	"__y\000"
	.byte	0x4
	.2byte	0x172
	.byte	0x30
	.4byte	0x9549
	.byte	0
	.uleb128 0x14
	.4byte	0x4276
	.4byte	0xc132
	.byte	0x3
	.4byte	0xc15b
	.uleb128 0x11
	.4byte	.LASF1185
	.4byte	0x7e7f
	.uleb128 0x9
	.4byte	.LASF1172
	.byte	0x4
	.2byte	0x827
	.byte	0x20
	.4byte	0x3b5f
	.uleb128 0x9
	.4byte	.LASF1173
	.byte	0x4
	.2byte	0x827
	.byte	0x32
	.4byte	0x3b5f
	.uleb128 0x1
	.4byte	0x7d17
	.byte	0
	.uleb128 0x14
	.4byte	0x364c
	.4byte	0xc169
	.byte	0x3
	.4byte	0xc173
	.uleb128 0x11
	.4byte	.LASF1185
	.4byte	0x7e66
	.byte	0
	.uleb128 0x14
	.4byte	0x3bbb
	.4byte	0xc181
	.byte	0x3
	.4byte	0xc18b
	.uleb128 0x11
	.4byte	.LASF1185
	.4byte	0x7e7f
	.byte	0
	.uleb128 0x14
	.4byte	0x372e
	.4byte	0xc199
	.byte	0x3
	.4byte	0xc1ca
	.uleb128 0x11
	.4byte	.LASF1185
	.4byte	0x7e66
	.uleb128 0x19
	.ascii	"__p\000"
	.byte	0x4
	.2byte	0x259
	.byte	0x26
	.4byte	0x33ec
	.uleb128 0x19
	.ascii	"__n\000"
	.byte	0x4
	.2byte	0x259
	.byte	0x32
	.4byte	0x155
	.uleb128 0x23
	.4byte	.LASF1222
	.byte	0x4
	.2byte	0x25b
	.byte	0x12
	.4byte	0x368c
	.byte	0
	.uleb128 0x5b
	.4byte	0x379b
	.4byte	0xc1e1
	.4byte	.LFB2242
	.4byte	.LFE2242-.LFB2242
	.uleb128 0x1
	.byte	0x9c
	.4byte	0xc2fb
	.uleb128 0x35
	.4byte	.LASF1185
	.4byte	0x7e66
	.4byte	.LLST36
	.4byte	.LVUS36
	.uleb128 0x3a
	.4byte	.LASF1227
	.byte	0x4
	.2byte	0x2b8
	.byte	0x23
	.4byte	0x33ec
	.4byte	.LLST37
	.4byte	.LVUS37
	.uleb128 0x3a
	.4byte	.LASF1228
	.byte	0x4
	.2byte	0x2b9
	.byte	0x15
	.4byte	0x33ec
	.4byte	.LLST38
	.4byte	.LVUS38
	.uleb128 0x99
	.4byte	.LBB785
	.4byte	.LBE785-.LBB785
	.uleb128 0x7c
	.ascii	"__n\000"
	.byte	0x4
	.2byte	0x2bb
	.byte	0x19
	.4byte	0x33ec
	.4byte	.LLST39
	.4byte	.LVUS39
	.uleb128 0x10
	.4byte	0xa9bd
	.4byte	.LBI786
	.2byte	.LVU223
	.4byte	.LBB786
	.4byte	.LBE786-.LBB786
	.byte	0x4
	.2byte	0x2bc
	.byte	0x14
	.uleb128 0x3
	.4byte	0xa9cb
	.4byte	.LLST40
	.4byte	.LVUS40
	.uleb128 0x3
	.4byte	0xa9d4
	.4byte	.LLST41
	.4byte	.LVUS41
	.uleb128 0x1d
	.4byte	.LLRL42
	.uleb128 0x1b
	.4byte	0xaa6c
	.4byte	.LBI788
	.2byte	.LVU224
	.4byte	.LLRL42
	.byte	0x4
	.2byte	0x24e
	.byte	0x15
	.uleb128 0x3
	.4byte	0xaa76
	.4byte	.LLST43
	.4byte	.LVUS43
	.uleb128 0x3
	.4byte	0xaa83
	.4byte	.LLST44
	.4byte	.LVUS44
	.uleb128 0x3
	.4byte	0xaa90
	.4byte	.LLST45
	.4byte	.LVUS45
	.uleb128 0x1b
	.4byte	0x9519
	.4byte	.LBI789
	.2byte	.LVU225
	.4byte	.LLRL42
	.byte	0x6
	.2byte	0x201
	.byte	0x17
	.uleb128 0x3
	.4byte	0x9527
	.4byte	.LLST46
	.4byte	.LVUS46
	.uleb128 0x3
	.4byte	0x9530
	.4byte	.LLST47
	.4byte	.LVUS47
	.uleb128 0x3
	.4byte	0x953c
	.4byte	.LLST48
	.4byte	.LVUS48
	.uleb128 0x25
	.4byte	.LVL99
	.4byte	0x8051
	.uleb128 0x12
	.uleb128 0x1
	.byte	0x51
	.uleb128 0x2
	.byte	0x76
	.sleb128 0
	.byte	0
	.byte	0
	.byte	0
	.byte	0
	.byte	0
	.byte	0
	.byte	0
	.uleb128 0x14
	.4byte	0x1abc
	.4byte	0xc309
	.byte	0x3
	.4byte	0xc313
	.uleb128 0x11
	.4byte	.LASF1185
	.4byte	0x7d67
	.byte	0
	.uleb128 0x14
	.4byte	0x40ae
	.4byte	0xc321
	.byte	0x3
	.4byte	0xc345
	.uleb128 0x11
	.4byte	.LASF1185
	.4byte	0x7e7f
	.uleb128 0x9
	.4byte	.LASF1172
	.byte	0x4
	.2byte	0x707
	.byte	0x1c
	.4byte	0x3b8d
	.uleb128 0x9
	.4byte	.LASF1173
	.byte	0x4
	.2byte	0x707
	.byte	0x34
	.4byte	0x3b8d
	.byte	0
	.uleb128 0x14
	.4byte	0x32a1
	.4byte	0xc35c
	.byte	0x2
	.4byte	0xc372
	.uleb128 0xa
	.4byte	.LASF561
	.4byte	0x2d1e
	.uleb128 0x11
	.4byte	.LASF1185
	.4byte	0x7fd2
	.uleb128 0x2c
	.ascii	"__x\000"
	.byte	0x4
	.byte	0xa4
	.byte	0x25
	.4byte	0x7e16
	.byte	0
	.uleb128 0x42
	.4byte	0xc345
	.4byte	.LASF1229
	.4byte	0xc38c
	.4byte	0xc397
	.uleb128 0xa
	.4byte	.LASF561
	.4byte	0x2d1e
	.uleb128 0x5
	.4byte	0xc35c
	.uleb128 0x5
	.4byte	0xc365
	.byte	0
	.uleb128 0x15
	.4byte	0x6657
	.byte	0x3
	.4byte	0xc3c9
	.uleb128 0x19
	.ascii	"__x\000"
	.byte	0x4
	.2byte	0x18d
	.byte	0x1e
	.4byte	0x9549
	.uleb128 0x19
	.ascii	"__n\000"
	.byte	0x4
	.2byte	0x18d
	.byte	0x33
	.4byte	0x2f52
	.uleb128 0x23
	.4byte	.LASF1204
	.byte	0x4
	.2byte	0x18f
	.byte	0x8
	.4byte	0x2e9c
	.byte	0
	.uleb128 0x14
	.4byte	0x3b6d
	.4byte	0xc3d7
	.byte	0x3
	.4byte	0xc3e1
	.uleb128 0x11
	.4byte	.LASF1185
	.4byte	0x7e7f
	.byte	0
	.uleb128 0x14
	.4byte	0x3de4
	.4byte	0xc3ef
	.byte	0x3
	.4byte	0xc406
	.uleb128 0x11
	.4byte	.LASF1185
	.4byte	0x7e7f
	.uleb128 0x19
	.ascii	"__n\000"
	.byte	0x4
	.2byte	0x554
	.byte	0x1c
	.4byte	0x38ee
	.byte	0
	.uleb128 0x15
	.4byte	0x6677
	.byte	0x3
	.4byte	0xc432
	.uleb128 0x8
	.ascii	"_Tp\000"
	.4byte	0x2d
	.uleb128 0x2c
	.ascii	"__a\000"
	.byte	0x3
	.byte	0xe9
	.byte	0x14
	.4byte	0xaa39
	.uleb128 0x2c
	.ascii	"__b\000"
	.byte	0x3
	.byte	0xe9
	.byte	0x24
	.4byte	0xaa39
	.byte	0
	.uleb128 0x14
	.4byte	0x2532
	.4byte	0xc440
	.byte	0x3
	.4byte	0xc44a
	.uleb128 0x11
	.4byte	.LASF1185
	.4byte	0x7d8a
	.byte	0
	.uleb128 0x14
	.4byte	0x2593
	.4byte	0xc458
	.byte	0x3
	.4byte	0xc46f
	.uleb128 0x11
	.4byte	.LASF1185
	.4byte	0x7d8a
	.uleb128 0x19
	.ascii	"__x\000"
	.byte	0x2
	.2byte	0x514
	.byte	0x1e
	.4byte	0x7db7
	.byte	0
	.uleb128 0x14
	.4byte	0x4c68
	.4byte	0xc47d
	.byte	0x3
	.4byte	0xc494
	.uleb128 0x11
	.4byte	.LASF1185
	.4byte	0x7f70
	.uleb128 0x19
	.ascii	"__n\000"
	.byte	0x2
	.2byte	0x468
	.byte	0x1c
	.4byte	0x4757
	.byte	0
	.uleb128 0x14
	.4byte	0x4b57
	.4byte	0xc4a2
	.byte	0x3
	.4byte	0xc4ac
	.uleb128 0x11
	.4byte	.LASF1185
	.4byte	0x7f98
	.byte	0
	.uleb128 0x14
	.4byte	0x3f84
	.4byte	0xc4ba
	.byte	0x3
	.4byte	0xc4d1
	.uleb128 0x11
	.4byte	.LASF1185
	.4byte	0x7e7f
	.uleb128 0x19
	.ascii	"__x\000"
	.byte	0x4
	.2byte	0x611
	.byte	0x1e
	.4byte	0x7ea7
	.byte	0
	.uleb128 0x14
	.4byte	0x22e4
	.4byte	0xc4df
	.byte	0x3
	.4byte	0xc4e9
	.uleb128 0x11
	.4byte	.LASF1185
	.4byte	0x7db2
	.byte	0
	.uleb128 0x14
	.4byte	0x3d13
	.4byte	0xc4f7
	.byte	0x3
	.4byte	0xc501
	.uleb128 0x11
	.4byte	.LASF1185
	.4byte	0x7ea2
	.byte	0
	.uleb128 0x47
	.4byte	0x7c04
	.byte	0xca
	.byte	0x8
	.4byte	0xc51a
	.4byte	.LFB2077
	.4byte	.LFE2077-.LFB2077
	.uleb128 0x1
	.byte	0x9c
	.4byte	0xc5e9
	.uleb128 0x35
	.4byte	.LASF1185
	.4byte	0x7fbb
	.4byte	.LLST29
	.4byte	.LVUS29
	.uleb128 0x6b
	.ascii	"out\000"
	.byte	0xca
	.byte	0x22
	.4byte	0x7ec5
	.4byte	.LLST30
	.4byte	.LVUS30
	.uleb128 0x37
	.4byte	.LASF1230
	.byte	0xca
	.byte	0x2e
	.4byte	0x6e8f
	.4byte	.LLST31
	.4byte	.LVUS31
	.uleb128 0x4a
	.4byte	.LASF1231
	.byte	0x1
	.byte	0xcb
	.byte	0xc
	.4byte	0x6e8f
	.uleb128 0x56
	.4byte	.LBB782
	.4byte	.LBE782-.LBB782
	.4byte	0xc58f
	.uleb128 0x9a
	.ascii	"n\000"
	.byte	0x1
	.byte	0xce
	.byte	0x11
	.4byte	0x6e8f
	.uleb128 0x1d
	.4byte	.LLRL34
	.uleb128 0x3d
	.ascii	"val\000"
	.byte	0xcf
	.byte	0xe
	.4byte	0x6e69
	.4byte	.LLST35
	.4byte	.LVUS35
	.byte	0
	.byte	0
	.uleb128 0x2e
	.4byte	0xc406
	.4byte	.LBI780
	.2byte	.LVU187
	.4byte	.LBB780
	.4byte	.LBE780-.LBB780
	.byte	0x1
	.byte	0xcb
	.byte	0x22
	.4byte	0xc5c4
	.uleb128 0x3
	.4byte	0xc419
	.4byte	.LLST32
	.4byte	.LVUS32
	.uleb128 0x3
	.4byte	0xc425
	.4byte	.LLST33
	.4byte	.LVUS33
	.byte	0
	.uleb128 0x25
	.4byte	.LVL94
	.4byte	0x8031
	.uleb128 0x12
	.uleb128 0x1
	.byte	0x50
	.uleb128 0x3
	.byte	0x76
	.sleb128 96
	.uleb128 0x12
	.uleb128 0x1
	.byte	0x51
	.uleb128 0x7
	.byte	0x77
	.sleb128 24
	.byte	0x32
	.byte	0x24
	.byte	0x76
	.sleb128 0
	.byte	0x22
	.uleb128 0x12
	.uleb128 0x1
	.byte	0x52
	.uleb128 0x4
	.byte	0x74
	.sleb128 0
	.byte	0x32
	.byte	0x24
	.byte	0
	.byte	0
	.uleb128 0x47
	.4byte	0x7bbb
	.byte	0x9d
	.byte	0x6
	.4byte	0xc602
	.4byte	.LFB2076
	.4byte	.LFE2076-.LFB2076
	.uleb128 0x1
	.byte	0x9c
	.4byte	0xc6e3
	.uleb128 0x35
	.4byte	.LASF1185
	.4byte	0x7fbb
	.4byte	.LLST17
	.4byte	.LVUS17
	.uleb128 0x37
	.4byte	.LASF417
	.byte	0x9d
	.byte	0x27
	.4byte	0x7ebb
	.4byte	.LLST18
	.4byte	.LVUS18
	.uleb128 0x37
	.4byte	.LASF1232
	.byte	0x9d
	.byte	0x34
	.4byte	0x6e8f
	.4byte	.LLST19
	.4byte	.LVUS19
	.uleb128 0x37
	.4byte	.LASF1233
	.byte	0x9d
	.byte	0x43
	.4byte	0x6e8f
	.4byte	.LLST20
	.4byte	.LVUS20
	.uleb128 0x3d
	.ascii	"n\000"
	.byte	0x9e
	.byte	0xc
	.4byte	0x6e8f
	.4byte	.LLST21
	.4byte	.LVUS21
	.uleb128 0x3d
	.ascii	"ord\000"
	.byte	0x9e
	.byte	0xf
	.4byte	0x6e8f
	.4byte	.LLST22
	.4byte	.LVUS22
	.uleb128 0x29
	.4byte	.LASF1234
	.byte	0x9f
	.byte	0xd
	.4byte	0x753c
	.4byte	.LLST23
	.4byte	.LVUS23
	.uleb128 0x29
	.4byte	.LASF1235
	.byte	0x9f
	.byte	0x17
	.4byte	0x753c
	.4byte	.LLST24
	.4byte	.LVUS24
	.uleb128 0x29
	.4byte	.LASF1236
	.byte	0xa0
	.byte	0xe
	.4byte	0x7548
	.4byte	.LLST25
	.4byte	.LVUS25
	.uleb128 0x29
	.4byte	.LASF1237
	.byte	0xa1
	.byte	0xa
	.4byte	0x2d
	.4byte	.LLST26
	.4byte	.LVUS26
	.uleb128 0x51
	.4byte	.LLRL27
	.4byte	0xc6d9
	.uleb128 0x29
	.4byte	.LASF1238
	.byte	0xa4
	.byte	0x12
	.4byte	0x7ec0
	.4byte	.LLST28
	.4byte	.LVUS28
	.byte	0
	.uleb128 0x43
	.4byte	.LVL75
	.4byte	0xd91c
	.byte	0
	.uleb128 0x47
	.4byte	0x7a22
	.byte	0x8a
	.byte	0x8
	.4byte	0xc6fc
	.4byte	.LFB2075
	.4byte	.LFE2075-.LFB2075
	.uleb128 0x1
	.byte	0x9c
	.4byte	0xcc24
	.uleb128 0x35
	.4byte	.LASF1185
	.4byte	0x7eb6
	.4byte	.LLST537
	.4byte	.LVUS537
	.uleb128 0x6b
	.ascii	"out\000"
	.byte	0x8a
	.byte	0x22
	.4byte	0x7ec5
	.4byte	.LLST538
	.4byte	.LVUS538
	.uleb128 0x37
	.4byte	.LASF1230
	.byte	0x8a
	.byte	0x2e
	.4byte	0x6e8f
	.4byte	.LLST539
	.4byte	.LVUS539
	.uleb128 0x4a
	.4byte	.LASF1231
	.byte	0x1
	.byte	0x8b
	.byte	0xc
	.4byte	0x6e8f
	.uleb128 0x56
	.4byte	.LBB1855
	.4byte	.LBE1855-.LBB1855
	.4byte	0xc8b1
	.uleb128 0x3d
	.ascii	"n\000"
	.byte	0x8f
	.byte	0x11
	.4byte	0x6e8f
	.4byte	.LLST547
	.4byte	.LVUS547
	.uleb128 0x1d
	.4byte	.LLRL548
	.uleb128 0x3d
	.ascii	"val\000"
	.byte	0x90
	.byte	0xe
	.4byte	0x6e69
	.4byte	.LLST549
	.4byte	.LVUS549
	.uleb128 0x52
	.4byte	0xc3e1
	.4byte	.LBI1857
	.2byte	.LVU1238
	.4byte	.LLRL550
	.byte	0x1
	.byte	0x90
	.byte	0x1e
	.uleb128 0x3
	.4byte	0xc3ef
	.4byte	.LLST551
	.4byte	.LVUS551
	.uleb128 0x3
	.4byte	0xc3f8
	.4byte	.LLST552
	.4byte	.LVUS552
	.uleb128 0x1b
	.4byte	0xc04b
	.4byte	.LBI1859
	.2byte	.LVU1239
	.4byte	.LLRL553
	.byte	0x4
	.2byte	0x557
	.byte	0x1f
	.uleb128 0x3
	.4byte	0xc059
	.4byte	.LLST554
	.4byte	.LVUS554
	.uleb128 0x3
	.4byte	0xc062
	.4byte	.LLST555
	.4byte	.LVUS555
	.uleb128 0x52
	.4byte	0xc397
	.4byte	.LBI1860
	.2byte	.LVU1240
	.4byte	.LLRL556
	.byte	0x4
	.byte	0xff
	.byte	0x18
	.uleb128 0x3
	.4byte	0xc3a1
	.4byte	.LLST557
	.4byte	.LVUS557
	.uleb128 0x3
	.4byte	0xc3ae
	.4byte	.LLST558
	.4byte	.LVUS558
	.uleb128 0x1d
	.4byte	.LLRL559
	.uleb128 0x3c
	.4byte	0xc3bb
	.uleb128 0x1e
	.4byte	0xbfcd
	.4byte	.LBI1862
	.2byte	.LVU1244
	.4byte	.LLRL560
	.byte	0x4
	.2byte	0x190
	.byte	0x8
	.4byte	0xc881
	.uleb128 0x5
	.4byte	0xbfdb
	.uleb128 0x3
	.4byte	0xbfe4
	.4byte	.LLST562
	.4byte	.LVUS562
	.uleb128 0x1d
	.4byte	.LLRL560
	.uleb128 0x1f
	.4byte	0xbff0
	.4byte	.LLST563
	.4byte	.LVUS563
	.uleb128 0x41
	.4byte	0xbffc
	.4byte	.LLRL564
	.uleb128 0x1f
	.4byte	0xbffd
	.4byte	.LLST565
	.4byte	.LVUS565
	.uleb128 0x27
	.4byte	0xa9e2
	.4byte	.LBI1866
	.2byte	.LVU1220
	.4byte	.LBB1866
	.4byte	.LBE1866-.LBB1866
	.byte	0x4
	.byte	0xf1
	.byte	0x11
	.uleb128 0x5
	.4byte	0xa9f0
	.uleb128 0x3
	.4byte	0xa9f9
	.4byte	.LLST567
	.4byte	.LVUS567
	.byte	0
	.byte	0
	.byte	0
	.byte	0
	.uleb128 0x10
	.4byte	0xc00b
	.4byte	.LBI1875
	.2byte	.LVU1241
	.4byte	.LBB1875
	.4byte	.LBE1875-.LBB1875
	.byte	0x4
	.2byte	0x18f
	.byte	0x8
	.uleb128 0x5
	.4byte	0xc019
	.uleb128 0x3
	.4byte	0xc022
	.4byte	.LLST569
	.4byte	.LVUS569
	.byte	0
	.byte	0
	.byte	0
	.byte	0
	.byte	0
	.byte	0
	.byte	0
	.uleb128 0x38
	.4byte	0xc4e9
	.4byte	.LBI1844
	.2byte	.LVU1200
	.4byte	.LLRL540
	.byte	0x8b
	.byte	0x30
	.4byte	0xc902
	.uleb128 0x3
	.4byte	0xc4f7
	.4byte	.LLST541
	.4byte	.LVUS541
	.uleb128 0x1b
	.4byte	0xc0ff
	.4byte	.LBI1846
	.2byte	.LVU1201
	.4byte	.LLRL542
	.byte	0x4
	.2byte	0x4f5
	.byte	0x28
	.uleb128 0x3
	.4byte	0xc109
	.4byte	.LLST543
	.4byte	.LVUS543
	.uleb128 0x3
	.4byte	0xc116
	.4byte	.LLST544
	.4byte	.LVUS544
	.byte	0
	.byte	0
	.uleb128 0x38
	.4byte	0xc406
	.4byte	.LBI1851
	.2byte	.LVU1204
	.4byte	.LLRL545
	.byte	0x8b
	.byte	0x22
	.4byte	0xc92a
	.uleb128 0x5
	.4byte	0xc419
	.uleb128 0x3
	.4byte	0xc425
	.4byte	.LLST546
	.4byte	.LVUS546
	.byte	0
	.uleb128 0x2e
	.4byte	0xc3c9
	.4byte	.LBI1889
	.2byte	.LVU1258
	.4byte	.LBB1889
	.4byte	.LBE1889-.LBB1889
	.byte	0x1
	.byte	0x98
	.byte	0x22
	.4byte	0xc97c
	.uleb128 0x3
	.4byte	0xc3d7
	.4byte	.LLST570
	.4byte	.LVUS570
	.uleb128 0x10
	.4byte	0xc00b
	.4byte	.LBI1890
	.2byte	.LVU1259
	.4byte	.LBB1890
	.4byte	.LBE1890-.LBB1890
	.byte	0x4
	.2byte	0x480
	.byte	0x1e
	.uleb128 0x5
	.4byte	0xc019
	.uleb128 0x3
	.4byte	0xc022
	.4byte	.LLST572
	.4byte	.LVUS572
	.byte	0
	.byte	0
	.uleb128 0x2e
	.4byte	0xc345
	.4byte	.LBI1892
	.2byte	.LVU1263
	.4byte	.LBB1892
	.4byte	.LBE1892-.LBB1892
	.byte	0x1
	.byte	0x98
	.byte	0x13
	.4byte	0xc9a1
	.uleb128 0x5
	.4byte	0xc35c
	.uleb128 0x5
	.4byte	0xc365
	.byte	0
	.uleb128 0x2e
	.4byte	0xc3c9
	.4byte	.LBI1893
	.2byte	.LVU1265
	.4byte	.LBB1893
	.4byte	.LBE1893-.LBB1893
	.byte	0x1
	.byte	0x98
	.byte	0x34
	.4byte	0xc9f3
	.uleb128 0x3
	.4byte	0xc3d7
	.4byte	.LLST575
	.4byte	.LVUS575
	.uleb128 0x10
	.4byte	0xc00b
	.4byte	.LBI1894
	.2byte	.LVU1266
	.4byte	.LBB1894
	.4byte	.LBE1894-.LBB1894
	.byte	0x4
	.2byte	0x480
	.byte	0x1e
	.uleb128 0x5
	.4byte	0xc019
	.uleb128 0x3
	.4byte	0xc022
	.4byte	.LLST577
	.4byte	.LVUS577
	.byte	0
	.byte	0
	.uleb128 0x38
	.4byte	0xc397
	.4byte	.LBI1895
	.2byte	.LVU1268
	.4byte	.LLRL578
	.byte	0x98
	.byte	0x39
	.4byte	0xcac1
	.uleb128 0x5
	.4byte	0xc3a1
	.uleb128 0x3
	.4byte	0xc3ae
	.4byte	.LLST580
	.4byte	.LVUS580
	.uleb128 0x1d
	.4byte	.LLRL578
	.uleb128 0x3c
	.4byte	0xc3bb
	.uleb128 0x1e
	.4byte	0xc00b
	.4byte	.LBI1897
	.2byte	.LVU1269
	.4byte	.LLRL581
	.byte	0x4
	.2byte	0x18f
	.byte	0x8
	.4byte	0xca46
	.uleb128 0x5
	.4byte	0xc019
	.uleb128 0x5
	.4byte	0xc022
	.byte	0
	.uleb128 0x1b
	.4byte	0xbfcd
	.4byte	.LBI1899
	.2byte	.LVU1271
	.4byte	.LLRL584
	.byte	0x4
	.2byte	0x190
	.byte	0x8
	.uleb128 0x5
	.4byte	0xbfdb
	.uleb128 0x3
	.4byte	0xbfe4
	.4byte	.LLST586
	.4byte	.LVUS586
	.uleb128 0x1d
	.4byte	.LLRL584
	.uleb128 0x1f
	.4byte	0xbff0
	.4byte	.LLST587
	.4byte	.LVUS587
	.uleb128 0x41
	.4byte	0xbffc
	.4byte	.LLRL588
	.uleb128 0x1f
	.4byte	0xbffd
	.4byte	.LLST589
	.4byte	.LVUS589
	.uleb128 0x27
	.4byte	0xa9e2
	.4byte	.LBI1903
	.2byte	.LVU1282
	.4byte	.LBB1903
	.4byte	.LBE1903-.LBB1903
	.byte	0x4
	.byte	0xf1
	.byte	0x11
	.uleb128 0x5
	.4byte	0xa9f0
	.uleb128 0x3
	.4byte	0xa9f9
	.4byte	.LLST591
	.4byte	.LVUS591
	.byte	0
	.byte	0
	.byte	0
	.byte	0
	.byte	0
	.byte	0
	.uleb128 0x2e
	.4byte	0xc345
	.4byte	.LBI1913
	.2byte	.LVU1288
	.4byte	.LBB1913
	.4byte	.LBE1913-.LBB1913
	.byte	0x1
	.byte	0x98
	.byte	0x13
	.4byte	0xcae6
	.uleb128 0x5
	.4byte	0xc35c
	.uleb128 0x5
	.4byte	0xc365
	.byte	0
	.uleb128 0x27
	.4byte	0xc313
	.4byte	.LBI1914
	.2byte	.LVU1290
	.4byte	.LBB1914
	.4byte	.LBE1914-.LBB1914
	.byte	0x1
	.byte	0x98
	.byte	0x13
	.uleb128 0x3
	.4byte	0xc321
	.4byte	.LLST594
	.4byte	.LVUS594
	.uleb128 0x5
	.4byte	0xc32a
	.uleb128 0x5
	.4byte	0xc337
	.uleb128 0xc
	.4byte	0xbfb5
	.4byte	.LBI1916
	.2byte	.LVU1291
	.4byte	.LBB1916
	.4byte	.LBE1916-.LBB1916
	.byte	0x4
	.2byte	0x70b
	.byte	0x2e
	.4byte	0xcb85
	.uleb128 0x5
	.4byte	0xbfc3
	.uleb128 0x27
	.4byte	0x96b4
	.4byte	.LBI1917
	.2byte	.LVU1292
	.4byte	.LBB1917
	.4byte	.LBE1917-.LBB1917
	.byte	0x4
	.byte	0xb1
	.byte	0x28
	.uleb128 0x3
	.4byte	0x96c2
	.4byte	.LLST596
	.4byte	.LVUS596
	.uleb128 0x3
	.4byte	0x96cb
	.4byte	.LLST597
	.4byte	.LVUS597
	.uleb128 0x3
	.4byte	0x96d7
	.4byte	.LLST598
	.4byte	.LVUS598
	.uleb128 0x5c
	.4byte	0xa931
	.4byte	.LBI1919
	.2byte	.LVU1296
	.4byte	.LBB1919
	.4byte	.LBE1919-.LBB1919
	.byte	0
	.byte	0
	.uleb128 0xc
	.4byte	0xbfb5
	.4byte	.LBI1920
	.2byte	.LVU1302
	.4byte	.LBB1920
	.4byte	.LBE1920-.LBB1920
	.byte	0x4
	.2byte	0x70b
	.byte	0x46
	.4byte	0xcbf7
	.uleb128 0x5
	.4byte	0xbfc3
	.uleb128 0x27
	.4byte	0x96b4
	.4byte	.LBI1921
	.2byte	.LVU1303
	.4byte	.LBB1921
	.4byte	.LBE1921-.LBB1921
	.byte	0x4
	.byte	0xb1
	.byte	0x28
	.uleb128 0x3
	.4byte	0x96c2
	.4byte	.LLST600
	.4byte	.LVUS600
	.uleb128 0x3
	.4byte	0x96cb
	.4byte	.LLST601
	.4byte	.LVUS601
	.uleb128 0x3
	.4byte	0x96d7
	.4byte	.LLST602
	.4byte	.LVUS602
	.uleb128 0x5c
	.4byte	0xa931
	.4byte	.LBI1923
	.2byte	.LVU1307
	.4byte	.LBB1923
	.4byte	.LBE1923-.LBB1923
	.byte	0
	.byte	0
	.uleb128 0x25
	.4byte	.LVL478
	.4byte	0xaa9e
	.uleb128 0x12
	.uleb128 0x1
	.byte	0x50
	.uleb128 0x2
	.byte	0x7d
	.sleb128 0
	.uleb128 0x12
	.uleb128 0x1
	.byte	0x51
	.uleb128 0xb
	.byte	0xa3
	.uleb128 0x3
	.byte	0xa5
	.uleb128 0
	.uleb128 0x26
	.byte	0xa8
	.uleb128 0x2d
	.byte	0xa8
	.uleb128 0
	.byte	0x23
	.uleb128 0x14
	.uleb128 0x12
	.uleb128 0x1
	.byte	0x52
	.uleb128 0x2
	.byte	0x91
	.sleb128 -48
	.uleb128 0x12
	.uleb128 0x1
	.byte	0x53
	.uleb128 0x2
	.byte	0x91
	.sleb128 -64
	.byte	0
	.byte	0
	.byte	0
	.uleb128 0x47
	.4byte	0x79f9
	.byte	0x7c
	.byte	0x8
	.4byte	0xcc3d
	.4byte	.LFB2074
	.4byte	.LFE2074-.LFB2074
	.uleb128 0x1
	.byte	0x9c
	.4byte	0xd14c
	.uleb128 0x35
	.4byte	.LASF1185
	.4byte	0x7eb6
	.4byte	.LLST603
	.4byte	.LVUS603
	.uleb128 0x6b
	.ascii	"out\000"
	.byte	0x7c
	.byte	0x21
	.4byte	0x7ec0
	.4byte	.LLST604
	.4byte	.LVUS604
	.uleb128 0x37
	.4byte	.LASF1230
	.byte	0x7c
	.byte	0x2d
	.4byte	0x6e8f
	.4byte	.LLST605
	.4byte	.LVUS605
	.uleb128 0x4a
	.4byte	.LASF1231
	.byte	0x1
	.byte	0x7d
	.byte	0xc
	.4byte	0x6e8f
	.uleb128 0x56
	.4byte	.LBB1992
	.4byte	.LBE1992-.LBB1992
	.4byte	0xcdd9
	.uleb128 0x3d
	.ascii	"n\000"
	.byte	0x81
	.byte	0x11
	.4byte	0x6e8f
	.4byte	.LLST613
	.4byte	.LVUS613
	.uleb128 0x52
	.4byte	0xc3e1
	.4byte	.LBI1993
	.2byte	.LVU1351
	.4byte	.LLRL614
	.byte	0x1
	.byte	0x82
	.byte	0x1c
	.uleb128 0x3
	.4byte	0xc3ef
	.4byte	.LLST615
	.4byte	.LVUS615
	.uleb128 0x3
	.4byte	0xc3f8
	.4byte	.LLST616
	.4byte	.LVUS616
	.uleb128 0x1b
	.4byte	0xc04b
	.4byte	.LBI1995
	.2byte	.LVU1352
	.4byte	.LLRL617
	.byte	0x4
	.2byte	0x557
	.byte	0x1f
	.uleb128 0x3
	.4byte	0xc059
	.4byte	.LLST618
	.4byte	.LVUS618
	.uleb128 0x3
	.4byte	0xc062
	.4byte	.LLST619
	.4byte	.LVUS619
	.uleb128 0x52
	.4byte	0xc397
	.4byte	.LBI1996
	.2byte	.LVU1353
	.4byte	.LLRL620
	.byte	0x4
	.byte	0xff
	.byte	0x18
	.uleb128 0x3
	.4byte	0xc3a1
	.4byte	.LLST621
	.4byte	.LVUS621
	.uleb128 0x3
	.4byte	0xc3ae
	.4byte	.LLST622
	.4byte	.LVUS622
	.uleb128 0x1d
	.4byte	.LLRL623
	.uleb128 0x3c
	.4byte	0xc3bb
	.uleb128 0x1e
	.4byte	0xbfcd
	.4byte	.LBI1998
	.2byte	.LVU1357
	.4byte	.LLRL624
	.byte	0x4
	.2byte	0x190
	.byte	0x8
	.4byte	0xcdaa
	.uleb128 0x5
	.4byte	0xbfdb
	.uleb128 0x3
	.4byte	0xbfe4
	.4byte	.LLST626
	.4byte	.LVUS626
	.uleb128 0x1d
	.4byte	.LLRL624
	.uleb128 0x1f
	.4byte	0xbff0
	.4byte	.LLST627
	.4byte	.LVUS627
	.uleb128 0x41
	.4byte	0xbffc
	.4byte	.LLRL628
	.uleb128 0x1f
	.4byte	0xbffd
	.4byte	.LLST629
	.4byte	.LVUS629
	.uleb128 0x27
	.4byte	0xa9e2
	.4byte	.LBI2002
	.2byte	.LVU1341
	.4byte	.LBB2002
	.4byte	.LBE2002-.LBB2002
	.byte	0x4
	.byte	0xf1
	.byte	0x11
	.uleb128 0x5
	.4byte	0xa9f0
	.uleb128 0x3
	.4byte	0xa9f9
	.4byte	.LLST631
	.4byte	.LVUS631
	.byte	0
	.byte	0
	.byte	0
	.byte	0
	.uleb128 0x10
	.4byte	0xc00b
	.4byte	.LBI2007
	.2byte	.LVU1354
	.4byte	.LBB2007
	.4byte	.LBE2007-.LBB2007
	.byte	0x4
	.2byte	0x18f
	.byte	0x8
	.uleb128 0x5
	.4byte	0xc019
	.uleb128 0x3
	.4byte	0xc022
	.4byte	.LLST633
	.4byte	.LVUS633
	.byte	0
	.byte	0
	.byte	0
	.byte	0
	.byte	0
	.byte	0
	.uleb128 0x38
	.4byte	0xc4e9
	.4byte	.LBI1981
	.2byte	.LVU1322
	.4byte	.LLRL606
	.byte	0x7d
	.byte	0x30
	.4byte	0xce2a
	.uleb128 0x3
	.4byte	0xc4f7
	.4byte	.LLST607
	.4byte	.LVUS607
	.uleb128 0x1b
	.4byte	0xc0ff
	.4byte	.LBI1983
	.2byte	.LVU1323
	.4byte	.LLRL608
	.byte	0x4
	.2byte	0x4f5
	.byte	0x28
	.uleb128 0x3
	.4byte	0xc109
	.4byte	.LLST609
	.4byte	.LVUS609
	.uleb128 0x3
	.4byte	0xc116
	.4byte	.LLST610
	.4byte	.LVUS610
	.byte	0
	.byte	0
	.uleb128 0x38
	.4byte	0xc406
	.4byte	.LBI1988
	.2byte	.LVU1326
	.4byte	.LLRL611
	.byte	0x7d
	.byte	0x22
	.4byte	0xce52
	.uleb128 0x5
	.4byte	0xc419
	.uleb128 0x3
	.4byte	0xc425
	.4byte	.LLST612
	.4byte	.LVUS612
	.byte	0
	.uleb128 0x2e
	.4byte	0xc3c9
	.4byte	.LBI2015
	.2byte	.LVU1368
	.4byte	.LBB2015
	.4byte	.LBE2015-.LBB2015
	.byte	0x1
	.byte	0x84
	.byte	0x22
	.4byte	0xcea4
	.uleb128 0x3
	.4byte	0xc3d7
	.4byte	.LLST634
	.4byte	.LVUS634
	.uleb128 0x10
	.4byte	0xc00b
	.4byte	.LBI2016
	.2byte	.LVU1369
	.4byte	.LBB2016
	.4byte	.LBE2016-.LBB2016
	.byte	0x4
	.2byte	0x480
	.byte	0x1e
	.uleb128 0x5
	.4byte	0xc019
	.uleb128 0x3
	.4byte	0xc022
	.4byte	.LLST636
	.4byte	.LVUS636
	.byte	0
	.byte	0
	.uleb128 0x2e
	.4byte	0xc345
	.4byte	.LBI2018
	.2byte	.LVU1373
	.4byte	.LBB2018
	.4byte	.LBE2018-.LBB2018
	.byte	0x1
	.byte	0x84
	.byte	0x13
	.4byte	0xcec9
	.uleb128 0x5
	.4byte	0xc35c
	.uleb128 0x5
	.4byte	0xc365
	.byte	0
	.uleb128 0x2e
	.4byte	0xc3c9
	.4byte	.LBI2019
	.2byte	.LVU1375
	.4byte	.LBB2019
	.4byte	.LBE2019-.LBB2019
	.byte	0x1
	.byte	0x84
	.byte	0x34
	.4byte	0xcf1b
	.uleb128 0x3
	.4byte	0xc3d7
	.4byte	.LLST639
	.4byte	.LVUS639
	.uleb128 0x10
	.4byte	0xc00b
	.4byte	.LBI2020
	.2byte	.LVU1376
	.4byte	.LBB2020
	.4byte	.LBE2020-.LBB2020
	.byte	0x4
	.2byte	0x480
	.byte	0x1e
	.uleb128 0x5
	.4byte	0xc019
	.uleb128 0x3
	.4byte	0xc022
	.4byte	.LLST641
	.4byte	.LVUS641
	.byte	0
	.byte	0
	.uleb128 0x38
	.4byte	0xc397
	.4byte	.LBI2021
	.2byte	.LVU1378
	.4byte	.LLRL642
	.byte	0x84
	.byte	0x39
	.4byte	0xcfe9
	.uleb128 0x5
	.4byte	0xc3a1
	.uleb128 0x3
	.4byte	0xc3ae
	.4byte	.LLST644
	.4byte	.LVUS644
	.uleb128 0x1d
	.4byte	.LLRL642
	.uleb128 0x3c
	.4byte	0xc3bb
	.uleb128 0x1e
	.4byte	0xc00b
	.4byte	.LBI2023
	.2byte	.LVU1379
	.4byte	.LLRL645
	.byte	0x4
	.2byte	0x18f
	.byte	0x8
	.4byte	0xcf6e
	.uleb128 0x5
	.4byte	0xc019
	.uleb128 0x5
	.4byte	0xc022
	.byte	0
	.uleb128 0x1b
	.4byte	0xbfcd
	.4byte	.LBI2025
	.2byte	.LVU1381
	.4byte	.LLRL648
	.byte	0x4
	.2byte	0x190
	.byte	0x8
	.uleb128 0x5
	.4byte	0xbfdb
	.uleb128 0x3
	.4byte	0xbfe4
	.4byte	.LLST650
	.4byte	.LVUS650
	.uleb128 0x1d
	.4byte	.LLRL648
	.uleb128 0x1f
	.4byte	0xbff0
	.4byte	.LLST651
	.4byte	.LVUS651
	.uleb128 0x41
	.4byte	0xbffc
	.4byte	.LLRL652
	.uleb128 0x1f
	.4byte	0xbffd
	.4byte	.LLST653
	.4byte	.LVUS653
	.uleb128 0x27
	.4byte	0xa9e2
	.4byte	.LBI2029
	.2byte	.LVU1393
	.4byte	.LBB2029
	.4byte	.LBE2029-.LBB2029
	.byte	0x4
	.byte	0xf1
	.byte	0x11
	.uleb128 0x5
	.4byte	0xa9f0
	.uleb128 0x3
	.4byte	0xa9f9
	.4byte	.LLST655
	.4byte	.LVUS655
	.byte	0
	.byte	0
	.byte	0
	.byte	0
	.byte	0
	.byte	0
	.uleb128 0x2e
	.4byte	0xc345
	.4byte	.LBI2039
	.2byte	.LVU1399
	.4byte	.LBB2039
	.4byte	.LBE2039-.LBB2039
	.byte	0x1
	.byte	0x84
	.byte	0x13
	.4byte	0xd00e
	.uleb128 0x5
	.4byte	0xc35c
	.uleb128 0x5
	.4byte	0xc365
	.byte	0
	.uleb128 0x27
	.4byte	0xc313
	.4byte	.LBI2040
	.2byte	.LVU1401
	.4byte	.LBB2040
	.4byte	.LBE2040-.LBB2040
	.byte	0x1
	.byte	0x84
	.byte	0x13
	.uleb128 0x3
	.4byte	0xc321
	.4byte	.LLST658
	.4byte	.LVUS658
	.uleb128 0x5
	.4byte	0xc32a
	.uleb128 0x5
	.4byte	0xc337
	.uleb128 0xc
	.4byte	0xbfb5
	.4byte	.LBI2042
	.2byte	.LVU1402
	.4byte	.LBB2042
	.4byte	.LBE2042-.LBB2042
	.byte	0x4
	.2byte	0x70b
	.byte	0x2e
	.4byte	0xd0ad
	.uleb128 0x5
	.4byte	0xbfc3
	.uleb128 0x27
	.4byte	0x96b4
	.4byte	.LBI2043
	.2byte	.LVU1403
	.4byte	.LBB2043
	.4byte	.LBE2043-.LBB2043
	.byte	0x4
	.byte	0xb1
	.byte	0x28
	.uleb128 0x3
	.4byte	0x96c2
	.4byte	.LLST660
	.4byte	.LVUS660
	.uleb128 0x3
	.4byte	0x96cb
	.4byte	.LLST661
	.4byte	.LVUS661
	.uleb128 0x3
	.4byte	0x96d7
	.4byte	.LLST662
	.4byte	.LVUS662
	.uleb128 0x5c
	.4byte	0xa931
	.4byte	.LBI2045
	.2byte	.LVU1407
	.4byte	.LBB2045
	.4byte	.LBE2045-.LBB2045
	.byte	0
	.byte	0
	.uleb128 0xc
	.4byte	0xbfb5
	.4byte	.LBI2046
	.2byte	.LVU1413
	.4byte	.LBB2046
	.4byte	.LBE2046-.LBB2046
	.byte	0x4
	.2byte	0x70b
	.byte	0x46
	.4byte	0xd11f
	.uleb128 0x5
	.4byte	0xbfc3
	.uleb128 0x27
	.4byte	0x96b4
	.4byte	.LBI2047
	.2byte	.LVU1414
	.4byte	.LBB2047
	.4byte	.LBE2047-.LBB2047
	.byte	0x4
	.byte	0xb1
	.byte	0x28
	.uleb128 0x3
	.4byte	0x96c2
	.4byte	.LLST664
	.4byte	.LVUS664
	.uleb128 0x3
	.4byte	0x96cb
	.4byte	.LLST665
	.4byte	.LVUS665
	.uleb128 0x3
	.4byte	0x96d7
	.4byte	.LLST666
	.4byte	.LVUS666
	.uleb128 0x5c
	.4byte	0xa931
	.4byte	.LBI2049
	.2byte	.LVU1418
	.4byte	.LBB2049
	.4byte	.LBE2049-.LBB2049
	.byte	0
	.byte	0
	.uleb128 0x25
	.4byte	.LVL513
	.4byte	0xaa9e
	.uleb128 0x12
	.uleb128 0x1
	.byte	0x50
	.uleb128 0x2
	.byte	0x7d
	.sleb128 0
	.uleb128 0x12
	.uleb128 0x1
	.byte	0x51
	.uleb128 0xb
	.byte	0xa3
	.uleb128 0x3
	.byte	0xa5
	.uleb128 0
	.uleb128 0x26
	.byte	0xa8
	.uleb128 0x2d
	.byte	0xa8
	.uleb128 0
	.byte	0x23
	.uleb128 0x14
	.uleb128 0x12
	.uleb128 0x1
	.byte	0x52
	.uleb128 0x2
	.byte	0x91
	.sleb128 -48
	.uleb128 0x12
	.uleb128 0x1
	.byte	0x53
	.uleb128 0x2
	.byte	0x91
	.sleb128 -64
	.byte	0
	.byte	0
	.byte	0
	.uleb128 0x47
	.4byte	0x7b3e
	.byte	0x58
	.byte	0x9
	.4byte	0xd165
	.4byte	.LFB2073
	.4byte	.LFE2073-.LFB2073
	.uleb128 0x1
	.byte	0x9c
	.4byte	0xd215
	.uleb128 0x35
	.4byte	.LASF1185
	.4byte	0x7eb6
	.4byte	.LLST0
	.4byte	.LVUS0
	.uleb128 0x29
	.4byte	.LASF1239
	.byte	0x59
	.byte	0xa
	.4byte	0x2d
	.4byte	.LLST1
	.4byte	.LVUS1
	.uleb128 0x29
	.4byte	.LASF1240
	.byte	0x5a
	.byte	0xa
	.4byte	0x7cef
	.4byte	.LLST2
	.4byte	.LVUS2
	.uleb128 0x29
	.4byte	.LASF1241
	.byte	0x65
	.byte	0xd
	.4byte	0x753c
	.4byte	.LLST3
	.4byte	.LVUS3
	.uleb128 0x29
	.4byte	.LASF1242
	.byte	0x67
	.byte	0x9
	.4byte	0x3b
	.4byte	.LLST4
	.4byte	.LVUS4
	.uleb128 0x29
	.4byte	.LASF1243
	.byte	0x68
	.byte	0x9
	.4byte	0x3b
	.4byte	.LLST5
	.4byte	.LVUS5
	.uleb128 0x51
	.4byte	.LLRL7
	.4byte	0xd1f0
	.uleb128 0x3d
	.ascii	"n\000"
	.byte	0x69
	.byte	0x11
	.4byte	0x6e8f
	.4byte	.LLST8
	.4byte	.LVUS8
	.byte	0
	.uleb128 0x27
	.4byte	0xc4d1
	.4byte	.LBI766
	.2byte	.LVU3
	.4byte	.LBB766
	.4byte	.LBE766-.LBB766
	.byte	0x1
	.byte	0x59
	.byte	0x29
	.uleb128 0x3
	.4byte	0xc4df
	.4byte	.LLST6
	.4byte	.LVUS6
	.byte	0
	.byte	0
	.uleb128 0x47
	.4byte	0x7b20
	.byte	0x46
	.byte	0x9
	.4byte	0xd22e
	.4byte	.LFB2072
	.4byte	.LFE2072-.LFB2072
	.uleb128 0x1
	.byte	0x9c
	.4byte	0xd2e6
	.uleb128 0x35
	.4byte	.LASF1185
	.4byte	0x7eb6
	.4byte	.LLST9
	.4byte	.LVUS9
	.uleb128 0x29
	.4byte	.LASF1239
	.byte	0x4a
	.byte	0xa
	.4byte	0x2d
	.4byte	.LLST10
	.4byte	.LVUS10
	.uleb128 0x29
	.4byte	.LASF1240
	.byte	0x4b
	.byte	0xa
	.4byte	0x7cef
	.4byte	.LLST11
	.4byte	.LVUS11
	.uleb128 0x29
	.4byte	.LASF1241
	.byte	0x4d
	.byte	0xd
	.4byte	0x753c
	.4byte	.LLST12
	.4byte	.LVUS12
	.uleb128 0x29
	.4byte	.LASF1244
	.byte	0x4e
	.byte	0x9
	.4byte	0x3b
	.4byte	.LLST13
	.4byte	.LVUS13
	.uleb128 0x51
	.4byte	.LLRL15
	.4byte	0xd2a6
	.uleb128 0x3d
	.ascii	"n\000"
	.byte	0x4f
	.byte	0x11
	.4byte	0x6e8f
	.4byte	.LLST16
	.4byte	.LVUS16
	.byte	0
	.uleb128 0x2e
	.4byte	0xc4d1
	.4byte	.LBI770
	.2byte	.LVU71
	.4byte	.LBB770
	.4byte	.LBE770-.LBB770
	.byte	0x1
	.byte	0x4a
	.byte	0x29
	.4byte	0xd2ce
	.uleb128 0x3
	.4byte	0xc4df
	.4byte	.LLST14
	.4byte	.LVUS14
	.byte	0
	.uleb128 0x25
	.4byte	.LVL29
	.4byte	0xd14c
	.uleb128 0x12
	.uleb128 0x1
	.byte	0x50
	.uleb128 0x9
	.byte	0xa3
	.uleb128 0x3
	.byte	0xa5
	.uleb128 0
	.uleb128 0x26
	.byte	0xa8
	.uleb128 0x2d
	.byte	0xa8
	.uleb128 0
	.byte	0
	.byte	0
	.uleb128 0x47
	.4byte	0x7afc
	.byte	0x2d
	.byte	0x6
	.4byte	0xd2ff
	.4byte	.LFB2071
	.4byte	.LFE2071-.LFB2071
	.uleb128 0x1
	.byte	0x9c
	.4byte	0xd612
	.uleb128 0x35
	.4byte	.LASF1185
	.4byte	0x7eb6
	.4byte	.LLST250
	.4byte	.LVUS250
	.uleb128 0x37
	.4byte	.LASF1245
	.byte	0x2d
	.byte	0x35
	.4byte	0x45a3
	.4byte	.LLST251
	.4byte	.LVUS251
	.uleb128 0x37
	.4byte	.LASF1246
	.byte	0x2d
	.byte	0x4c
	.4byte	0x7548
	.4byte	.LLST252
	.4byte	.LVUS252
	.uleb128 0x3d
	.ascii	"n\000"
	.byte	0x2e
	.byte	0xc
	.4byte	0x6e8f
	.4byte	.LLST253
	.4byte	.LVUS253
	.uleb128 0x29
	.4byte	.LASF1156
	.byte	0x2f
	.byte	0xd
	.4byte	0x753c
	.4byte	.LLST254
	.4byte	.LVUS254
	.uleb128 0x29
	.4byte	.LASF1239
	.byte	0x35
	.byte	0xa
	.4byte	0x2d
	.4byte	.LLST255
	.4byte	.LVUS255
	.uleb128 0x29
	.4byte	.LASF1240
	.byte	0x36
	.byte	0xa
	.4byte	0x7cef
	.4byte	.LLST256
	.4byte	.LVUS256
	.uleb128 0x3d
	.ascii	"sym\000"
	.byte	0x37
	.byte	0xa
	.4byte	0x66a4
	.4byte	.LLST257
	.4byte	.LVUS257
	.uleb128 0x38
	.4byte	0xc494
	.4byte	.LBI1128
	.2byte	.LVU548
	.4byte	.LLRL258
	.byte	0x31
	.byte	0x26
	.4byte	0xd3b6
	.uleb128 0x3
	.4byte	0xc4a2
	.4byte	.LLST259
	.4byte	.LVUS259
	.byte	0
	.uleb128 0x38
	.4byte	0xc44a
	.4byte	.LBI1131
	.2byte	.LVU581
	.4byte	.LLRL260
	.byte	0x32
	.byte	0x21
	.4byte	0xd572
	.uleb128 0x3
	.4byte	0xc458
	.4byte	.LLST261
	.4byte	.LVUS261
	.uleb128 0x3
	.4byte	0xc461
	.4byte	.LLST262
	.4byte	.LVUS262
	.uleb128 0x1b
	.4byte	0xc09d
	.4byte	.LBI1132
	.2byte	.LVU582
	.4byte	.LLRL260
	.byte	0x2
	.2byte	0x515
	.byte	0x15
	.uleb128 0x3
	.4byte	0xc0ba
	.4byte	.LLST263
	.4byte	.LVUS263
	.uleb128 0x3
	.4byte	0xc0c7
	.4byte	.LLST264
	.4byte	.LVUS264
	.uleb128 0x2e
	.4byte	0x971d
	.4byte	.LBI1134
	.2byte	.LVU557
	.4byte	.LBB1134
	.4byte	.LBE1134-.LBB1134
	.byte	0x9
	.byte	0x7d
	.byte	0xd
	.4byte	0xd4d9
	.uleb128 0x3
	.4byte	0x972b
	.4byte	.LLST265
	.4byte	.LVUS265
	.uleb128 0xc
	.4byte	0x931c
	.4byte	.LBI1135
	.2byte	.LVU558
	.4byte	.LBB1135
	.4byte	.LBE1135-.LBB1135
	.byte	0x2
	.2byte	0x4d6
	.byte	0xe
	.4byte	0xd48c
	.uleb128 0x3
	.4byte	0x932a
	.4byte	.LLST266
	.4byte	.LVUS266
	.uleb128 0x10
	.4byte	0x8f9a
	.4byte	.LBI1136
	.2byte	.LVU559
	.4byte	.LBB1136
	.4byte	.LBE1136-.LBB1136
	.byte	0x2
	.2byte	0x37e
	.byte	0x10
	.uleb128 0x5
	.4byte	0x8fa8
	.uleb128 0x3
	.4byte	0x8fb1
	.4byte	.LLST267
	.4byte	.LVUS267
	.byte	0
	.byte	0
	.uleb128 0x10
	.4byte	0x921e
	.4byte	.LBI1137
	.2byte	.LVU561
	.4byte	.LBB1137
	.4byte	.LBE1137-.LBB1137
	.byte	0x2
	.2byte	0x4d6
	.byte	0x11
	.uleb128 0x5
	.4byte	0x922c
	.uleb128 0x3
	.4byte	0x9235
	.4byte	.LLST268
	.4byte	.LVUS268
	.uleb128 0x10
	.4byte	0x8f9a
	.4byte	.LBI1138
	.2byte	.LVU562
	.4byte	.LBB1138
	.4byte	.LBE1138-.LBB1138
	.byte	0xa
	.2byte	0x47d
	.byte	0x10
	.uleb128 0x5
	.4byte	0x8fa8
	.uleb128 0x5
	.4byte	0x8fb1
	.byte	0
	.byte	0
	.byte	0
	.uleb128 0x2e
	.4byte	0xa8e8
	.4byte	.LBI1139
	.2byte	.LVU585
	.4byte	.LBB1139
	.4byte	.LBE1139-.LBB1139
	.byte	0x9
	.byte	0x75
	.byte	0x1e
	.4byte	0xd55a
	.uleb128 0x3
	.4byte	0xa90a
	.4byte	.LLST269
	.4byte	.LVUS269
	.uleb128 0x3
	.4byte	0xa917
	.4byte	.LLST270
	.4byte	.LVUS270
	.uleb128 0x3
	.4byte	0xa92a
	.4byte	.LLST271
	.4byte	.LVUS271
	.uleb128 0x10
	.4byte	0x93c8
	.4byte	.LBI1140
	.2byte	.LVU586
	.4byte	.LBB1140
	.4byte	.LBE1140-.LBB1140
	.byte	0x6
	.2byte	0x216
	.byte	0x11
	.uleb128 0x3
	.4byte	0x93ee
	.4byte	.LLST272
	.4byte	.LVUS272
	.uleb128 0x3
	.4byte	0x93f7
	.4byte	.LLST273
	.4byte	.LVUS273
	.uleb128 0x3
	.4byte	0x9407
	.4byte	.LLST274
	.4byte	.LVUS274
	.byte	0
	.byte	0
	.uleb128 0x25
	.4byte	.LVL224
	.4byte	0x9735
	.uleb128 0x12
	.uleb128 0x1
	.byte	0x50
	.uleb128 0x2
	.byte	0x7a
	.sleb128 0
	.uleb128 0x12
	.uleb128 0x1
	.byte	0x51
	.uleb128 0x2
	.byte	0x7b
	.sleb128 0
	.byte	0
	.byte	0
	.byte	0
	.uleb128 0x2e
	.4byte	0xc46f
	.4byte	.LBI1148
	.2byte	.LVU571
	.4byte	.LBB1148
	.4byte	.LBE1148-.LBB1148
	.byte	0x1
	.byte	0x32
	.byte	0x36
	.4byte	0xd5a7
	.uleb128 0x3
	.4byte	0xc47d
	.4byte	.LLST275
	.4byte	.LVUS275
	.uleb128 0x3
	.4byte	0xc486
	.4byte	.LLST276
	.4byte	.LVUS276
	.byte	0
	.uleb128 0x38
	.4byte	0xd8f2
	.4byte	.LBI1149
	.2byte	.LVU573
	.4byte	.LLRL277
	.byte	0x32
	.byte	0x27
	.4byte	0xd5d3
	.uleb128 0x3
	.4byte	0xd8fc
	.4byte	.LLST278
	.4byte	.LVUS278
	.uleb128 0x43
	.4byte	.LVL231
	.4byte	0xd925
	.byte	0
	.uleb128 0x38
	.4byte	0xc4d1
	.4byte	.LBI1154
	.2byte	.LVU592
	.4byte	.LLRL279
	.byte	0x35
	.byte	0x29
	.4byte	0xd5f6
	.uleb128 0x3
	.4byte	0xc4df
	.4byte	.LLST280
	.4byte	.LVUS280
	.byte	0
	.uleb128 0x43
	.4byte	.LVL228
	.4byte	0xd92e
	.uleb128 0x43
	.4byte	.LVL230
	.4byte	0xd937
	.uleb128 0x43
	.4byte	.LVL232
	.4byte	0xd940
	.byte	0
	.uleb128 0x47
	.4byte	0x79b0
	.byte	0x8
	.byte	0x6
	.4byte	0xd62b
	.4byte	.LFB2070
	.4byte	.LFE2070-.LFB2070
	.uleb128 0x1
	.byte	0x9c
	.4byte	0xd8ca
	.uleb128 0x35
	.4byte	.LASF1185
	.4byte	0x7eb6
	.4byte	.LLST176
	.4byte	.LVUS176
	.uleb128 0x37
	.4byte	.LASF417
	.byte	0x8
	.byte	0x27
	.4byte	0x7ebb
	.4byte	.LLST177
	.4byte	.LVUS177
	.uleb128 0x37
	.4byte	.LASF1232
	.byte	0x8
	.byte	0x34
	.4byte	0x6e8f
	.4byte	.LLST178
	.4byte	.LVUS178
	.uleb128 0x37
	.4byte	.LASF1233
	.byte	0x8
	.byte	0x43
	.4byte	0x6e8f
	.4byte	.LLST179
	.4byte	.LVUS179
	.uleb128 0x29
	.4byte	.LASF1247
	.byte	0x9
	.byte	0xa
	.4byte	0x2d
	.4byte	.LLST180
	.4byte	.LVUS180
	.uleb128 0x56
	.4byte	.LBB1014
	.4byte	.LBE1014-.LBB1014
	.4byte	0xd8a5
	.uleb128 0x29
	.4byte	.LASF1248
	.byte	0xb
	.byte	0x11
	.4byte	0x6e8f
	.4byte	.LLST182
	.4byte	.LVUS182
	.uleb128 0x1d
	.4byte	.LLRL183
	.uleb128 0x29
	.4byte	.LASF1249
	.byte	0x15
	.byte	0xe
	.4byte	0x66a4
	.4byte	.LLST184
	.4byte	.LVUS184
	.uleb128 0x38
	.4byte	0xc4ac
	.4byte	.LBI1016
	.2byte	.LVU415
	.4byte	.LLRL185
	.byte	0x25
	.byte	0x1f
	.4byte	0xd839
	.uleb128 0x3
	.4byte	0xc4ba
	.4byte	.LLST186
	.4byte	.LVUS186
	.uleb128 0x3
	.4byte	0xc4c3
	.4byte	.LLST187
	.4byte	.LVUS187
	.uleb128 0x1b
	.4byte	0xc0ce
	.4byte	.LBI1017
	.2byte	.LVU416
	.4byte	.LLRL185
	.byte	0x4
	.2byte	0x612
	.byte	0x15
	.uleb128 0x3
	.4byte	0xc0eb
	.4byte	.LLST188
	.4byte	.LVUS188
	.uleb128 0x3
	.4byte	0xc0f8
	.4byte	.LLST189
	.4byte	.LVUS189
	.uleb128 0x2e
	.4byte	0xa8e8
	.4byte	.LBI1019
	.2byte	.LVU419
	.4byte	.LBB1019
	.4byte	.LBE1019-.LBB1019
	.byte	0x7
	.byte	0xaa
	.byte	0x1e
	.4byte	0xd79d
	.uleb128 0x3
	.4byte	0xa90a
	.4byte	.LLST190
	.4byte	.LVUS190
	.uleb128 0x3
	.4byte	0xa917
	.4byte	.LLST191
	.4byte	.LVUS191
	.uleb128 0x3
	.4byte	0xa92a
	.4byte	.LLST192
	.4byte	.LVUS192
	.uleb128 0x10
	.4byte	0x93c8
	.4byte	.LBI1020
	.2byte	.LVU420
	.4byte	.LBB1020
	.4byte	.LBE1020-.LBB1020
	.byte	0x6
	.2byte	0x216
	.byte	0x11
	.uleb128 0x3
	.4byte	0x93ee
	.4byte	.LLST193
	.4byte	.LVUS193
	.uleb128 0x3
	.4byte	0x93f7
	.4byte	.LLST194
	.4byte	.LVUS194
	.uleb128 0x3
	.4byte	0x9407
	.4byte	.LLST195
	.4byte	.LVUS195
	.byte	0
	.byte	0
	.uleb128 0x2e
	.4byte	0x9d81
	.4byte	.LBI1022
	.2byte	.LVU424
	.4byte	.LBB1022
	.4byte	.LBE1022-.LBB1022
	.byte	0x7
	.byte	0xb2
	.byte	0xd
	.4byte	0xd821
	.uleb128 0x3
	.4byte	0x9d8f
	.4byte	.LLST196
	.4byte	.LVUS196
	.uleb128 0x3c
	.4byte	0x9d98
	.uleb128 0x10
	.4byte	0xc173
	.4byte	.LBI1024
	.2byte	.LVU425
	.4byte	.LBB1024
	.4byte	.LBE1024-.LBB1024
	.byte	0x4
	.2byte	0x5bf
	.byte	0xb
	.uleb128 0x3
	.4byte	0xc181
	.4byte	.LLST197
	.4byte	.LVUS197
	.uleb128 0x10
	.4byte	0xc00b
	.4byte	.LBI1025
	.2byte	.LVU426
	.4byte	.LBB1025
	.4byte	.LBE1025-.LBB1025
	.byte	0x4
	.2byte	0x493
	.byte	0x1e
	.uleb128 0x3
	.4byte	0xc019
	.4byte	.LLST198
	.4byte	.LVUS198
	.uleb128 0x3
	.4byte	0xc022
	.4byte	.LLST199
	.4byte	.LVUS199
	.byte	0
	.byte	0
	.byte	0
	.uleb128 0x25
	.4byte	.LVL185
	.4byte	0x9da6
	.uleb128 0x12
	.uleb128 0x1
	.byte	0x50
	.uleb128 0x2
	.byte	0x74
	.sleb128 20
	.uleb128 0x12
	.uleb128 0x1
	.byte	0x51
	.uleb128 0x2
	.byte	0x91
	.sleb128 -44
	.byte	0
	.byte	0
	.byte	0
	.uleb128 0x2e
	.4byte	0xc4e9
	.4byte	.LBI1028
	.2byte	.LVU455
	.4byte	.LBB1028
	.4byte	.LBE1028-.LBB1028
	.byte	0x1
	.byte	0x23
	.byte	0x1a
	.4byte	0xd893
	.uleb128 0x3
	.4byte	0xc4f7
	.4byte	.LLST200
	.4byte	.LVUS200
	.uleb128 0x10
	.4byte	0xc0ff
	.4byte	.LBI1030
	.2byte	.LVU456
	.4byte	.LBB1030
	.4byte	.LBE1030-.LBB1030
	.byte	0x4
	.2byte	0x4f5
	.byte	0x28
	.uleb128 0x3
	.4byte	0xc109
	.4byte	.LLST201
	.4byte	.LVUS201
	.uleb128 0x3
	.4byte	0xc116
	.4byte	.LLST202
	.4byte	.LVUS202
	.byte	0
	.byte	0
	.uleb128 0x25
	.4byte	.LVL172
	.4byte	0xd215
	.uleb128 0x12
	.uleb128 0x1
	.byte	0x50
	.uleb128 0x2
	.byte	0x74
	.sleb128 0
	.byte	0
	.byte	0
	.byte	0
	.uleb128 0x27
	.4byte	0xc4d1
	.4byte	.LBI1012
	.2byte	.LVU400
	.4byte	.LBB1012
	.4byte	.LBE1012-.LBB1012
	.byte	0x1
	.byte	0x9
	.byte	0x31
	.uleb128 0x3
	.4byte	0xc4df
	.4byte	.LLST181
	.4byte	.LVUS181
	.byte	0
	.byte	0
	.uleb128 0x9b
	.4byte	.LASF1168
	.byte	0x24
	.byte	0xb3
	.byte	0x21
	.4byte	.LASF1250
	.4byte	0x6efe
	.byte	0x3
	.4byte	0xd8f2
	.uleb128 0x1
	.4byte	0x155
	.uleb128 0x2c
	.ascii	"__p\000"
	.byte	0x24
	.byte	0xb3
	.byte	0x41
	.4byte	0x6efe
	.byte	0
	.uleb128 0x15
	.4byte	0x12e9
	.byte	0x3
	.4byte	0xd90a
	.uleb128 0x19
	.ascii	"__x\000"
	.byte	0xc
	.2byte	0xa7f
	.byte	0xf
	.4byte	0x34
	.byte	0
	.uleb128 0x4b
	.4byte	.LASF1165
	.4byte	.LASF1252
	.uleb128 0x4b
	.4byte	.LASF1251
	.4byte	.LASF1253
	.uleb128 0x4b
	.4byte	.LASF1254
	.4byte	.LASF1254
	.uleb128 0x4b
	.4byte	.LASF1255
	.4byte	.LASF1256
	.uleb128 0x4b
	.4byte	.LASF1257
	.4byte	.LASF1257
	.uleb128 0x4b
	.4byte	.LASF1258
	.4byte	.LASF1258
	.uleb128 0x4b
	.4byte	.LASF1259
	.4byte	.LASF1259
	.byte	0
	.section	.debug_abbrev,"",%progbits
.Ldebug_abbrev0:
	.uleb128 0x1
	.uleb128 0x5
	.byte	0
	.uleb128 0x49
	.uleb128 0x13
	.byte	0
	.byte	0
	.uleb128 0x2
	.uleb128 0x5
	.byte	0
	.uleb128 0x49
	.uleb128 0x13
	.uleb128 0x34
	.uleb128 0x19
	.byte	0
	.byte	0
	.uleb128 0x3
	.uleb128 0x5
	.byte	0
	.uleb128 0x31
	.uleb128 0x13
	.uleb128 0x2
	.uleb128 0x17
	.uleb128 0x2137
	.uleb128 0x17
	.byte	0
	.byte	0
	.uleb128 0x4
	.uleb128 0x8
	.byte	0
	.uleb128 0x3a
	.uleb128 0xb
	.uleb128 0x3b
	.uleb128 0xb
	.uleb128 0x39
	.uleb128 0xb
	.uleb128 0x18
	.uleb128 0x13
	.byte	0
	.byte	0
	.uleb128 0x5
	.uleb128 0x5
	.byte	0
	.uleb128 0x31
	.uleb128 0x13
	.byte	0
	.byte	0
	.uleb128 0x6
	.uleb128 0x2e
	.byte	0x1
	.uleb128 0x3f
	.uleb128 0x19
	.uleb128 0x3
	.uleb128 0xe
	.uleb128 0x3a
	.uleb128 0xb
	.uleb128 0x3b
	.uleb128 0x5
	.uleb128 0x39
	.uleb128 0xb
	.uleb128 0x6e
	.uleb128 0xe
	.uleb128 0x49
	.uleb128 0x13
	.uleb128 0x3c
	.uleb128 0x19
	.uleb128 0x1
	.uleb128 0x13
	.byte	0
	.byte	0
	.uleb128 0x7
	.uleb128 0x2e
	.byte	0x1
	.uleb128 0x3f
	.uleb128 0x19
	.uleb128 0x3
	.uleb128 0xe
	.uleb128 0x3a
	.uleb128 0xb
	.uleb128 0x3b
	.uleb128 0x5
	.uleb128 0x39
	.uleb128 0xb
	.uleb128 0x6e
	.uleb128 0xe
	.uleb128 0x49
	.uleb128 0x13
	.uleb128 0x32
	.uleb128 0xb
	.uleb128 0x3c
	.uleb128 0x19
	.uleb128 0x64
	.uleb128 0x13
	.uleb128 0x1
	.uleb128 0x13
	.byte	0
	.byte	0
	.uleb128 0x8
	.uleb128 0x2f
	.byte	0
	.uleb128 0x3
	.uleb128 0x8
	.uleb128 0x49
	.uleb128 0x13
	.byte	0
	.byte	0
	.uleb128 0x9
	.uleb128 0x5
	.byte	0
	.uleb128 0x3
	.uleb128 0xe
	.uleb128 0x3a
	.uleb128 0xb
	.uleb128 0x3b
	.uleb128 0x5
	.uleb128 0x39
	.uleb128 0xb
	.uleb128 0x49
	.uleb128 0x13
	.byte	0
	.byte	0
	.uleb128 0xa
	.uleb128 0x2f
	.byte	0
	.uleb128 0x3
	.uleb128 0xe
	.uleb128 0x49
	.uleb128 0x13
	.byte	0
	.byte	0
	.uleb128 0xb
	.uleb128 0x26
	.byte	0
	.uleb128 0x49
	.uleb128 0x13
	.byte	0
	.byte	0
	.uleb128 0xc
	.uleb128 0x1d
	.byte	0x1
	.uleb128 0x31
	.uleb128 0x13
	.uleb128 0x52
	.uleb128 0x1
	.uleb128 0x2138
	.uleb128 0x5
	.uleb128 0x11
	.uleb128 0x1
	.uleb128 0x12
	.uleb128 0x6
	.uleb128 0x58
	.uleb128 0xb
	.uleb128 0x59
	.uleb128 0x5
	.uleb128 0x57
	.uleb128 0xb
	.uleb128 0x1
	.uleb128 0x13
	.byte	0
	.byte	0
	.uleb128 0xd
	.uleb128 0x10
	.byte	0
	.uleb128 0xb
	.uleb128 0x21
	.sleb128 4
	.uleb128 0x49
	.uleb128 0x13
	.byte	0
	.byte	0
	.uleb128 0xe
	.uleb128 0x2e
	.byte	0x1
	.uleb128 0x3f
	.uleb128 0x19
	.uleb128 0x3
	.uleb128 0xe
	.uleb128 0x3a
	.uleb128 0xb
	.uleb128 0x3b
	.uleb128 0x5
	.uleb128 0x39
	.uleb128 0xb
	.uleb128 0x6e
	.uleb128 0xe
	.uleb128 0x32
	.uleb128 0xb
	.uleb128 0x3c
	.uleb128 0x19
	.uleb128 0x64
	.uleb128 0x13
	.uleb128 0x1
	.uleb128 0x13
	.byte	0
	.byte	0
	.uleb128 0xf
	.uleb128 0x16
	.byte	0
	.uleb128 0x3
	.uleb128 0xe
	.uleb128 0x3a
	.uleb128 0xb
	.uleb128 0x3b
	.uleb128 0xb
	.uleb128 0x39
	.uleb128 0xb
	.uleb128 0x49
	.uleb128 0x13
	.byte	0
	.byte	0
	.uleb128 0x10
	.uleb128 0x1d
	.byte	0x1
	.uleb128 0x31
	.uleb128 0x13
	.uleb128 0x52
	.uleb128 0x1
	.uleb128 0x2138
	.uleb128 0x5
	.uleb128 0x11
	.uleb128 0x1
	.uleb128 0x12
	.uleb128 0x6
	.uleb128 0x58
	.uleb128 0xb
	.uleb128 0x59
	.uleb128 0x5
	.uleb128 0x57
	.uleb128 0xb
	.byte	0
	.byte	0
	.uleb128 0x11
	.uleb128 0x5
	.byte	0
	.uleb128 0x3
	.uleb128 0xe
	.uleb128 0x49
	.uleb128 0x13
	.uleb128 0x34
	.uleb128 0x19
	.byte	0
	.byte	0
	.uleb128 0x12
	.uleb128 0x49
	.byte	0
	.uleb128 0x2
	.uleb128 0x18
	.uleb128 0x7e
	.uleb128 0x18
	.byte	0
	.byte	0
	.uleb128 0x13
	.uleb128 0xf
	.byte	0
	.uleb128 0xb
	.uleb128 0x21
	.sleb128 4
	.uleb128 0x49
	.uleb128 0x13
	.byte	0
	.byte	0
	.uleb128 0x14
	.uleb128 0x2e
	.byte	0x1
	.uleb128 0x47
	.uleb128 0x13
	.uleb128 0x64
	.uleb128 0x13
	.uleb128 0x20
	.uleb128 0xb
	.uleb128 0x1
	.uleb128 0x13
	.byte	0
	.byte	0
	.uleb128 0x15
	.uleb128 0x2e
	.byte	0x1
	.uleb128 0x47
	.uleb128 0x13
	.uleb128 0x20
	.uleb128 0xb
	.uleb128 0x1
	.uleb128 0x13
	.byte	0
	.byte	0
	.uleb128 0x16
	.uleb128 0x2e
	.byte	0x1
	.uleb128 0x3f
	.uleb128 0x19
	.uleb128 0x3
	.uleb128 0xe
	.uleb128 0x3a
	.uleb128 0xb
	.uleb128 0x3b
	.uleb128 0xb
	.uleb128 0x39
	.uleb128 0xb
	.uleb128 0x6e
	.uleb128 0xe
	.uleb128 0x49
	.uleb128 0x13
	.uleb128 0x32
	.uleb128 0xb
	.uleb128 0x3c
	.uleb128 0x19
	.uleb128 0x64
	.uleb128 0x13
	.uleb128 0x1
	.uleb128 0x13
	.byte	0
	.byte	0
	.uleb128 0x17
	.uleb128 0x2e
	.byte	0x1
	.uleb128 0x3f
	.uleb128 0x19
	.uleb128 0x3
	.uleb128 0xe
	.uleb128 0x3a
	.uleb128 0xb
	.uleb128 0x3b
	.uleb128 0xb
	.uleb128 0x39
	.uleb128 0xb
	.uleb128 0x6e
	.uleb128 0xe
	.uleb128 0x49
	.uleb128 0x13
	.uleb128 0x3c
	.uleb128 0x19
	.uleb128 0x64
	.uleb128 0x13
	.uleb128 0x1
	.uleb128 0x13
	.byte	0
	.byte	0
	.uleb128 0x18
	.uleb128 0x30
	.byte	0
	.uleb128 0x3
	.uleb128 0xe
	.uleb128 0x49
	.uleb128 0x13
	.uleb128 0x1c
	.uleb128 0xb
	.byte	0
	.byte	0
	.uleb128 0x19
	.uleb128 0x5
	.byte	0
	.uleb128 0x3
	.uleb128 0x8
	.uleb128 0x3a
	.uleb128 0xb
	.uleb128 0x3b
	.uleb128 0x5
	.uleb128 0x39
	.uleb128 0xb
	.uleb128 0x49
	.uleb128 0x13
	.byte	0
	.byte	0
	.uleb128 0x1a
	.uleb128 0x16
	.byte	0
	.uleb128 0x3
	.uleb128 0xe
	.uleb128 0x3a
	.uleb128 0xb
	.uleb128 0x3b
	.uleb128 0x5
	.uleb128 0x39
	.uleb128 0xb
	.uleb128 0x49
	.uleb128 0x13
	.uleb128 0x32
	.uleb128 0xb
	.byte	0
	.byte	0
	.uleb128 0x1b
	.uleb128 0x1d
	.byte	0x1
	.uleb128 0x31
	.uleb128 0x13
	.uleb128 0x52
	.uleb128 0x1
	.uleb128 0x2138
	.uleb128 0x5
	.uleb128 0x55
	.uleb128 0x17
	.uleb128 0x58
	.uleb128 0xb
	.uleb128 0x59
	.uleb128 0x5
	.uleb128 0x57
	.uleb128 0xb
	.byte	0
	.byte	0
	.uleb128 0x1c
	.uleb128 0x2e
	.byte	0x1
	.uleb128 0x3f
	.uleb128 0x19
	.uleb128 0x3
	.uleb128 0xe
	.uleb128 0x3a
	.uleb128 0xb
	.uleb128 0x3b
	.uleb128 0x5
	.uleb128 0x39
	.uleb128 0xb
	.uleb128 0x6e
	.uleb128 0xe
	.uleb128 0x49
	.uleb128 0x13
	.uleb128 0x3c
	.uleb128 0x19
	.uleb128 0x64
	.uleb128 0x13
	.uleb128 0x1
	.uleb128 0x13
	.byte	0
	.byte	0
	.uleb128 0x1d
	.uleb128 0xb
	.byte	0x1
	.uleb128 0x55
	.uleb128 0x17
	.byte	0
	.byte	0
	.uleb128 0x1e
	.uleb128 0x1d
	.byte	0x1
	.uleb128 0x31
	.uleb128 0x13
	.uleb128 0x52
	.uleb128 0x1
	.uleb128 0x2138
	.uleb128 0x5
	.uleb128 0x55
	.uleb128 0x17
	.uleb128 0x58
	.uleb128 0xb
	.uleb128 0x59
	.uleb128 0x5
	.uleb128 0x57
	.uleb128 0xb
	.uleb128 0x1
	.uleb128 0x13
	.byte	0
	.byte	0
	.uleb128 0x1f
	.uleb128 0x34
	.byte	0
	.uleb128 0x31
	.uleb128 0x13
	.uleb128 0x2
	.uleb128 0x17
	.uleb128 0x2137
	.uleb128 0x17
	.byte	0
	.byte	0
	.uleb128 0x20
	.uleb128 0xd
	.byte	0
	.uleb128 0x3
	.uleb128 0xe
	.uleb128 0x3a
	.uleb128 0xb
	.uleb128 0x3b
	.uleb128 0xb
	.uleb128 0x39
	.uleb128 0xb
	.uleb128 0x49
	.uleb128 0x13
	.uleb128 0x38
	.uleb128 0xb
	.byte	0
	.byte	0
	.uleb128 0x21
	.uleb128 0x13
	.byte	0x1
	.uleb128 0x3
	.uleb128 0xe
	.uleb128 0xb
	.uleb128 0xb
	.uleb128 0x3a
	.uleb128 0xb
	.uleb128 0x3b
	.uleb128 0xb
	.uleb128 0x39
	.uleb128 0xb
	.uleb128 0x1
	.uleb128 0x13
	.byte	0
	.byte	0
	.uleb128 0x22
	.uleb128 0x16
	.byte	0
	.uleb128 0x3
	.uleb128 0xe
	.uleb128 0x3a
	.uleb128 0xb
	.uleb128 0x3b
	.uleb128 0x5
	.uleb128 0x39
	.uleb128 0xb
	.uleb128 0x49
	.uleb128 0x13
	.byte	0
	.byte	0
	.uleb128 0x23
	.uleb128 0x34
	.byte	0
	.uleb128 0x3
	.uleb128 0xe
	.uleb128 0x3a
	.uleb128 0xb
	.uleb128 0x3b
	.uleb128 0x5
	.uleb128 0x39
	.uleb128 0xb
	.uleb128 0x49
	.uleb128 0x13
	.byte	0
	.byte	0
	.uleb128 0x24
	.uleb128 0x8
	.byte	0
	.uleb128 0x3a
	.uleb128 0xb
	.uleb128 0x3b
	.uleb128 0x5
	.uleb128 0x39
	.uleb128 0xb
	.uleb128 0x18
	.uleb128 0x13
	.byte	0
	.byte	0
	.uleb128 0x25
	.uleb128 0x48
	.byte	0x1
	.uleb128 0x7d
	.uleb128 0x1
	.uleb128 0x7f
	.uleb128 0x13
	.byte	0
	.byte	0
	.uleb128 0x26
	.uleb128 0x2e
	.byte	0x1
	.uleb128 0x3f
	.uleb128 0x19
	.uleb128 0x3
	.uleb128 0xe
	.uleb128 0x3a
	.uleb128 0xb
	.uleb128 0x3b
	.uleb128 0xb
	.uleb128 0x39
	.uleb128 0xb
	.uleb128 0x6e
	.uleb128 0xe
	.uleb128 0x49
	.uleb128 0x13
	.uleb128 0x3c
	.uleb128 0x19
	.uleb128 0x1
	.uleb128 0x13
	.byte	0
	.byte	0
	.uleb128 0x27
	.uleb128 0x1d
	.byte	0x1
	.uleb128 0x31
	.uleb128 0x13
	.uleb128 0x52
	.uleb128 0x1
	.uleb128 0x2138
	.uleb128 0x5
	.uleb128 0x11
	.uleb128 0x1
	.uleb128 0x12
	.uleb128 0x6
	.uleb128 0x58
	.uleb128 0xb
	.uleb128 0x59
	.uleb128 0xb
	.uleb128 0x57
	.uleb128 0xb
	.byte	0
	.byte	0
	.uleb128 0x28
	.uleb128 0x16
	.byte	0
	.uleb128 0x3
	.uleb128 0xe
	.uleb128 0x3a
	.uleb128 0xb
	.uleb128 0x3b
	.uleb128 0xb
	.uleb128 0x39
	.uleb128 0xb
	.uleb128 0x49
	.uleb128 0x13
	.uleb128 0x32
	.uleb128 0xb
	.byte	0
	.byte	0
	.uleb128 0x29
	.uleb128 0x34
	.byte	0
	.uleb128 0x3
	.uleb128 0xe
	.uleb128 0x3a
	.uleb128 0x21
	.sleb128 1
	.uleb128 0x3b
	.uleb128 0xb
	.uleb128 0x39
	.uleb128 0xb
	.uleb128 0x49
	.uleb128 0x13
	.uleb128 0x2
	.uleb128 0x17
	.uleb128 0x2137
	.uleb128 0x17
	.byte	0
	.byte	0
	.uleb128 0x2a
	.uleb128 0x24
	.byte	0
	.uleb128 0xb
	.uleb128 0xb
	.uleb128 0x3e
	.uleb128 0xb
	.uleb128 0x3
	.uleb128 0xe
	.byte	0
	.byte	0
	.uleb128 0x2b
	.uleb128 0x42
	.byte	0
	.uleb128 0xb
	.uleb128 0x21
	.sleb128 4
	.uleb128 0x49
	.uleb128 0x13
	.byte	0
	.byte	0
	.uleb128 0x2c
	.uleb128 0x5
	.byte	0
	.uleb128 0x3
	.uleb128 0x8
	.uleb128 0x3a
	.uleb128 0xb
	.uleb128 0x3b
	.uleb128 0xb
	.uleb128 0x39
	.uleb128 0xb
	.uleb128 0x49
	.uleb128 0x13
	.byte	0
	.byte	0
	.uleb128 0x2d
	.uleb128 0x2e
	.byte	0x1
	.uleb128 0x3f
	.uleb128 0x19
	.uleb128 0x3
	.uleb128 0xe
	.uleb128 0x3a
	.uleb128 0xb
	.uleb128 0x3b
	.uleb128 0xb
	.uleb128 0x39
	.uleb128 0xb
	.uleb128 0x49
	.uleb128 0x13
	.uleb128 0x3c
	.uleb128 0x19
	.uleb128 0x1
	.uleb128 0x13
	.byte	0
	.byte	0
	.uleb128 0x2e
	.uleb128 0x1d
	.byte	0x1
	.uleb128 0x31
	.uleb128 0x13
	.uleb128 0x52
	.uleb128 0x1
	.uleb128 0x2138
	.uleb128 0x5
	.uleb128 0x11
	.uleb128 0x1
	.uleb128 0x12
	.uleb128 0x6
	.uleb128 0x58
	.uleb128 0xb
	.uleb128 0x59
	.uleb128 0xb
	.uleb128 0x57
	.uleb128 0xb
	.uleb128 0x1
	.uleb128 0x13
	.byte	0
	.byte	0
	.uleb128 0x2f
	.uleb128 0x1c
	.byte	0
	.uleb128 0x49
	.uleb128 0x13
	.uleb128 0x38
	.uleb128 0x21
	.sleb128 0
	.byte	0
	.byte	0
	.uleb128 0x30
	.uleb128 0x2e
	.byte	0x1
	.uleb128 0x3f
	.uleb128 0x19
	.uleb128 0x3
	.uleb128 0x8
	.uleb128 0x3a
	.uleb128 0x21
	.sleb128 12
	.uleb128 0x3b
	.uleb128 0x5
	.uleb128 0x39
	.uleb128 0x21
	.sleb128 3
	.uleb128 0x6e
	.uleb128 0xe
	.uleb128 0x49
	.uleb128 0x13
	.uleb128 0x3c
	.uleb128 0x19
	.uleb128 0x1
	.uleb128 0x13
	.byte	0
	.byte	0
	.uleb128 0x31
	.uleb128 0x4107
	.byte	0x1
	.uleb128 0x3
	.uleb128 0xe
	.uleb128 0x1
	.uleb128 0x13
	.byte	0
	.byte	0
	.uleb128 0x32
	.uleb128 0x2f
	.byte	0
	.uleb128 0x49
	.uleb128 0x13
	.byte	0
	.byte	0
	.uleb128 0x33
	.uleb128 0x2e
	.byte	0x1
	.uleb128 0x3f
	.uleb128 0x19
	.uleb128 0x3
	.uleb128 0x8
	.uleb128 0x3a
	.uleb128 0xb
	.uleb128 0x3b
	.uleb128 0x5
	.uleb128 0x39
	.uleb128 0x21
	.sleb128 7
	.uleb128 0x6e
	.uleb128 0xe
	.uleb128 0x49
	.uleb128 0x13
	.uleb128 0x32
	.uleb128 0x21
	.sleb128 1
	.uleb128 0x3c
	.uleb128 0x19
	.uleb128 0x64
	.uleb128 0x13
	.uleb128 0x1
	.uleb128 0x13
	.byte	0
	.byte	0
	.uleb128 0x34
	.uleb128 0x2e
	.byte	0
	.uleb128 0x3f
	.uleb128 0x19
	.uleb128 0x3
	.uleb128 0xe
	.uleb128 0x3a
	.uleb128 0xb
	.uleb128 0x3b
	.uleb128 0xb
	.uleb128 0x39
	.uleb128 0xb
	.uleb128 0x6e
	.uleb128 0xe
	.uleb128 0x49
	.uleb128 0x13
	.uleb128 0x3c
	.uleb128 0x19
	.byte	0
	.byte	0
	.uleb128 0x35
	.uleb128 0x5
	.byte	0
	.uleb128 0x3
	.uleb128 0xe
	.uleb128 0x49
	.uleb128 0x13
	.uleb128 0x34
	.uleb128 0x19
	.uleb128 0x2
	.uleb128 0x17
	.uleb128 0x2137
	.uleb128 0x17
	.byte	0
	.byte	0
	.uleb128 0x36
	.uleb128 0x2e
	.byte	0x1
	.uleb128 0x3f
	.uleb128 0x19
	.uleb128 0x3
	.uleb128 0x8
	.uleb128 0x3a
	.uleb128 0xb
	.uleb128 0x3b
	.uleb128 0xb
	.uleb128 0x39
	.uleb128 0x21
	.sleb128 3
	.uleb128 0x6e
	.uleb128 0xe
	.uleb128 0x49
	.uleb128 0x13
	.uleb128 0x3c
	.uleb128 0x19
	.uleb128 0x1
	.uleb128 0x13
	.byte	0
	.byte	0
	.uleb128 0x37
	.uleb128 0x5
	.byte	0
	.uleb128 0x3
	.uleb128 0xe
	.uleb128 0x3a
	.uleb128 0x21
	.sleb128 1
	.uleb128 0x3b
	.uleb128 0xb
	.uleb128 0x39
	.uleb128 0xb
	.uleb128 0x49
	.uleb128 0x13
	.uleb128 0x2
	.uleb128 0x17
	.uleb128 0x2137
	.uleb128 0x17
	.byte	0
	.byte	0
	.uleb128 0x38
	.uleb128 0x1d
	.byte	0x1
	.uleb128 0x31
	.uleb128 0x13
	.uleb128 0x52
	.uleb128 0x1
	.uleb128 0x2138
	.uleb128 0x5
	.uleb128 0x55
	.uleb128 0x17
	.uleb128 0x58
	.uleb128 0x21
	.sleb128 1
	.uleb128 0x59
	.uleb128 0xb
	.uleb128 0x57
	.uleb128 0xb
	.uleb128 0x1
	.uleb128 0x13
	.byte	0
	.byte	0
	.uleb128 0x39
	.uleb128 0x13
	.byte	0x1
	.uleb128 0x3
	.uleb128 0xe
	.uleb128 0xb
	.uleb128 0xb
	.uleb128 0x3a
	.uleb128 0xb
	.uleb128 0x3b
	.uleb128 0x5
	.uleb128 0x39
	.uleb128 0xb
	.uleb128 0x1
	.uleb128 0x13
	.byte	0
	.byte	0
	.uleb128 0x3a
	.uleb128 0x5
	.byte	0
	.uleb128 0x3
	.uleb128 0xe
	.uleb128 0x3a
	.uleb128 0xb
	.uleb128 0x3b
	.uleb128 0x5
	.uleb128 0x39
	.uleb128 0xb
	.uleb128 0x49
	.uleb128 0x13
	.uleb128 0x2
	.uleb128 0x17
	.uleb128 0x2137
	.uleb128 0x17
	.byte	0
	.byte	0
	.uleb128 0x3b
	.uleb128 0x34
	.byte	0
	.uleb128 0x3
	.uleb128 0xe
	.uleb128 0x3a
	.uleb128 0xb
	.uleb128 0x3b
	.uleb128 0x5
	.uleb128 0x39
	.uleb128 0xb
	.uleb128 0x49
	.uleb128 0x13
	.uleb128 0x2
	.uleb128 0x17
	.uleb128 0x2137
	.uleb128 0x17
	.byte	0
	.byte	0
	.uleb128 0x3c
	.uleb128 0x34
	.byte	0
	.uleb128 0x31
	.uleb128 0x13
	.byte	0
	.byte	0
	.uleb128 0x3d
	.uleb128 0x34
	.byte	0
	.uleb128 0x3
	.uleb128 0x8
	.uleb128 0x3a
	.uleb128 0x21
	.sleb128 1
	.uleb128 0x3b
	.uleb128 0xb
	.uleb128 0x39
	.uleb128 0xb
	.uleb128 0x49
	.uleb128 0x13
	.uleb128 0x2
	.uleb128 0x17
	.uleb128 0x2137
	.uleb128 0x17
	.byte	0
	.byte	0
	.uleb128 0x3e
	.uleb128 0x2e
	.byte	0x1
	.uleb128 0x3f
	.uleb128 0x19
	.uleb128 0x3
	.uleb128 0xe
	.uleb128 0x3a
	.uleb128 0xb
	.uleb128 0x3b
	.uleb128 0xb
	.uleb128 0x39
	.uleb128 0xb
	.uleb128 0x6e
	.uleb128 0xe
	.uleb128 0x32
	.uleb128 0xb
	.uleb128 0x3c
	.uleb128 0x19
	.uleb128 0x64
	.uleb128 0x13
	.uleb128 0x1
	.uleb128 0x13
	.byte	0
	.byte	0
	.uleb128 0x3f
	.uleb128 0xd
	.byte	0
	.uleb128 0x3
	.uleb128 0xe
	.uleb128 0x3a
	.uleb128 0xb
	.uleb128 0x3b
	.uleb128 0x5
	.uleb128 0x39
	.uleb128 0xb
	.uleb128 0x49
	.uleb128 0x13
	.uleb128 0x38
	.uleb128 0xb
	.byte	0
	.byte	0
	.uleb128 0x40
	.uleb128 0x2
	.byte	0
	.uleb128 0x3
	.uleb128 0xe
	.uleb128 0x3c
	.uleb128 0x19
	.byte	0
	.byte	0
	.uleb128 0x41
	.uleb128 0xb
	.byte	0x1
	.uleb128 0x31
	.uleb128 0x13
	.uleb128 0x55
	.uleb128 0x17
	.byte	0
	.byte	0
	.uleb128 0x42
	.uleb128 0x2e
	.byte	0x1
	.uleb128 0x31
	.uleb128 0x13
	.uleb128 0x6e
	.uleb128 0xe
	.uleb128 0x64
	.uleb128 0x13
	.uleb128 0x1
	.uleb128 0x13
	.byte	0
	.byte	0
	.uleb128 0x43
	.uleb128 0x48
	.byte	0
	.uleb128 0x7d
	.uleb128 0x1
	.uleb128 0x7f
	.uleb128 0x13
	.byte	0
	.byte	0
	.uleb128 0x44
	.uleb128 0x2e
	.byte	0x1
	.uleb128 0x3f
	.uleb128 0x19
	.uleb128 0x3
	.uleb128 0xe
	.uleb128 0x3a
	.uleb128 0xb
	.uleb128 0x3b
	.uleb128 0xb
	.uleb128 0x39
	.uleb128 0xb
	.uleb128 0x6e
	.uleb128 0xe
	.uleb128 0x49
	.uleb128 0x13
	.uleb128 0x32
	.uleb128 0x21
	.sleb128 1
	.uleb128 0x3c
	.uleb128 0x19
	.uleb128 0x8b
	.uleb128 0x21
	.sleb128 1
	.uleb128 0x64
	.uleb128 0x13
	.uleb128 0x1
	.uleb128 0x13
	.byte	0
	.byte	0
	.uleb128 0x45
	.uleb128 0x2e
	.byte	0x1
	.uleb128 0x3f
	.uleb128 0x19
	.uleb128 0x3
	.uleb128 0xe
	.uleb128 0x3a
	.uleb128 0xb
	.uleb128 0x3b
	.uleb128 0x5
	.uleb128 0x39
	.uleb128 0x21
	.sleb128 7
	.uleb128 0x6e
	.uleb128 0xe
	.uleb128 0x3c
	.uleb128 0x19
	.uleb128 0x64
	.uleb128 0x13
	.uleb128 0x1
	.uleb128 0x13
	.byte	0
	.byte	0
	.uleb128 0x46
	.uleb128 0x2e
	.byte	0x1
	.uleb128 0x3f
	.uleb128 0x19
	.uleb128 0x3
	.uleb128 0xe
	.uleb128 0x3a
	.uleb128 0xb
	.uleb128 0x3b
	.uleb128 0x5
	.uleb128 0x39
	.uleb128 0x21
	.sleb128 7
	.uleb128 0x6e
	.uleb128 0xe
	.uleb128 0x49
	.uleb128 0x13
	.uleb128 0x32
	.uleb128 0x21
	.sleb128 1
	.uleb128 0x3c
	.uleb128 0x19
	.uleb128 0x63
	.uleb128 0x19
	.uleb128 0x64
	.uleb128 0x13
	.uleb128 0x1
	.uleb128 0x13
	.byte	0
	.byte	0
	.uleb128 0x47
	.uleb128 0x2e
	.byte	0x1
	.uleb128 0x47
	.uleb128 0x13
	.uleb128 0x3a
	.uleb128 0x21
	.sleb128 1
	.uleb128 0x3b
	.uleb128 0xb
	.uleb128 0x39
	.uleb128 0xb
	.uleb128 0x64
	.uleb128 0x13
	.uleb128 0x11
	.uleb128 0x1
	.uleb128 0x12
	.uleb128 0x6
	.uleb128 0x40
	.uleb128 0x18
	.uleb128 0x7a
	.uleb128 0x19
	.uleb128 0x1
	.uleb128 0x13
	.byte	0
	.byte	0
	.uleb128 0x48
	.uleb128 0x2
	.byte	0x1
	.uleb128 0x3
	.uleb128 0xe
	.uleb128 0xb
	.uleb128 0xb
	.uleb128 0x3a
	.uleb128 0xb
	.uleb128 0x3b
	.uleb128 0xb
	.uleb128 0x39
	.uleb128 0x21
	.sleb128 11
	.uleb128 0x1
	.uleb128 0x13
	.byte	0
	.byte	0
	.uleb128 0x49
	.uleb128 0x2e
	.byte	0x1
	.uleb128 0x3f
	.uleb128 0x19
	.uleb128 0x3
	.uleb128 0xe
	.uleb128 0x3a
	.uleb128 0xb
	.uleb128 0x3b
	.uleb128 0x5
	.uleb128 0x39
	.uleb128 0xb
	.uleb128 0x6e
	.uleb128 0xe
	.uleb128 0x49
	.uleb128 0x13
	.uleb128 0x3c
	.uleb128 0x19
	.uleb128 0x8b
	.uleb128 0x21
	.sleb128 1
	.uleb128 0x64
	.uleb128 0x13
	.uleb128 0x1
	.uleb128 0x13
	.byte	0
	.byte	0
	.uleb128 0x4a
	.uleb128 0x34
	.byte	0
	.uleb128 0x3
	.uleb128 0xe
	.uleb128 0x3a
	.uleb128 0xb
	.uleb128 0x3b
	.uleb128 0xb
	.uleb128 0x39
	.uleb128 0xb
	.uleb128 0x49
	.uleb128 0x13
	.byte	0
	.byte	0
	.uleb128 0x4b
	.uleb128 0x2e
	.byte	0
	.uleb128 0x3f
	.uleb128 0x19
	.uleb128 0x3c
	.uleb128 0x19
	.uleb128 0x6e
	.uleb128 0xe
	.uleb128 0x3
	.uleb128 0xe
	.byte	0
	.byte	0
	.uleb128 0x4c
	.uleb128 0x1c
	.byte	0
	.uleb128 0x49
	.uleb128 0x13
	.uleb128 0x38
	.uleb128 0x21
	.sleb128 0
	.uleb128 0x32
	.uleb128 0xb
	.byte	0
	.byte	0
	.uleb128 0x4d
	.uleb128 0x2
	.byte	0x1
	.uleb128 0x3
	.uleb128 0xe
	.uleb128 0xb
	.uleb128 0xb
	.uleb128 0x3a
	.uleb128 0xb
	.uleb128 0x3b
	.uleb128 0x5
	.uleb128 0x39
	.uleb128 0x21
	.sleb128 11
	.uleb128 0x1
	.uleb128 0x13
	.byte	0
	.byte	0
	.uleb128 0x4e
	.uleb128 0x2e
	.byte	0x1
	.uleb128 0x3f
	.uleb128 0x19
	.uleb128 0x3
	.uleb128 0xe
	.uleb128 0x3a
	.uleb128 0xb
	.uleb128 0x3b
	.uleb128 0x5
	.uleb128 0x39
	.uleb128 0x21
	.sleb128 7
	.uleb128 0x6e
	.uleb128 0xe
	.uleb128 0x49
	.uleb128 0x13
	.uleb128 0x32
	.uleb128 0x21
	.sleb128 1
	.uleb128 0x3c
	.uleb128 0x19
	.uleb128 0x8b
	.uleb128 0x21
	.sleb128 1
	.uleb128 0x64
	.uleb128 0x13
	.uleb128 0x1
	.uleb128 0x13
	.byte	0
	.byte	0
	.uleb128 0x4f
	.uleb128 0x2e
	.byte	0x1
	.uleb128 0x3f
	.uleb128 0x19
	.uleb128 0x3
	.uleb128 0xe
	.uleb128 0x3a
	.uleb128 0xb
	.uleb128 0x3b
	.uleb128 0x5
	.uleb128 0x39
	.uleb128 0x21
	.sleb128 7
	.uleb128 0x6e
	.uleb128 0xe
	.uleb128 0x49
	.uleb128 0x13
	.uleb128 0x32
	.uleb128 0x21
	.sleb128 2
	.uleb128 0x3c
	.uleb128 0x19
	.uleb128 0x1
	.uleb128 0x13
	.byte	0
	.byte	0
	.uleb128 0x50
	.uleb128 0xd
	.byte	0
	.uleb128 0x3
	.uleb128 0xe
	.uleb128 0x3a
	.uleb128 0x21
	.sleb128 34
	.uleb128 0x3b
	.uleb128 0xb
	.uleb128 0x39
	.uleb128 0x21
	.sleb128 17
	.uleb128 0x49
	.uleb128 0x13
	.uleb128 0x38
	.uleb128 0x5
	.byte	0
	.byte	0
	.uleb128 0x51
	.uleb128 0xb
	.byte	0x1
	.uleb128 0x55
	.uleb128 0x17
	.uleb128 0x1
	.uleb128 0x13
	.byte	0
	.byte	0
	.uleb128 0x52
	.uleb128 0x1d
	.byte	0x1
	.uleb128 0x31
	.uleb128 0x13
	.uleb128 0x52
	.uleb128 0x1
	.uleb128 0x2138
	.uleb128 0x5
	.uleb128 0x55
	.uleb128 0x17
	.uleb128 0x58
	.uleb128 0xb
	.uleb128 0x59
	.uleb128 0xb
	.uleb128 0x57
	.uleb128 0xb
	.byte	0
	.byte	0
	.uleb128 0x53
	.uleb128 0xb
	.byte	0x1
	.byte	0
	.byte	0
	.uleb128 0x54
	.uleb128 0x2e
	.byte	0x1
	.uleb128 0x3f
	.uleb128 0x19
	.uleb128 0x3
	.uleb128 0xe
	.uleb128 0x3a
	.uleb128 0xb
	.uleb128 0x3b
	.uleb128 0x5
	.uleb128 0x39
	.uleb128 0xb
	.uleb128 0x6e
	.uleb128 0xe
	.uleb128 0x3c
	.uleb128 0x19
	.uleb128 0x1
	.uleb128 0x13
	.byte	0
	.byte	0
	.uleb128 0x55
	.uleb128 0x2e
	.byte	0x1
	.uleb128 0x3f
	.uleb128 0x19
	.uleb128 0x3
	.uleb128 0xe
	.uleb128 0x3a
	.uleb128 0x21
	.sleb128 30
	.uleb128 0x3b
	.uleb128 0x5
	.uleb128 0x39
	.uleb128 0xb
	.uleb128 0x49
	.uleb128 0x13
	.uleb128 0x3c
	.uleb128 0x19
	.uleb128 0x1
	.uleb128 0x13
	.byte	0
	.byte	0
	.uleb128 0x56
	.uleb128 0xb
	.byte	0x1
	.uleb128 0x11
	.uleb128 0x1
	.uleb128 0x12
	.uleb128 0x6
	.uleb128 0x1
	.uleb128 0x13
	.byte	0
	.byte	0
	.uleb128 0x57
	.uleb128 0x48
	.byte	0x1
	.uleb128 0x7d
	.uleb128 0x1
	.uleb128 0x7f
	.uleb128 0x13
	.uleb128 0x1
	.uleb128 0x13
	.byte	0
	.byte	0
	.uleb128 0x58
	.uleb128 0x34
	.byte	0
	.uleb128 0x3
	.uleb128 0xe
	.uleb128 0x3a
	.uleb128 0x21
	.sleb128 34
	.uleb128 0x3b
	.uleb128 0xb
	.uleb128 0x39
	.uleb128 0x21
	.sleb128 18
	.uleb128 0x49
	.uleb128 0x13
	.uleb128 0x3c
	.uleb128 0x19
	.uleb128 0x1c
	.uleb128 0xb
	.uleb128 0x6c
	.uleb128 0x19
	.byte	0
	.byte	0
	.uleb128 0x59
	.uleb128 0xd
	.byte	0
	.uleb128 0x3
	.uleb128 0xe
	.uleb128 0x3a
	.uleb128 0x21
	.sleb128 34
	.uleb128 0x3b
	.uleb128 0xb
	.uleb128 0x39
	.uleb128 0x21
	.sleb128 14
	.uleb128 0x49
	.uleb128 0x13
	.uleb128 0x38
	.uleb128 0xb
	.uleb128 0x32
	.uleb128 0x21
	.sleb128 1
	.byte	0
	.byte	0
	.uleb128 0x5a
	.uleb128 0x34
	.byte	0
	.uleb128 0x47
	.uleb128 0x13
	.byte	0
	.byte	0
	.uleb128 0x5b
	.uleb128 0x2e
	.byte	0x1
	.uleb128 0x47
	.uleb128 0x13
	.uleb128 0x64
	.uleb128 0x13
	.uleb128 0x11
	.uleb128 0x1
	.uleb128 0x12
	.uleb128 0x6
	.uleb128 0x40
	.uleb128 0x18
	.uleb128 0x7a
	.uleb128 0x19
	.uleb128 0x1
	.uleb128 0x13
	.byte	0
	.byte	0
	.uleb128 0x5c
	.uleb128 0x1d
	.byte	0
	.uleb128 0x31
	.uleb128 0x13
	.uleb128 0x52
	.uleb128 0x1
	.uleb128 0x2138
	.uleb128 0x5
	.uleb128 0x11
	.uleb128 0x1
	.uleb128 0x12
	.uleb128 0x6
	.uleb128 0x58
	.uleb128 0x21
	.sleb128 4
	.uleb128 0x59
	.uleb128 0x21
	.sleb128 149
	.uleb128 0x57
	.uleb128 0x21
	.sleb128 31
	.byte	0
	.byte	0
	.uleb128 0x5d
	.uleb128 0x39
	.byte	0
	.uleb128 0x3
	.uleb128 0xe
	.uleb128 0x3a
	.uleb128 0xb
	.uleb128 0x3b
	.uleb128 0xb
	.uleb128 0x39
	.uleb128 0xb
	.byte	0
	.byte	0
	.uleb128 0x5e
	.uleb128 0x2e
	.byte	0x1
	.uleb128 0x3f
	.uleb128 0x19
	.uleb128 0x3
	.uleb128 0xe
	.uleb128 0x3a
	.uleb128 0x21
	.sleb128 8
	.uleb128 0x3b
	.uleb128 0xb
	.uleb128 0x39
	.uleb128 0xb
	.uleb128 0x6e
	.uleb128 0xe
	.uleb128 0x49
	.uleb128 0x13
	.uleb128 0x32
	.uleb128 0x21
	.sleb128 1
	.uleb128 0x3c
	.uleb128 0x19
	.uleb128 0x64
	.uleb128 0x13
	.byte	0
	.byte	0
	.uleb128 0x5f
	.uleb128 0x2e
	.byte	0x1
	.uleb128 0x3f
	.uleb128 0x19
	.uleb128 0x3
	.uleb128 0xe
	.uleb128 0x3a
	.uleb128 0xb
	.uleb128 0x3b
	.uleb128 0xb
	.uleb128 0x39
	.uleb128 0xb
	.uleb128 0x6e
	.uleb128 0xe
	.uleb128 0x3c
	.uleb128 0x19
	.uleb128 0x64
	.uleb128 0x13
	.uleb128 0x1
	.uleb128 0x13
	.byte	0
	.byte	0
	.uleb128 0x60
	.uleb128 0x2e
	.byte	0x1
	.uleb128 0x3f
	.uleb128 0x19
	.uleb128 0x3
	.uleb128 0xe
	.uleb128 0x3a
	.uleb128 0xb
	.uleb128 0x3b
	.uleb128 0xb
	.uleb128 0x39
	.uleb128 0xb
	.uleb128 0x6e
	.uleb128 0xe
	.uleb128 0x49
	.uleb128 0x13
	.uleb128 0x3c
	.uleb128 0x19
	.uleb128 0x64
	.uleb128 0x13
	.byte	0
	.byte	0
	.uleb128 0x61
	.uleb128 0x2e
	.byte	0
	.uleb128 0x3f
	.uleb128 0x19
	.uleb128 0x3
	.uleb128 0xe
	.uleb128 0x3a
	.uleb128 0xb
	.uleb128 0x3b
	.uleb128 0x5
	.uleb128 0x39
	.uleb128 0xb
	.uleb128 0x6e
	.uleb128 0xe
	.uleb128 0x49
	.uleb128 0x13
	.uleb128 0x3c
	.uleb128 0x19
	.byte	0
	.byte	0
	.uleb128 0x62
	.uleb128 0x2f
	.byte	0
	.uleb128 0x3
	.uleb128 0xe
	.uleb128 0x49
	.uleb128 0x13
	.uleb128 0x1e
	.uleb128 0x19
	.byte	0
	.byte	0
	.uleb128 0x63
	.uleb128 0xd
	.byte	0
	.uleb128 0x3
	.uleb128 0xe
	.uleb128 0x3a
	.uleb128 0xb
	.uleb128 0x3b
	.uleb128 0x5
	.uleb128 0x39
	.uleb128 0xb
	.uleb128 0x49
	.uleb128 0x13
	.uleb128 0x38
	.uleb128 0x21
	.sleb128 0
	.uleb128 0x32
	.uleb128 0x21
	.sleb128 2
	.byte	0
	.byte	0
	.uleb128 0x64
	.uleb128 0x2e
	.byte	0x1
	.uleb128 0x3f
	.uleb128 0x19
	.uleb128 0x3
	.uleb128 0xe
	.uleb128 0x3a
	.uleb128 0xb
	.uleb128 0x3b
	.uleb128 0xb
	.uleb128 0x39
	.uleb128 0xb
	.uleb128 0x6e
	.uleb128 0xe
	.uleb128 0x3c
	.uleb128 0x19
	.uleb128 0x1
	.uleb128 0x13
	.byte	0
	.byte	0
	.uleb128 0x65
	.uleb128 0x13
	.byte	0x1
	.uleb128 0xb
	.uleb128 0xb
	.uleb128 0x3a
	.uleb128 0x21
	.sleb128 30
	.uleb128 0x3b
	.uleb128 0xb
	.uleb128 0x39
	.uleb128 0x21
	.sleb128 1
	.uleb128 0x6e
	.uleb128 0xe
	.uleb128 0x1
	.uleb128 0x13
	.byte	0
	.byte	0
	.uleb128 0x66
	.uleb128 0xd
	.byte	0
	.uleb128 0x3
	.uleb128 0x8
	.uleb128 0x3a
	.uleb128 0x21
	.sleb128 30
	.uleb128 0x3b
	.uleb128 0xb
	.uleb128 0x39
	.uleb128 0xb
	.uleb128 0x49
	.uleb128 0x13
	.uleb128 0x38
	.uleb128 0xb
	.byte	0
	.byte	0
	.uleb128 0x67
	.uleb128 0x1
	.byte	0x1
	.uleb128 0x49
	.uleb128 0x13
	.uleb128 0x1
	.uleb128 0x13
	.byte	0
	.byte	0
	.uleb128 0x68
	.uleb128 0x21
	.byte	0
	.uleb128 0x49
	.uleb128 0x13
	.uleb128 0x2f
	.uleb128 0xb
	.byte	0
	.byte	0
	.uleb128 0x69
	.uleb128 0x4108
	.byte	0x1
	.uleb128 0x3a
	.uleb128 0xb
	.uleb128 0x3b
	.uleb128 0xb
	.uleb128 0x39
	.uleb128 0xb
	.byte	0
	.byte	0
	.uleb128 0x6a
	.uleb128 0xb
	.byte	0x1
	.uleb128 0x31
	.uleb128 0x13
	.uleb128 0x11
	.uleb128 0x1
	.uleb128 0x12
	.uleb128 0x6
	.uleb128 0x1
	.uleb128 0x13
	.byte	0
	.byte	0
	.uleb128 0x6b
	.uleb128 0x5
	.byte	0
	.uleb128 0x3
	.uleb128 0x8
	.uleb128 0x3a
	.uleb128 0x21
	.sleb128 1
	.uleb128 0x3b
	.uleb128 0xb
	.uleb128 0x39
	.uleb128 0xb
	.uleb128 0x49
	.uleb128 0x13
	.uleb128 0x2
	.uleb128 0x17
	.uleb128 0x2137
	.uleb128 0x17
	.byte	0
	.byte	0
	.uleb128 0x6c
	.uleb128 0x30
	.byte	0
	.uleb128 0x3
	.uleb128 0x8
	.uleb128 0x49
	.uleb128 0x13
	.uleb128 0x1c
	.uleb128 0xb
	.byte	0
	.byte	0
	.uleb128 0x6d
	.uleb128 0x39
	.byte	0
	.uleb128 0x3
	.uleb128 0xe
	.uleb128 0x3a
	.uleb128 0x21
	.sleb128 14
	.uleb128 0x3b
	.uleb128 0x5
	.uleb128 0x39
	.uleb128 0x21
	.sleb128 13
	.byte	0
	.byte	0
	.uleb128 0x6e
	.uleb128 0x2e
	.byte	0x1
	.uleb128 0x3f
	.uleb128 0x19
	.uleb128 0x3
	.uleb128 0xe
	.uleb128 0x3a
	.uleb128 0x21
	.sleb128 2
	.uleb128 0x3b
	.uleb128 0xb
	.uleb128 0x39
	.uleb128 0x21
	.sleb128 2
	.uleb128 0x6e
	.uleb128 0xe
	.uleb128 0x3c
	.uleb128 0x19
	.uleb128 0x64
	.uleb128 0x13
	.byte	0
	.byte	0
	.uleb128 0x6f
	.uleb128 0x2e
	.byte	0x1
	.uleb128 0x3f
	.uleb128 0x19
	.uleb128 0x3
	.uleb128 0xe
	.uleb128 0x3a
	.uleb128 0x21
	.sleb128 4
	.uleb128 0x3b
	.uleb128 0xb
	.uleb128 0x39
	.uleb128 0x21
	.sleb128 24
	.uleb128 0x6e
	.uleb128 0xe
	.uleb128 0x49
	.uleb128 0x13
	.uleb128 0x3c
	.uleb128 0x19
	.uleb128 0x8b
	.uleb128 0x21
	.sleb128 1
	.uleb128 0x64
	.uleb128 0x13
	.uleb128 0x1
	.uleb128 0x13
	.byte	0
	.byte	0
	.uleb128 0x70
	.uleb128 0x13
	.byte	0x1
	.uleb128 0x3
	.uleb128 0xe
	.uleb128 0xb
	.uleb128 0x21
	.sleb128 40
	.uleb128 0x3a
	.uleb128 0x21
	.sleb128 4
	.uleb128 0x3b
	.uleb128 0x5
	.uleb128 0x39
	.uleb128 0x21
	.sleb128 14
	.uleb128 0x32
	.uleb128 0x21
	.sleb128 2
	.uleb128 0x1
	.uleb128 0x13
	.byte	0
	.byte	0
	.uleb128 0x71
	.uleb128 0x2e
	.byte	0x1
	.uleb128 0x3f
	.uleb128 0x19
	.uleb128 0x3
	.uleb128 0xe
	.uleb128 0x3a
	.uleb128 0xb
	.uleb128 0x3b
	.uleb128 0x5
	.uleb128 0x39
	.uleb128 0xb
	.uleb128 0x6e
	.uleb128 0xe
	.uleb128 0x49
	.uleb128 0x13
	.uleb128 0x3c
	.uleb128 0x19
	.byte	0
	.byte	0
	.uleb128 0x72
	.uleb128 0x2e
	.byte	0
	.uleb128 0x3f
	.uleb128 0x19
	.uleb128 0x3
	.uleb128 0xe
	.uleb128 0x3a
	.uleb128 0x21
	.sleb128 23
	.uleb128 0x3b
	.uleb128 0xb
	.uleb128 0x39
	.uleb128 0x21
	.sleb128 3
	.uleb128 0x6e
	.uleb128 0xe
	.uleb128 0x87
	.uleb128 0x19
	.uleb128 0x3c
	.uleb128 0x19
	.byte	0
	.byte	0
	.uleb128 0x73
	.uleb128 0xd
	.byte	0
	.uleb128 0x3
	.uleb128 0xe
	.uleb128 0x3a
	.uleb128 0x21
	.sleb128 27
	.uleb128 0x3b
	.uleb128 0x5
	.uleb128 0x39
	.uleb128 0xb
	.uleb128 0x49
	.uleb128 0x13
	.uleb128 0x88
	.uleb128 0x21
	.sleb128 8
	.uleb128 0x38
	.uleb128 0xb
	.byte	0
	.byte	0
	.uleb128 0x74
	.uleb128 0x39
	.byte	0x1
	.uleb128 0x3
	.uleb128 0xe
	.uleb128 0x3a
	.uleb128 0xb
	.uleb128 0x3b
	.uleb128 0xb
	.uleb128 0x39
	.uleb128 0x21
	.sleb128 11
	.uleb128 0x1
	.uleb128 0x13
	.byte	0
	.byte	0
	.uleb128 0x75
	.uleb128 0x3a
	.byte	0
	.uleb128 0x3a
	.uleb128 0xb
	.uleb128 0x3b
	.uleb128 0xb
	.uleb128 0x39
	.uleb128 0xb
	.uleb128 0x18
	.uleb128 0x13
	.byte	0
	.byte	0
	.uleb128 0x76
	.uleb128 0x2e
	.byte	0x1
	.uleb128 0x3f
	.uleb128 0x19
	.uleb128 0x3
	.uleb128 0xe
	.uleb128 0x3a
	.uleb128 0x21
	.sleb128 30
	.uleb128 0x3b
	.uleb128 0xb
	.uleb128 0x39
	.uleb128 0x21
	.sleb128 6
	.uleb128 0x3c
	.uleb128 0x19
	.uleb128 0x1
	.uleb128 0x13
	.byte	0
	.byte	0
	.uleb128 0x77
	.uleb128 0x2e
	.byte	0x1
	.uleb128 0x47
	.uleb128 0x13
	.uleb128 0x11
	.uleb128 0x1
	.uleb128 0x12
	.uleb128 0x6
	.uleb128 0x40
	.uleb128 0x18
	.uleb128 0x7a
	.uleb128 0x19
	.uleb128 0x1
	.uleb128 0x13
	.byte	0
	.byte	0
	.uleb128 0x78
	.uleb128 0x2e
	.byte	0x1
	.uleb128 0x47
	.uleb128 0x13
	.uleb128 0x49
	.uleb128 0x13
	.uleb128 0x64
	.uleb128 0x13
	.uleb128 0x20
	.uleb128 0x21
	.sleb128 2
	.uleb128 0x1
	.uleb128 0x13
	.byte	0
	.byte	0
	.uleb128 0x79
	.uleb128 0x4108
	.byte	0x1
	.uleb128 0x3a
	.uleb128 0xb
	.uleb128 0x3b
	.uleb128 0x5
	.uleb128 0x39
	.uleb128 0xb
	.uleb128 0x1
	.uleb128 0x13
	.byte	0
	.byte	0
	.uleb128 0x7a
	.uleb128 0x5
	.byte	0
	.uleb128 0x49
	.uleb128 0x13
	.uleb128 0x2
	.uleb128 0x17
	.uleb128 0x2137
	.uleb128 0x17
	.byte	0
	.byte	0
	.uleb128 0x7b
	.uleb128 0x2e
	.byte	0x1
	.uleb128 0x3f
	.uleb128 0x19
	.uleb128 0x3
	.uleb128 0xe
	.uleb128 0x3a
	.uleb128 0x21
	.sleb128 9
	.uleb128 0x3b
	.uleb128 0x5
	.uleb128 0x39
	.uleb128 0x21
	.sleb128 2
	.uleb128 0x6e
	.uleb128 0xe
	.uleb128 0x49
	.uleb128 0x13
	.uleb128 0x64
	.uleb128 0x13
	.uleb128 0x20
	.uleb128 0x21
	.sleb128 2
	.uleb128 0x1
	.uleb128 0x13
	.byte	0
	.byte	0
	.uleb128 0x7c
	.uleb128 0x34
	.byte	0
	.uleb128 0x3
	.uleb128 0x8
	.uleb128 0x3a
	.uleb128 0xb
	.uleb128 0x3b
	.uleb128 0x5
	.uleb128 0x39
	.uleb128 0xb
	.uleb128 0x49
	.uleb128 0x13
	.uleb128 0x2
	.uleb128 0x17
	.uleb128 0x2137
	.uleb128 0x17
	.byte	0
	.byte	0
	.uleb128 0x7d
	.uleb128 0x11
	.byte	0x1
	.uleb128 0x25
	.uleb128 0xe
	.uleb128 0x13
	.uleb128 0xb
	.uleb128 0x3
	.uleb128 0xe
	.uleb128 0x1b
	.uleb128 0xe
	.uleb128 0x55
	.uleb128 0x17
	.uleb128 0x11
	.uleb128 0x1
	.uleb128 0x10
	.uleb128 0x17
	.byte	0
	.byte	0
	.uleb128 0x7e
	.uleb128 0x24
	.byte	0
	.uleb128 0xb
	.uleb128 0xb
	.uleb128 0x3e
	.uleb128 0xb
	.uleb128 0x3
	.uleb128 0x8
	.byte	0
	.byte	0
	.uleb128 0x7f
	.uleb128 0x39
	.byte	0x1
	.uleb128 0x3
	.uleb128 0x8
	.uleb128 0x3a
	.uleb128 0xb
	.uleb128 0x3b
	.uleb128 0x5
	.uleb128 0x39
	.uleb128 0xb
	.uleb128 0x1
	.uleb128 0x13
	.byte	0
	.byte	0
	.uleb128 0x80
	.uleb128 0x13
	.byte	0
	.uleb128 0x3
	.uleb128 0xe
	.uleb128 0xb
	.uleb128 0xb
	.uleb128 0x3a
	.uleb128 0xb
	.uleb128 0x3b
	.uleb128 0xb
	.uleb128 0x39
	.uleb128 0xb
	.byte	0
	.byte	0
	.uleb128 0x81
	.uleb128 0x4
	.byte	0
	.uleb128 0x3
	.uleb128 0xe
	.uleb128 0x6d
	.uleb128 0x19
	.uleb128 0x3e
	.uleb128 0xb
	.uleb128 0xb
	.uleb128 0xb
	.uleb128 0x49
	.uleb128 0x13
	.uleb128 0x3a
	.uleb128 0xb
	.uleb128 0x3b
	.uleb128 0xb
	.uleb128 0x39
	.uleb128 0xb
	.byte	0
	.byte	0
	.uleb128 0x82
	.uleb128 0x39
	.byte	0
	.uleb128 0x3
	.uleb128 0x8
	.uleb128 0x3a
	.uleb128 0xb
	.uleb128 0x3b
	.uleb128 0xb
	.uleb128 0x39
	.uleb128 0xb
	.byte	0
	.byte	0
	.uleb128 0x83
	.uleb128 0x2e
	.byte	0x1
	.uleb128 0x3f
	.uleb128 0x19
	.uleb128 0x3
	.uleb128 0xe
	.uleb128 0x3a
	.uleb128 0xb
	.uleb128 0x3b
	.uleb128 0x5
	.uleb128 0x39
	.uleb128 0xb
	.uleb128 0x6e
	.uleb128 0xe
	.uleb128 0x3c
	.uleb128 0x19
	.byte	0
	.byte	0
	.uleb128 0x84
	.uleb128 0x2e
	.byte	0x1
	.uleb128 0x3f
	.uleb128 0x19
	.uleb128 0x3
	.uleb128 0xe
	.uleb128 0x3a
	.uleb128 0xb
	.uleb128 0x3b
	.uleb128 0x5
	.uleb128 0x39
	.uleb128 0xb
	.uleb128 0x6e
	.uleb128 0xe
	.uleb128 0x3c
	.uleb128 0x19
	.uleb128 0x64
	.uleb128 0x13
	.byte	0
	.byte	0
	.uleb128 0x85
	.uleb128 0x2e
	.byte	0x1
	.uleb128 0x3f
	.uleb128 0x19
	.uleb128 0x3
	.uleb128 0xe
	.uleb128 0x3a
	.uleb128 0xb
	.uleb128 0x3b
	.uleb128 0x5
	.uleb128 0x39
	.uleb128 0xb
	.uleb128 0x6e
	.uleb128 0xe
	.uleb128 0x49
	.uleb128 0x13
	.uleb128 0x3c
	.uleb128 0x19
	.uleb128 0x64
	.uleb128 0x13
	.byte	0
	.byte	0
	.uleb128 0x86
	.uleb128 0x2e
	.byte	0x1
	.uleb128 0x3f
	.uleb128 0x19
	.uleb128 0x3
	.uleb128 0x8
	.uleb128 0x3a
	.uleb128 0xb
	.uleb128 0x3b
	.uleb128 0xb
	.uleb128 0x39
	.uleb128 0xb
	.uleb128 0x6e
	.uleb128 0xe
	.uleb128 0x49
	.uleb128 0x13
	.uleb128 0x32
	.uleb128 0xb
	.uleb128 0x3c
	.uleb128 0x19
	.uleb128 0x64
	.uleb128 0x13
	.uleb128 0x1
	.uleb128 0x13
	.byte	0
	.byte	0
	.uleb128 0x87
	.uleb128 0x2e
	.byte	0x1
	.uleb128 0x3f
	.uleb128 0x19
	.uleb128 0x3
	.uleb128 0xe
	.uleb128 0x3a
	.uleb128 0xb
	.uleb128 0x3b
	.uleb128 0xb
	.uleb128 0x39
	.uleb128 0xb
	.uleb128 0x6e
	.uleb128 0xe
	.uleb128 0x87
	.uleb128 0x19
	.uleb128 0x3c
	.uleb128 0x19
	.uleb128 0x1
	.uleb128 0x13
	.byte	0
	.byte	0
	.uleb128 0x88
	.uleb128 0x2e
	.byte	0x1
	.uleb128 0x3f
	.uleb128 0x19
	.uleb128 0x3
	.uleb128 0xe
	.uleb128 0x3a
	.uleb128 0xb
	.uleb128 0x3b
	.uleb128 0xb
	.uleb128 0x39
	.uleb128 0xb
	.uleb128 0x6e
	.uleb128 0xe
	.uleb128 0x49
	.uleb128 0x13
	.uleb128 0x3c
	.uleb128 0x19
	.byte	0
	.byte	0
	.uleb128 0x89
	.uleb128 0x39
	.byte	0x1
	.uleb128 0x3
	.uleb128 0xe
	.uleb128 0x3a
	.uleb128 0xb
	.uleb128 0x3b
	.uleb128 0x5
	.uleb128 0x39
	.uleb128 0xb
	.uleb128 0x1
	.uleb128 0x13
	.byte	0
	.byte	0
	.uleb128 0x8a
	.uleb128 0x13
	.byte	0x1
	.uleb128 0xb
	.uleb128 0xb
	.uleb128 0x88
	.uleb128 0xb
	.uleb128 0x3a
	.uleb128 0xb
	.uleb128 0x3b
	.uleb128 0x5
	.uleb128 0x39
	.uleb128 0xb
	.uleb128 0x6e
	.uleb128 0xe
	.uleb128 0x1
	.uleb128 0x13
	.byte	0
	.byte	0
	.uleb128 0x8b
	.uleb128 0x16
	.byte	0
	.uleb128 0x3
	.uleb128 0xe
	.uleb128 0x3a
	.uleb128 0xb
	.uleb128 0x3b
	.uleb128 0x5
	.uleb128 0x39
	.uleb128 0xb
	.uleb128 0x49
	.uleb128 0x13
	.uleb128 0x88
	.uleb128 0xb
	.byte	0
	.byte	0
	.uleb128 0x8c
	.uleb128 0xf
	.byte	0
	.uleb128 0xb
	.uleb128 0xb
	.byte	0
	.byte	0
	.uleb128 0x8d
	.uleb128 0x15
	.byte	0
	.byte	0
	.byte	0
	.uleb128 0x8e
	.uleb128 0x15
	.byte	0x1
	.uleb128 0x49
	.uleb128 0x13
	.uleb128 0x1
	.uleb128 0x13
	.byte	0
	.byte	0
	.uleb128 0x8f
	.uleb128 0x26
	.byte	0
	.byte	0
	.byte	0
	.uleb128 0x90
	.uleb128 0x2e
	.byte	0x1
	.uleb128 0x3f
	.uleb128 0x19
	.uleb128 0x3
	.uleb128 0x8
	.uleb128 0x3a
	.uleb128 0xb
	.uleb128 0x3b
	.uleb128 0xb
	.uleb128 0x39
	.uleb128 0xb
	.uleb128 0x49
	.uleb128 0x13
	.uleb128 0x3c
	.uleb128 0x19
	.uleb128 0x1
	.uleb128 0x13
	.byte	0
	.byte	0
	.uleb128 0x91
	.uleb128 0x2e
	.byte	0
	.uleb128 0x3f
	.uleb128 0x19
	.uleb128 0x3
	.uleb128 0xe
	.uleb128 0x3a
	.uleb128 0xb
	.uleb128 0x3b
	.uleb128 0xb
	.uleb128 0x39
	.uleb128 0xb
	.uleb128 0x49
	.uleb128 0x13
	.uleb128 0x3c
	.uleb128 0x19
	.byte	0
	.byte	0
	.uleb128 0x92
	.uleb128 0x2
	.byte	0x1
	.uleb128 0x3
	.uleb128 0xe
	.uleb128 0xb
	.uleb128 0x5
	.uleb128 0x3a
	.uleb128 0xb
	.uleb128 0x3b
	.uleb128 0xb
	.uleb128 0x39
	.uleb128 0xb
	.uleb128 0x1
	.uleb128 0x13
	.byte	0
	.byte	0
	.uleb128 0x93
	.uleb128 0x2
	.byte	0x1
	.uleb128 0x3
	.uleb128 0xe
	.uleb128 0xb
	.uleb128 0x5
	.uleb128 0x3a
	.uleb128 0xb
	.uleb128 0x3b
	.uleb128 0xb
	.uleb128 0x39
	.uleb128 0xb
	.byte	0
	.byte	0
	.uleb128 0x94
	.uleb128 0x5
	.byte	0
	.uleb128 0x3
	.uleb128 0xe
	.uleb128 0x3a
	.uleb128 0xb
	.uleb128 0x3b
	.uleb128 0xb
	.uleb128 0x39
	.uleb128 0xb
	.uleb128 0x49
	.uleb128 0x13
	.byte	0
	.byte	0
	.uleb128 0x95
	.uleb128 0x2e
	.byte	0x1
	.uleb128 0x3
	.uleb128 0xe
	.uleb128 0x3a
	.uleb128 0xb
	.uleb128 0x3b
	.uleb128 0x5
	.uleb128 0x39
	.uleb128 0xb
	.uleb128 0x49
	.uleb128 0x13
	.uleb128 0x32
	.uleb128 0xb
	.uleb128 0x3c
	.uleb128 0x19
	.uleb128 0x64
	.uleb128 0x13
	.uleb128 0x1
	.uleb128 0x13
	.byte	0
	.byte	0
	.uleb128 0x96
	.uleb128 0x2e
	.byte	0x1
	.uleb128 0x31
	.uleb128 0x13
	.uleb128 0x6e
	.uleb128 0xe
	.uleb128 0x64
	.uleb128 0x13
	.byte	0
	.byte	0
	.uleb128 0x97
	.uleb128 0x4108
	.byte	0x1
	.uleb128 0x3a
	.uleb128 0xb
	.uleb128 0x3b
	.uleb128 0x5
	.uleb128 0x39
	.uleb128 0xb
	.byte	0
	.byte	0
	.uleb128 0x98
	.uleb128 0x2e
	.byte	0
	.uleb128 0x47
	.uleb128 0x13
	.uleb128 0x20
	.uleb128 0xb
	.byte	0
	.byte	0
	.uleb128 0x99
	.uleb128 0xb
	.byte	0x1
	.uleb128 0x11
	.uleb128 0x1
	.uleb128 0x12
	.uleb128 0x6
	.byte	0
	.byte	0
	.uleb128 0x9a
	.uleb128 0x34
	.byte	0
	.uleb128 0x3
	.uleb128 0x8
	.uleb128 0x3a
	.uleb128 0xb
	.uleb128 0x3b
	.uleb128 0xb
	.uleb128 0x39
	.uleb128 0xb
	.uleb128 0x49
	.uleb128 0x13
	.byte	0
	.byte	0
	.uleb128 0x9b
	.uleb128 0x2e
	.byte	0x1
	.uleb128 0x3f
	.uleb128 0x19
	.uleb128 0x3
	.uleb128 0xe
	.uleb128 0x3a
	.uleb128 0xb
	.uleb128 0x3b
	.uleb128 0xb
	.uleb128 0x39
	.uleb128 0xb
	.uleb128 0x6e
	.uleb128 0xe
	.uleb128 0x49
	.uleb128 0x13
	.uleb128 0x20
	.uleb128 0xb
	.uleb128 0x1
	.uleb128 0x13
	.byte	0
	.byte	0
	.byte	0
	.section	.debug_loclists,"",%progbits
	.4byte	.Ldebug_loc3-.Ldebug_loc2
.Ldebug_loc2:
	.2byte	0x5
	.byte	0x4
	.byte	0
	.4byte	0
.Ldebug_loc0:
.LVUS314:
	.uleb128 0
	.uleb128 .LVU706
	.uleb128 .LVU706
	.uleb128 .LVU734
	.uleb128 .LVU734
	.uleb128 .LVU739
	.uleb128 .LVU739
	.uleb128 .LVU757
.LLST314:
	.byte	0x6
	.4byte	.LVL289
	.byte	0x4
	.uleb128 .LVL289-.LVL289
	.uleb128 .LVL296-.LVL289
	.uleb128 0x1
	.byte	0x51
	.byte	0x4
	.uleb128 .LVL296-.LVL289
	.uleb128 .LVL309-.LVL289
	.uleb128 0x1
	.byte	0x5a
	.byte	0x4
	.uleb128 .LVL309-.LVL289
	.uleb128 .LVL310-1-.LVL289
	.uleb128 0x1
	.byte	0x51
	.byte	0x4
	.uleb128 .LVL310-.LVL289
	.uleb128 .LVL317-.LVL289
	.uleb128 0x1
	.byte	0x5a
	.byte	0
.LVUS315:
	.uleb128 0
	.uleb128 .LVU697
	.uleb128 .LVU697
	.uleb128 0
.LLST315:
	.byte	0x6
	.4byte	.LVL289
	.byte	0x4
	.uleb128 .LVL289-.LVL289
	.uleb128 .LVL290-.LVL289
	.uleb128 0x1
	.byte	0x52
	.byte	0x4
	.uleb128 .LVL290-.LVL289
	.uleb128 .LFE2487-.LVL289
	.uleb128 0xa
	.byte	0xa3
	.uleb128 0x3
	.byte	0xa5
	.uleb128 0x2
	.uleb128 0x26
	.byte	0xa8
	.uleb128 0x2d
	.byte	0xa8
	.uleb128 0
	.byte	0x9f
	.byte	0
.LVUS316:
	.uleb128 0
	.uleb128 .LVU700
	.uleb128 .LVU700
	.uleb128 .LVU757
	.uleb128 .LVU757
	.uleb128 0
.LLST316:
	.byte	0x6
	.4byte	.LVL289
	.byte	0x4
	.uleb128 .LVL289-.LVL289
	.uleb128 .LVL292-.LVL289
	.uleb128 0x2
	.byte	0x73
	.sleb128 0
	.byte	0x4
	.uleb128 .LVL292-.LVL289
	.uleb128 .LVL315-.LVL289
	.uleb128 0x2
	.byte	0x75
	.sleb128 0
	.byte	0x4
	.uleb128 .LVL315-.LVL289
	.uleb128 .LFE2487-.LVL289
	.uleb128 0x9
	.byte	0xa3
	.uleb128 0x3
	.byte	0xa5
	.uleb128 0x3
	.uleb128 0x26
	.byte	0xa8
	.uleb128 0x2d
	.byte	0xa8
	.uleb128 0
	.byte	0
.LVUS317:
	.uleb128 .LVU698
	.uleb128 .LVU755
.LLST317:
	.byte	0x8
	.4byte	.LVL291
	.uleb128 .LVL314-.LVL291
	.uleb128 0x1
	.byte	0x56
	.byte	0
.LVUS320:
	.uleb128 .LVU706
	.uleb128 .LVU722
	.uleb128 .LVU739
	.uleb128 .LVU749
.LLST320:
	.byte	0x6
	.4byte	.LVL296
	.byte	0x4
	.uleb128 .LVL296-.LVL296
	.uleb128 .LVL304-.LVL296
	.uleb128 0x1
	.byte	0x55
	.byte	0x4
	.uleb128 .LVL310-.LVL296
	.uleb128 .LVL313-.LVL296
	.uleb128 0x1
	.byte	0x55
	.byte	0
.LVUS321:
	.uleb128 .LVU706
	.uleb128 .LVU722
	.uleb128 .LVU739
	.uleb128 .LVU749
.LLST321:
	.byte	0x6
	.4byte	.LVL296
	.byte	0x4
	.uleb128 .LVL296-.LVL296
	.uleb128 .LVL304-.LVL296
	.uleb128 0x1
	.byte	0x54
	.byte	0x4
	.uleb128 .LVL310-.LVL296
	.uleb128 .LVL313-.LVL296
	.uleb128 0x1
	.byte	0x54
	.byte	0
.LVUS322:
	.uleb128 .LVU706
	.uleb128 .LVU719
	.uleb128 .LVU743
	.uleb128 .LVU744
	.uleb128 .LVU744
	.uleb128 .LVU749
.LLST322:
	.byte	0x6
	.4byte	.LVL296
	.byte	0x4
	.uleb128 .LVL296-.LVL296
	.uleb128 .LVL302-.LVL296
	.uleb128 0x1
	.byte	0x52
	.byte	0x4
	.uleb128 .LVL311-.LVL296
	.uleb128 .LVL312-.LVL296
	.uleb128 0x6
	.byte	0x72
	.sleb128 0
	.byte	0x74
	.sleb128 0
	.byte	0x22
	.byte	0x9f
	.byte	0x4
	.uleb128 .LVL312-.LVL296
	.uleb128 .LVL313-.LVL296
	.uleb128 0x1
	.byte	0x52
	.byte	0
.LVUS324:
	.uleb128 .LVU708
	.uleb128 .LVU718
.LLST324:
	.byte	0x8
	.4byte	.LVL297
	.uleb128 .LVL301-.LVL297
	.uleb128 0x1
	.byte	0x53
	.byte	0
.LVUS325:
	.uleb128 .LVU710
	.uleb128 .LVU716
.LLST325:
	.byte	0x8
	.4byte	.LVL298
	.uleb128 .LVL300-.LVL298
	.uleb128 0x1
	.byte	0x55
	.byte	0
.LVUS326:
	.uleb128 .LVU710
	.uleb128 .LVU713
	.uleb128 .LVU713
	.uleb128 .LVU716
.LLST326:
	.byte	0x6
	.4byte	.LVL298
	.byte	0x4
	.uleb128 .LVL298-.LVL298
	.uleb128 .LVL299-.LVL298
	.uleb128 0x1
	.byte	0x51
	.byte	0x4
	.uleb128 .LVL299-.LVL298
	.uleb128 .LVL300-.LVL298
	.uleb128 0x2
	.byte	0x75
	.sleb128 12
	.byte	0
.LVUS328:
	.uleb128 .LVU701
	.uleb128 .LVU706
	.uleb128 .LVU734
	.uleb128 .LVU739
.LLST328:
	.byte	0x6
	.4byte	.LVL293
	.byte	0x4
	.uleb128 .LVL293-.LVL293
	.uleb128 .LVL296-.LVL293
	.uleb128 0x1
	.byte	0x51
	.byte	0x4
	.uleb128 .LVL309-.LVL293
	.uleb128 .LVL310-1-.LVL293
	.uleb128 0x1
	.byte	0x51
	.byte	0
.LVUS329:
	.uleb128 .LVU701
	.uleb128 .LVU706
	.uleb128 .LVU734
	.uleb128 .LVU739
.LLST329:
	.byte	0x6
	.4byte	.LVL293
	.byte	0x4
	.uleb128 .LVL293-.LVL293
	.uleb128 .LVL296-.LVL293
	.uleb128 0x1
	.byte	0x5a
	.byte	0x4
	.uleb128 .LVL309-.LVL293
	.uleb128 .LVL310-.LVL293
	.uleb128 0x1
	.byte	0x5a
	.byte	0
.LVUS330:
	.uleb128 .LVU701
	.uleb128 .LVU706
	.uleb128 .LVU734
	.uleb128 .LVU739
.LLST330:
	.byte	0x6
	.4byte	.LVL293
	.byte	0x4
	.uleb128 .LVL293-.LVL293
	.uleb128 .LVL296-.LVL293
	.uleb128 0x1
	.byte	0x50
	.byte	0x4
	.uleb128 .LVL309-.LVL293
	.uleb128 .LVL310-1-.LVL293
	.uleb128 0x1
	.byte	0x50
	.byte	0
.LVUS331:
	.uleb128 .LVU701
	.uleb128 .LVU706
	.uleb128 .LVU735
	.uleb128 .LVU739
.LLST331:
	.byte	0x6
	.4byte	.LVL293
	.byte	0x4
	.uleb128 .LVL293-.LVL293
	.uleb128 .LVL296-.LVL293
	.uleb128 0x1
	.byte	0x51
	.byte	0x4
	.uleb128 .LVL309-.LVL293
	.uleb128 .LVL310-1-.LVL293
	.uleb128 0x1
	.byte	0x51
	.byte	0
.LVUS332:
	.uleb128 .LVU701
	.uleb128 .LVU706
	.uleb128 .LVU735
	.uleb128 .LVU739
.LLST332:
	.byte	0x6
	.4byte	.LVL293
	.byte	0x4
	.uleb128 .LVL293-.LVL293
	.uleb128 .LVL296-.LVL293
	.uleb128 0x1
	.byte	0x5a
	.byte	0x4
	.uleb128 .LVL309-.LVL293
	.uleb128 .LVL310-.LVL293
	.uleb128 0x1
	.byte	0x5a
	.byte	0
.LVUS333:
	.uleb128 .LVU701
	.uleb128 .LVU706
	.uleb128 .LVU735
	.uleb128 .LVU739
.LLST333:
	.byte	0x6
	.4byte	.LVL293
	.byte	0x4
	.uleb128 .LVL293-.LVL293
	.uleb128 .LVL296-.LVL293
	.uleb128 0x1
	.byte	0x50
	.byte	0x4
	.uleb128 .LVL309-.LVL293
	.uleb128 .LVL310-1-.LVL293
	.uleb128 0x1
	.byte	0x50
	.byte	0
.LVUS334:
	.uleb128 .LVU701
	.uleb128 .LVU706
	.uleb128 .LVU736
	.uleb128 .LVU739
.LLST334:
	.byte	0x6
	.4byte	.LVL293
	.byte	0x4
	.uleb128 .LVL293-.LVL293
	.uleb128 .LVL296-.LVL293
	.uleb128 0x1
	.byte	0x51
	.byte	0x4
	.uleb128 .LVL309-.LVL293
	.uleb128 .LVL310-1-.LVL293
	.uleb128 0x1
	.byte	0x51
	.byte	0
.LVUS335:
	.uleb128 .LVU701
	.uleb128 .LVU706
	.uleb128 .LVU736
	.uleb128 .LVU739
.LLST335:
	.byte	0x6
	.4byte	.LVL293
	.byte	0x4
	.uleb128 .LVL293-.LVL293
	.uleb128 .LVL296-.LVL293
	.uleb128 0x1
	.byte	0x5a
	.byte	0x4
	.uleb128 .LVL309-.LVL293
	.uleb128 .LVL310-.LVL293
	.uleb128 0x1
	.byte	0x5a
	.byte	0
.LVUS336:
	.uleb128 .LVU701
	.uleb128 .LVU706
	.uleb128 .LVU736
	.uleb128 .LVU739
.LLST336:
	.byte	0x6
	.4byte	.LVL293
	.byte	0x4
	.uleb128 .LVL293-.LVL293
	.uleb128 .LVL296-.LVL293
	.uleb128 0x1
	.byte	0x50
	.byte	0x4
	.uleb128 .LVL309-.LVL293
	.uleb128 .LVL310-1-.LVL293
	.uleb128 0x1
	.byte	0x50
	.byte	0
.LVUS337:
	.uleb128 .LVU701
	.uleb128 .LVU726
	.uleb128 .LVU737
	.uleb128 .LVU749
.LLST337:
	.byte	0x6
	.4byte	.LVL293
	.byte	0x4
	.uleb128 .LVL293-.LVL293
	.uleb128 .LVL306-.LVL293
	.uleb128 0x5
	.byte	0x77
	.sleb128 0
	.byte	0x34
	.byte	0x1b
	.byte	0x9f
	.byte	0x4
	.uleb128 .LVL309-.LVL293
	.uleb128 .LVL313-.LVL293
	.uleb128 0x5
	.byte	0x77
	.sleb128 0
	.byte	0x34
	.byte	0x1b
	.byte	0x9f
	.byte	0
.LVUS338:
	.uleb128 .LVU703
	.uleb128 .LVU705
.LLST338:
	.byte	0x8
	.4byte	.LVL294
	.uleb128 .LVL295-.LVL294
	.uleb128 0x1
	.byte	0x50
	.byte	0
.LVUS339:
	.uleb128 .LVU703
	.uleb128 .LVU705
.LLST339:
	.byte	0x8
	.4byte	.LVL294
	.uleb128 .LVL295-.LVL294
	.uleb128 0x1
	.byte	0x51
	.byte	0
.LVUS341:
	.uleb128 .LVU727
	.uleb128 .LVU731
.LLST341:
	.byte	0x8
	.4byte	.LVL307
	.uleb128 .LVL308-.LVL307
	.uleb128 0x6
	.byte	0xa0
	.4byte	.Ldebug_info0+34154
	.sleb128 0
	.byte	0
.LVUS342:
	.uleb128 .LVU749
	.uleb128 .LVU755
.LLST342:
	.byte	0x8
	.4byte	.LVL313
	.uleb128 .LVL314-.LVL313
	.uleb128 0x1
	.byte	0x58
	.byte	0
.LVUS343:
	.uleb128 .LVU749
	.uleb128 .LVU755
.LLST343:
	.byte	0x8
	.4byte	.LVL313
	.uleb128 .LVL314-.LVL313
	.uleb128 0x1
	.byte	0x55
	.byte	0
.LVUS281:
	.uleb128 0
	.uleb128 .LVU621
	.uleb128 .LVU621
	.uleb128 0
.LLST281:
	.byte	0x6
	.4byte	.LVL251
	.byte	0x4
	.uleb128 .LVL251-.LVL251
	.uleb128 .LVL252-.LVL251
	.uleb128 0x1
	.byte	0x51
	.byte	0x4
	.uleb128 .LVL252-.LVL251
	.uleb128 .LFE2485-.LVL251
	.uleb128 0xa
	.byte	0xa3
	.uleb128 0x3
	.byte	0xa5
	.uleb128 0x1
	.uleb128 0x26
	.byte	0xa8
	.uleb128 0x2d
	.byte	0xa8
	.uleb128 0
	.byte	0x9f
	.byte	0
.LVUS282:
	.uleb128 0
	.uleb128 .LVU625
	.uleb128 .LVU625
	.uleb128 .LVU630
	.uleb128 .LVU635
	.uleb128 .LVU667
	.uleb128 .LVU673
	.uleb128 .LVU693
.LLST282:
	.byte	0x6
	.4byte	.LVL251
	.byte	0x4
	.uleb128 .LVL251-.LVL251
	.uleb128 .LVL255-.LVL251
	.uleb128 0x1
	.byte	0x52
	.byte	0x4
	.uleb128 .LVL255-.LVL251
	.uleb128 .LVL258-.LVL251
	.uleb128 0x1
	.byte	0x57
	.byte	0x4
	.uleb128 .LVL262-.LVL251
	.uleb128 .LVL278-.LVL251
	.uleb128 0x1
	.byte	0x57
	.byte	0x4
	.uleb128 .LVL280-.LVL251
	.uleb128 .LVL287-.LVL251
	.uleb128 0x1
	.byte	0x57
	.byte	0
.LVUS283:
	.uleb128 0
	.uleb128 .LVU624
	.uleb128 .LVU624
	.uleb128 .LVU693
	.uleb128 .LVU693
	.uleb128 0
.LLST283:
	.byte	0x6
	.4byte	.LVL251
	.byte	0x4
	.uleb128 .LVL251-.LVL251
	.uleb128 .LVL254-.LVL251
	.uleb128 0x2
	.byte	0x73
	.sleb128 0
	.byte	0x4
	.uleb128 .LVL254-.LVL251
	.uleb128 .LVL286-.LVL251
	.uleb128 0x2
	.byte	0x74
	.sleb128 0
	.byte	0x4
	.uleb128 .LVL286-.LVL251
	.uleb128 .LFE2485-.LVL251
	.uleb128 0x9
	.byte	0xa3
	.uleb128 0x3
	.byte	0xa5
	.uleb128 0x3
	.uleb128 0x26
	.byte	0xa8
	.uleb128 0x2d
	.byte	0xa8
	.uleb128 0
	.byte	0
.LVUS284:
	.uleb128 .LVU622
	.uleb128 .LVU691
.LLST284:
	.byte	0x8
	.4byte	.LVL253
	.uleb128 .LVL285-.LVL253
	.uleb128 0x1
	.byte	0x55
	.byte	0
.LVUS286:
	.uleb128 .LVU625
	.uleb128 .LVU630
	.uleb128 .LVU657
	.uleb128 .LVU659
	.uleb128 .LVU659
	.uleb128 .LVU660
	.uleb128 .LVU660
	.uleb128 .LVU665
.LLST286:
	.byte	0x6
	.4byte	.LVL255
	.byte	0x4
	.uleb128 .LVL255-.LVL255
	.uleb128 .LVL258-.LVL255
	.uleb128 0x3
	.byte	0x8
	.byte	0x80
	.byte	0x9f
	.byte	0x4
	.uleb128 .LVL273-.LVL255
	.uleb128 .LVL274-.LVL255
	.uleb128 0x8
	.byte	0x70
	.sleb128 0
	.byte	0x73
	.sleb128 0
	.byte	0x1c
	.byte	0x34
	.byte	0x1b
	.byte	0x9f
	.byte	0x4
	.uleb128 .LVL274-.LVL255
	.uleb128 .LVL275-.LVL255
	.uleb128 0x5
	.byte	0x73
	.sleb128 0
	.byte	0x34
	.byte	0x1b
	.byte	0x9f
	.byte	0x4
	.uleb128 .LVL275-.LVL255
	.uleb128 .LVL277-.LVL255
	.uleb128 0x1
	.byte	0x53
	.byte	0
.LVUS287:
	.uleb128 .LVU625
	.uleb128 .LVU628
	.uleb128 .LVU628
	.uleb128 .LVU629
	.uleb128 .LVU629
	.uleb128 .LVU633
	.uleb128 .LVU633
	.uleb128 .LVU635
	.uleb128 .LVU657
	.uleb128 .LVU672
.LLST287:
	.byte	0x6
	.4byte	.LVL255
	.byte	0x4
	.uleb128 .LVL255-.LVL255
	.uleb128 .LVL256-.LVL255
	.uleb128 0x1
	.byte	0x50
	.byte	0x4
	.uleb128 .LVL256-.LVL255
	.uleb128 .LVL257-.LVL255
	.uleb128 0x2
	.byte	0x74
	.sleb128 0
	.byte	0x4
	.uleb128 .LVL257-.LVL255
	.uleb128 .LVL260-.LVL255
	.uleb128 0x1
	.byte	0x50
	.byte	0x4
	.uleb128 .LVL260-.LVL255
	.uleb128 .LVL262-.LVL255
	.uleb128 0x3
	.byte	0x70
	.sleb128 4
	.byte	0x9f
	.byte	0x4
	.uleb128 .LVL273-.LVL255
	.uleb128 .LVL279-.LVL255
	.uleb128 0x1
	.byte	0x50
	.byte	0
.LVUS289:
	.uleb128 .LVU635
	.uleb128 .LVU651
	.uleb128 .LVU673
	.uleb128 .LVU685
.LLST289:
	.byte	0x6
	.4byte	.LVL262
	.byte	0x4
	.uleb128 .LVL262-.LVL262
	.uleb128 .LVL270-.LVL262
	.uleb128 0x1
	.byte	0x54
	.byte	0x4
	.uleb128 .LVL280-.LVL262
	.uleb128 .LVL284-.LVL262
	.uleb128 0x1
	.byte	0x54
	.byte	0
.LVUS290:
	.uleb128 .LVU635
	.uleb128 .LVU651
	.uleb128 .LVU675
	.uleb128 .LVU685
.LLST290:
	.byte	0x6
	.4byte	.LVL262
	.byte	0x4
	.uleb128 .LVL262-.LVL262
	.uleb128 .LVL270-.LVL262
	.uleb128 0x1
	.byte	0x54
	.byte	0x4
	.uleb128 .LVL280-.LVL262
	.uleb128 .LVL284-.LVL262
	.uleb128 0x1
	.byte	0x54
	.byte	0
.LVUS291:
	.uleb128 .LVU635
	.uleb128 .LVU651
	.uleb128 .LVU675
	.uleb128 .LVU685
.LLST291:
	.byte	0x6
	.4byte	.LVL262
	.byte	0x4
	.uleb128 .LVL262-.LVL262
	.uleb128 .LVL270-.LVL262
	.uleb128 0x4
	.byte	0x76
	.sleb128 0
	.byte	0x1f
	.byte	0x9f
	.byte	0x4
	.uleb128 .LVL280-.LVL262
	.uleb128 .LVL284-.LVL262
	.uleb128 0x4
	.byte	0x76
	.sleb128 0
	.byte	0x1f
	.byte	0x9f
	.byte	0
.LVUS292:
	.uleb128 .LVU635
	.uleb128 .LVU648
	.uleb128 .LVU678
	.uleb128 .LVU681
	.uleb128 .LVU681
	.uleb128 .LVU682
	.uleb128 .LVU682
	.uleb128 .LVU685
.LLST292:
	.byte	0x6
	.4byte	.LVL262
	.byte	0x4
	.uleb128 .LVL262-.LVL262
	.uleb128 .LVL268-.LVL262
	.uleb128 0x1
	.byte	0x53
	.byte	0x4
	.uleb128 .LVL281-.LVL262
	.uleb128 .LVL282-.LVL262
	.uleb128 0x1
	.byte	0x53
	.byte	0x4
	.uleb128 .LVL282-.LVL262
	.uleb128 .LVL283-.LVL262
	.uleb128 0xc
	.byte	0x72
	.sleb128 0
	.byte	0x74
	.sleb128 4
	.byte	0x6
	.byte	0x1c
	.byte	0x32
	.byte	0x26
	.byte	0x76
	.sleb128 0
	.byte	0x1c
	.byte	0x9f
	.byte	0x4
	.uleb128 .LVL283-.LVL262
	.uleb128 .LVL284-.LVL262
	.uleb128 0x1
	.byte	0x53
	.byte	0
.LVUS294:
	.uleb128 .LVU637
	.uleb128 .LVU647
.LLST294:
	.byte	0x8
	.4byte	.LVL263
	.uleb128 .LVL267-.LVL263
	.uleb128 0x1
	.byte	0x52
	.byte	0
.LVUS295:
	.uleb128 .LVU639
	.uleb128 .LVU645
.LLST295:
	.byte	0x8
	.4byte	.LVL264
	.uleb128 .LVL266-.LVL264
	.uleb128 0x1
	.byte	0x54
	.byte	0
.LVUS296:
	.uleb128 .LVU639
	.uleb128 .LVU643
	.uleb128 .LVU643
	.uleb128 .LVU645
.LLST296:
	.byte	0x6
	.4byte	.LVL264
	.byte	0x4
	.uleb128 .LVL264-.LVL264
	.uleb128 .LVL265-.LVL264
	.uleb128 0x1
	.byte	0x51
	.byte	0x4
	.uleb128 .LVL265-.LVL264
	.uleb128 .LVL266-.LVL264
	.uleb128 0x2
	.byte	0x74
	.sleb128 12
	.byte	0
.LVUS298:
	.uleb128 .LVU630
	.uleb128 .LVU635
	.uleb128 .LVU667
	.uleb128 .LVU673
.LLST298:
	.byte	0x6
	.4byte	.LVL258
	.byte	0x4
	.uleb128 .LVL258-.LVL258
	.uleb128 .LVL262-.LVL258
	.uleb128 0x1
	.byte	0x57
	.byte	0x4
	.uleb128 .LVL278-.LVL258
	.uleb128 .LVL280-.LVL258
	.uleb128 0x1
	.byte	0x57
	.byte	0
.LVUS300:
	.uleb128 .LVU630
	.uleb128 .LVU633
	.uleb128 .LVU633
	.uleb128 .LVU635
	.uleb128 .LVU667
	.uleb128 .LVU672
.LLST300:
	.byte	0x6
	.4byte	.LVL258
	.byte	0x4
	.uleb128 .LVL258-.LVL258
	.uleb128 .LVL260-.LVL258
	.uleb128 0x1
	.byte	0x50
	.byte	0x4
	.uleb128 .LVL260-.LVL258
	.uleb128 .LVL262-.LVL258
	.uleb128 0x3
	.byte	0x70
	.sleb128 4
	.byte	0x9f
	.byte	0x4
	.uleb128 .LVL278-.LVL258
	.uleb128 .LVL279-.LVL258
	.uleb128 0x1
	.byte	0x50
	.byte	0
.LVUS301:
	.uleb128 .LVU630
	.uleb128 .LVU635
	.uleb128 .LVU668
	.uleb128 .LVU673
.LLST301:
	.byte	0x6
	.4byte	.LVL258
	.byte	0x4
	.uleb128 .LVL258-.LVL258
	.uleb128 .LVL262-.LVL258
	.uleb128 0x1
	.byte	0x57
	.byte	0x4
	.uleb128 .LVL278-.LVL258
	.uleb128 .LVL280-.LVL258
	.uleb128 0x1
	.byte	0x57
	.byte	0
.LVUS303:
	.uleb128 .LVU630
	.uleb128 .LVU633
	.uleb128 .LVU633
	.uleb128 .LVU635
	.uleb128 .LVU668
	.uleb128 .LVU672
.LLST303:
	.byte	0x6
	.4byte	.LVL258
	.byte	0x4
	.uleb128 .LVL258-.LVL258
	.uleb128 .LVL260-.LVL258
	.uleb128 0x1
	.byte	0x50
	.byte	0x4
	.uleb128 .LVL260-.LVL258
	.uleb128 .LVL262-.LVL258
	.uleb128 0x3
	.byte	0x70
	.sleb128 4
	.byte	0x9f
	.byte	0x4
	.uleb128 .LVL278-.LVL258
	.uleb128 .LVL279-.LVL258
	.uleb128 0x1
	.byte	0x50
	.byte	0
.LVUS304:
	.uleb128 .LVU630
	.uleb128 .LVU635
	.uleb128 .LVU669
	.uleb128 .LVU673
.LLST304:
	.byte	0x6
	.4byte	.LVL258
	.byte	0x4
	.uleb128 .LVL258-.LVL258
	.uleb128 .LVL262-.LVL258
	.uleb128 0x1
	.byte	0x57
	.byte	0x4
	.uleb128 .LVL278-.LVL258
	.uleb128 .LVL280-.LVL258
	.uleb128 0x1
	.byte	0x57
	.byte	0
.LVUS306:
	.uleb128 .LVU630
	.uleb128 .LVU633
	.uleb128 .LVU633
	.uleb128 .LVU635
	.uleb128 .LVU669
	.uleb128 .LVU672
.LLST306:
	.byte	0x6
	.4byte	.LVL258
	.byte	0x4
	.uleb128 .LVL258-.LVL258
	.uleb128 .LVL260-.LVL258
	.uleb128 0x1
	.byte	0x50
	.byte	0x4
	.uleb128 .LVL260-.LVL258
	.uleb128 .LVL262-.LVL258
	.uleb128 0x3
	.byte	0x70
	.sleb128 4
	.byte	0x9f
	.byte	0x4
	.uleb128 .LVL278-.LVL258
	.uleb128 .LVL279-.LVL258
	.uleb128 0x1
	.byte	0x50
	.byte	0
.LVUS307:
	.uleb128 .LVU630
	.uleb128 .LVU635
	.uleb128 .LVU635
	.uleb128 .LVU655
	.uleb128 .LVU670
	.uleb128 .LVU673
	.uleb128 .LVU673
	.uleb128 .LVU685
.LLST307:
	.byte	0x6
	.4byte	.LVL258
	.byte	0x4
	.uleb128 .LVL258-.LVL258
	.uleb128 .LVL262-.LVL258
	.uleb128 0x5
	.byte	0x72
	.sleb128 0
	.byte	0x34
	.byte	0x1b
	.byte	0x9f
	.byte	0x4
	.uleb128 .LVL262-.LVL258
	.uleb128 .LVL272-.LVL258
	.uleb128 0x6
	.byte	0x79
	.sleb128 0
	.byte	0x1f
	.byte	0x34
	.byte	0x1b
	.byte	0x9f
	.byte	0x4
	.uleb128 .LVL278-.LVL258
	.uleb128 .LVL280-1-.LVL258
	.uleb128 0x5
	.byte	0x72
	.sleb128 0
	.byte	0x34
	.byte	0x1b
	.byte	0x9f
	.byte	0x4
	.uleb128 .LVL280-1-.LVL258
	.uleb128 .LVL284-.LVL258
	.uleb128 0x6
	.byte	0x79
	.sleb128 0
	.byte	0x1f
	.byte	0x34
	.byte	0x1b
	.byte	0x9f
	.byte	0
.LVUS308:
	.uleb128 .LVU631
	.uleb128 .LVU633
	.uleb128 .LVU633
	.uleb128 .LVU634
.LLST308:
	.byte	0x6
	.4byte	.LVL259
	.byte	0x4
	.uleb128 .LVL259-.LVL259
	.uleb128 .LVL260-.LVL259
	.uleb128 0x3
	.byte	0x70
	.sleb128 -4
	.byte	0x9f
	.byte	0x4
	.uleb128 .LVL260-.LVL259
	.uleb128 .LVL261-.LVL259
	.uleb128 0x1
	.byte	0x50
	.byte	0
.LVUS309:
	.uleb128 .LVU631
	.uleb128 .LVU634
.LLST309:
	.byte	0x8
	.4byte	.LVL259
	.uleb128 .LVL261-.LVL259
	.uleb128 0x1
	.byte	0x57
	.byte	0
.LVUS310:
	.uleb128 .LVU660
	.uleb128 .LVU663
.LLST310:
	.byte	0x8
	.4byte	.LVL275
	.uleb128 .LVL276-.LVL275
	.uleb128 0x6
	.byte	0xa0
	.4byte	.Ldebug_info0+34832
	.sleb128 0
	.byte	0
.LVUS311:
	.uleb128 .LVU660
	.uleb128 .LVU663
.LLST311:
	.byte	0x8
	.4byte	.LVL275
	.uleb128 .LVL276-.LVL275
	.uleb128 0x6
	.byte	0xa0
	.4byte	.Ldebug_info0+34862
	.sleb128 0
	.byte	0
.LVUS312:
	.uleb128 .LVU685
	.uleb128 .LVU691
.LLST312:
	.byte	0x8
	.4byte	.LVL284
	.uleb128 .LVL285-.LVL284
	.uleb128 0x1
	.byte	0x58
	.byte	0
.LVUS313:
	.uleb128 .LVU685
	.uleb128 .LVU691
.LLST313:
	.byte	0x8
	.4byte	.LVL284
	.uleb128 .LVL285-.LVL284
	.uleb128 0x1
	.byte	0x54
	.byte	0
.LVUS203:
	.uleb128 0
	.uleb128 .LVU493
	.uleb128 .LVU493
	.uleb128 .LVU494
	.uleb128 .LVU494
	.uleb128 .LVU506
	.uleb128 .LVU506
	.uleb128 .LVU540
	.uleb128 .LVU540
	.uleb128 0
.LLST203:
	.byte	0x6
	.4byte	.LVL191
	.byte	0x4
	.uleb128 .LVL191-.LVL191
	.uleb128 .LVL198-.LVL191
	.uleb128 0x1
	.byte	0x50
	.byte	0x4
	.uleb128 .LVL198-.LVL191
	.uleb128 .LVL199-.LVL191
	.uleb128 0x1
	.byte	0x56
	.byte	0x4
	.uleb128 .LVL199-.LVL191
	.uleb128 .LVL201-.LVL191
	.uleb128 0x1
	.byte	0x50
	.byte	0x4
	.uleb128 .LVL201-.LVL191
	.uleb128 .LVL216-.LVL191
	.uleb128 0x1
	.byte	0x56
	.byte	0x4
	.uleb128 .LVL216-.LVL191
	.uleb128 .LFE2348-.LVL191
	.uleb128 0xa
	.byte	0xa3
	.uleb128 0x3
	.byte	0xa5
	.uleb128 0
	.uleb128 0x26
	.byte	0xa8
	.uleb128 0x2d
	.byte	0xa8
	.uleb128 0
	.byte	0x9f
	.byte	0
.LVUS204:
	.uleb128 0
	.uleb128 .LVU494
	.uleb128 .LVU494
	.uleb128 .LVU494
	.uleb128 .LVU494
	.uleb128 .LVU507
	.uleb128 .LVU507
	.uleb128 .LVU540
	.uleb128 .LVU540
	.uleb128 0
.LLST204:
	.byte	0x6
	.4byte	.LVL191
	.byte	0x4
	.uleb128 .LVL191-.LVL191
	.uleb128 .LVL199-1-.LVL191
	.uleb128 0x1
	.byte	0x51
	.byte	0x4
	.uleb128 .LVL199-1-.LVL191
	.uleb128 .LVL199-.LVL191
	.uleb128 0x1
	.byte	0x59
	.byte	0x4
	.uleb128 .LVL199-.LVL191
	.uleb128 .LVL202-1-.LVL191
	.uleb128 0x1
	.byte	0x51
	.byte	0x4
	.uleb128 .LVL202-1-.LVL191
	.uleb128 .LVL218-.LVL191
	.uleb128 0x1
	.byte	0x59
	.byte	0x4
	.uleb128 .LVL218-.LVL191
	.uleb128 .LFE2348-.LVL191
	.uleb128 0xa
	.byte	0xa3
	.uleb128 0x3
	.byte	0xa5
	.uleb128 0x1
	.uleb128 0x26
	.byte	0xa8
	.uleb128 0x2d
	.byte	0xa8
	.uleb128 0
	.byte	0x9f
	.byte	0
.LVUS205:
	.uleb128 .LVU495
	.uleb128 .LVU540
.LLST205:
	.byte	0x8
	.4byte	.LVL200
	.uleb128 .LVL217-.LVL200
	.uleb128 0x1
	.byte	0x57
	.byte	0
.LVUS206:
	.uleb128 .LVU495
	.uleb128 .LVU506
	.uleb128 .LVU506
	.uleb128 .LVU507
.LLST206:
	.byte	0x6
	.4byte	.LVL200
	.byte	0x4
	.uleb128 .LVL200-.LVL200
	.uleb128 .LVL201-.LVL200
	.uleb128 0x2
	.byte	0x70
	.sleb128 4
	.byte	0x4
	.uleb128 .LVL201-.LVL200
	.uleb128 .LVL202-1-.LVL200
	.uleb128 0x2
	.byte	0x76
	.sleb128 4
	.byte	0
.LVUS207:
	.uleb128 .LVU501
	.uleb128 .LVU521
	.uleb128 .LVU521
	.uleb128 .LVU522
	.uleb128 .LVU525
	.uleb128 .LVU528
	.uleb128 .LVU528
	.uleb128 .LVU529
.LLST207:
	.byte	0x6
	.4byte	.LVL200
	.byte	0x4
	.uleb128 .LVL200-.LVL200
	.uleb128 .LVL206-.LVL200
	.uleb128 0x5
	.byte	0x74
	.sleb128 0
	.byte	0x34
	.byte	0x1b
	.byte	0x9f
	.byte	0x4
	.uleb128 .LVL206-.LVL200
	.uleb128 .LVL207-.LVL200
	.uleb128 0x5
	.byte	0x74
	.sleb128 -4
	.byte	0x34
	.byte	0x1b
	.byte	0x9f
	.byte	0x4
	.uleb128 .LVL208-.LVL200
	.uleb128 .LVL210-.LVL200
	.uleb128 0x5
	.byte	0x74
	.sleb128 0
	.byte	0x34
	.byte	0x1b
	.byte	0x9f
	.byte	0x4
	.uleb128 .LVL210-.LVL200
	.uleb128 .LVL211-.LVL200
	.uleb128 0x5
	.byte	0x74
	.sleb128 -4
	.byte	0x34
	.byte	0x1b
	.byte	0x9f
	.byte	0
.LVUS208:
	.uleb128 .LVU508
	.uleb128 .LVU526
	.uleb128 .LVU526
	.uleb128 .LVU538
	.uleb128 .LVU538
	.uleb128 .LVU540
	.uleb128 .LVU540
	.uleb128 0
.LLST208:
	.byte	0x6
	.4byte	.LVL203
	.byte	0x4
	.uleb128 .LVL203-.LVL203
	.uleb128 .LVL209-1-.LVL203
	.uleb128 0x1
	.byte	0x50
	.byte	0x4
	.uleb128 .LVL209-1-.LVL203
	.uleb128 .LVL214-.LVL203
	.uleb128 0x1
	.byte	0x55
	.byte	0x4
	.uleb128 .LVL214-.LVL203
	.uleb128 .LVL216-.LVL203
	.uleb128 0x2
	.byte	0x76
	.sleb128 0
	.byte	0x4
	.uleb128 .LVL216-.LVL203
	.uleb128 .LFE2348-.LVL203
	.uleb128 0x9
	.byte	0xa3
	.uleb128 0x3
	.byte	0xa5
	.uleb128 0
	.uleb128 0x26
	.byte	0xa8
	.uleb128 0x2d
	.byte	0xa8
	.uleb128 0
	.byte	0
.LVUS209:
	.uleb128 .LVU508
	.uleb128 .LVU519
	.uleb128 .LVU519
	.uleb128 .LVU521
	.uleb128 .LVU521
	.uleb128 .LVU522
	.uleb128 .LVU522
	.uleb128 .LVU525
	.uleb128 .LVU525
	.uleb128 .LVU526
	.uleb128 .LVU526
	.uleb128 .LVU526
	.uleb128 .LVU526
	.uleb128 .LVU528
	.uleb128 .LVU528
	.uleb128 .LVU529
	.uleb128 .LVU529
	.uleb128 .LVU540
	.uleb128 .LVU540
	.uleb128 .LVU540
	.uleb128 .LVU540
	.uleb128 0
.LLST209:
	.byte	0x6
	.4byte	.LVL203
	.byte	0x4
	.uleb128 .LVL203-.LVL203
	.uleb128 .LVL205-.LVL203
	.uleb128 0x1
	.byte	0x50
	.byte	0x4
	.uleb128 .LVL205-.LVL203
	.uleb128 .LVL206-.LVL203
	.uleb128 0x6
	.byte	0x70
	.sleb128 0
	.byte	0x74
	.sleb128 0
	.byte	0x22
	.byte	0x9f
	.byte	0x4
	.uleb128 .LVL206-.LVL203
	.uleb128 .LVL207-.LVL203
	.uleb128 0x8
	.byte	0x70
	.sleb128 0
	.byte	0x74
	.sleb128 0
	.byte	0x22
	.byte	0x34
	.byte	0x1c
	.byte	0x9f
	.byte	0x4
	.uleb128 .LVL207-.LVL203
	.uleb128 .LVL208-.LVL203
	.uleb128 0x1
	.byte	0x54
	.byte	0x4
	.uleb128 .LVL208-.LVL203
	.uleb128 .LVL209-1-.LVL203
	.uleb128 0x1
	.byte	0x50
	.byte	0x4
	.uleb128 .LVL209-1-.LVL203
	.uleb128 .LVL209-.LVL203
	.uleb128 0x1
	.byte	0x55
	.byte	0x4
	.uleb128 .LVL209-.LVL203
	.uleb128 .LVL210-.LVL203
	.uleb128 0x6
	.byte	0x75
	.sleb128 0
	.byte	0x74
	.sleb128 0
	.byte	0x22
	.byte	0x9f
	.byte	0x4
	.uleb128 .LVL210-.LVL203
	.uleb128 .LVL211-.LVL203
	.uleb128 0x8
	.byte	0x75
	.sleb128 0
	.byte	0x74
	.sleb128 0
	.byte	0x22
	.byte	0x34
	.byte	0x1c
	.byte	0x9f
	.byte	0x4
	.uleb128 .LVL211-.LVL203
	.uleb128 .LVL215-.LVL203
	.uleb128 0x1
	.byte	0x54
	.byte	0x4
	.uleb128 .LVL215-.LVL203
	.uleb128 .LVL216-.LVL203
	.uleb128 0x2
	.byte	0x76
	.sleb128 4
	.byte	0x4
	.uleb128 .LVL216-.LVL203
	.uleb128 .LFE2348-.LVL203
	.uleb128 0xb
	.byte	0xa3
	.uleb128 0x3
	.byte	0xa5
	.uleb128 0
	.uleb128 0x26
	.byte	0xa8
	.uleb128 0x2d
	.byte	0xa8
	.uleb128 0
	.byte	0x23
	.uleb128 0x4
	.byte	0
.LVUS224:
	.uleb128 .LVU508
	.uleb128 .LVU510
.LLST224:
	.byte	0x8
	.4byte	.LVL203
	.uleb128 .LVL203-.LVL203
	.uleb128 0x6
	.byte	0xa0
	.4byte	.Ldebug_info0+39201
	.sleb128 0
	.byte	0
.LVUS225:
	.uleb128 .LVU508
	.uleb128 .LVU510
.LLST225:
	.byte	0x8
	.4byte	.LVL203
	.uleb128 .LVL203-.LVL203
	.uleb128 0x1
	.byte	0x50
	.byte	0
.LVUS226:
	.uleb128 .LVU508
	.uleb128 .LVU510
.LLST226:
	.byte	0x8
	.4byte	.LVL203
	.uleb128 .LVL203-.LVL203
	.uleb128 0x1
	.byte	0x56
	.byte	0
.LVUS227:
	.uleb128 .LVU510
	.uleb128 .LVU514
.LLST227:
	.byte	0x8
	.4byte	.LVL203
	.uleb128 .LVL204-.LVL203
	.uleb128 0x1
	.byte	0x56
	.byte	0
.LVUS228:
	.uleb128 .LVU510
	.uleb128 .LVU514
.LLST228:
	.byte	0x8
	.4byte	.LVL203
	.uleb128 .LVL204-.LVL203
	.uleb128 0x6
	.byte	0x70
	.sleb128 0
	.byte	0x74
	.sleb128 0
	.byte	0x22
	.byte	0x9f
	.byte	0
.LVUS229:
	.uleb128 .LVU510
	.uleb128 .LVU514
.LLST229:
	.byte	0x8
	.4byte	.LVL203
	.uleb128 .LVL204-.LVL203
	.uleb128 0x1
	.byte	0x59
	.byte	0
.LVUS230:
	.uleb128 .LVU512
	.uleb128 .LVU514
.LLST230:
	.byte	0x8
	.4byte	.LVL203
	.uleb128 .LVL204-.LVL203
	.uleb128 0x1
	.byte	0x56
	.byte	0
.LVUS231:
	.uleb128 .LVU512
	.uleb128 .LVU514
.LLST231:
	.byte	0x8
	.4byte	.LVL203
	.uleb128 .LVL204-.LVL203
	.uleb128 0x6
	.byte	0x70
	.sleb128 0
	.byte	0x74
	.sleb128 0
	.byte	0x22
	.byte	0x9f
	.byte	0
.LVUS232:
	.uleb128 .LVU512
	.uleb128 .LVU514
.LLST232:
	.byte	0x8
	.4byte	.LVL203
	.uleb128 .LVL204-.LVL203
	.uleb128 0x1
	.byte	0x59
	.byte	0
.LVUS234:
	.uleb128 .LVU514
	.uleb128 .LVU519
	.uleb128 .LVU525
	.uleb128 .LVU526
.LLST234:
	.byte	0x6
	.4byte	.LVL204
	.byte	0x4
	.uleb128 .LVL204-.LVL204
	.uleb128 .LVL205-.LVL204
	.uleb128 0x1
	.byte	0x57
	.byte	0x4
	.uleb128 .LVL208-.LVL204
	.uleb128 .LVL209-.LVL204
	.uleb128 0x1
	.byte	0x57
	.byte	0
.LVUS235:
	.uleb128 .LVU514
	.uleb128 .LVU519
	.uleb128 .LVU525
	.uleb128 .LVU526
	.uleb128 .LVU526
	.uleb128 .LVU526
.LLST235:
	.byte	0x6
	.4byte	.LVL204
	.byte	0x4
	.uleb128 .LVL204-.LVL204
	.uleb128 .LVL205-.LVL204
	.uleb128 0x1
	.byte	0x50
	.byte	0x4
	.uleb128 .LVL208-.LVL204
	.uleb128 .LVL209-1-.LVL204
	.uleb128 0x1
	.byte	0x50
	.byte	0x4
	.uleb128 .LVL209-1-.LVL204
	.uleb128 .LVL209-.LVL204
	.uleb128 0x1
	.byte	0x55
	.byte	0
.LVUS236:
	.uleb128 .LVU514
	.uleb128 .LVU519
	.uleb128 .LVU525
	.uleb128 .LVU526
.LLST236:
	.byte	0x6
	.4byte	.LVL204
	.byte	0x4
	.uleb128 .LVL204-.LVL204
	.uleb128 .LVL205-.LVL204
	.uleb128 0x1
	.byte	0x56
	.byte	0x4
	.uleb128 .LVL208-.LVL204
	.uleb128 .LVL209-.LVL204
	.uleb128 0x1
	.byte	0x56
	.byte	0
.LVUS237:
	.uleb128 .LVU516
	.uleb128 .LVU519
	.uleb128 .LVU525
	.uleb128 .LVU526
.LLST237:
	.byte	0x6
	.4byte	.LVL204
	.byte	0x4
	.uleb128 .LVL204-.LVL204
	.uleb128 .LVL205-.LVL204
	.uleb128 0x1
	.byte	0x57
	.byte	0x4
	.uleb128 .LVL208-.LVL204
	.uleb128 .LVL209-.LVL204
	.uleb128 0x1
	.byte	0x57
	.byte	0
.LVUS238:
	.uleb128 .LVU516
	.uleb128 .LVU519
	.uleb128 .LVU525
	.uleb128 .LVU526
	.uleb128 .LVU526
	.uleb128 .LVU526
.LLST238:
	.byte	0x6
	.4byte	.LVL204
	.byte	0x4
	.uleb128 .LVL204-.LVL204
	.uleb128 .LVL205-.LVL204
	.uleb128 0x1
	.byte	0x50
	.byte	0x4
	.uleb128 .LVL208-.LVL204
	.uleb128 .LVL209-1-.LVL204
	.uleb128 0x1
	.byte	0x50
	.byte	0x4
	.uleb128 .LVL209-1-.LVL204
	.uleb128 .LVL209-.LVL204
	.uleb128 0x1
	.byte	0x55
	.byte	0
.LVUS239:
	.uleb128 .LVU516
	.uleb128 .LVU519
	.uleb128 .LVU525
	.uleb128 .LVU526
.LLST239:
	.byte	0x6
	.4byte	.LVL204
	.byte	0x4
	.uleb128 .LVL204-.LVL204
	.uleb128 .LVL205-.LVL204
	.uleb128 0x1
	.byte	0x56
	.byte	0x4
	.uleb128 .LVL208-.LVL204
	.uleb128 .LVL209-.LVL204
	.uleb128 0x1
	.byte	0x56
	.byte	0
.LVUS240:
	.uleb128 .LVU517
	.uleb128 .LVU519
	.uleb128 .LVU525
	.uleb128 .LVU526
.LLST240:
	.byte	0x6
	.4byte	.LVL204
	.byte	0x4
	.uleb128 .LVL204-.LVL204
	.uleb128 .LVL205-.LVL204
	.uleb128 0x1
	.byte	0x57
	.byte	0x4
	.uleb128 .LVL208-.LVL204
	.uleb128 .LVL209-.LVL204
	.uleb128 0x1
	.byte	0x57
	.byte	0
.LVUS241:
	.uleb128 .LVU517
	.uleb128 .LVU519
	.uleb128 .LVU525
	.uleb128 .LVU526
	.uleb128 .LVU526
	.uleb128 .LVU526
.LLST241:
	.byte	0x6
	.4byte	.LVL204
	.byte	0x4
	.uleb128 .LVL204-.LVL204
	.uleb128 .LVL205-.LVL204
	.uleb128 0x1
	.byte	0x50
	.byte	0x4
	.uleb128 .LVL208-.LVL204
	.uleb128 .LVL209-1-.LVL204
	.uleb128 0x1
	.byte	0x50
	.byte	0x4
	.uleb128 .LVL209-1-.LVL204
	.uleb128 .LVL209-.LVL204
	.uleb128 0x1
	.byte	0x55
	.byte	0
.LVUS242:
	.uleb128 .LVU517
	.uleb128 .LVU519
	.uleb128 .LVU525
	.uleb128 .LVU526
.LLST242:
	.byte	0x6
	.4byte	.LVL204
	.byte	0x4
	.uleb128 .LVL204-.LVL204
	.uleb128 .LVL205-.LVL204
	.uleb128 0x1
	.byte	0x56
	.byte	0x4
	.uleb128 .LVL208-.LVL204
	.uleb128 .LVL209-.LVL204
	.uleb128 0x1
	.byte	0x56
	.byte	0
.LVUS243:
	.uleb128 .LVU518
	.uleb128 .LVU521
	.uleb128 .LVU521
	.uleb128 .LVU522
	.uleb128 .LVU525
	.uleb128 .LVU528
	.uleb128 .LVU528
	.uleb128 .LVU529
.LLST243:
	.byte	0x6
	.4byte	.LVL204
	.byte	0x4
	.uleb128 .LVL204-.LVL204
	.uleb128 .LVL206-.LVL204
	.uleb128 0x5
	.byte	0x74
	.sleb128 0
	.byte	0x34
	.byte	0x1b
	.byte	0x9f
	.byte	0x4
	.uleb128 .LVL206-.LVL204
	.uleb128 .LVL207-.LVL204
	.uleb128 0x5
	.byte	0x74
	.sleb128 -4
	.byte	0x34
	.byte	0x1b
	.byte	0x9f
	.byte	0x4
	.uleb128 .LVL208-.LVL204
	.uleb128 .LVL210-.LVL204
	.uleb128 0x5
	.byte	0x74
	.sleb128 0
	.byte	0x34
	.byte	0x1b
	.byte	0x9f
	.byte	0x4
	.uleb128 .LVL210-.LVL204
	.uleb128 .LVL211-.LVL204
	.uleb128 0x5
	.byte	0x74
	.sleb128 -4
	.byte	0x34
	.byte	0x1b
	.byte	0x9f
	.byte	0
.LVUS245:
	.uleb128 .LVU522
	.uleb128 .LVU525
	.uleb128 .LVU530
	.uleb128 .LVU534
.LLST245:
	.byte	0x6
	.4byte	.LVL207
	.byte	0x4
	.uleb128 .LVL207-.LVL207
	.uleb128 .LVL208-.LVL207
	.uleb128 0x6
	.byte	0xa0
	.4byte	.Ldebug_info0+39201
	.sleb128 0
	.byte	0x4
	.uleb128 .LVL212-.LVL207
	.uleb128 .LVL213-.LVL207
	.uleb128 0x6
	.byte	0xa0
	.4byte	.Ldebug_info0+39201
	.sleb128 0
	.byte	0
.LVUS246:
	.uleb128 .LVU531
	.uleb128 .LVU534
.LLST246:
	.byte	0x8
	.4byte	.LVL212
	.uleb128 .LVL213-.LVL212
	.uleb128 0x1
	.byte	0x57
	.byte	0
.LVUS247:
	.uleb128 .LVU531
	.uleb128 .LVU534
.LLST247:
	.byte	0x8
	.4byte	.LVL212
	.uleb128 .LVL213-1-.LVL212
	.uleb128 0x5
	.byte	0x71
	.sleb128 0
	.byte	0x34
	.byte	0x1b
	.byte	0x9f
	.byte	0
.LVUS248:
	.uleb128 .LVU532
	.uleb128 .LVU534
.LLST248:
	.byte	0x8
	.4byte	.LVL212
	.uleb128 .LVL213-.LVL212
	.uleb128 0x1
	.byte	0x57
	.byte	0
.LVUS249:
	.uleb128 .LVU532
	.uleb128 .LVU534
.LLST249:
	.byte	0x8
	.4byte	.LVL212
	.uleb128 .LVL213-1-.LVL212
	.uleb128 0x5
	.byte	0x71
	.sleb128 0
	.byte	0x34
	.byte	0x1b
	.byte	0x9f
	.byte	0
.LVUS210:
	.uleb128 .LVU480
	.uleb128 .LVU493
	.uleb128 .LVU493
	.uleb128 .LVU494
	.uleb128 .LVU494
	.uleb128 .LVU495
.LLST210:
	.byte	0x6
	.4byte	.LVL192
	.byte	0x4
	.uleb128 .LVL192-.LVL192
	.uleb128 .LVL198-.LVL192
	.uleb128 0x1
	.byte	0x50
	.byte	0x4
	.uleb128 .LVL198-.LVL192
	.uleb128 .LVL199-.LVL192
	.uleb128 0x1
	.byte	0x56
	.byte	0x4
	.uleb128 .LVL199-.LVL192
	.uleb128 .LVL200-.LVL192
	.uleb128 0x1
	.byte	0x50
	.byte	0
.LVUS211:
	.uleb128 .LVU480
	.uleb128 .LVU495
.LLST211:
	.byte	0x8
	.4byte	.LVL192
	.uleb128 .LVL200-.LVL192
	.uleb128 0x2
	.byte	0x31
	.byte	0x9f
	.byte	0
.LVUS212:
	.uleb128 .LVU480
	.uleb128 .LVU495
.LLST212:
	.byte	0x8
	.4byte	.LVL192
	.uleb128 .LVL200-.LVL192
	.uleb128 0x6
	.byte	0x3
	.4byte	.LC2
	.byte	0x9f
	.byte	0
.LVUS213:
	.uleb128 .LVU489
	.uleb128 .LVU491
	.uleb128 .LVU494
	.uleb128 .LVU495
.LLST213:
	.byte	0x6
	.4byte	.LVL195
	.byte	0x4
	.uleb128 .LVL195-.LVL195
	.uleb128 .LVL196-.LVL195
	.uleb128 0x1
	.byte	0x55
	.byte	0x4
	.uleb128 .LVL199-.LVL195
	.uleb128 .LVL200-.LVL195
	.uleb128 0x1
	.byte	0x55
	.byte	0
.LVUS214:
	.uleb128 .LVU481
	.uleb128 .LVU484
.LLST214:
	.byte	0x8
	.4byte	.LVL192
	.uleb128 .LVL193-.LVL192
	.uleb128 0x1
	.byte	0x50
	.byte	0
.LVUS215:
	.uleb128 .LVU486
	.uleb128 .LVU487
.LLST215:
	.byte	0x8
	.4byte	.LVL194
	.uleb128 .LVL194-.LVL194
	.uleb128 0x6
	.byte	0xa0
	.4byte	.Ldebug_info0+39853
	.sleb128 0
	.byte	0
.LVUS216:
	.uleb128 .LVU495
	.uleb128 .LVU498
.LLST216:
	.byte	0x8
	.4byte	.LVL200
	.uleb128 .LVL200-.LVL200
	.uleb128 0x1
	.byte	0x50
	.byte	0
.LVUS217:
	.uleb128 .LVU497
	.uleb128 .LVU498
.LLST217:
	.byte	0x8
	.4byte	.LVL200
	.uleb128 .LVL200-.LVL200
	.uleb128 0x3
	.byte	0x70
	.sleb128 4
	.byte	0x9f
	.byte	0
.LVUS218:
	.uleb128 .LVU498
	.uleb128 .LVU501
.LLST218:
	.byte	0x8
	.4byte	.LVL200
	.uleb128 .LVL200-.LVL200
	.uleb128 0x1
	.byte	0x50
	.byte	0
.LVUS219:
	.uleb128 .LVU500
	.uleb128 .LVU501
.LLST219:
	.byte	0x8
	.4byte	.LVL200
	.uleb128 .LVL200-.LVL200
	.uleb128 0x1
	.byte	0x50
	.byte	0
.LVUS220:
	.uleb128 .LVU501
	.uleb128 .LVU506
	.uleb128 .LVU506
	.uleb128 .LVU508
.LLST220:
	.byte	0x6
	.4byte	.LVL200
	.byte	0x4
	.uleb128 .LVL200-.LVL200
	.uleb128 .LVL201-.LVL200
	.uleb128 0x1
	.byte	0x50
	.byte	0x4
	.uleb128 .LVL201-.LVL200
	.uleb128 .LVL203-.LVL200
	.uleb128 0x1
	.byte	0x56
	.byte	0
.LVUS221:
	.uleb128 .LVU503
	.uleb128 .LVU506
	.uleb128 .LVU506
	.uleb128 .LVU508
.LLST221:
	.byte	0x6
	.4byte	.LVL200
	.byte	0x4
	.uleb128 .LVL200-.LVL200
	.uleb128 .LVL201-.LVL200
	.uleb128 0x1
	.byte	0x50
	.byte	0x4
	.uleb128 .LVL201-.LVL200
	.uleb128 .LVL203-.LVL200
	.uleb128 0x1
	.byte	0x56
	.byte	0
.LVUS222:
	.uleb128 .LVU504
	.uleb128 .LVU506
	.uleb128 .LVU506
	.uleb128 .LVU508
.LLST222:
	.byte	0x6
	.4byte	.LVL200
	.byte	0x4
	.uleb128 .LVL200-.LVL200
	.uleb128 .LVL201-.LVL200
	.uleb128 0x1
	.byte	0x50
	.byte	0x4
	.uleb128 .LVL201-.LVL200
	.uleb128 .LVL203-.LVL200
	.uleb128 0x1
	.byte	0x56
	.byte	0
.LVUS223:
	.uleb128 .LVU504
	.uleb128 .LVU508
.LLST223:
	.byte	0x8
	.4byte	.LVL200
	.uleb128 .LVL203-.LVL200
	.uleb128 0x2
	.byte	0x30
	.byte	0x9f
	.byte	0
.LVUS49:
	.uleb128 0
	.uleb128 .LVU242
	.uleb128 .LVU242
	.uleb128 .LVU280
	.uleb128 .LVU280
	.uleb128 .LVU281
	.uleb128 .LVU281
	.uleb128 0
.LLST49:
	.byte	0x6
	.4byte	.LVL102
	.byte	0x4
	.uleb128 .LVL102-.LVL102
	.uleb128 .LVL106-.LVL102
	.uleb128 0x1
	.byte	0x50
	.byte	0x4
	.uleb128 .LVL106-.LVL102
	.uleb128 .LVL117-.LVL102
	.uleb128 0x1
	.byte	0x54
	.byte	0x4
	.uleb128 .LVL117-.LVL102
	.uleb128 .LVL119-.LVL102
	.uleb128 0xa
	.byte	0xa3
	.uleb128 0x3
	.byte	0xa5
	.uleb128 0
	.uleb128 0x26
	.byte	0xa8
	.uleb128 0x2d
	.byte	0xa8
	.uleb128 0
	.byte	0x9f
	.byte	0x4
	.uleb128 .LVL119-.LVL102
	.uleb128 .LFE2346-.LVL102
	.uleb128 0x1
	.byte	0x54
	.byte	0
.LVUS50:
	.uleb128 0
	.uleb128 .LVU240
	.uleb128 .LVU240
	.uleb128 .LVU280
	.uleb128 .LVU280
	.uleb128 .LVU281
	.uleb128 .LVU281
	.uleb128 0
.LLST50:
	.byte	0x6
	.4byte	.LVL102
	.byte	0x4
	.uleb128 .LVL102-.LVL102
	.uleb128 .LVL104-.LVL102
	.uleb128 0x1
	.byte	0x51
	.byte	0x4
	.uleb128 .LVL104-.LVL102
	.uleb128 .LVL118-.LVL102
	.uleb128 0x1
	.byte	0x5b
	.byte	0x4
	.uleb128 .LVL118-.LVL102
	.uleb128 .LVL119-.LVL102
	.uleb128 0xa
	.byte	0xa3
	.uleb128 0x3
	.byte	0xa5
	.uleb128 0x1
	.uleb128 0x26
	.byte	0xa8
	.uleb128 0x2d
	.byte	0xa8
	.uleb128 0
	.byte	0x9f
	.byte	0x4
	.uleb128 .LVL119-.LVL102
	.uleb128 .LFE2346-.LVL102
	.uleb128 0x1
	.byte	0x5b
	.byte	0
.LVUS51:
	.uleb128 .LVU236
	.uleb128 .LVU241
.LLST51:
	.byte	0x8
	.4byte	.LVL103
	.uleb128 .LVL105-.LVL103
	.uleb128 0x1
	.byte	0x50
	.byte	0
.LVUS52:
	.uleb128 .LVU237
	.uleb128 .LVU241
.LLST52:
	.byte	0x8
	.4byte	.LVL103
	.uleb128 .LVL105-.LVL103
	.uleb128 0x3
	.byte	0x70
	.sleb128 24
	.byte	0x9f
	.byte	0
.LVUS53:
	.uleb128 .LVU237
	.uleb128 .LVU241
.LLST53:
	.byte	0x8
	.4byte	.LVL103
	.uleb128 .LVL105-.LVL103
	.uleb128 0x3
	.byte	0x70
	.sleb128 8
	.byte	0x9f
	.byte	0
.LVUS55:
	.uleb128 .LVU250
	.uleb128 .LVU256
	.uleb128 .LVU282
	.uleb128 0
.LLST55:
	.byte	0x6
	.4byte	.LVL107
	.byte	0x4
	.uleb128 .LVL107-.LVL107
	.uleb128 .LVL108-.LVL107
	.uleb128 0x1
	.byte	0x54
	.byte	0x4
	.uleb128 .LVL120-.LVL107
	.uleb128 .LFE2346-.LVL107
	.uleb128 0x1
	.byte	0x54
	.byte	0
.LVUS56:
	.uleb128 .LVU250
	.uleb128 .LVU256
	.uleb128 .LVU282
	.uleb128 0
.LLST56:
	.byte	0x6
	.4byte	.LVL107
	.byte	0x4
	.uleb128 .LVL107-.LVL107
	.uleb128 .LVL108-.LVL107
	.uleb128 0x2
	.byte	0x31
	.byte	0x9f
	.byte	0x4
	.uleb128 .LVL120-.LVL107
	.uleb128 .LFE2346-.LVL107
	.uleb128 0x2
	.byte	0x31
	.byte	0x9f
	.byte	0
.LVUS58:
	.uleb128 .LVU282
	.uleb128 .LVU313
	.uleb128 .LVU314
	.uleb128 0
.LLST58:
	.byte	0x6
	.4byte	.LVL120
	.byte	0x4
	.uleb128 .LVL120-.LVL120
	.uleb128 .LVL130-.LVL120
	.uleb128 0x1
	.byte	0x54
	.byte	0x4
	.uleb128 .LVL131-.LVL120
	.uleb128 .LFE2346-.LVL120
	.uleb128 0x1
	.byte	0x54
	.byte	0
.LVUS59:
	.uleb128 .LVU282
	.uleb128 .LVU313
	.uleb128 .LVU314
	.uleb128 0
.LLST59:
	.byte	0x6
	.4byte	.LVL120
	.byte	0x4
	.uleb128 .LVL120-.LVL120
	.uleb128 .LVL130-.LVL120
	.uleb128 0x2
	.byte	0x31
	.byte	0x9f
	.byte	0x4
	.uleb128 .LVL131-.LVL120
	.uleb128 .LFE2346-.LVL120
	.uleb128 0x2
	.byte	0x31
	.byte	0x9f
	.byte	0
.LVUS60:
	.uleb128 .LVU282
	.uleb128 .LVU313
	.uleb128 .LVU314
	.uleb128 0
.LLST60:
	.byte	0x6
	.4byte	.LVL120
	.byte	0x4
	.uleb128 .LVL120-.LVL120
	.uleb128 .LVL130-.LVL120
	.uleb128 0x2
	.byte	0x30
	.byte	0x9f
	.byte	0x4
	.uleb128 .LVL131-.LVL120
	.uleb128 .LFE2346-.LVL120
	.uleb128 0x2
	.byte	0x30
	.byte	0x9f
	.byte	0
.LVUS61:
	.uleb128 .LVU283
	.uleb128 .LVU287
	.uleb128 .LVU287
	.uleb128 .LVU313
	.uleb128 .LVU314
	.uleb128 .LVU338
	.uleb128 .LVU338
	.uleb128 .LVU360
	.uleb128 .LVU360
	.uleb128 .LVU389
	.uleb128 .LVU389
	.uleb128 .LVU392
	.uleb128 .LVU392
	.uleb128 0
.LLST61:
	.byte	0x6
	.4byte	.LVL120
	.byte	0x4
	.uleb128 .LVL120-.LVL120
	.uleb128 .LVL122-.LVL120
	.uleb128 0x3
	.byte	0x77
	.sleb128 1
	.byte	0x9f
	.byte	0x4
	.uleb128 .LVL122-.LVL120
	.uleb128 .LVL130-.LVL120
	.uleb128 0x7
	.byte	0x76
	.sleb128 0
	.byte	0x32
	.byte	0x26
	.byte	0x23
	.uleb128 0x1
	.byte	0x9f
	.byte	0x4
	.uleb128 .LVL131-.LVL120
	.uleb128 .LVL146-.LVL120
	.uleb128 0x7
	.byte	0x76
	.sleb128 0
	.byte	0x32
	.byte	0x26
	.byte	0x23
	.uleb128 0x1
	.byte	0x9f
	.byte	0x4
	.uleb128 .LVL146-.LVL120
	.uleb128 .LVL152-.LVL120
	.uleb128 0x3
	.byte	0x77
	.sleb128 1
	.byte	0x9f
	.byte	0x4
	.uleb128 .LVL152-.LVL120
	.uleb128 .LVL160-.LVL120
	.uleb128 0x7
	.byte	0x76
	.sleb128 0
	.byte	0x32
	.byte	0x26
	.byte	0x23
	.uleb128 0x1
	.byte	0x9f
	.byte	0x4
	.uleb128 .LVL160-.LVL120
	.uleb128 .LVL162-.LVL120
	.uleb128 0x3
	.byte	0x77
	.sleb128 1
	.byte	0x9f
	.byte	0x4
	.uleb128 .LVL162-.LVL120
	.uleb128 .LFE2346-.LVL120
	.uleb128 0x7
	.byte	0x76
	.sleb128 0
	.byte	0x32
	.byte	0x26
	.byte	0x23
	.uleb128 0x1
	.byte	0x9f
	.byte	0
.LVUS62:
	.uleb128 .LVU284
	.uleb128 .LVU300
	.uleb128 .LVU300
	.uleb128 .LVU313
	.uleb128 .LVU314
	.uleb128 .LVU317
	.uleb128 .LVU317
	.uleb128 .LVU319
	.uleb128 .LVU319
	.uleb128 .LVU331
	.uleb128 .LVU331
	.uleb128 .LVU332
	.uleb128 .LVU332
	.uleb128 .LVU335
	.uleb128 .LVU335
	.uleb128 .LVU338
	.uleb128 .LVU338
	.uleb128 .LVU341
	.uleb128 .LVU341
	.uleb128 .LVU360
	.uleb128 .LVU360
	.uleb128 .LVU389
	.uleb128 .LVU389
	.uleb128 .LVU392
	.uleb128 .LVU392
	.uleb128 0
.LLST62:
	.byte	0x6
	.4byte	.LVL121
	.byte	0x4
	.uleb128 .LVL121-.LVL121
	.uleb128 .LVL127-1-.LVL121
	.uleb128 0x1
	.byte	0x53
	.byte	0x4
	.uleb128 .LVL127-1-.LVL121
	.uleb128 .LVL130-.LVL121
	.uleb128 0x7
	.byte	0x76
	.sleb128 0
	.byte	0x32
	.byte	0x26
	.byte	0x23
	.uleb128 0x2
	.byte	0x9f
	.byte	0x4
	.uleb128 .LVL131-.LVL121
	.uleb128 .LVL133-.LVL121
	.uleb128 0x1
	.byte	0x53
	.byte	0x4
	.uleb128 .LVL133-.LVL121
	.uleb128 .LVL135-.LVL121
	.uleb128 0x7
	.byte	0x76
	.sleb128 0
	.byte	0x32
	.byte	0x26
	.byte	0x23
	.uleb128 0x2
	.byte	0x9f
	.byte	0x4
	.uleb128 .LVL135-.LVL121
	.uleb128 .LVL140-1-.LVL121
	.uleb128 0x1
	.byte	0x53
	.byte	0x4
	.uleb128 .LVL140-1-.LVL121
	.uleb128 .LVL141-.LVL121
	.uleb128 0x7
	.byte	0x76
	.sleb128 0
	.byte	0x32
	.byte	0x26
	.byte	0x23
	.uleb128 0x2
	.byte	0x9f
	.byte	0x4
	.uleb128 .LVL141-.LVL121
	.uleb128 .LVL143-.LVL121
	.uleb128 0x1
	.byte	0x53
	.byte	0x4
	.uleb128 .LVL143-.LVL121
	.uleb128 .LVL146-.LVL121
	.uleb128 0x7
	.byte	0x76
	.sleb128 0
	.byte	0x32
	.byte	0x26
	.byte	0x23
	.uleb128 0x2
	.byte	0x9f
	.byte	0x4
	.uleb128 .LVL146-.LVL121
	.uleb128 .LVL147-.LVL121
	.uleb128 0x1
	.byte	0x53
	.byte	0x4
	.uleb128 .LVL147-.LVL121
	.uleb128 .LVL152-.LVL121
	.uleb128 0x3
	.byte	0x77
	.sleb128 2
	.byte	0x9f
	.byte	0x4
	.uleb128 .LVL152-.LVL121
	.uleb128 .LVL160-.LVL121
	.uleb128 0x7
	.byte	0x76
	.sleb128 0
	.byte	0x32
	.byte	0x26
	.byte	0x23
	.uleb128 0x2
	.byte	0x9f
	.byte	0x4
	.uleb128 .LVL160-.LVL121
	.uleb128 .LVL162-.LVL121
	.uleb128 0x3
	.byte	0x77
	.sleb128 2
	.byte	0x9f
	.byte	0x4
	.uleb128 .LVL162-.LVL121
	.uleb128 .LFE2346-.LVL121
	.uleb128 0x7
	.byte	0x76
	.sleb128 0
	.byte	0x32
	.byte	0x26
	.byte	0x23
	.uleb128 0x2
	.byte	0x9f
	.byte	0
.LVUS63:
	.uleb128 .LVU290
	.uleb128 .LVU308
	.uleb128 .LVU308
	.uleb128 .LVU313
	.uleb128 .LVU314
	.uleb128 .LVU338
	.uleb128 .LVU363
	.uleb128 .LVU389
	.uleb128 .LVU392
	.uleb128 0
.LLST63:
	.byte	0x6
	.4byte	.LVL123
	.byte	0x4
	.uleb128 .LVL123-.LVL123
	.uleb128 .LVL129-.LVL123
	.uleb128 0x1
	.byte	0x57
	.byte	0x4
	.uleb128 .LVL129-.LVL123
	.uleb128 .LVL130-.LVL123
	.uleb128 0x2
	.byte	0x74
	.sleb128 20
	.byte	0x4
	.uleb128 .LVL131-.LVL123
	.uleb128 .LVL146-.LVL123
	.uleb128 0x1
	.byte	0x57
	.byte	0x4
	.uleb128 .LVL153-.LVL123
	.uleb128 .LVL160-.LVL123
	.uleb128 0x1
	.byte	0x57
	.byte	0x4
	.uleb128 .LVL162-.LVL123
	.uleb128 .LFE2346-.LVL123
	.uleb128 0x1
	.byte	0x57
	.byte	0
.LVUS65:
	.uleb128 .LVU291
	.uleb128 .LVU300
	.uleb128 .LVU314
	.uleb128 .LVU319
.LLST65:
	.byte	0x6
	.4byte	.LVL124
	.byte	0x4
	.uleb128 .LVL124-.LVL124
	.uleb128 .LVL127-1-.LVL124
	.uleb128 0x1
	.byte	0x51
	.byte	0x4
	.uleb128 .LVL131-.LVL124
	.uleb128 .LVL135-.LVL124
	.uleb128 0x1
	.byte	0x51
	.byte	0
.LVUS66:
	.uleb128 .LVU291
	.uleb128 .LVU297
	.uleb128 .LVU297
	.uleb128 .LVU298
	.uleb128 .LVU298
	.uleb128 .LVU300
	.uleb128 .LVU314
	.uleb128 .LVU318
.LLST66:
	.byte	0x6
	.4byte	.LVL124
	.byte	0x4
	.uleb128 .LVL124-.LVL124
	.uleb128 .LVL125-.LVL124
	.uleb128 0x3
	.byte	0x72
	.sleb128 4
	.byte	0x9f
	.byte	0x4
	.uleb128 .LVL125-.LVL124
	.uleb128 .LVL126-.LVL124
	.uleb128 0x1
	.byte	0x52
	.byte	0x4
	.uleb128 .LVL126-.LVL124
	.uleb128 .LVL127-1-.LVL124
	.uleb128 0x6
	.byte	0x74
	.sleb128 36
	.byte	0x6
	.byte	0x23
	.uleb128 0x4
	.byte	0x9f
	.byte	0x4
	.uleb128 .LVL131-.LVL124
	.uleb128 .LVL134-.LVL124
	.uleb128 0x6
	.byte	0x74
	.sleb128 36
	.byte	0x6
	.byte	0x23
	.uleb128 0x4
	.byte	0x9f
	.byte	0
.LVUS67:
	.uleb128 .LVU291
	.uleb128 .LVU300
	.uleb128 .LVU314
	.uleb128 .LVU319
.LLST67:
	.byte	0x6
	.4byte	.LVL124
	.byte	0x4
	.uleb128 .LVL124-.LVL124
	.uleb128 .LVL127-.LVL124
	.uleb128 0x1
	.byte	0x57
	.byte	0x4
	.uleb128 .LVL131-.LVL124
	.uleb128 .LVL135-.LVL124
	.uleb128 0x1
	.byte	0x57
	.byte	0
.LVUS68:
	.uleb128 .LVU292
	.uleb128 .LVU300
	.uleb128 .LVU314
	.uleb128 .LVU319
.LLST68:
	.byte	0x6
	.4byte	.LVL124
	.byte	0x4
	.uleb128 .LVL124-.LVL124
	.uleb128 .LVL127-1-.LVL124
	.uleb128 0x1
	.byte	0x51
	.byte	0x4
	.uleb128 .LVL131-.LVL124
	.uleb128 .LVL135-.LVL124
	.uleb128 0x1
	.byte	0x51
	.byte	0
.LVUS69:
	.uleb128 .LVU292
	.uleb128 .LVU297
	.uleb128 .LVU297
	.uleb128 .LVU298
	.uleb128 .LVU298
	.uleb128 .LVU300
	.uleb128 .LVU314
	.uleb128 .LVU318
.LLST69:
	.byte	0x6
	.4byte	.LVL124
	.byte	0x4
	.uleb128 .LVL124-.LVL124
	.uleb128 .LVL125-.LVL124
	.uleb128 0x3
	.byte	0x72
	.sleb128 4
	.byte	0x9f
	.byte	0x4
	.uleb128 .LVL125-.LVL124
	.uleb128 .LVL126-.LVL124
	.uleb128 0x1
	.byte	0x52
	.byte	0x4
	.uleb128 .LVL126-.LVL124
	.uleb128 .LVL127-1-.LVL124
	.uleb128 0x6
	.byte	0x74
	.sleb128 36
	.byte	0x6
	.byte	0x23
	.uleb128 0x4
	.byte	0x9f
	.byte	0x4
	.uleb128 .LVL131-.LVL124
	.uleb128 .LVL134-.LVL124
	.uleb128 0x6
	.byte	0x74
	.sleb128 36
	.byte	0x6
	.byte	0x23
	.uleb128 0x4
	.byte	0x9f
	.byte	0
.LVUS70:
	.uleb128 .LVU292
	.uleb128 .LVU300
	.uleb128 .LVU314
	.uleb128 .LVU319
.LLST70:
	.byte	0x6
	.4byte	.LVL124
	.byte	0x4
	.uleb128 .LVL124-.LVL124
	.uleb128 .LVL127-.LVL124
	.uleb128 0x1
	.byte	0x57
	.byte	0x4
	.uleb128 .LVL131-.LVL124
	.uleb128 .LVL135-.LVL124
	.uleb128 0x1
	.byte	0x57
	.byte	0
.LVUS71:
	.uleb128 .LVU293
	.uleb128 .LVU300
	.uleb128 .LVU314
	.uleb128 .LVU319
.LLST71:
	.byte	0x6
	.4byte	.LVL124
	.byte	0x4
	.uleb128 .LVL124-.LVL124
	.uleb128 .LVL127-1-.LVL124
	.uleb128 0x1
	.byte	0x51
	.byte	0x4
	.uleb128 .LVL131-.LVL124
	.uleb128 .LVL135-.LVL124
	.uleb128 0x1
	.byte	0x51
	.byte	0
.LVUS72:
	.uleb128 .LVU293
	.uleb128 .LVU297
	.uleb128 .LVU297
	.uleb128 .LVU298
	.uleb128 .LVU298
	.uleb128 .LVU300
	.uleb128 .LVU314
	.uleb128 .LVU318
.LLST72:
	.byte	0x6
	.4byte	.LVL124
	.byte	0x4
	.uleb128 .LVL124-.LVL124
	.uleb128 .LVL125-.LVL124
	.uleb128 0x3
	.byte	0x72
	.sleb128 4
	.byte	0x9f
	.byte	0x4
	.uleb128 .LVL125-.LVL124
	.uleb128 .LVL126-.LVL124
	.uleb128 0x1
	.byte	0x52
	.byte	0x4
	.uleb128 .LVL126-.LVL124
	.uleb128 .LVL127-1-.LVL124
	.uleb128 0x6
	.byte	0x74
	.sleb128 36
	.byte	0x6
	.byte	0x23
	.uleb128 0x4
	.byte	0x9f
	.byte	0x4
	.uleb128 .LVL131-.LVL124
	.uleb128 .LVL134-.LVL124
	.uleb128 0x6
	.byte	0x74
	.sleb128 36
	.byte	0x6
	.byte	0x23
	.uleb128 0x4
	.byte	0x9f
	.byte	0
.LVUS73:
	.uleb128 .LVU293
	.uleb128 .LVU300
	.uleb128 .LVU314
	.uleb128 .LVU319
.LLST73:
	.byte	0x6
	.4byte	.LVL124
	.byte	0x4
	.uleb128 .LVL124-.LVL124
	.uleb128 .LVL127-.LVL124
	.uleb128 0x1
	.byte	0x57
	.byte	0x4
	.uleb128 .LVL131-.LVL124
	.uleb128 .LVL135-.LVL124
	.uleb128 0x1
	.byte	0x57
	.byte	0
.LVUS74:
	.uleb128 .LVU294
	.uleb128 .LVU300
	.uleb128 .LVU314
	.uleb128 .LVU319
.LLST74:
	.byte	0x6
	.4byte	.LVL124
	.byte	0x4
	.uleb128 .LVL124-.LVL124
	.uleb128 .LVL127-1-.LVL124
	.uleb128 0x1
	.byte	0x51
	.byte	0x4
	.uleb128 .LVL131-.LVL124
	.uleb128 .LVL135-.LVL124
	.uleb128 0x1
	.byte	0x51
	.byte	0
.LVUS75:
	.uleb128 .LVU294
	.uleb128 .LVU297
	.uleb128 .LVU297
	.uleb128 .LVU298
	.uleb128 .LVU298
	.uleb128 .LVU300
	.uleb128 .LVU314
	.uleb128 .LVU318
.LLST75:
	.byte	0x6
	.4byte	.LVL124
	.byte	0x4
	.uleb128 .LVL124-.LVL124
	.uleb128 .LVL125-.LVL124
	.uleb128 0x3
	.byte	0x72
	.sleb128 4
	.byte	0x9f
	.byte	0x4
	.uleb128 .LVL125-.LVL124
	.uleb128 .LVL126-.LVL124
	.uleb128 0x1
	.byte	0x52
	.byte	0x4
	.uleb128 .LVL126-.LVL124
	.uleb128 .LVL127-1-.LVL124
	.uleb128 0x6
	.byte	0x74
	.sleb128 36
	.byte	0x6
	.byte	0x23
	.uleb128 0x4
	.byte	0x9f
	.byte	0x4
	.uleb128 .LVL131-.LVL124
	.uleb128 .LVL134-.LVL124
	.uleb128 0x6
	.byte	0x74
	.sleb128 36
	.byte	0x6
	.byte	0x23
	.uleb128 0x4
	.byte	0x9f
	.byte	0
.LVUS76:
	.uleb128 .LVU294
	.uleb128 .LVU300
	.uleb128 .LVU314
	.uleb128 .LVU319
.LLST76:
	.byte	0x6
	.4byte	.LVL124
	.byte	0x4
	.uleb128 .LVL124-.LVL124
	.uleb128 .LVL127-.LVL124
	.uleb128 0x1
	.byte	0x57
	.byte	0x4
	.uleb128 .LVL131-.LVL124
	.uleb128 .LVL135-.LVL124
	.uleb128 0x1
	.byte	0x57
	.byte	0
.LVUS77:
	.uleb128 .LVU295
	.uleb128 .LVU300
	.uleb128 .LVU314
	.uleb128 .LVU319
.LLST77:
	.byte	0x6
	.4byte	.LVL124
	.byte	0x4
	.uleb128 .LVL124-.LVL124
	.uleb128 .LVL127-1-.LVL124
	.uleb128 0x1
	.byte	0x51
	.byte	0x4
	.uleb128 .LVL131-.LVL124
	.uleb128 .LVL135-.LVL124
	.uleb128 0x1
	.byte	0x51
	.byte	0
.LVUS78:
	.uleb128 .LVU295
	.uleb128 .LVU297
	.uleb128 .LVU297
	.uleb128 .LVU298
	.uleb128 .LVU298
	.uleb128 .LVU300
	.uleb128 .LVU314
	.uleb128 .LVU318
.LLST78:
	.byte	0x6
	.4byte	.LVL124
	.byte	0x4
	.uleb128 .LVL124-.LVL124
	.uleb128 .LVL125-.LVL124
	.uleb128 0x3
	.byte	0x72
	.sleb128 4
	.byte	0x9f
	.byte	0x4
	.uleb128 .LVL125-.LVL124
	.uleb128 .LVL126-.LVL124
	.uleb128 0x1
	.byte	0x52
	.byte	0x4
	.uleb128 .LVL126-.LVL124
	.uleb128 .LVL127-1-.LVL124
	.uleb128 0x6
	.byte	0x74
	.sleb128 36
	.byte	0x6
	.byte	0x23
	.uleb128 0x4
	.byte	0x9f
	.byte	0x4
	.uleb128 .LVL131-.LVL124
	.uleb128 .LVL134-.LVL124
	.uleb128 0x6
	.byte	0x74
	.sleb128 36
	.byte	0x6
	.byte	0x23
	.uleb128 0x4
	.byte	0x9f
	.byte	0
.LVUS79:
	.uleb128 .LVU295
	.uleb128 .LVU300
	.uleb128 .LVU314
	.uleb128 .LVU319
.LLST79:
	.byte	0x6
	.4byte	.LVL124
	.byte	0x4
	.uleb128 .LVL124-.LVL124
	.uleb128 .LVL127-.LVL124
	.uleb128 0x1
	.byte	0x57
	.byte	0x4
	.uleb128 .LVL131-.LVL124
	.uleb128 .LVL135-.LVL124
	.uleb128 0x1
	.byte	0x57
	.byte	0
.LVUS81:
	.uleb128 .LVU298
	.uleb128 .LVU300
	.uleb128 .LVU314
	.uleb128 .LVU319
.LLST81:
	.byte	0x6
	.4byte	.LVL126
	.byte	0x4
	.uleb128 .LVL126-.LVL126
	.uleb128 .LVL127-1-.LVL126
	.uleb128 0x5
	.byte	0x72
	.sleb128 0
	.byte	0x34
	.byte	0x1b
	.byte	0x9f
	.byte	0x4
	.uleb128 .LVL131-.LVL126
	.uleb128 .LVL135-.LVL126
	.uleb128 0x5
	.byte	0x72
	.sleb128 0
	.byte	0x34
	.byte	0x1b
	.byte	0x9f
	.byte	0
.LVUS82:
	.uleb128 .LVU315
	.uleb128 .LVU318
.LLST82:
	.byte	0x8
	.4byte	.LVL132
	.uleb128 .LVL134-.LVL132
	.uleb128 0x1
	.byte	0x57
	.byte	0
.LVUS83:
	.uleb128 .LVU315
	.uleb128 .LVU318
.LLST83:
	.byte	0x8
	.4byte	.LVL132
	.uleb128 .LVL134-.LVL132
	.uleb128 0x1
	.byte	0x51
	.byte	0
.LVUS85:
	.uleb128 .LVU321
	.uleb128 .LVU331
	.uleb128 .LVU332
	.uleb128 .LVU338
.LLST85:
	.byte	0x6
	.4byte	.LVL136
	.byte	0x4
	.uleb128 .LVL136-.LVL136
	.uleb128 .LVL140-1-.LVL136
	.uleb128 0x1
	.byte	0x51
	.byte	0x4
	.uleb128 .LVL141-.LVL136
	.uleb128 .LVL146-.LVL136
	.uleb128 0x1
	.byte	0x51
	.byte	0
.LVUS86:
	.uleb128 .LVU321
	.uleb128 .LVU327
	.uleb128 .LVU327
	.uleb128 .LVU328
	.uleb128 .LVU328
	.uleb128 .LVU331
	.uleb128 .LVU332
	.uleb128 .LVU337
.LLST86:
	.byte	0x6
	.4byte	.LVL136
	.byte	0x4
	.uleb128 .LVL136-.LVL136
	.uleb128 .LVL137-.LVL136
	.uleb128 0x3
	.byte	0x72
	.sleb128 4
	.byte	0x9f
	.byte	0x4
	.uleb128 .LVL137-.LVL136
	.uleb128 .LVL138-.LVL136
	.uleb128 0x1
	.byte	0x52
	.byte	0x4
	.uleb128 .LVL138-.LVL136
	.uleb128 .LVL140-1-.LVL136
	.uleb128 0x6
	.byte	0x74
	.sleb128 36
	.byte	0x6
	.byte	0x23
	.uleb128 0x4
	.byte	0x9f
	.byte	0x4
	.uleb128 .LVL141-.LVL136
	.uleb128 .LVL145-.LVL136
	.uleb128 0x6
	.byte	0x74
	.sleb128 36
	.byte	0x6
	.byte	0x23
	.uleb128 0x4
	.byte	0x9f
	.byte	0
.LVUS87:
	.uleb128 .LVU321
	.uleb128 .LVU330
	.uleb128 .LVU330
	.uleb128 .LVU332
	.uleb128 .LVU332
	.uleb128 .LVU336
	.uleb128 .LVU336
	.uleb128 .LVU338
.LLST87:
	.byte	0x6
	.4byte	.LVL136
	.byte	0x4
	.uleb128 .LVL136-.LVL136
	.uleb128 .LVL139-.LVL136
	.uleb128 0x1
	.byte	0x50
	.byte	0x4
	.uleb128 .LVL139-.LVL136
	.uleb128 .LVL141-.LVL136
	.uleb128 0x8
	.byte	0x77
	.sleb128 0
	.byte	0x76
	.sleb128 0
	.byte	0x22
	.byte	0x23
	.uleb128 0x4
	.byte	0x9f
	.byte	0x4
	.uleb128 .LVL141-.LVL136
	.uleb128 .LVL144-.LVL136
	.uleb128 0x1
	.byte	0x50
	.byte	0x4
	.uleb128 .LVL144-.LVL136
	.uleb128 .LVL146-.LVL136
	.uleb128 0x3
	.byte	0x70
	.sleb128 4
	.byte	0x9f
	.byte	0
.LVUS88:
	.uleb128 .LVU322
	.uleb128 .LVU331
	.uleb128 .LVU332
	.uleb128 .LVU338
.LLST88:
	.byte	0x6
	.4byte	.LVL136
	.byte	0x4
	.uleb128 .LVL136-.LVL136
	.uleb128 .LVL140-1-.LVL136
	.uleb128 0x1
	.byte	0x51
	.byte	0x4
	.uleb128 .LVL141-.LVL136
	.uleb128 .LVL146-.LVL136
	.uleb128 0x1
	.byte	0x51
	.byte	0
.LVUS89:
	.uleb128 .LVU322
	.uleb128 .LVU327
	.uleb128 .LVU327
	.uleb128 .LVU328
	.uleb128 .LVU328
	.uleb128 .LVU331
	.uleb128 .LVU332
	.uleb128 .LVU337
.LLST89:
	.byte	0x6
	.4byte	.LVL136
	.byte	0x4
	.uleb128 .LVL136-.LVL136
	.uleb128 .LVL137-.LVL136
	.uleb128 0x3
	.byte	0x72
	.sleb128 4
	.byte	0x9f
	.byte	0x4
	.uleb128 .LVL137-.LVL136
	.uleb128 .LVL138-.LVL136
	.uleb128 0x1
	.byte	0x52
	.byte	0x4
	.uleb128 .LVL138-.LVL136
	.uleb128 .LVL140-1-.LVL136
	.uleb128 0x6
	.byte	0x74
	.sleb128 36
	.byte	0x6
	.byte	0x23
	.uleb128 0x4
	.byte	0x9f
	.byte	0x4
	.uleb128 .LVL141-.LVL136
	.uleb128 .LVL145-.LVL136
	.uleb128 0x6
	.byte	0x74
	.sleb128 36
	.byte	0x6
	.byte	0x23
	.uleb128 0x4
	.byte	0x9f
	.byte	0
.LVUS90:
	.uleb128 .LVU322
	.uleb128 .LVU330
	.uleb128 .LVU330
	.uleb128 .LVU332
	.uleb128 .LVU332
	.uleb128 .LVU336
	.uleb128 .LVU336
	.uleb128 .LVU338
.LLST90:
	.byte	0x6
	.4byte	.LVL136
	.byte	0x4
	.uleb128 .LVL136-.LVL136
	.uleb128 .LVL139-.LVL136
	.uleb128 0x1
	.byte	0x50
	.byte	0x4
	.uleb128 .LVL139-.LVL136
	.uleb128 .LVL141-.LVL136
	.uleb128 0x8
	.byte	0x77
	.sleb128 0
	.byte	0x76
	.sleb128 0
	.byte	0x22
	.byte	0x23
	.uleb128 0x4
	.byte	0x9f
	.byte	0x4
	.uleb128 .LVL141-.LVL136
	.uleb128 .LVL144-.LVL136
	.uleb128 0x1
	.byte	0x50
	.byte	0x4
	.uleb128 .LVL144-.LVL136
	.uleb128 .LVL146-.LVL136
	.uleb128 0x3
	.byte	0x70
	.sleb128 4
	.byte	0x9f
	.byte	0
.LVUS91:
	.uleb128 .LVU323
	.uleb128 .LVU331
	.uleb128 .LVU332
	.uleb128 .LVU338
.LLST91:
	.byte	0x6
	.4byte	.LVL136
	.byte	0x4
	.uleb128 .LVL136-.LVL136
	.uleb128 .LVL140-1-.LVL136
	.uleb128 0x1
	.byte	0x51
	.byte	0x4
	.uleb128 .LVL141-.LVL136
	.uleb128 .LVL146-.LVL136
	.uleb128 0x1
	.byte	0x51
	.byte	0
.LVUS92:
	.uleb128 .LVU323
	.uleb128 .LVU327
	.uleb128 .LVU327
	.uleb128 .LVU328
	.uleb128 .LVU328
	.uleb128 .LVU331
	.uleb128 .LVU332
	.uleb128 .LVU337
.LLST92:
	.byte	0x6
	.4byte	.LVL136
	.byte	0x4
	.uleb128 .LVL136-.LVL136
	.uleb128 .LVL137-.LVL136
	.uleb128 0x3
	.byte	0x72
	.sleb128 4
	.byte	0x9f
	.byte	0x4
	.uleb128 .LVL137-.LVL136
	.uleb128 .LVL138-.LVL136
	.uleb128 0x1
	.byte	0x52
	.byte	0x4
	.uleb128 .LVL138-.LVL136
	.uleb128 .LVL140-1-.LVL136
	.uleb128 0x6
	.byte	0x74
	.sleb128 36
	.byte	0x6
	.byte	0x23
	.uleb128 0x4
	.byte	0x9f
	.byte	0x4
	.uleb128 .LVL141-.LVL136
	.uleb128 .LVL145-.LVL136
	.uleb128 0x6
	.byte	0x74
	.sleb128 36
	.byte	0x6
	.byte	0x23
	.uleb128 0x4
	.byte	0x9f
	.byte	0
.LVUS93:
	.uleb128 .LVU323
	.uleb128 .LVU330
	.uleb128 .LVU330
	.uleb128 .LVU332
	.uleb128 .LVU332
	.uleb128 .LVU336
	.uleb128 .LVU336
	.uleb128 .LVU338
.LLST93:
	.byte	0x6
	.4byte	.LVL136
	.byte	0x4
	.uleb128 .LVL136-.LVL136
	.uleb128 .LVL139-.LVL136
	.uleb128 0x1
	.byte	0x50
	.byte	0x4
	.uleb128 .LVL139-.LVL136
	.uleb128 .LVL141-.LVL136
	.uleb128 0x8
	.byte	0x77
	.sleb128 0
	.byte	0x76
	.sleb128 0
	.byte	0x22
	.byte	0x23
	.uleb128 0x4
	.byte	0x9f
	.byte	0x4
	.uleb128 .LVL141-.LVL136
	.uleb128 .LVL144-.LVL136
	.uleb128 0x1
	.byte	0x50
	.byte	0x4
	.uleb128 .LVL144-.LVL136
	.uleb128 .LVL146-.LVL136
	.uleb128 0x3
	.byte	0x70
	.sleb128 4
	.byte	0x9f
	.byte	0
.LVUS94:
	.uleb128 .LVU324
	.uleb128 .LVU331
	.uleb128 .LVU332
	.uleb128 .LVU338
.LLST94:
	.byte	0x6
	.4byte	.LVL136
	.byte	0x4
	.uleb128 .LVL136-.LVL136
	.uleb128 .LVL140-1-.LVL136
	.uleb128 0x1
	.byte	0x51
	.byte	0x4
	.uleb128 .LVL141-.LVL136
	.uleb128 .LVL146-.LVL136
	.uleb128 0x1
	.byte	0x51
	.byte	0
.LVUS95:
	.uleb128 .LVU324
	.uleb128 .LVU327
	.uleb128 .LVU327
	.uleb128 .LVU328
	.uleb128 .LVU328
	.uleb128 .LVU331
	.uleb128 .LVU332
	.uleb128 .LVU337
.LLST95:
	.byte	0x6
	.4byte	.LVL136
	.byte	0x4
	.uleb128 .LVL136-.LVL136
	.uleb128 .LVL137-.LVL136
	.uleb128 0x3
	.byte	0x72
	.sleb128 4
	.byte	0x9f
	.byte	0x4
	.uleb128 .LVL137-.LVL136
	.uleb128 .LVL138-.LVL136
	.uleb128 0x1
	.byte	0x52
	.byte	0x4
	.uleb128 .LVL138-.LVL136
	.uleb128 .LVL140-1-.LVL136
	.uleb128 0x6
	.byte	0x74
	.sleb128 36
	.byte	0x6
	.byte	0x23
	.uleb128 0x4
	.byte	0x9f
	.byte	0x4
	.uleb128 .LVL141-.LVL136
	.uleb128 .LVL145-.LVL136
	.uleb128 0x6
	.byte	0x74
	.sleb128 36
	.byte	0x6
	.byte	0x23
	.uleb128 0x4
	.byte	0x9f
	.byte	0
.LVUS96:
	.uleb128 .LVU324
	.uleb128 .LVU330
	.uleb128 .LVU330
	.uleb128 .LVU332
	.uleb128 .LVU332
	.uleb128 .LVU336
	.uleb128 .LVU336
	.uleb128 .LVU338
.LLST96:
	.byte	0x6
	.4byte	.LVL136
	.byte	0x4
	.uleb128 .LVL136-.LVL136
	.uleb128 .LVL139-.LVL136
	.uleb128 0x1
	.byte	0x50
	.byte	0x4
	.uleb128 .LVL139-.LVL136
	.uleb128 .LVL141-.LVL136
	.uleb128 0x8
	.byte	0x77
	.sleb128 0
	.byte	0x76
	.sleb128 0
	.byte	0x22
	.byte	0x23
	.uleb128 0x4
	.byte	0x9f
	.byte	0x4
	.uleb128 .LVL141-.LVL136
	.uleb128 .LVL144-.LVL136
	.uleb128 0x1
	.byte	0x50
	.byte	0x4
	.uleb128 .LVL144-.LVL136
	.uleb128 .LVL146-.LVL136
	.uleb128 0x3
	.byte	0x70
	.sleb128 4
	.byte	0x9f
	.byte	0
.LVUS97:
	.uleb128 .LVU325
	.uleb128 .LVU331
	.uleb128 .LVU332
	.uleb128 .LVU338
.LLST97:
	.byte	0x6
	.4byte	.LVL136
	.byte	0x4
	.uleb128 .LVL136-.LVL136
	.uleb128 .LVL140-1-.LVL136
	.uleb128 0x1
	.byte	0x51
	.byte	0x4
	.uleb128 .LVL141-.LVL136
	.uleb128 .LVL146-.LVL136
	.uleb128 0x1
	.byte	0x51
	.byte	0
.LVUS98:
	.uleb128 .LVU325
	.uleb128 .LVU327
	.uleb128 .LVU327
	.uleb128 .LVU328
	.uleb128 .LVU328
	.uleb128 .LVU331
	.uleb128 .LVU332
	.uleb128 .LVU337
.LLST98:
	.byte	0x6
	.4byte	.LVL136
	.byte	0x4
	.uleb128 .LVL136-.LVL136
	.uleb128 .LVL137-.LVL136
	.uleb128 0x3
	.byte	0x72
	.sleb128 4
	.byte	0x9f
	.byte	0x4
	.uleb128 .LVL137-.LVL136
	.uleb128 .LVL138-.LVL136
	.uleb128 0x1
	.byte	0x52
	.byte	0x4
	.uleb128 .LVL138-.LVL136
	.uleb128 .LVL140-1-.LVL136
	.uleb128 0x6
	.byte	0x74
	.sleb128 36
	.byte	0x6
	.byte	0x23
	.uleb128 0x4
	.byte	0x9f
	.byte	0x4
	.uleb128 .LVL141-.LVL136
	.uleb128 .LVL145-.LVL136
	.uleb128 0x6
	.byte	0x74
	.sleb128 36
	.byte	0x6
	.byte	0x23
	.uleb128 0x4
	.byte	0x9f
	.byte	0
.LVUS99:
	.uleb128 .LVU325
	.uleb128 .LVU330
	.uleb128 .LVU330
	.uleb128 .LVU332
	.uleb128 .LVU332
	.uleb128 .LVU336
	.uleb128 .LVU336
	.uleb128 .LVU338
.LLST99:
	.byte	0x6
	.4byte	.LVL136
	.byte	0x4
	.uleb128 .LVL136-.LVL136
	.uleb128 .LVL139-.LVL136
	.uleb128 0x1
	.byte	0x50
	.byte	0x4
	.uleb128 .LVL139-.LVL136
	.uleb128 .LVL141-.LVL136
	.uleb128 0x8
	.byte	0x77
	.sleb128 0
	.byte	0x76
	.sleb128 0
	.byte	0x22
	.byte	0x23
	.uleb128 0x4
	.byte	0x9f
	.byte	0x4
	.uleb128 .LVL141-.LVL136
	.uleb128 .LVL144-.LVL136
	.uleb128 0x1
	.byte	0x50
	.byte	0x4
	.uleb128 .LVL144-.LVL136
	.uleb128 .LVL146-.LVL136
	.uleb128 0x3
	.byte	0x70
	.sleb128 4
	.byte	0x9f
	.byte	0
.LVUS100:
	.uleb128 .LVU328
	.uleb128 .LVU331
	.uleb128 .LVU332
	.uleb128 .LVU338
.LLST100:
	.byte	0x6
	.4byte	.LVL138
	.byte	0x4
	.uleb128 .LVL138-.LVL138
	.uleb128 .LVL140-1-.LVL138
	.uleb128 0x5
	.byte	0x72
	.sleb128 0
	.byte	0x34
	.byte	0x1b
	.byte	0x9f
	.byte	0x4
	.uleb128 .LVL141-.LVL138
	.uleb128 .LVL146-.LVL138
	.uleb128 0x5
	.byte	0x72
	.sleb128 0
	.byte	0x34
	.byte	0x1b
	.byte	0x9f
	.byte	0
.LVUS101:
	.uleb128 .LVU333
	.uleb128 .LVU336
	.uleb128 .LVU336
	.uleb128 .LVU337
.LLST101:
	.byte	0x6
	.4byte	.LVL142
	.byte	0x4
	.uleb128 .LVL142-.LVL142
	.uleb128 .LVL144-.LVL142
	.uleb128 0x3
	.byte	0x70
	.sleb128 -4
	.byte	0x9f
	.byte	0x4
	.uleb128 .LVL144-.LVL142
	.uleb128 .LVL145-.LVL142
	.uleb128 0x1
	.byte	0x50
	.byte	0
.LVUS102:
	.uleb128 .LVU333
	.uleb128 .LVU337
.LLST102:
	.byte	0x8
	.4byte	.LVL142
	.uleb128 .LVL145-.LVL142
	.uleb128 0x1
	.byte	0x51
	.byte	0
.LVUS103:
	.uleb128 .LVU345
	.uleb128 .LVU353
	.uleb128 .LVU353
	.uleb128 0
.LLST103:
	.byte	0x6
	.4byte	.LVL148
	.byte	0x4
	.uleb128 .LVL148-.LVL148
	.uleb128 .LVL149-.LVL148
	.uleb128 0x1
	.byte	0x53
	.byte	0x4
	.uleb128 .LVL149-.LVL148
	.uleb128 .LFE2346-.LVL148
	.uleb128 0x1
	.byte	0x5a
	.byte	0
.LVUS104:
	.uleb128 .LVU358
	.uleb128 .LVU373
	.uleb128 .LVU373
	.uleb128 .LVU389
	.uleb128 .LVU392
	.uleb128 0
.LLST104:
	.byte	0x6
	.4byte	.LVL151
	.byte	0x4
	.uleb128 .LVL151-.LVL151
	.uleb128 .LVL157-.LVL151
	.uleb128 0x1
	.byte	0x50
	.byte	0x4
	.uleb128 .LVL157-.LVL151
	.uleb128 .LVL160-.LVL151
	.uleb128 0x1
	.byte	0x59
	.byte	0x4
	.uleb128 .LVL162-.LVL151
	.uleb128 .LFE2346-.LVL151
	.uleb128 0x1
	.byte	0x50
	.byte	0
.LVUS105:
	.uleb128 .LVU338
	.uleb128 .LVU340
.LLST105:
	.byte	0x8
	.4byte	.LVL146
	.uleb128 .LVL146-.LVL146
	.uleb128 0x3
	.byte	0x74
	.sleb128 4
	.byte	0x9f
	.byte	0
.LVUS106:
	.uleb128 .LVU338
	.uleb128 .LVU340
.LLST106:
	.byte	0x8
	.4byte	.LVL146
	.uleb128 .LVL146-.LVL146
	.uleb128 0x6
	.byte	0xa0
	.4byte	.Ldebug_info0+40608
	.sleb128 0
	.byte	0
.LVUS108:
	.uleb128 .LVU345
	.uleb128 .LVU358
	.uleb128 .LVU389
	.uleb128 .LVU392
.LLST108:
	.byte	0x6
	.4byte	.LVL148
	.byte	0x4
	.uleb128 .LVL148-.LVL148
	.uleb128 .LVL151-.LVL148
	.uleb128 0x1
	.byte	0x54
	.byte	0x4
	.uleb128 .LVL160-.LVL148
	.uleb128 .LVL162-.LVL148
	.uleb128 0x1
	.byte	0x54
	.byte	0
.LVUS109:
	.uleb128 .LVU345
	.uleb128 .LVU353
	.uleb128 .LVU353
	.uleb128 .LVU358
	.uleb128 .LVU389
	.uleb128 .LVU392
.LLST109:
	.byte	0x6
	.4byte	.LVL148
	.byte	0x4
	.uleb128 .LVL148-.LVL148
	.uleb128 .LVL149-.LVL148
	.uleb128 0x1
	.byte	0x53
	.byte	0x4
	.uleb128 .LVL149-.LVL148
	.uleb128 .LVL151-.LVL148
	.uleb128 0x1
	.byte	0x5a
	.byte	0x4
	.uleb128 .LVL160-.LVL148
	.uleb128 .LVL162-.LVL148
	.uleb128 0x1
	.byte	0x5a
	.byte	0
.LVUS110:
	.uleb128 .LVU346
	.uleb128 .LVU349
.LLST110:
	.byte	0x8
	.4byte	.LVL148
	.uleb128 .LVL148-.LVL148
	.uleb128 0x1
	.byte	0x54
	.byte	0
.LVUS111:
	.uleb128 .LVU347
	.uleb128 .LVU349
.LLST111:
	.byte	0x8
	.4byte	.LVL148
	.uleb128 .LVL148-.LVL148
	.uleb128 0x6
	.byte	0xa0
	.4byte	.Ldebug_info0+41604
	.sleb128 0
	.byte	0
.LVUS112:
	.uleb128 .LVU347
	.uleb128 .LVU349
.LLST112:
	.byte	0x8
	.4byte	.LVL148
	.uleb128 .LVL148-.LVL148
	.uleb128 0x1
	.byte	0x54
	.byte	0
.LVUS113:
	.uleb128 .LVU348
	.uleb128 .LVU349
.LLST113:
	.byte	0x8
	.4byte	.LVL148
	.uleb128 .LVL148-.LVL148
	.uleb128 0x6
	.byte	0xa0
	.4byte	.Ldebug_info0+41604
	.sleb128 0
	.byte	0
.LVUS115:
	.uleb128 .LVU349
	.uleb128 .LVU355
	.uleb128 .LVU389
	.uleb128 .LVU392
.LLST115:
	.byte	0x6
	.4byte	.LVL148
	.byte	0x4
	.uleb128 .LVL148-.LVL148
	.uleb128 .LVL151-.LVL148
	.uleb128 0x6
	.byte	0xa0
	.4byte	.Ldebug_info0+41604
	.sleb128 0
	.byte	0x4
	.uleb128 .LVL160-.LVL148
	.uleb128 .LVL162-.LVL148
	.uleb128 0x6
	.byte	0xa0
	.4byte	.Ldebug_info0+41604
	.sleb128 0
	.byte	0
.LVUS116:
	.uleb128 .LVU349
	.uleb128 .LVU353
	.uleb128 .LVU353
	.uleb128 .LVU355
	.uleb128 .LVU389
	.uleb128 .LVU392
.LLST116:
	.byte	0x6
	.4byte	.LVL148
	.byte	0x4
	.uleb128 .LVL148-.LVL148
	.uleb128 .LVL149-.LVL148
	.uleb128 0x1
	.byte	0x53
	.byte	0x4
	.uleb128 .LVL149-.LVL148
	.uleb128 .LVL151-.LVL148
	.uleb128 0x1
	.byte	0x5a
	.byte	0x4
	.uleb128 .LVL160-.LVL148
	.uleb128 .LVL162-.LVL148
	.uleb128 0x1
	.byte	0x5a
	.byte	0
.LVUS117:
	.uleb128 .LVU351
	.uleb128 0
.LLST117:
	.byte	0x8
	.4byte	.LVL148
	.uleb128 .LFE2346-.LVL148
	.uleb128 0x6
	.byte	0xa0
	.4byte	.Ldebug_info0+41604
	.sleb128 0
	.byte	0
.LVUS118:
	.uleb128 .LVU351
	.uleb128 .LVU353
	.uleb128 .LVU353
	.uleb128 .LVU355
	.uleb128 .LVU389
	.uleb128 .LVU392
.LLST118:
	.byte	0x6
	.4byte	.LVL148
	.byte	0x4
	.uleb128 .LVL148-.LVL148
	.uleb128 .LVL149-.LVL148
	.uleb128 0x1
	.byte	0x53
	.byte	0x4
	.uleb128 .LVL149-.LVL148
	.uleb128 .LVL151-.LVL148
	.uleb128 0x1
	.byte	0x5a
	.byte	0x4
	.uleb128 .LVL160-.LVL148
	.uleb128 .LVL162-.LVL148
	.uleb128 0x1
	.byte	0x5a
	.byte	0
.LVUS119:
	.uleb128 .LVU351
	.uleb128 .LVU355
	.uleb128 .LVU389
	.uleb128 .LVU392
.LLST119:
	.byte	0x6
	.4byte	.LVL148
	.byte	0x4
	.uleb128 .LVL148-.LVL148
	.uleb128 .LVL151-.LVL148
	.uleb128 0x2
	.byte	0x30
	.byte	0x9f
	.byte	0x4
	.uleb128 .LVL160-.LVL148
	.uleb128 .LVL162-.LVL148
	.uleb128 0x2
	.byte	0x30
	.byte	0x9f
	.byte	0
.LVUS120:
	.uleb128 .LVU355
	.uleb128 .LVU358
.LLST120:
	.byte	0x8
	.4byte	.LVL151
	.uleb128 .LVL151-.LVL151
	.uleb128 0x6
	.byte	0xa0
	.4byte	.Ldebug_info0+41604
	.sleb128 0
	.byte	0
.LVUS121:
	.uleb128 .LVU357
	.uleb128 .LVU358
.LLST121:
	.byte	0x8
	.4byte	.LVL151
	.uleb128 .LVL151-.LVL151
	.uleb128 0x6
	.byte	0xa0
	.4byte	.Ldebug_info0+41604
	.sleb128 0
	.byte	0
.LVUS123:
	.uleb128 .LVU364
	.uleb128 .LVU374
	.uleb128 .LVU392
	.uleb128 0
.LLST123:
	.byte	0x6
	.4byte	.LVL154
	.byte	0x4
	.uleb128 .LVL154-.LVL154
	.uleb128 .LVL158-1-.LVL154
	.uleb128 0x1
	.byte	0x51
	.byte	0x4
	.uleb128 .LVL162-.LVL154
	.uleb128 .LFE2346-.LVL154
	.uleb128 0x1
	.byte	0x51
	.byte	0
.LVUS124:
	.uleb128 .LVU364
	.uleb128 .LVU370
	.uleb128 .LVU370
	.uleb128 .LVU371
	.uleb128 .LVU371
	.uleb128 .LVU374
	.uleb128 .LVU392
	.uleb128 0
.LLST124:
	.byte	0x6
	.4byte	.LVL154
	.byte	0x4
	.uleb128 .LVL154-.LVL154
	.uleb128 .LVL155-.LVL154
	.uleb128 0x6
	.byte	0x74
	.sleb128 36
	.byte	0x6
	.byte	0x23
	.uleb128 0x4
	.byte	0x9f
	.byte	0x4
	.uleb128 .LVL155-.LVL154
	.uleb128 .LVL156-.LVL154
	.uleb128 0x1
	.byte	0x52
	.byte	0x4
	.uleb128 .LVL156-.LVL154
	.uleb128 .LVL158-1-.LVL154
	.uleb128 0x6
	.byte	0x74
	.sleb128 36
	.byte	0x6
	.byte	0x23
	.uleb128 0x4
	.byte	0x9f
	.byte	0x4
	.uleb128 .LVL162-.LVL154
	.uleb128 .LFE2346-.LVL154
	.uleb128 0x6
	.byte	0x74
	.sleb128 36
	.byte	0x6
	.byte	0x23
	.uleb128 0x4
	.byte	0x9f
	.byte	0
.LVUS125:
	.uleb128 .LVU364
	.uleb128 .LVU374
	.uleb128 .LVU392
	.uleb128 0
.LLST125:
	.byte	0x6
	.4byte	.LVL154
	.byte	0x4
	.uleb128 .LVL154-.LVL154
	.uleb128 .LVL158-.LVL154
	.uleb128 0x1
	.byte	0x57
	.byte	0x4
	.uleb128 .LVL162-.LVL154
	.uleb128 .LFE2346-.LVL154
	.uleb128 0x1
	.byte	0x57
	.byte	0
.LVUS126:
	.uleb128 .LVU365
	.uleb128 .LVU374
	.uleb128 .LVU392
	.uleb128 0
.LLST126:
	.byte	0x6
	.4byte	.LVL154
	.byte	0x4
	.uleb128 .LVL154-.LVL154
	.uleb128 .LVL158-1-.LVL154
	.uleb128 0x1
	.byte	0x51
	.byte	0x4
	.uleb128 .LVL162-.LVL154
	.uleb128 .LFE2346-.LVL154
	.uleb128 0x1
	.byte	0x51
	.byte	0
.LVUS127:
	.uleb128 .LVU365
	.uleb128 .LVU370
	.uleb128 .LVU370
	.uleb128 .LVU371
	.uleb128 .LVU371
	.uleb128 .LVU374
	.uleb128 .LVU392
	.uleb128 0
.LLST127:
	.byte	0x6
	.4byte	.LVL154
	.byte	0x4
	.uleb128 .LVL154-.LVL154
	.uleb128 .LVL155-.LVL154
	.uleb128 0x6
	.byte	0x74
	.sleb128 36
	.byte	0x6
	.byte	0x23
	.uleb128 0x4
	.byte	0x9f
	.byte	0x4
	.uleb128 .LVL155-.LVL154
	.uleb128 .LVL156-.LVL154
	.uleb128 0x1
	.byte	0x52
	.byte	0x4
	.uleb128 .LVL156-.LVL154
	.uleb128 .LVL158-1-.LVL154
	.uleb128 0x6
	.byte	0x74
	.sleb128 36
	.byte	0x6
	.byte	0x23
	.uleb128 0x4
	.byte	0x9f
	.byte	0x4
	.uleb128 .LVL162-.LVL154
	.uleb128 .LFE2346-.LVL154
	.uleb128 0x6
	.byte	0x74
	.sleb128 36
	.byte	0x6
	.byte	0x23
	.uleb128 0x4
	.byte	0x9f
	.byte	0
.LVUS128:
	.uleb128 .LVU365
	.uleb128 .LVU374
	.uleb128 .LVU392
	.uleb128 0
.LLST128:
	.byte	0x6
	.4byte	.LVL154
	.byte	0x4
	.uleb128 .LVL154-.LVL154
	.uleb128 .LVL158-.LVL154
	.uleb128 0x1
	.byte	0x57
	.byte	0x4
	.uleb128 .LVL162-.LVL154
	.uleb128 .LFE2346-.LVL154
	.uleb128 0x1
	.byte	0x57
	.byte	0
.LVUS129:
	.uleb128 .LVU366
	.uleb128 .LVU374
	.uleb128 .LVU392
	.uleb128 0
.LLST129:
	.byte	0x6
	.4byte	.LVL154
	.byte	0x4
	.uleb128 .LVL154-.LVL154
	.uleb128 .LVL158-1-.LVL154
	.uleb128 0x1
	.byte	0x51
	.byte	0x4
	.uleb128 .LVL162-.LVL154
	.uleb128 .LFE2346-.LVL154
	.uleb128 0x1
	.byte	0x51
	.byte	0
.LVUS130:
	.uleb128 .LVU366
	.uleb128 .LVU370
	.uleb128 .LVU370
	.uleb128 .LVU371
	.uleb128 .LVU371
	.uleb128 .LVU374
	.uleb128 .LVU392
	.uleb128 0
.LLST130:
	.byte	0x6
	.4byte	.LVL154
	.byte	0x4
	.uleb128 .LVL154-.LVL154
	.uleb128 .LVL155-.LVL154
	.uleb128 0x6
	.byte	0x74
	.sleb128 36
	.byte	0x6
	.byte	0x23
	.uleb128 0x4
	.byte	0x9f
	.byte	0x4
	.uleb128 .LVL155-.LVL154
	.uleb128 .LVL156-.LVL154
	.uleb128 0x1
	.byte	0x52
	.byte	0x4
	.uleb128 .LVL156-.LVL154
	.uleb128 .LVL158-1-.LVL154
	.uleb128 0x6
	.byte	0x74
	.sleb128 36
	.byte	0x6
	.byte	0x23
	.uleb128 0x4
	.byte	0x9f
	.byte	0x4
	.uleb128 .LVL162-.LVL154
	.uleb128 .LFE2346-.LVL154
	.uleb128 0x6
	.byte	0x74
	.sleb128 36
	.byte	0x6
	.byte	0x23
	.uleb128 0x4
	.byte	0x9f
	.byte	0
.LVUS131:
	.uleb128 .LVU366
	.uleb128 .LVU374
	.uleb128 .LVU392
	.uleb128 0
.LLST131:
	.byte	0x6
	.4byte	.LVL154
	.byte	0x4
	.uleb128 .LVL154-.LVL154
	.uleb128 .LVL158-.LVL154
	.uleb128 0x1
	.byte	0x57
	.byte	0x4
	.uleb128 .LVL162-.LVL154
	.uleb128 .LFE2346-.LVL154
	.uleb128 0x1
	.byte	0x57
	.byte	0
.LVUS132:
	.uleb128 .LVU367
	.uleb128 .LVU374
	.uleb128 .LVU392
	.uleb128 0
.LLST132:
	.byte	0x6
	.4byte	.LVL154
	.byte	0x4
	.uleb128 .LVL154-.LVL154
	.uleb128 .LVL158-1-.LVL154
	.uleb128 0x1
	.byte	0x51
	.byte	0x4
	.uleb128 .LVL162-.LVL154
	.uleb128 .LFE2346-.LVL154
	.uleb128 0x1
	.byte	0x51
	.byte	0
.LVUS133:
	.uleb128 .LVU367
	.uleb128 .LVU370
	.uleb128 .LVU370
	.uleb128 .LVU371
	.uleb128 .LVU371
	.uleb128 .LVU374
	.uleb128 .LVU392
	.uleb128 0
.LLST133:
	.byte	0x6
	.4byte	.LVL154
	.byte	0x4
	.uleb128 .LVL154-.LVL154
	.uleb128 .LVL155-.LVL154
	.uleb128 0x6
	.byte	0x74
	.sleb128 36
	.byte	0x6
	.byte	0x23
	.uleb128 0x4
	.byte	0x9f
	.byte	0x4
	.uleb128 .LVL155-.LVL154
	.uleb128 .LVL156-.LVL154
	.uleb128 0x1
	.byte	0x52
	.byte	0x4
	.uleb128 .LVL156-.LVL154
	.uleb128 .LVL158-1-.LVL154
	.uleb128 0x6
	.byte	0x74
	.sleb128 36
	.byte	0x6
	.byte	0x23
	.uleb128 0x4
	.byte	0x9f
	.byte	0x4
	.uleb128 .LVL162-.LVL154
	.uleb128 .LFE2346-.LVL154
	.uleb128 0x6
	.byte	0x74
	.sleb128 36
	.byte	0x6
	.byte	0x23
	.uleb128 0x4
	.byte	0x9f
	.byte	0
.LVUS134:
	.uleb128 .LVU367
	.uleb128 .LVU374
	.uleb128 .LVU392
	.uleb128 0
.LLST134:
	.byte	0x6
	.4byte	.LVL154
	.byte	0x4
	.uleb128 .LVL154-.LVL154
	.uleb128 .LVL158-.LVL154
	.uleb128 0x1
	.byte	0x57
	.byte	0x4
	.uleb128 .LVL162-.LVL154
	.uleb128 .LFE2346-.LVL154
	.uleb128 0x1
	.byte	0x57
	.byte	0
.LVUS135:
	.uleb128 .LVU368
	.uleb128 .LVU374
	.uleb128 .LVU392
	.uleb128 0
.LLST135:
	.byte	0x6
	.4byte	.LVL154
	.byte	0x4
	.uleb128 .LVL154-.LVL154
	.uleb128 .LVL158-1-.LVL154
	.uleb128 0x1
	.byte	0x51
	.byte	0x4
	.uleb128 .LVL162-.LVL154
	.uleb128 .LFE2346-.LVL154
	.uleb128 0x1
	.byte	0x51
	.byte	0
.LVUS136:
	.uleb128 .LVU368
	.uleb128 .LVU370
	.uleb128 .LVU370
	.uleb128 .LVU371
	.uleb128 .LVU371
	.uleb128 .LVU374
	.uleb128 .LVU392
	.uleb128 0
.LLST136:
	.byte	0x6
	.4byte	.LVL154
	.byte	0x4
	.uleb128 .LVL154-.LVL154
	.uleb128 .LVL155-.LVL154
	.uleb128 0x6
	.byte	0x74
	.sleb128 36
	.byte	0x6
	.byte	0x23
	.uleb128 0x4
	.byte	0x9f
	.byte	0x4
	.uleb128 .LVL155-.LVL154
	.uleb128 .LVL156-.LVL154
	.uleb128 0x1
	.byte	0x52
	.byte	0x4
	.uleb128 .LVL156-.LVL154
	.uleb128 .LVL158-1-.LVL154
	.uleb128 0x6
	.byte	0x74
	.sleb128 36
	.byte	0x6
	.byte	0x23
	.uleb128 0x4
	.byte	0x9f
	.byte	0x4
	.uleb128 .LVL162-.LVL154
	.uleb128 .LFE2346-.LVL154
	.uleb128 0x6
	.byte	0x74
	.sleb128 36
	.byte	0x6
	.byte	0x23
	.uleb128 0x4
	.byte	0x9f
	.byte	0
.LVUS137:
	.uleb128 .LVU368
	.uleb128 .LVU374
	.uleb128 .LVU392
	.uleb128 0
.LLST137:
	.byte	0x6
	.4byte	.LVL154
	.byte	0x4
	.uleb128 .LVL154-.LVL154
	.uleb128 .LVL158-.LVL154
	.uleb128 0x1
	.byte	0x57
	.byte	0x4
	.uleb128 .LVL162-.LVL154
	.uleb128 .LFE2346-.LVL154
	.uleb128 0x1
	.byte	0x57
	.byte	0
.LVUS139:
	.uleb128 .LVU371
	.uleb128 .LVU374
	.uleb128 .LVU392
	.uleb128 0
.LLST139:
	.byte	0x6
	.4byte	.LVL156
	.byte	0x4
	.uleb128 .LVL156-.LVL156
	.uleb128 .LVL158-1-.LVL156
	.uleb128 0x5
	.byte	0x72
	.sleb128 0
	.byte	0x34
	.byte	0x1b
	.byte	0x9f
	.byte	0x4
	.uleb128 .LVL162-.LVL156
	.uleb128 .LFE2346-.LVL156
	.uleb128 0x5
	.byte	0x72
	.sleb128 0
	.byte	0x34
	.byte	0x1b
	.byte	0x9f
	.byte	0
.LVUS140:
	.uleb128 .LVU394
	.uleb128 .LVU396
.LLST140:
	.byte	0x8
	.4byte	.LVL163
	.uleb128 .LVL164-.LVL163
	.uleb128 0x1
	.byte	0x57
	.byte	0
.LVUS141:
	.uleb128 .LVU394
	.uleb128 .LVU396
.LLST141:
	.byte	0x8
	.4byte	.LVL163
	.uleb128 .LVL164-.LVL163
	.uleb128 0x1
	.byte	0x51
	.byte	0
.LVUS142:
	.uleb128 .LVU374
	.uleb128 .LVU386
.LLST142:
	.byte	0x8
	.4byte	.LVL158
	.uleb128 .LVL159-.LVL158
	.uleb128 0x1
	.byte	0x54
	.byte	0
.LVUS143:
	.uleb128 .LVU374
	.uleb128 .LVU383
.LLST143:
	.byte	0x8
	.4byte	.LVL158
	.uleb128 .LVL159-1-.LVL158
	.uleb128 0x2
	.byte	0x74
	.sleb128 0
	.byte	0
.LVUS144:
	.uleb128 .LVU374
	.uleb128 .LVU383
.LLST144:
	.byte	0x8
	.4byte	.LVL158
	.uleb128 .LVL159-1-.LVL158
	.uleb128 0x2
	.byte	0x74
	.sleb128 4
	.byte	0
.LVUS145:
	.uleb128 .LVU376
	.uleb128 .LVU379
.LLST145:
	.byte	0x8
	.4byte	.LVL158
	.uleb128 .LVL158-.LVL158
	.uleb128 0x1
	.byte	0x54
	.byte	0
.LVUS146:
	.uleb128 .LVU377
	.uleb128 .LVU379
.LLST146:
	.byte	0x8
	.4byte	.LVL158
	.uleb128 .LVL158-.LVL158
	.uleb128 0x6
	.byte	0xa0
	.4byte	.Ldebug_info0+42416
	.sleb128 0
	.byte	0
.LVUS147:
	.uleb128 .LVU377
	.uleb128 .LVU379
.LLST147:
	.byte	0x8
	.4byte	.LVL158
	.uleb128 .LVL158-.LVL158
	.uleb128 0x1
	.byte	0x54
	.byte	0
.LVUS148:
	.uleb128 .LVU378
	.uleb128 .LVU379
.LLST148:
	.byte	0x8
	.4byte	.LVL158
	.uleb128 .LVL158-.LVL158
	.uleb128 0x6
	.byte	0xa0
	.4byte	.Ldebug_info0+42416
	.sleb128 0
	.byte	0
.LVUS149:
	.uleb128 .LVU379
	.uleb128 .LVU383
.LLST149:
	.byte	0x8
	.4byte	.LVL158
	.uleb128 .LVL159-.LVL158
	.uleb128 0x6
	.byte	0xa0
	.4byte	.Ldebug_info0+42416
	.sleb128 0
	.byte	0
.LVUS150:
	.uleb128 .LVU379
	.uleb128 .LVU383
.LLST150:
	.byte	0x8
	.4byte	.LVL158
	.uleb128 .LVL159-1-.LVL158
	.uleb128 0x2
	.byte	0x74
	.sleb128 0
	.byte	0
.LVUS151:
	.uleb128 .LVU379
	.uleb128 .LVU383
.LLST151:
	.byte	0x8
	.4byte	.LVL158
	.uleb128 .LVL159-1-.LVL158
	.uleb128 0x2
	.byte	0x74
	.sleb128 4
	.byte	0
.LVUS152:
	.uleb128 .LVU381
	.uleb128 .LVU383
.LLST152:
	.byte	0x8
	.4byte	.LVL158
	.uleb128 .LVL159-.LVL158
	.uleb128 0x6
	.byte	0xa0
	.4byte	.Ldebug_info0+42416
	.sleb128 0
	.byte	0
.LVUS153:
	.uleb128 .LVU381
	.uleb128 .LVU383
.LLST153:
	.byte	0x8
	.4byte	.LVL158
	.uleb128 .LVL159-1-.LVL158
	.uleb128 0x2
	.byte	0x74
	.sleb128 0
	.byte	0
.LVUS154:
	.uleb128 .LVU381
	.uleb128 .LVU383
.LLST154:
	.byte	0x8
	.4byte	.LVL158
	.uleb128 .LVL159-1-.LVL158
	.uleb128 0x2
	.byte	0x74
	.sleb128 4
	.byte	0
.LVUS155:
	.uleb128 .LVU383
	.uleb128 .LVU386
.LLST155:
	.byte	0x8
	.4byte	.LVL159
	.uleb128 .LVL159-.LVL159
	.uleb128 0x6
	.byte	0xa0
	.4byte	.Ldebug_info0+42416
	.sleb128 0
	.byte	0
.LVUS156:
	.uleb128 .LVU385
	.uleb128 .LVU386
.LLST156:
	.byte	0x8
	.4byte	.LVL159
	.uleb128 .LVL159-.LVL159
	.uleb128 0x6
	.byte	0xa0
	.4byte	.Ldebug_info0+42416
	.sleb128 0
	.byte	0
.LVUS157:
	.uleb128 .LVU300
	.uleb128 .LVU306
.LLST157:
	.byte	0x8
	.4byte	.LVL127
	.uleb128 .LVL128-.LVL127
	.uleb128 0x3
	.byte	0x74
	.sleb128 8
	.byte	0x9f
	.byte	0
.LVUS158:
	.uleb128 .LVU300
	.uleb128 .LVU306
.LLST158:
	.byte	0x8
	.4byte	.LVL127
	.uleb128 .LVL128-.LVL127
	.uleb128 0x1
	.byte	0x57
	.byte	0
.LVUS159:
	.uleb128 .LVU308
	.uleb128 .LVU313
.LLST159:
	.byte	0x8
	.4byte	.LVL129
	.uleb128 .LVL130-.LVL129
	.uleb128 0x3
	.byte	0x74
	.sleb128 24
	.byte	0x9f
	.byte	0
.LVUS160:
	.uleb128 .LVU308
	.uleb128 .LVU313
.LLST160:
	.byte	0x8
	.4byte	.LVL129
	.uleb128 .LVL130-.LVL129
	.uleb128 0x1
	.byte	0x57
	.byte	0
.LVUS161:
	.uleb128 .LVU258
	.uleb128 .LVU262
.LLST161:
	.byte	0x8
	.4byte	.LVL109
	.uleb128 .LVL110-.LVL109
	.uleb128 0x1
	.byte	0x54
	.byte	0
.LVUS162:
	.uleb128 .LVU259
	.uleb128 .LVU262
.LLST162:
	.byte	0x8
	.4byte	.LVL109
	.uleb128 .LVL110-.LVL109
	.uleb128 0x1
	.byte	0x54
	.byte	0
.LVUS163:
	.uleb128 .LVU259
	.uleb128 .LVU262
.LLST163:
	.byte	0x8
	.4byte	.LVL109
	.uleb128 .LVL110-.LVL109
	.uleb128 0x3
	.byte	0x8
	.byte	0x80
	.byte	0x9f
	.byte	0
.LVUS164:
	.uleb128 .LVU260
	.uleb128 .LVU262
.LLST164:
	.byte	0x8
	.4byte	.LVL109
	.uleb128 .LVL110-.LVL109
	.uleb128 0x1
	.byte	0x54
	.byte	0
.LVUS165:
	.uleb128 .LVU260
	.uleb128 .LVU262
.LLST165:
	.byte	0x8
	.4byte	.LVL109
	.uleb128 .LVL110-.LVL109
	.uleb128 0x3
	.byte	0x8
	.byte	0x80
	.byte	0x9f
	.byte	0
.LVUS166:
	.uleb128 .LVU260
	.uleb128 .LVU262
.LLST166:
	.byte	0x8
	.4byte	.LVL109
	.uleb128 .LVL110-.LVL109
	.uleb128 0x2
	.byte	0x30
	.byte	0x9f
	.byte	0
.LVUS167:
	.uleb128 .LVU265
	.uleb128 .LVU268
.LLST167:
	.byte	0x8
	.4byte	.LVL111
	.uleb128 .LVL112-.LVL111
	.uleb128 0x1
	.byte	0x54
	.byte	0
.LVUS168:
	.uleb128 .LVU265
	.uleb128 .LVU268
.LLST168:
	.byte	0x8
	.4byte	.LVL111
	.uleb128 .LVL112-.LVL111
	.uleb128 0x1
	.byte	0x53
	.byte	0
.LVUS169:
	.uleb128 .LVU265
	.uleb128 .LVU268
.LLST169:
	.byte	0x8
	.4byte	.LVL111
	.uleb128 .LVL112-.LVL111
	.uleb128 0x1
	.byte	0x5b
	.byte	0
.LVUS170:
	.uleb128 .LVU266
	.uleb128 .LVU268
.LLST170:
	.byte	0x8
	.4byte	.LVL111
	.uleb128 .LVL112-.LVL111
	.uleb128 0x1
	.byte	0x54
	.byte	0
.LVUS171:
	.uleb128 .LVU266
	.uleb128 .LVU268
.LLST171:
	.byte	0x8
	.4byte	.LVL111
	.uleb128 .LVL112-.LVL111
	.uleb128 0x1
	.byte	0x53
	.byte	0
.LVUS172:
	.uleb128 .LVU266
	.uleb128 .LVU268
.LLST172:
	.byte	0x8
	.4byte	.LVL111
	.uleb128 .LVL112-.LVL111
	.uleb128 0x1
	.byte	0x5b
	.byte	0
.LVUS174:
	.uleb128 .LVU270
	.uleb128 .LVU277
.LLST174:
	.byte	0x8
	.4byte	.LVL113
	.uleb128 .LVL116-.LVL113
	.uleb128 0x3
	.byte	0x74
	.sleb128 24
	.byte	0x9f
	.byte	0
.LVUS175:
	.uleb128 .LVU270
	.uleb128 .LVU272
	.uleb128 .LVU272
	.uleb128 .LVU275
	.uleb128 .LVU275
	.uleb128 .LVU277
.LLST175:
	.byte	0x6
	.4byte	.LVL113
	.byte	0x4
	.uleb128 .LVL113-.LVL113
	.uleb128 .LVL114-.LVL113
	.uleb128 0x3
	.byte	0x73
	.sleb128 4
	.byte	0x9f
	.byte	0x4
	.uleb128 .LVL114-.LVL113
	.uleb128 .LVL115-.LVL113
	.uleb128 0x1
	.byte	0x52
	.byte	0x4
	.uleb128 .LVL115-.LVL113
	.uleb128 .LVL116-.LVL113
	.uleb128 0x2
	.byte	0x74
	.sleb128 36
	.byte	0
.LVUS344:
	.uleb128 0
	.uleb128 .LVU775
	.uleb128 .LVU775
	.uleb128 .LVU884
	.uleb128 .LVU884
	.uleb128 .LVU886
	.uleb128 .LVU886
	.uleb128 .LVU899
	.uleb128 .LVU899
	.uleb128 .LVU926
	.uleb128 .LVU926
	.uleb128 .LVU953
	.uleb128 .LVU953
	.uleb128 .LVU1093
	.uleb128 .LVU1093
	.uleb128 .LVU1105
	.uleb128 .LVU1105
	.uleb128 .LVU1193
	.uleb128 .LVU1193
	.uleb128 .LVU1194
	.uleb128 .LVU1194
	.uleb128 0
.LLST344:
	.byte	0x6
	.4byte	.LVL318
	.byte	0x4
	.uleb128 .LVL318-.LVL318
	.uleb128 .LVL326-.LVL318
	.uleb128 0x1
	.byte	0x51
	.byte	0x4
	.uleb128 .LVL326-.LVL318
	.uleb128 .LVL342-.LVL318
	.uleb128 0x1
	.byte	0x54
	.byte	0x4
	.uleb128 .LVL342-.LVL318
	.uleb128 .LVL344-.LVL318
	.uleb128 0x1
	.byte	0x5c
	.byte	0x4
	.uleb128 .LVL344-.LVL318
	.uleb128 .LVL350-.LVL318
	.uleb128 0x1
	.byte	0x59
	.byte	0x4
	.uleb128 .LVL350-.LVL318
	.uleb128 .LVL358-.LVL318
	.uleb128 0x1
	.byte	0x54
	.byte	0x4
	.uleb128 .LVL358-.LVL318
	.uleb128 .LVL363-.LVL318
	.uleb128 0x1
	.byte	0x51
	.byte	0x4
	.uleb128 .LVL363-.LVL318
	.uleb128 .LVL398-.LVL318
	.uleb128 0x1
	.byte	0x54
	.byte	0x4
	.uleb128 .LVL398-.LVL318
	.uleb128 .LVL403-.LVL318
	.uleb128 0x1
	.byte	0x59
	.byte	0x4
	.uleb128 .LVL403-.LVL318
	.uleb128 .LVL438-.LVL318
	.uleb128 0x1
	.byte	0x54
	.byte	0x4
	.uleb128 .LVL438-.LVL318
	.uleb128 .LVL440-.LVL318
	.uleb128 0xa
	.byte	0xa3
	.uleb128 0x3
	.byte	0xa5
	.uleb128 0x1
	.uleb128 0x26
	.byte	0xa8
	.uleb128 0x2d
	.byte	0xa8
	.uleb128 0
	.byte	0x9f
	.byte	0x4
	.uleb128 .LVL440-.LVL318
	.uleb128 .LFE2278-.LVL318
	.uleb128 0x1
	.byte	0x54
	.byte	0
.LVUS345:
	.uleb128 0
	.uleb128 .LVU794
	.uleb128 .LVU794
	.uleb128 .LVU926
	.uleb128 .LVU926
	.uleb128 .LVU952
	.uleb128 .LVU952
	.uleb128 0
.LLST345:
	.byte	0x6
	.4byte	.LVL318
	.byte	0x4
	.uleb128 .LVL318-.LVL318
	.uleb128 .LVL328-.LVL318
	.uleb128 0x2
	.byte	0x72
	.sleb128 0
	.byte	0x4
	.uleb128 .LVL328-.LVL318
	.uleb128 .LVL358-.LVL318
	.uleb128 0x9
	.byte	0xa3
	.uleb128 0x3
	.byte	0xa5
	.uleb128 0x2
	.uleb128 0x26
	.byte	0xa8
	.uleb128 0x2d
	.byte	0xa8
	.uleb128 0
	.byte	0x4
	.uleb128 .LVL358-.LVL318
	.uleb128 .LVL362-.LVL318
	.uleb128 0x2
	.byte	0x72
	.sleb128 0
	.byte	0x4
	.uleb128 .LVL362-.LVL318
	.uleb128 .LFE2278-.LVL318
	.uleb128 0x9
	.byte	0xa3
	.uleb128 0x3
	.byte	0xa5
	.uleb128 0x2
	.uleb128 0x26
	.byte	0xa8
	.uleb128 0x2d
	.byte	0xa8
	.uleb128 0
	.byte	0
.LVUS346:
	.uleb128 0
	.uleb128 .LVU763
	.uleb128 .LVU763
	.uleb128 0
.LLST346:
	.byte	0x6
	.4byte	.LVL318
	.byte	0x4
	.uleb128 .LVL318-.LVL318
	.uleb128 .LVL321-.LVL318
	.uleb128 0x2
	.byte	0x73
	.sleb128 0
	.byte	0x4
	.uleb128 .LVL321-.LVL318
	.uleb128 .LFE2278-.LVL318
	.uleb128 0x4
	.byte	0x91
	.sleb128 -304
	.byte	0x6
	.byte	0
.LVUS354:
	.uleb128 .LVU787
	.uleb128 .LVU796
	.uleb128 .LVU796
	.uleb128 .LVU926
	.uleb128 .LVU964
	.uleb128 .LVU1026
	.uleb128 .LVU1026
	.uleb128 .LVU1077
	.uleb128 .LVU1077
	.uleb128 .LVU1134
	.uleb128 .LVU1134
	.uleb128 .LVU1139
	.uleb128 .LVU1139
	.uleb128 .LVU1191
	.uleb128 .LVU1194
	.uleb128 0
.LLST354:
	.byte	0x6
	.4byte	.LVL327
	.byte	0x4
	.uleb128 .LVL327-.LVL327
	.uleb128 .LVL329-.LVL327
	.uleb128 0x1
	.byte	0x55
	.byte	0x4
	.uleb128 .LVL329-.LVL327
	.uleb128 .LVL358-.LVL327
	.uleb128 0x3
	.byte	0x91
	.sleb128 -292
	.byte	0x4
	.uleb128 .LVL367-.LVL327
	.uleb128 .LVL389-.LVL327
	.uleb128 0x3
	.byte	0x91
	.sleb128 -292
	.byte	0x4
	.uleb128 .LVL389-.LVL327
	.uleb128 .LVL391-.LVL327
	.uleb128 0x1
	.byte	0x52
	.byte	0x4
	.uleb128 .LVL391-.LVL327
	.uleb128 .LVL411-.LVL327
	.uleb128 0x3
	.byte	0x91
	.sleb128 -292
	.byte	0x4
	.uleb128 .LVL411-.LVL327
	.uleb128 .LVL413-.LVL327
	.uleb128 0x1
	.byte	0x52
	.byte	0x4
	.uleb128 .LVL413-.LVL327
	.uleb128 .LVL437-.LVL327
	.uleb128 0x3
	.byte	0x91
	.sleb128 -292
	.byte	0x4
	.uleb128 .LVL440-.LVL327
	.uleb128 .LFE2278-.LVL327
	.uleb128 0x3
	.byte	0x91
	.sleb128 -292
	.byte	0
.LVUS355:
	.uleb128 .LVU803
	.uleb128 .LVU807
	.uleb128 .LVU807
	.uleb128 .LVU926
	.uleb128 .LVU964
	.uleb128 .LVU968
	.uleb128 .LVU968
	.uleb128 .LVU1026
	.uleb128 .LVU1026
	.uleb128 .LVU1082
	.uleb128 .LVU1082
	.uleb128 .LVU1134
	.uleb128 .LVU1134
	.uleb128 .LVU1144
	.uleb128 .LVU1144
	.uleb128 .LVU1191
	.uleb128 .LVU1194
	.uleb128 0
.LLST355:
	.byte	0x6
	.4byte	.LVL330
	.byte	0x4
	.uleb128 .LVL330-.LVL330
	.uleb128 .LVL331-.LVL330
	.uleb128 0x1
	.byte	0x51
	.byte	0x4
	.uleb128 .LVL331-.LVL330
	.uleb128 .LVL358-.LVL330
	.uleb128 0x3
	.byte	0x91
	.sleb128 -296
	.byte	0x4
	.uleb128 .LVL367-.LVL330
	.uleb128 .LVL369-.LVL330
	.uleb128 0x1
	.byte	0x51
	.byte	0x4
	.uleb128 .LVL369-.LVL330
	.uleb128 .LVL389-.LVL330
	.uleb128 0x3
	.byte	0x91
	.sleb128 -296
	.byte	0x4
	.uleb128 .LVL389-.LVL330
	.uleb128 .LVL393-.LVL330
	.uleb128 0x1
	.byte	0x51
	.byte	0x4
	.uleb128 .LVL393-.LVL330
	.uleb128 .LVL411-.LVL330
	.uleb128 0x3
	.byte	0x91
	.sleb128 -296
	.byte	0x4
	.uleb128 .LVL411-.LVL330
	.uleb128 .LVL415-.LVL330
	.uleb128 0x1
	.byte	0x51
	.byte	0x4
	.uleb128 .LVL415-.LVL330
	.uleb128 .LVL437-.LVL330
	.uleb128 0x3
	.byte	0x91
	.sleb128 -296
	.byte	0x4
	.uleb128 .LVL440-.LVL330
	.uleb128 .LFE2278-.LVL330
	.uleb128 0x3
	.byte	0x91
	.sleb128 -296
	.byte	0
.LVUS356:
	.uleb128 .LVU773
	.uleb128 .LVU787
.LLST356:
	.byte	0x8
	.4byte	.LVL325
	.uleb128 .LVL327-.LVL325
	.uleb128 0x3
	.byte	0x91
	.sleb128 -304
	.byte	0
.LVUS357:
	.uleb128 .LVU773
	.uleb128 .LVU787
.LLST357:
	.byte	0x8
	.4byte	.LVL325
	.uleb128 .LVL327-.LVL325
	.uleb128 0x1
	.byte	0x52
	.byte	0
.LVUS358:
	.uleb128 .LVU787
	.uleb128 .LVU790
.LLST358:
	.byte	0x8
	.4byte	.LVL327
	.uleb128 .LVL327-.LVL327
	.uleb128 0x1
	.byte	0x54
	.byte	0
.LVUS360:
	.uleb128 .LVU789
	.uleb128 .LVU790
.LLST360:
	.byte	0x8
	.4byte	.LVL327
	.uleb128 .LVL327-.LVL327
	.uleb128 0x3
	.byte	0x74
	.sleb128 8
	.byte	0x9f
	.byte	0
.LVUS361:
	.uleb128 .LVU790
	.uleb128 .LVU794
	.uleb128 .LVU794
	.uleb128 .LVU803
.LLST361:
	.byte	0x6
	.4byte	.LVL327
	.byte	0x4
	.uleb128 .LVL327-.LVL327
	.uleb128 .LVL328-.LVL327
	.uleb128 0x1
	.byte	0x52
	.byte	0x4
	.uleb128 .LVL328-.LVL327
	.uleb128 .LVL330-.LVL327
	.uleb128 0xa
	.byte	0xa3
	.uleb128 0x3
	.byte	0xa5
	.uleb128 0x2
	.uleb128 0x26
	.byte	0xa8
	.uleb128 0x2d
	.byte	0xa8
	.uleb128 0
	.byte	0x9f
	.byte	0
.LVUS363:
	.uleb128 .LVU803
	.uleb128 .LVU810
.LLST363:
	.byte	0x8
	.4byte	.LVL330
	.uleb128 .LVL332-.LVL330
	.uleb128 0x1
	.byte	0x54
	.byte	0
.LVUS364:
	.uleb128 .LVU805
	.uleb128 .LVU810
.LLST364:
	.byte	0x8
	.4byte	.LVL330
	.uleb128 .LVL332-.LVL330
	.uleb128 0x3
	.byte	0x74
	.sleb128 24
	.byte	0x9f
	.byte	0
.LVUS365:
	.uleb128 .LVU805
	.uleb128 .LVU810
.LLST365:
	.byte	0x8
	.4byte	.LVL330
	.uleb128 .LVL332-.LVL330
	.uleb128 0x3
	.byte	0x74
	.sleb128 8
	.byte	0x9f
	.byte	0
.LVUS366:
	.uleb128 .LVU820
	.uleb128 .LVU822
.LLST366:
	.byte	0x8
	.4byte	.LVL333
	.uleb128 .LVL333-.LVL333
	.uleb128 0x1
	.byte	0x54
	.byte	0
.LVUS368:
	.uleb128 .LVU821
	.uleb128 .LVU822
.LLST368:
	.byte	0x8
	.4byte	.LVL333
	.uleb128 .LVL333-.LVL333
	.uleb128 0x3
	.byte	0x74
	.sleb128 8
	.byte	0x9f
	.byte	0
.LVUS369:
	.uleb128 .LVU824
	.uleb128 .LVU826
.LLST369:
	.byte	0x8
	.4byte	.LVL334
	.uleb128 .LVL334-.LVL334
	.uleb128 0x1
	.byte	0x54
	.byte	0
.LVUS371:
	.uleb128 .LVU825
	.uleb128 .LVU826
.LLST371:
	.byte	0x8
	.4byte	.LVL334
	.uleb128 .LVL334-.LVL334
	.uleb128 0x3
	.byte	0x74
	.sleb128 8
	.byte	0x9f
	.byte	0
.LVUS373:
	.uleb128 .LVU826
	.uleb128 .LVU828
.LLST373:
	.byte	0x8
	.4byte	.LVL334
	.uleb128 .LVL334-.LVL334
	.uleb128 0xa
	.byte	0xa3
	.uleb128 0x3
	.byte	0xa5
	.uleb128 0x2
	.uleb128 0x26
	.byte	0xa8
	.uleb128 0x2d
	.byte	0xa8
	.uleb128 0
	.byte	0x9f
	.byte	0
.LVUS375:
	.uleb128 .LVU828
	.uleb128 .LVU831
.LLST375:
	.byte	0x8
	.4byte	.LVL334
	.uleb128 .LVL335-.LVL334
	.uleb128 0x3
	.byte	0x91
	.sleb128 -304
	.byte	0
.LVUS398:
	.uleb128 .LVU870
	.uleb128 .LVU872
	.uleb128 .LVU872
	.uleb128 .LVU876
.LLST398:
	.byte	0x6
	.4byte	.LVL336
	.byte	0x4
	.uleb128 .LVL336-.LVL336
	.uleb128 .LVL337-.LVL336
	.uleb128 0x4
	.byte	0x91
	.sleb128 -184
	.byte	0x9f
	.byte	0x4
	.uleb128 .LVL337-.LVL336
	.uleb128 .LVL338-.LVL336
	.uleb128 0x1
	.byte	0x53
	.byte	0
.LVUS400:
	.uleb128 .LVU880
	.uleb128 .LVU885
	.uleb128 .LVU885
	.uleb128 .LVU898
.LLST400:
	.byte	0x6
	.4byte	.LVL340
	.byte	0x4
	.uleb128 .LVL340-.LVL340
	.uleb128 .LVL343-.LVL340
	.uleb128 0x1
	.byte	0x51
	.byte	0x4
	.uleb128 .LVL343-.LVL340
	.uleb128 .LVL349-.LVL340
	.uleb128 0x1
	.byte	0x54
	.byte	0
.LVUS402:
	.uleb128 .LVU887
	.uleb128 .LVU892
.LLST402:
	.byte	0x8
	.4byte	.LVL345
	.uleb128 .LVL346-.LVL345
	.uleb128 0x1
	.byte	0x57
	.byte	0
.LVUS404:
	.uleb128 .LVU899
	.uleb128 .LVU902
	.uleb128 .LVU902
	.uleb128 .LVU906
.LLST404:
	.byte	0x6
	.4byte	.LVL350
	.byte	0x4
	.uleb128 .LVL350-.LVL350
	.uleb128 .LVL351-.LVL350
	.uleb128 0x4
	.byte	0x91
	.sleb128 -232
	.byte	0x9f
	.byte	0x4
	.uleb128 .LVL351-.LVL350
	.uleb128 .LVL352-.LVL350
	.uleb128 0x1
	.byte	0x51
	.byte	0
.LVUS406:
	.uleb128 .LVU964
	.uleb128 .LVU967
	.uleb128 .LVU967
	.uleb128 .LVU972
.LLST406:
	.byte	0x6
	.4byte	.LVL367
	.byte	0x4
	.uleb128 .LVL367-.LVL367
	.uleb128 .LVL368-.LVL367
	.uleb128 0x4
	.byte	0x91
	.sleb128 -248
	.byte	0x9f
	.byte	0x4
	.uleb128 .LVL368-.LVL367
	.uleb128 .LVL370-.LVL367
	.uleb128 0x1
	.byte	0x53
	.byte	0
.LVUS409:
	.uleb128 .LVU974
	.uleb128 .LVU977
.LLST409:
	.byte	0x8
	.4byte	.LVL371
	.uleb128 .LVL371-.LVL371
	.uleb128 0x3
	.byte	0x91
	.sleb128 -264
	.byte	0
.LVUS411:
	.uleb128 .LVU976
	.uleb128 .LVU977
.LLST411:
	.byte	0x8
	.4byte	.LVL371
	.uleb128 .LVL371-.LVL371
	.uleb128 0x4
	.byte	0x91
	.sleb128 -264
	.byte	0x9f
	.byte	0
.LVUS413:
	.uleb128 .LVU908
	.uleb128 .LVU914
.LLST413:
	.byte	0x8
	.4byte	.LVL353
	.uleb128 .LVL354-.LVL353
	.uleb128 0x1
	.byte	0x54
	.byte	0
.LVUS415:
	.uleb128 .LVU910
	.uleb128 .LVU914
.LLST415:
	.byte	0x8
	.4byte	.LVL353
	.uleb128 .LVL354-.LVL353
	.uleb128 0x3
	.byte	0x74
	.sleb128 8
	.byte	0x9f
	.byte	0
.LVUS418:
	.uleb128 .LVU914
	.uleb128 .LVU926
	.uleb128 .LVU978
	.uleb128 .LVU980
	.uleb128 .LVU980
	.uleb128 .LVU990
	.uleb128 .LVU1022
	.uleb128 .LVU1026
.LLST418:
	.byte	0x6
	.4byte	.LVL354
	.byte	0x4
	.uleb128 .LVL354-.LVL354
	.uleb128 .LVL358-.LVL354
	.uleb128 0x3
	.byte	0x91
	.sleb128 -292
	.byte	0x4
	.uleb128 .LVL372-.LVL354
	.uleb128 .LVL373-.LVL354
	.uleb128 0x1
	.byte	0x50
	.byte	0x4
	.uleb128 .LVL373-.LVL354
	.uleb128 .LVL378-.LVL354
	.uleb128 0x3
	.byte	0x91
	.sleb128 -292
	.byte	0x4
	.uleb128 .LVL388-.LVL354
	.uleb128 .LVL389-.LVL354
	.uleb128 0x1
	.byte	0x50
	.byte	0
.LVUS424:
	.uleb128 .LVU917
	.uleb128 .LVU926
	.uleb128 .LVU978
	.uleb128 .LVU980
	.uleb128 .LVU980
	.uleb128 .LVU990
	.uleb128 .LVU1022
	.uleb128 .LVU1026
.LLST424:
	.byte	0x6
	.4byte	.LVL354
	.byte	0x4
	.uleb128 .LVL354-.LVL354
	.uleb128 .LVL358-.LVL354
	.uleb128 0x3
	.byte	0x91
	.sleb128 -292
	.byte	0x4
	.uleb128 .LVL372-.LVL354
	.uleb128 .LVL373-.LVL354
	.uleb128 0x1
	.byte	0x50
	.byte	0x4
	.uleb128 .LVL373-.LVL354
	.uleb128 .LVL378-.LVL354
	.uleb128 0x3
	.byte	0x91
	.sleb128 -292
	.byte	0x4
	.uleb128 .LVL388-.LVL354
	.uleb128 .LVL389-.LVL354
	.uleb128 0x1
	.byte	0x50
	.byte	0
.LVUS425:
	.uleb128 .LVU920
	.uleb128 .LVU921
	.uleb128 .LVU921
	.uleb128 .LVU923
	.uleb128 .LVU923
	.uleb128 .LVU926
	.uleb128 .LVU978
	.uleb128 .LVU990
	.uleb128 .LVU1022
	.uleb128 .LVU1026
.LLST425:
	.byte	0x6
	.4byte	.LVL355
	.byte	0x4
	.uleb128 .LVL355-.LVL355
	.uleb128 .LVL356-.LVL355
	.uleb128 0x8
	.byte	0x73
	.sleb128 0
	.byte	0x91
	.sleb128 -292
	.byte	0x6
	.byte	0x22
	.byte	0x9f
	.byte	0x4
	.uleb128 .LVL356-.LVL355
	.uleb128 .LVL357-.LVL355
	.uleb128 0x1
	.byte	0x53
	.byte	0x4
	.uleb128 .LVL357-.LVL355
	.uleb128 .LVL358-.LVL355
	.uleb128 0xd
	.byte	0x72
	.sleb128 0
	.byte	0x77
	.sleb128 0
	.byte	0x1c
	.byte	0x32
	.byte	0x26
	.byte	0x91
	.sleb128 -292
	.byte	0x6
	.byte	0x22
	.byte	0x9f
	.byte	0x4
	.uleb128 .LVL372-.LVL355
	.uleb128 .LVL378-.LVL355
	.uleb128 0x1
	.byte	0x53
	.byte	0x4
	.uleb128 .LVL388-.LVL355
	.uleb128 .LVL389-.LVL355
	.uleb128 0x1
	.byte	0x53
	.byte	0
.LVUS427:
	.uleb128 .LVU981
	.uleb128 .LVU988
.LLST427:
	.byte	0x8
	.4byte	.LVL374
	.uleb128 .LVL377-.LVL374
	.uleb128 0x1
	.byte	0x52
	.byte	0
.LVUS429:
	.uleb128 .LVU983
	.uleb128 .LVU986
.LLST429:
	.byte	0x8
	.4byte	.LVL375
	.uleb128 .LVL376-.LVL375
	.uleb128 0x1
	.byte	0x59
	.byte	0
.LVUS430:
	.uleb128 .LVU990
	.uleb128 .LVU999
.LLST430:
	.byte	0x8
	.4byte	.LVL378
	.uleb128 .LVL380-.LVL378
	.uleb128 0x1
	.byte	0x54
	.byte	0
.LVUS431:
	.uleb128 .LVU992
	.uleb128 .LVU994
.LLST431:
	.byte	0x8
	.4byte	.LVL378
	.uleb128 .LVL378-.LVL378
	.uleb128 0x1
	.byte	0x54
	.byte	0
.LVUS432:
	.uleb128 .LVU993
	.uleb128 .LVU994
.LLST432:
	.byte	0x8
	.4byte	.LVL378
	.uleb128 .LVL378-.LVL378
	.uleb128 0x3
	.byte	0x74
	.sleb128 8
	.byte	0x9f
	.byte	0
.LVUS434:
	.uleb128 .LVU999
	.uleb128 .LVU1006
.LLST434:
	.byte	0x8
	.4byte	.LVL380
	.uleb128 .LVL381-.LVL380
	.uleb128 0x1
	.byte	0x54
	.byte	0
.LVUS436:
	.uleb128 .LVU1001
	.uleb128 .LVU1006
.LLST436:
	.byte	0x8
	.4byte	.LVL380
	.uleb128 .LVL381-.LVL380
	.uleb128 0x3
	.byte	0x74
	.sleb128 8
	.byte	0x9f
	.byte	0
.LVUS439:
	.uleb128 .LVU1006
	.uleb128 .LVU1022
	.uleb128 .LVU1175
	.uleb128 .LVU1177
	.uleb128 .LVU1177
	.uleb128 .LVU1191
	.uleb128 .LVU1194
	.uleb128 0
.LLST439:
	.byte	0x6
	.4byte	.LVL381
	.byte	0x4
	.uleb128 .LVL381-.LVL381
	.uleb128 .LVL388-.LVL381
	.uleb128 0x3
	.byte	0x91
	.sleb128 -296
	.byte	0x4
	.uleb128 .LVL429-.LVL381
	.uleb128 .LVL430-.LVL381
	.uleb128 0x1
	.byte	0x50
	.byte	0x4
	.uleb128 .LVL430-.LVL381
	.uleb128 .LVL437-.LVL381
	.uleb128 0x3
	.byte	0x91
	.sleb128 -296
	.byte	0x4
	.uleb128 .LVL440-.LVL381
	.uleb128 .LFE2278-.LVL381
	.uleb128 0x1
	.byte	0x50
	.byte	0
.LVUS440:
	.uleb128 .LVU1008
	.uleb128 .LVU1013
.LLST440:
	.byte	0x8
	.4byte	.LVL381
	.uleb128 .LVL382-.LVL381
	.uleb128 0x1
	.byte	0x56
	.byte	0
.LVUS443:
	.uleb128 .LVU1013
	.uleb128 .LVU1022
	.uleb128 .LVU1175
	.uleb128 .LVU1191
	.uleb128 .LVU1194
	.uleb128 0
.LLST443:
	.byte	0x6
	.4byte	.LVL382
	.byte	0x4
	.uleb128 .LVL382-.LVL382
	.uleb128 .LVL388-.LVL382
	.uleb128 0x1
	.byte	0x56
	.byte	0x4
	.uleb128 .LVL429-.LVL382
	.uleb128 .LVL437-.LVL382
	.uleb128 0x1
	.byte	0x56
	.byte	0x4
	.uleb128 .LVL440-.LVL382
	.uleb128 .LFE2278-.LVL382
	.uleb128 0x1
	.byte	0x56
	.byte	0
.LVUS444:
	.uleb128 .LVU1013
	.uleb128 .LVU1022
	.uleb128 .LVU1175
	.uleb128 .LVU1177
	.uleb128 .LVU1177
	.uleb128 .LVU1191
	.uleb128 .LVU1194
	.uleb128 0
.LLST444:
	.byte	0x6
	.4byte	.LVL382
	.byte	0x4
	.uleb128 .LVL382-.LVL382
	.uleb128 .LVL388-.LVL382
	.uleb128 0x3
	.byte	0x91
	.sleb128 -296
	.byte	0x4
	.uleb128 .LVL429-.LVL382
	.uleb128 .LVL430-.LVL382
	.uleb128 0x1
	.byte	0x50
	.byte	0x4
	.uleb128 .LVL430-.LVL382
	.uleb128 .LVL437-.LVL382
	.uleb128 0x3
	.byte	0x91
	.sleb128 -296
	.byte	0x4
	.uleb128 .LVL440-.LVL382
	.uleb128 .LFE2278-.LVL382
	.uleb128 0x1
	.byte	0x50
	.byte	0
.LVUS445:
	.uleb128 .LVU1016
	.uleb128 .LVU1017
	.uleb128 .LVU1017
	.uleb128 .LVU1019
	.uleb128 .LVU1019
	.uleb128 .LVU1020
	.uleb128 .LVU1020
	.uleb128 .LVU1021
	.uleb128 .LVU1175
	.uleb128 .LVU1189
	.uleb128 .LVU1194
	.uleb128 0
.LLST445:
	.byte	0x6
	.4byte	.LVL383
	.byte	0x4
	.uleb128 .LVL383-.LVL383
	.uleb128 .LVL384-.LVL383
	.uleb128 0x8
	.byte	0x73
	.sleb128 0
	.byte	0x91
	.sleb128 -296
	.byte	0x6
	.byte	0x22
	.byte	0x9f
	.byte	0x4
	.uleb128 .LVL384-.LVL383
	.uleb128 .LVL385-.LVL383
	.uleb128 0x1
	.byte	0x53
	.byte	0x4
	.uleb128 .LVL385-.LVL383
	.uleb128 .LVL386-.LVL383
	.uleb128 0xe
	.byte	0x72
	.sleb128 0
	.byte	0x76
	.sleb128 4
	.byte	0x6
	.byte	0x1c
	.byte	0x32
	.byte	0x26
	.byte	0x91
	.sleb128 -296
	.byte	0x6
	.byte	0x22
	.byte	0x9f
	.byte	0x4
	.uleb128 .LVL386-.LVL383
	.uleb128 .LVL387-.LVL383
	.uleb128 0xf
	.byte	0x76
	.sleb128 0
	.byte	0x6
	.byte	0x76
	.sleb128 4
	.byte	0x6
	.byte	0x1c
	.byte	0x32
	.byte	0x26
	.byte	0x91
	.sleb128 -296
	.byte	0x6
	.byte	0x22
	.byte	0x9f
	.byte	0x4
	.uleb128 .LVL429-.LVL383
	.uleb128 .LVL436-.LVL383
	.uleb128 0x1
	.byte	0x53
	.byte	0x4
	.uleb128 .LVL440-.LVL383
	.uleb128 .LFE2278-.LVL383
	.uleb128 0x1
	.byte	0x53
	.byte	0
.LVUS447:
	.uleb128 .LVU1178
	.uleb128 .LVU1188
.LLST447:
	.byte	0x8
	.4byte	.LVL431
	.uleb128 .LVL435-.LVL431
	.uleb128 0x1
	.byte	0x52
	.byte	0
.LVUS448:
	.uleb128 .LVU1180
	.uleb128 .LVU1186
.LLST448:
	.byte	0x8
	.4byte	.LVL432
	.uleb128 .LVL434-.LVL432
	.uleb128 0x1
	.byte	0x56
	.byte	0
.LVUS449:
	.uleb128 .LVU1180
	.uleb128 .LVU1183
	.uleb128 .LVU1183
	.uleb128 .LVU1186
.LLST449:
	.byte	0x6
	.4byte	.LVL432
	.byte	0x4
	.uleb128 .LVL432-.LVL432
	.uleb128 .LVL433-.LVL432
	.uleb128 0x1
	.byte	0x51
	.byte	0x4
	.uleb128 .LVL433-.LVL432
	.uleb128 .LVL434-.LVL432
	.uleb128 0x2
	.byte	0x76
	.sleb128 12
	.byte	0
.LVUS450:
	.uleb128 .LVU1026
	.uleb128 .LVU1029
.LLST450:
	.byte	0x8
	.4byte	.LVL389
	.uleb128 .LVL389-.LVL389
	.uleb128 0x1
	.byte	0x54
	.byte	0
.LVUS452:
	.uleb128 .LVU1028
	.uleb128 .LVU1029
.LLST452:
	.byte	0x8
	.4byte	.LVL389
	.uleb128 .LVL389-.LVL389
	.uleb128 0x3
	.byte	0x74
	.sleb128 24
	.byte	0x9f
	.byte	0
.LVUS455:
	.uleb128 .LVU1031
	.uleb128 .LVU1032
.LLST455:
	.byte	0x8
	.4byte	.LVL390
	.uleb128 .LVL390-.LVL390
	.uleb128 0x3
	.byte	0x91
	.sleb128 -304
	.byte	0
.LVUS456:
	.uleb128 .LVU1032
	.uleb128 .LVU1035
.LLST456:
	.byte	0x8
	.4byte	.LVL390
	.uleb128 .LVL390-.LVL390
	.uleb128 0x1
	.byte	0x54
	.byte	0
.LVUS458:
	.uleb128 .LVU1034
	.uleb128 .LVU1035
.LLST458:
	.byte	0x8
	.4byte	.LVL390
	.uleb128 .LVL390-.LVL390
	.uleb128 0x3
	.byte	0x74
	.sleb128 24
	.byte	0x9f
	.byte	0
.LVUS460:
	.uleb128 .LVU1035
	.uleb128 .LVU1037
.LLST460:
	.byte	0x8
	.4byte	.LVL390
	.uleb128 .LVL390-.LVL390
	.uleb128 0xa
	.byte	0xa3
	.uleb128 0x3
	.byte	0xa5
	.uleb128 0x2
	.uleb128 0x26
	.byte	0xa8
	.uleb128 0x2d
	.byte	0xa8
	.uleb128 0
	.byte	0x9f
	.byte	0
.LVUS483:
	.uleb128 .LVU1077
	.uleb128 .LVU1080
	.uleb128 .LVU1080
	.uleb128 .LVU1085
.LLST483:
	.byte	0x6
	.4byte	.LVL391
	.byte	0x4
	.uleb128 .LVL391-.LVL391
	.uleb128 .LVL392-.LVL391
	.uleb128 0x4
	.byte	0x91
	.sleb128 -72
	.byte	0x9f
	.byte	0x4
	.uleb128 .LVL392-.LVL391
	.uleb128 .LVL394-.LVL391
	.uleb128 0x1
	.byte	0x53
	.byte	0
.LVUS485:
	.uleb128 .LVU1089
	.uleb128 .LVU1094
	.uleb128 .LVU1094
	.uleb128 .LVU1104
	.uleb128 .LVU1104
	.uleb128 .LVU1109
.LLST485:
	.byte	0x6
	.4byte	.LVL396
	.byte	0x4
	.uleb128 .LVL396-.LVL396
	.uleb128 .LVL399-.LVL396
	.uleb128 0x1
	.byte	0x55
	.byte	0x4
	.uleb128 .LVL399-.LVL396
	.uleb128 .LVL402-.LVL396
	.uleb128 0x3
	.byte	0x75
	.sleb128 -4
	.byte	0x9f
	.byte	0x4
	.uleb128 .LVL402-.LVL396
	.uleb128 .LVL405-.LVL396
	.uleb128 0x1
	.byte	0x55
	.byte	0
.LVUS487:
	.uleb128 .LVU1094
	.uleb128 .LVU1099
.LLST487:
	.byte	0x8
	.4byte	.LVL399
	.uleb128 .LVL400-.LVL399
	.uleb128 0x1
	.byte	0x58
	.byte	0
.LVUS489:
	.uleb128 .LVU1105
	.uleb128 .LVU1108
	.uleb128 .LVU1108
	.uleb128 .LVU1113
.LLST489:
	.byte	0x6
	.4byte	.LVL403
	.byte	0x4
	.uleb128 .LVL403-.LVL403
	.uleb128 .LVL404-.LVL403
	.uleb128 0x4
	.byte	0x91
	.sleb128 -120
	.byte	0x9f
	.byte	0x4
	.uleb128 .LVL404-.LVL403
	.uleb128 .LVL406-.LVL403
	.uleb128 0x1
	.byte	0x51
	.byte	0
.LVUS491:
	.uleb128 .LVU1134
	.uleb128 .LVU1137
	.uleb128 .LVU1137
	.uleb128 .LVU1142
.LLST491:
	.byte	0x6
	.4byte	.LVL411
	.byte	0x4
	.uleb128 .LVL411-.LVL411
	.uleb128 .LVL412-.LVL411
	.uleb128 0x4
	.byte	0x91
	.sleb128 -136
	.byte	0x9f
	.byte	0x4
	.uleb128 .LVL412-.LVL411
	.uleb128 .LVL414-.LVL411
	.uleb128 0x1
	.byte	0x53
	.byte	0
.LVUS494:
	.uleb128 .LVU1145
	.uleb128 .LVU1148
.LLST494:
	.byte	0x8
	.4byte	.LVL416
	.uleb128 .LVL416-.LVL416
	.uleb128 0x3
	.byte	0x91
	.sleb128 -152
	.byte	0
.LVUS496:
	.uleb128 .LVU1147
	.uleb128 .LVU1148
.LLST496:
	.byte	0x8
	.4byte	.LVL416
	.uleb128 .LVL416-.LVL416
	.uleb128 0x4
	.byte	0x91
	.sleb128 -152
	.byte	0x9f
	.byte	0
.LVUS498:
	.uleb128 .LVU1115
	.uleb128 .LVU1121
.LLST498:
	.byte	0x8
	.4byte	.LVL407
	.uleb128 .LVL408-.LVL407
	.uleb128 0x1
	.byte	0x54
	.byte	0
.LVUS500:
	.uleb128 .LVU1117
	.uleb128 .LVU1121
.LLST500:
	.byte	0x8
	.4byte	.LVL407
	.uleb128 .LVL408-.LVL407
	.uleb128 0x3
	.byte	0x74
	.sleb128 24
	.byte	0x9f
	.byte	0
.LVUS503:
	.uleb128 .LVU1121
	.uleb128 .LVU1134
	.uleb128 .LVU1149
	.uleb128 .LVU1151
	.uleb128 .LVU1151
	.uleb128 .LVU1161
	.uleb128 .LVU1171
	.uleb128 .LVU1173
	.uleb128 .LVU1173
	.uleb128 .LVU1175
.LLST503:
	.byte	0x6
	.4byte	.LVL408
	.byte	0x4
	.uleb128 .LVL408-.LVL408
	.uleb128 .LVL411-.LVL408
	.uleb128 0x3
	.byte	0x91
	.sleb128 -292
	.byte	0x4
	.uleb128 .LVL417-.LVL408
	.uleb128 .LVL418-.LVL408
	.uleb128 0x1
	.byte	0x53
	.byte	0x4
	.uleb128 .LVL418-.LVL408
	.uleb128 .LVL424-.LVL408
	.uleb128 0x3
	.byte	0x91
	.sleb128 -292
	.byte	0x4
	.uleb128 .LVL427-.LVL408
	.uleb128 .LVL428-.LVL408
	.uleb128 0x1
	.byte	0x53
	.byte	0x4
	.uleb128 .LVL428-.LVL408
	.uleb128 .LVL429-.LVL408
	.uleb128 0x3
	.byte	0x91
	.sleb128 -292
	.byte	0
.LVUS509:
	.uleb128 .LVU1124
	.uleb128 .LVU1134
	.uleb128 .LVU1149
	.uleb128 .LVU1151
	.uleb128 .LVU1151
	.uleb128 .LVU1161
	.uleb128 .LVU1171
	.uleb128 .LVU1173
	.uleb128 .LVU1173
	.uleb128 .LVU1175
.LLST509:
	.byte	0x6
	.4byte	.LVL408
	.byte	0x4
	.uleb128 .LVL408-.LVL408
	.uleb128 .LVL411-.LVL408
	.uleb128 0x3
	.byte	0x91
	.sleb128 -292
	.byte	0x4
	.uleb128 .LVL417-.LVL408
	.uleb128 .LVL418-.LVL408
	.uleb128 0x1
	.byte	0x53
	.byte	0x4
	.uleb128 .LVL418-.LVL408
	.uleb128 .LVL424-.LVL408
	.uleb128 0x3
	.byte	0x91
	.sleb128 -292
	.byte	0x4
	.uleb128 .LVL427-.LVL408
	.uleb128 .LVL428-.LVL408
	.uleb128 0x1
	.byte	0x53
	.byte	0x4
	.uleb128 .LVL428-.LVL408
	.uleb128 .LVL429-.LVL408
	.uleb128 0x3
	.byte	0x91
	.sleb128 -292
	.byte	0
.LVUS511:
	.uleb128 .LVU1126
	.uleb128 .LVU1134
	.uleb128 .LVU1149
	.uleb128 .LVU1151
	.uleb128 .LVU1151
	.uleb128 .LVU1161
	.uleb128 .LVU1171
	.uleb128 .LVU1173
	.uleb128 .LVU1173
	.uleb128 .LVU1175
.LLST511:
	.byte	0x6
	.4byte	.LVL408
	.byte	0x4
	.uleb128 .LVL408-.LVL408
	.uleb128 .LVL411-.LVL408
	.uleb128 0x6
	.byte	0x91
	.sleb128 -292
	.byte	0x6
	.byte	0x1f
	.byte	0x9f
	.byte	0x4
	.uleb128 .LVL417-.LVL408
	.uleb128 .LVL418-.LVL408
	.uleb128 0x4
	.byte	0x73
	.sleb128 0
	.byte	0x1f
	.byte	0x9f
	.byte	0x4
	.uleb128 .LVL418-.LVL408
	.uleb128 .LVL424-.LVL408
	.uleb128 0x6
	.byte	0x91
	.sleb128 -292
	.byte	0x6
	.byte	0x1f
	.byte	0x9f
	.byte	0x4
	.uleb128 .LVL427-.LVL408
	.uleb128 .LVL428-.LVL408
	.uleb128 0x4
	.byte	0x73
	.sleb128 0
	.byte	0x1f
	.byte	0x9f
	.byte	0x4
	.uleb128 .LVL428-.LVL408
	.uleb128 .LVL429-.LVL408
	.uleb128 0x6
	.byte	0x91
	.sleb128 -292
	.byte	0x6
	.byte	0x1f
	.byte	0x9f
	.byte	0
.LVUS512:
	.uleb128 .LVU1128
	.uleb128 .LVU1132
	.uleb128 .LVU1132
	.uleb128 .LVU1134
	.uleb128 .LVU1149
	.uleb128 .LVU1160
	.uleb128 .LVU1160
	.uleb128 .LVU1161
	.uleb128 .LVU1171
	.uleb128 .LVU1175
.LLST512:
	.byte	0x6
	.4byte	.LVL409
	.byte	0x4
	.uleb128 .LVL409-.LVL409
	.uleb128 .LVL410-.LVL409
	.uleb128 0x1
	.byte	0x55
	.byte	0x4
	.uleb128 .LVL410-.LVL409
	.uleb128 .LVL411-.LVL409
	.uleb128 0xd
	.byte	0x71
	.sleb128 0
	.byte	0x77
	.sleb128 0
	.byte	0x1c
	.byte	0x32
	.byte	0x26
	.byte	0x91
	.sleb128 -292
	.byte	0x6
	.byte	0x1c
	.byte	0x9f
	.byte	0x4
	.uleb128 .LVL417-.LVL409
	.uleb128 .LVL423-.LVL409
	.uleb128 0x1
	.byte	0x55
	.byte	0x4
	.uleb128 .LVL423-.LVL409
	.uleb128 .LVL424-.LVL409
	.uleb128 0xf
	.byte	0x74
	.sleb128 24
	.byte	0x6
	.byte	0x74
	.sleb128 28
	.byte	0x6
	.byte	0x1c
	.byte	0x32
	.byte	0x26
	.byte	0x91
	.sleb128 -292
	.byte	0x6
	.byte	0x1c
	.byte	0x9f
	.byte	0x4
	.uleb128 .LVL427-.LVL409
	.uleb128 .LVL429-.LVL409
	.uleb128 0x1
	.byte	0x55
	.byte	0
.LVUS514:
	.uleb128 .LVU1152
	.uleb128 .LVU1159
.LLST514:
	.byte	0x8
	.4byte	.LVL419
	.uleb128 .LVL422-.LVL419
	.uleb128 0x1
	.byte	0x53
	.byte	0
.LVUS516:
	.uleb128 .LVU1154
	.uleb128 .LVU1157
.LLST516:
	.byte	0x8
	.4byte	.LVL420
	.uleb128 .LVL421-.LVL420
	.uleb128 0x1
	.byte	0x59
	.byte	0
.LVUS517:
	.uleb128 .LVU1161
	.uleb128 .LVU1170
.LLST517:
	.byte	0x8
	.4byte	.LVL424
	.uleb128 .LVL426-.LVL424
	.uleb128 0x1
	.byte	0x54
	.byte	0
.LVUS519:
	.uleb128 .LVU1164
	.uleb128 .LVU1167
.LLST519:
	.byte	0x8
	.4byte	.LVL424
	.uleb128 .LVL424-.LVL424
	.uleb128 0x1
	.byte	0x54
	.byte	0
.LVUS520:
	.uleb128 .LVU1166
	.uleb128 .LVU1167
.LLST520:
	.byte	0x8
	.4byte	.LVL424
	.uleb128 .LVL424-.LVL424
	.uleb128 0x3
	.byte	0x74
	.sleb128 24
	.byte	0x9f
	.byte	0
.LVUS347:
	.uleb128 .LVU760
	.uleb128 .LVU764
.LLST347:
	.byte	0x8
	.4byte	.LVL319
	.uleb128 .LVL322-.LVL319
	.uleb128 0x1
	.byte	0x52
	.byte	0
.LVUS348:
	.uleb128 .LVU760
	.uleb128 .LVU763
	.uleb128 .LVU763
	.uleb128 .LVU764
.LLST348:
	.byte	0x6
	.4byte	.LVL319
	.byte	0x4
	.uleb128 .LVL319-.LVL319
	.uleb128 .LVL321-.LVL319
	.uleb128 0x1
	.byte	0x53
	.byte	0x4
	.uleb128 .LVL321-.LVL319
	.uleb128 .LVL322-.LVL319
	.uleb128 0x3
	.byte	0x91
	.sleb128 -304
	.byte	0
.LVUS350:
	.uleb128 .LVU766
	.uleb128 .LVU771
.LLST350:
	.byte	0x8
	.4byte	.LVL323
	.uleb128 .LVL324-.LVL323
	.uleb128 0x1
	.byte	0x51
	.byte	0
.LVUS352:
	.uleb128 .LVU767
	.uleb128 .LVU771
.LLST352:
	.byte	0x8
	.4byte	.LVL323
	.uleb128 .LVL324-.LVL323
	.uleb128 0x3
	.byte	0x71
	.sleb128 8
	.byte	0x9f
	.byte	0
.LVUS521:
	.uleb128 .LVU934
	.uleb128 .LVU937
.LLST521:
	.byte	0x8
	.4byte	.LVL360
	.uleb128 .LVL360-.LVL360
	.uleb128 0x1
	.byte	0x51
	.byte	0
.LVUS523:
	.uleb128 .LVU936
	.uleb128 .LVU937
.LLST523:
	.byte	0x8
	.4byte	.LVL360
	.uleb128 .LVL360-.LVL360
	.uleb128 0x3
	.byte	0x71
	.sleb128 24
	.byte	0x9f
	.byte	0
.LVUS524:
	.uleb128 .LVU940
	.uleb128 .LVU953
	.uleb128 .LVU953
	.uleb128 .LVU955
.LLST524:
	.byte	0x6
	.4byte	.LVL361
	.byte	0x4
	.uleb128 .LVL361-.LVL361
	.uleb128 .LVL363-.LVL361
	.uleb128 0x1
	.byte	0x51
	.byte	0x4
	.uleb128 .LVL363-.LVL361
	.uleb128 .LVL365-.LVL361
	.uleb128 0x1
	.byte	0x54
	.byte	0
.LVUS525:
	.uleb128 .LVU942
	.uleb128 .LVU944
.LLST525:
	.byte	0x8
	.4byte	.LVL361
	.uleb128 .LVL361-.LVL361
	.uleb128 0x1
	.byte	0x51
	.byte	0
.LVUS527:
	.uleb128 .LVU943
	.uleb128 .LVU944
.LLST527:
	.byte	0x8
	.4byte	.LVL361
	.uleb128 .LVL361-.LVL361
	.uleb128 0x3
	.byte	0x71
	.sleb128 8
	.byte	0x9f
	.byte	0
.LVUS528:
	.uleb128 .LVU944
	.uleb128 .LVU953
	.uleb128 .LVU953
	.uleb128 .LVU955
.LLST528:
	.byte	0x6
	.4byte	.LVL361
	.byte	0x4
	.uleb128 .LVL361-.LVL361
	.uleb128 .LVL363-.LVL361
	.uleb128 0x1
	.byte	0x51
	.byte	0x4
	.uleb128 .LVL363-.LVL361
	.uleb128 .LVL365-.LVL361
	.uleb128 0x1
	.byte	0x54
	.byte	0
.LVUS530:
	.uleb128 .LVU947
	.uleb128 .LVU950
.LLST530:
	.byte	0x8
	.4byte	.LVL361
	.uleb128 .LVL361-.LVL361
	.uleb128 0x1
	.byte	0x51
	.byte	0
.LVUS531:
	.uleb128 .LVU949
	.uleb128 .LVU950
.LLST531:
	.byte	0x8
	.4byte	.LVL361
	.uleb128 .LVL361-.LVL361
	.uleb128 0x3
	.byte	0x71
	.sleb128 24
	.byte	0x9f
	.byte	0
.LVUS532:
	.uleb128 .LVU955
	.uleb128 .LVU962
.LLST532:
	.byte	0x8
	.4byte	.LVL365
	.uleb128 .LVL366-.LVL365
	.uleb128 0x1
	.byte	0x54
	.byte	0
.LVUS533:
	.uleb128 .LVU957
	.uleb128 .LVU962
.LLST533:
	.byte	0x8
	.4byte	.LVL365
	.uleb128 .LVL366-.LVL365
	.uleb128 0x1
	.byte	0x56
	.byte	0
.LVUS534:
	.uleb128 .LVU957
	.uleb128 .LVU962
.LLST534:
	.byte	0x8
	.4byte	.LVL365
	.uleb128 .LVL366-.LVL365
	.uleb128 0x3
	.byte	0x74
	.sleb128 24
	.byte	0x9f
	.byte	0
.LVUS535:
	.uleb128 .LVU926
	.uleb128 .LVU932
.LLST535:
	.byte	0x8
	.4byte	.LVL358
	.uleb128 .LVL359-.LVL358
	.uleb128 0x1
	.byte	0x56
	.byte	0
.LVUS536:
	.uleb128 .LVU926
	.uleb128 .LVU932
.LLST536:
	.byte	0x8
	.4byte	.LVL358
	.uleb128 .LVL359-.LVL358
	.uleb128 0x1
	.byte	0x52
	.byte	0
.LVUS36:
	.uleb128 0
	.uleb128 .LVU222
	.uleb128 .LVU222
	.uleb128 0
.LLST36:
	.byte	0x6
	.4byte	.LVL95
	.byte	0x4
	.uleb128 .LVL95-.LVL95
	.uleb128 .LVL97-.LVL95
	.uleb128 0x1
	.byte	0x50
	.byte	0x4
	.uleb128 .LVL97-.LVL95
	.uleb128 .LFE2242-.LVL95
	.uleb128 0xa
	.byte	0xa3
	.uleb128 0x3
	.byte	0xa5
	.uleb128 0
	.uleb128 0x26
	.byte	0xa8
	.uleb128 0x2d
	.byte	0xa8
	.uleb128 0
	.byte	0x9f
	.byte	0
.LVUS37:
	.uleb128 0
	.uleb128 .LVU222
	.uleb128 .LVU222
	.uleb128 0
.LLST37:
	.byte	0x6
	.4byte	.LVL95
	.byte	0x4
	.uleb128 .LVL95-.LVL95
	.uleb128 .LVL97-.LVL95
	.uleb128 0x1
	.byte	0x51
	.byte	0x4
	.uleb128 .LVL97-.LVL95
	.uleb128 .LFE2242-.LVL95
	.uleb128 0xa
	.byte	0xa3
	.uleb128 0x3
	.byte	0xa5
	.uleb128 0x1
	.uleb128 0x26
	.byte	0xa8
	.uleb128 0x2d
	.byte	0xa8
	.uleb128 0
	.byte	0x9f
	.byte	0
.LVUS38:
	.uleb128 0
	.uleb128 .LVU222
	.uleb128 .LVU222
	.uleb128 .LVU233
	.uleb128 .LVU233
	.uleb128 0
.LLST38:
	.byte	0x6
	.4byte	.LVL95
	.byte	0x4
	.uleb128 .LVL95-.LVL95
	.uleb128 .LVL97-.LVL95
	.uleb128 0x1
	.byte	0x52
	.byte	0x4
	.uleb128 .LVL97-.LVL95
	.uleb128 .LVL101-.LVL95
	.uleb128 0x1
	.byte	0x55
	.byte	0x4
	.uleb128 .LVL101-.LVL95
	.uleb128 .LFE2242-.LVL95
	.uleb128 0xa
	.byte	0xa3
	.uleb128 0x3
	.byte	0xa5
	.uleb128 0x2
	.uleb128 0x26
	.byte	0xa8
	.uleb128 0x2d
	.byte	0xa8
	.uleb128 0
	.byte	0x9f
	.byte	0
.LVUS39:
	.uleb128 .LVU220
	.uleb128 .LVU222
	.uleb128 .LVU222
	.uleb128 .LVU227
	.uleb128 .LVU227
	.uleb128 .LVU230
	.uleb128 .LVU230
	.uleb128 .LVU233
.LLST39:
	.byte	0x6
	.4byte	.LVL96
	.byte	0x4
	.uleb128 .LVL96-.LVL96
	.uleb128 .LVL97-.LVL96
	.uleb128 0x1
	.byte	0x51
	.byte	0x4
	.uleb128 .LVL97-.LVL96
	.uleb128 .LVL98-.LVL96
	.uleb128 0x1
	.byte	0x54
	.byte	0x4
	.uleb128 .LVL98-.LVL96
	.uleb128 .LVL99-.LVL96
	.uleb128 0x3
	.byte	0x74
	.sleb128 -4
	.byte	0x9f
	.byte	0x4
	.uleb128 .LVL99-.LVL96
	.uleb128 .LVL100-.LVL96
	.uleb128 0x1
	.byte	0x54
	.byte	0
.LVUS40:
	.uleb128 .LVU222
	.uleb128 .LVU228
.LLST40:
	.byte	0x8
	.4byte	.LVL97
	.uleb128 .LVL99-.LVL97
	.uleb128 0xa
	.byte	0xa3
	.uleb128 0x3
	.byte	0xa5
	.uleb128 0
	.uleb128 0x26
	.byte	0xa8
	.uleb128 0x2d
	.byte	0xa8
	.uleb128 0
	.byte	0x9f
	.byte	0
.LVUS41:
	.uleb128 .LVU222
	.uleb128 .LVU227
	.uleb128 .LVU227
	.uleb128 .LVU228
.LLST41:
	.byte	0x6
	.4byte	.LVL97
	.byte	0x4
	.uleb128 .LVL97-.LVL97
	.uleb128 .LVL98-.LVL97
	.uleb128 0x2
	.byte	0x74
	.sleb128 0
	.byte	0x4
	.uleb128 .LVL98-.LVL97
	.uleb128 .LVL99-1-.LVL97
	.uleb128 0x2
	.byte	0x74
	.sleb128 -4
	.byte	0
.LVUS43:
	.uleb128 .LVU224
	.uleb128 .LVU228
.LLST43:
	.byte	0x8
	.4byte	.LVL97
	.uleb128 .LVL99-.LVL97
	.uleb128 0xa
	.byte	0xa3
	.uleb128 0x3
	.byte	0xa5
	.uleb128 0
	.uleb128 0x26
	.byte	0xa8
	.uleb128 0x2d
	.byte	0xa8
	.uleb128 0
	.byte	0x9f
	.byte	0
.LVUS44:
	.uleb128 .LVU224
	.uleb128 .LVU227
	.uleb128 .LVU227
	.uleb128 .LVU228
.LLST44:
	.byte	0x6
	.4byte	.LVL97
	.byte	0x4
	.uleb128 .LVL97-.LVL97
	.uleb128 .LVL98-.LVL97
	.uleb128 0x2
	.byte	0x74
	.sleb128 0
	.byte	0x4
	.uleb128 .LVL98-.LVL97
	.uleb128 .LVL99-1-.LVL97
	.uleb128 0x2
	.byte	0x74
	.sleb128 -4
	.byte	0
.LVUS45:
	.uleb128 .LVU224
	.uleb128 .LVU228
.LLST45:
	.byte	0x8
	.4byte	.LVL97
	.uleb128 .LVL99-.LVL97
	.uleb128 0x3
	.byte	0x8
	.byte	0x80
	.byte	0x9f
	.byte	0
.LVUS46:
	.uleb128 .LVU225
	.uleb128 .LVU228
.LLST46:
	.byte	0x8
	.4byte	.LVL97
	.uleb128 .LVL99-.LVL97
	.uleb128 0xa
	.byte	0xa3
	.uleb128 0x3
	.byte	0xa5
	.uleb128 0
	.uleb128 0x26
	.byte	0xa8
	.uleb128 0x2d
	.byte	0xa8
	.uleb128 0
	.byte	0x9f
	.byte	0
.LVUS47:
	.uleb128 .LVU225
	.uleb128 .LVU227
	.uleb128 .LVU227
	.uleb128 .LVU228
.LLST47:
	.byte	0x6
	.4byte	.LVL97
	.byte	0x4
	.uleb128 .LVL97-.LVL97
	.uleb128 .LVL98-.LVL97
	.uleb128 0x2
	.byte	0x74
	.sleb128 0
	.byte	0x4
	.uleb128 .LVL98-.LVL97
	.uleb128 .LVL99-1-.LVL97
	.uleb128 0x2
	.byte	0x74
	.sleb128 -4
	.byte	0
.LVUS48:
	.uleb128 .LVU225
	.uleb128 .LVU228
.LLST48:
	.byte	0x8
	.4byte	.LVL97
	.uleb128 .LVL99-.LVL97
	.uleb128 0x3
	.byte	0x8
	.byte	0x80
	.byte	0x9f
	.byte	0
.LVUS29:
	.uleb128 0
	.uleb128 .LVU193
	.uleb128 .LVU193
	.uleb128 .LVU210
	.uleb128 .LVU210
	.uleb128 .LVU211
	.uleb128 .LVU211
	.uleb128 0
.LLST29:
	.byte	0x6
	.4byte	.LVL82
	.byte	0x4
	.uleb128 .LVL82-.LVL82
	.uleb128 .LVL87-.LVL82
	.uleb128 0x1
	.byte	0x50
	.byte	0x4
	.uleb128 .LVL87-.LVL82
	.uleb128 .LVL92-.LVL82
	.uleb128 0x1
	.byte	0x56
	.byte	0x4
	.uleb128 .LVL92-.LVL82
	.uleb128 .LVL93-.LVL82
	.uleb128 0xa
	.byte	0xa3
	.uleb128 0x3
	.byte	0xa5
	.uleb128 0
	.uleb128 0x26
	.byte	0xa8
	.uleb128 0x2d
	.byte	0xa8
	.uleb128 0
	.byte	0x9f
	.byte	0x4
	.uleb128 .LVL93-.LVL82
	.uleb128 .LFE2077-.LVL82
	.uleb128 0x1
	.byte	0x56
	.byte	0
.LVUS30:
	.uleb128 0
	.uleb128 .LVU192
	.uleb128 .LVU192
	.uleb128 .LVU193
	.uleb128 .LVU193
	.uleb128 0
.LLST30:
	.byte	0x6
	.4byte	.LVL82
	.byte	0x4
	.uleb128 .LVL82-.LVL82
	.uleb128 .LVL86-.LVL82
	.uleb128 0x1
	.byte	0x51
	.byte	0x4
	.uleb128 .LVL86-.LVL82
	.uleb128 .LVL87-.LVL82
	.uleb128 0x1
	.byte	0x52
	.byte	0x4
	.uleb128 .LVL87-.LVL82
	.uleb128 .LFE2077-.LVL82
	.uleb128 0xa
	.byte	0xa3
	.uleb128 0x3
	.byte	0xa5
	.uleb128 0x1
	.uleb128 0x26
	.byte	0xa8
	.uleb128 0x2d
	.byte	0xa8
	.uleb128 0
	.byte	0x9f
	.byte	0
.LVUS31:
	.uleb128 0
	.uleb128 .LVU191
	.uleb128 .LVU191
	.uleb128 0
.LLST31:
	.byte	0x6
	.4byte	.LVL82
	.byte	0x4
	.uleb128 .LVL82-.LVL82
	.uleb128 .LVL85-.LVL82
	.uleb128 0x1
	.byte	0x52
	.byte	0x4
	.uleb128 .LVL85-.LVL82
	.uleb128 .LFE2077-.LVL82
	.uleb128 0xa
	.byte	0xa3
	.uleb128 0x3
	.byte	0xa5
	.uleb128 0x2
	.uleb128 0x26
	.byte	0xa8
	.uleb128 0x2d
	.byte	0xa8
	.uleb128 0
	.byte	0x9f
	.byte	0
.LVUS35:
	.uleb128 .LVU193
	.uleb128 .LVU195
	.uleb128 .LVU199
	.uleb128 .LVU200
	.uleb128 .LVU200
	.uleb128 .LVU203
.LLST35:
	.byte	0x6
	.4byte	.LVL87
	.byte	0x4
	.uleb128 .LVL87-.LVL87
	.uleb128 .LVL88-.LVL87
	.uleb128 0x1f
	.byte	0x75
	.sleb128 0
	.byte	0x6
	.byte	0x76
	.sleb128 72
	.byte	0x6
	.byte	0x26
	.byte	0x12
	.byte	0xa
	.2byte	0xffff
	.byte	0x16
	.byte	0x14
	.byte	0x2d
	.byte	0x28
	.2byte	0x1
	.byte	0x16
	.byte	0x13
	.byte	0x12
	.byte	0x30
	.byte	0x16
	.byte	0x14
	.byte	0x2b
	.byte	0x28
	.2byte	0x1
	.byte	0x16
	.byte	0x13
	.byte	0x9f
	.byte	0x4
	.uleb128 .LVL89-.LVL87
	.uleb128 .LVL89-.LVL87
	.uleb128 0x9
	.byte	0x75
	.sleb128 0
	.byte	0x6
	.byte	0x76
	.sleb128 72
	.byte	0x6
	.byte	0x26
	.byte	0x9f
	.byte	0x4
	.uleb128 .LVL89-.LVL87
	.uleb128 .LVL90-.LVL87
	.uleb128 0x1f
	.byte	0x75
	.sleb128 0
	.byte	0x6
	.byte	0x76
	.sleb128 72
	.byte	0x6
	.byte	0x26
	.byte	0x12
	.byte	0xa
	.2byte	0xffff
	.byte	0x16
	.byte	0x14
	.byte	0x2d
	.byte	0x28
	.2byte	0x1
	.byte	0x16
	.byte	0x13
	.byte	0x12
	.byte	0x30
	.byte	0x16
	.byte	0x14
	.byte	0x2b
	.byte	0x28
	.2byte	0x1
	.byte	0x16
	.byte	0x13
	.byte	0x9f
	.byte	0
.LVUS32:
	.uleb128 .LVU187
	.uleb128 .LVU189
.LLST32:
	.byte	0x8
	.4byte	.LVL83
	.uleb128 .LVL84-.LVL83
	.uleb128 0x4
	.byte	0x70
	.sleb128 92
	.byte	0x9f
	.byte	0
.LVUS33:
	.uleb128 .LVU187
	.uleb128 .LVU189
.LLST33:
	.byte	0x8
	.4byte	.LVL83
	.uleb128 .LVL84-.LVL83
	.uleb128 0x6
	.byte	0xa0
	.4byte	.Ldebug_info0+50494
	.sleb128 0
	.byte	0
.LVUS17:
	.uleb128 0
	.uleb128 .LVU119
	.uleb128 .LVU119
	.uleb128 .LVU170
	.uleb128 .LVU170
	.uleb128 .LVU172
	.uleb128 .LVU172
	.uleb128 .LVU180
	.uleb128 .LVU180
	.uleb128 .LVU181
	.uleb128 .LVU181
	.uleb128 0
.LLST17:
	.byte	0x6
	.4byte	.LVL45
	.byte	0x4
	.uleb128 .LVL45-.LVL45
	.uleb128 .LVL49-.LVL45
	.uleb128 0x1
	.byte	0x50
	.byte	0x4
	.uleb128 .LVL49-.LVL45
	.uleb128 .LVL73-.LVL45
	.uleb128 0x1
	.byte	0x56
	.byte	0x4
	.uleb128 .LVL73-.LVL45
	.uleb128 .LVL74-.LVL45
	.uleb128 0x1
	.byte	0x50
	.byte	0x4
	.uleb128 .LVL74-.LVL45
	.uleb128 .LVL76-.LVL45
	.uleb128 0x1
	.byte	0x56
	.byte	0x4
	.uleb128 .LVL76-.LVL45
	.uleb128 .LVL80-.LVL45
	.uleb128 0xa
	.byte	0xa3
	.uleb128 0x3
	.byte	0xa5
	.uleb128 0
	.uleb128 0x26
	.byte	0xa8
	.uleb128 0x2d
	.byte	0xa8
	.uleb128 0
	.byte	0x9f
	.byte	0x4
	.uleb128 .LVL80-.LVL45
	.uleb128 .LFE2076-.LVL45
	.uleb128 0x1
	.byte	0x56
	.byte	0
.LVUS18:
	.uleb128 0
	.uleb128 .LVU120
	.uleb128 .LVU120
	.uleb128 .LVU170
	.uleb128 .LVU170
	.uleb128 .LVU172
	.uleb128 .LVU172
	.uleb128 .LVU180
	.uleb128 .LVU180
	.uleb128 .LVU181
	.uleb128 .LVU181
	.uleb128 0
.LLST18:
	.byte	0x6
	.4byte	.LVL45
	.byte	0x4
	.uleb128 .LVL45-.LVL45
	.uleb128 .LVL50-.LVL45
	.uleb128 0x1
	.byte	0x51
	.byte	0x4
	.uleb128 .LVL50-.LVL45
	.uleb128 .LVL73-.LVL45
	.uleb128 0x1
	.byte	0x5b
	.byte	0x4
	.uleb128 .LVL73-.LVL45
	.uleb128 .LVL74-.LVL45
	.uleb128 0x1
	.byte	0x51
	.byte	0x4
	.uleb128 .LVL74-.LVL45
	.uleb128 .LVL79-.LVL45
	.uleb128 0x1
	.byte	0x5b
	.byte	0x4
	.uleb128 .LVL79-.LVL45
	.uleb128 .LVL80-.LVL45
	.uleb128 0xa
	.byte	0xa3
	.uleb128 0x3
	.byte	0xa5
	.uleb128 0x1
	.uleb128 0x26
	.byte	0xa8
	.uleb128 0x2d
	.byte	0xa8
	.uleb128 0
	.byte	0x9f
	.byte	0x4
	.uleb128 .LVL80-.LVL45
	.uleb128 .LFE2076-.LVL45
	.uleb128 0x1
	.byte	0x5b
	.byte	0
.LVUS19:
	.uleb128 0
	.uleb128 .LVU120
	.uleb128 .LVU120
	.uleb128 .LVU170
	.uleb128 .LVU170
	.uleb128 .LVU172
	.uleb128 .LVU172
	.uleb128 .LVU178
	.uleb128 .LVU178
	.uleb128 .LVU181
	.uleb128 .LVU181
	.uleb128 0
.LLST19:
	.byte	0x6
	.4byte	.LVL45
	.byte	0x4
	.uleb128 .LVL45-.LVL45
	.uleb128 .LVL50-.LVL45
	.uleb128 0x1
	.byte	0x52
	.byte	0x4
	.uleb128 .LVL50-.LVL45
	.uleb128 .LVL73-.LVL45
	.uleb128 0x1
	.byte	0x5c
	.byte	0x4
	.uleb128 .LVL73-.LVL45
	.uleb128 .LVL74-.LVL45
	.uleb128 0x1
	.byte	0x52
	.byte	0x4
	.uleb128 .LVL74-.LVL45
	.uleb128 .LVL75-1-.LVL45
	.uleb128 0x1
	.byte	0x5c
	.byte	0x4
	.uleb128 .LVL75-1-.LVL45
	.uleb128 .LVL80-.LVL45
	.uleb128 0xa
	.byte	0xa3
	.uleb128 0x3
	.byte	0xa5
	.uleb128 0x2
	.uleb128 0x26
	.byte	0xa8
	.uleb128 0x2d
	.byte	0xa8
	.uleb128 0
	.byte	0x9f
	.byte	0x4
	.uleb128 .LVL80-.LVL45
	.uleb128 .LFE2076-.LVL45
	.uleb128 0x1
	.byte	0x5c
	.byte	0
.LVUS20:
	.uleb128 0
	.uleb128 .LVU117
	.uleb128 .LVU117
	.uleb128 .LVU170
	.uleb128 .LVU170
	.uleb128 .LVU172
	.uleb128 .LVU172
	.uleb128 .LVU180
	.uleb128 .LVU180
	.uleb128 .LVU181
	.uleb128 .LVU181
	.uleb128 0
.LLST20:
	.byte	0x6
	.4byte	.LVL45
	.byte	0x4
	.uleb128 .LVL45-.LVL45
	.uleb128 .LVL48-.LVL45
	.uleb128 0x1
	.byte	0x53
	.byte	0x4
	.uleb128 .LVL48-.LVL45
	.uleb128 .LVL73-.LVL45
	.uleb128 0x1
	.byte	0x58
	.byte	0x4
	.uleb128 .LVL73-.LVL45
	.uleb128 .LVL74-.LVL45
	.uleb128 0x1
	.byte	0x53
	.byte	0x4
	.uleb128 .LVL74-.LVL45
	.uleb128 .LVL78-.LVL45
	.uleb128 0x1
	.byte	0x58
	.byte	0x4
	.uleb128 .LVL78-.LVL45
	.uleb128 .LVL80-.LVL45
	.uleb128 0xa
	.byte	0xa3
	.uleb128 0x3
	.byte	0xa5
	.uleb128 0x3
	.uleb128 0x26
	.byte	0xa8
	.uleb128 0x2d
	.byte	0xa8
	.uleb128 0
	.byte	0x9f
	.byte	0x4
	.uleb128 .LVL80-.LVL45
	.uleb128 .LFE2076-.LVL45
	.uleb128 0x1
	.byte	0x58
	.byte	0
.LVUS21:
	.uleb128 .LVU115
	.uleb128 .LVU120
	.uleb128 .LVU120
	.uleb128 .LVU170
	.uleb128 .LVU170
	.uleb128 .LVU172
	.uleb128 .LVU181
	.uleb128 0
.LLST21:
	.byte	0x6
	.4byte	.LVL47
	.byte	0x4
	.uleb128 .LVL47-.LVL47
	.uleb128 .LVL50-.LVL47
	.uleb128 0x2
	.byte	0x30
	.byte	0x9f
	.byte	0x4
	.uleb128 .LVL50-.LVL47
	.uleb128 .LVL73-.LVL47
	.uleb128 0x1
	.byte	0x50
	.byte	0x4
	.uleb128 .LVL73-.LVL47
	.uleb128 .LVL74-.LVL47
	.uleb128 0x2
	.byte	0x30
	.byte	0x9f
	.byte	0x4
	.uleb128 .LVL80-.LVL47
	.uleb128 .LFE2076-.LVL47
	.uleb128 0x1
	.byte	0x50
	.byte	0
.LVUS22:
	.uleb128 .LVU133
	.uleb128 .LVU135
	.uleb128 .LVU135
	.uleb128 .LVU138
	.uleb128 .LVU138
	.uleb128 .LVU144
	.uleb128 .LVU144
	.uleb128 .LVU145
	.uleb128 .LVU145
	.uleb128 .LVU148
	.uleb128 .LVU152
	.uleb128 .LVU154
	.uleb128 .LVU154
	.uleb128 .LVU162
	.uleb128 .LVU162
	.uleb128 .LVU163
	.uleb128 .LVU181
	.uleb128 0
.LLST22:
	.byte	0x6
	.4byte	.LVL56
	.byte	0x4
	.uleb128 .LVL56-.LVL56
	.uleb128 .LVL57-.LVL56
	.uleb128 0x1
	.byte	0x52
	.byte	0x4
	.uleb128 .LVL57-.LVL56
	.uleb128 .LVL59-.LVL56
	.uleb128 0x1
	.byte	0x51
	.byte	0x4
	.uleb128 .LVL59-.LVL56
	.uleb128 .LVL61-.LVL56
	.uleb128 0x1
	.byte	0x52
	.byte	0x4
	.uleb128 .LVL61-.LVL56
	.uleb128 .LVL62-.LVL56
	.uleb128 0x3
	.byte	0x72
	.sleb128 -1
	.byte	0x9f
	.byte	0x4
	.uleb128 .LVL62-.LVL56
	.uleb128 .LVL64-.LVL56
	.uleb128 0x1
	.byte	0x52
	.byte	0x4
	.uleb128 .LVL66-.LVL56
	.uleb128 .LVL67-.LVL56
	.uleb128 0x1
	.byte	0x54
	.byte	0x4
	.uleb128 .LVL67-.LVL56
	.uleb128 .LVL71-.LVL56
	.uleb128 0x1
	.byte	0x52
	.byte	0x4
	.uleb128 .LVL71-.LVL56
	.uleb128 .LVL72-.LVL56
	.uleb128 0x3
	.byte	0x72
	.sleb128 -1
	.byte	0x9f
	.byte	0x4
	.uleb128 .LVL80-.LVL56
	.uleb128 .LFE2076-.LVL56
	.uleb128 0x1
	.byte	0x51
	.byte	0
.LVUS23:
	.uleb128 .LVU131
	.uleb128 .LVU140
	.uleb128 .LVU143
	.uleb128 .LVU158
	.uleb128 .LVU158
	.uleb128 .LVU161
	.uleb128 .LVU161
	.uleb128 .LVU163
	.uleb128 .LVU181
	.uleb128 0
.LLST23:
	.byte	0x6
	.4byte	.LVL55
	.byte	0x4
	.uleb128 .LVL55-.LVL55
	.uleb128 .LVL60-.LVL55
	.uleb128 0x1
	.byte	0x53
	.byte	0x4
	.uleb128 .LVL61-.LVL55
	.uleb128 .LVL70-.LVL55
	.uleb128 0x1
	.byte	0x53
	.byte	0x4
	.uleb128 .LVL70-.LVL55
	.uleb128 .LVL71-.LVL55
	.uleb128 0x1
	.byte	0x51
	.byte	0x4
	.uleb128 .LVL71-.LVL55
	.uleb128 .LVL72-.LVL55
	.uleb128 0x1
	.byte	0x53
	.byte	0x4
	.uleb128 .LVL80-.LVL55
	.uleb128 .LFE2076-.LVL55
	.uleb128 0x1
	.byte	0x53
	.byte	0
.LVUS24:
	.uleb128 .LVU140
	.uleb128 .LVU163
.LLST24:
	.byte	0x8
	.4byte	.LVL60
	.uleb128 .LVL72-.LVL60
	.uleb128 0x1
	.byte	0x53
	.byte	0
.LVUS25:
	.uleb128 .LVU112
	.uleb128 .LVU120
	.uleb128 .LVU120
	.uleb128 .LVU170
	.uleb128 .LVU170
	.uleb128 .LVU172
	.uleb128 .LVU181
	.uleb128 0
.LLST25:
	.byte	0x6
	.4byte	.LVL46
	.byte	0x4
	.uleb128 .LVL46-.LVL46
	.uleb128 .LVL50-.LVL46
	.uleb128 0x2
	.byte	0x30
	.byte	0x9f
	.byte	0x4
	.uleb128 .LVL50-.LVL46
	.uleb128 .LVL73-.LVL46
	.uleb128 0x1
	.byte	0x5a
	.byte	0x4
	.uleb128 .LVL73-.LVL46
	.uleb128 .LVL74-.LVL46
	.uleb128 0x2
	.byte	0x30
	.byte	0x9f
	.byte	0x4
	.uleb128 .LVL80-.LVL46
	.uleb128 .LFE2076-.LVL46
	.uleb128 0x1
	.byte	0x5a
	.byte	0
.LVUS26:
	.uleb128 .LVU114
	.uleb128 .LVU120
	.uleb128 .LVU123
	.uleb128 .LVU150
	.uleb128 .LVU150
	.uleb128 .LVU163
	.uleb128 .LVU170
	.uleb128 .LVU180
	.uleb128 .LVU181
	.uleb128 0
.LLST26:
	.byte	0x6
	.4byte	.LVL47
	.byte	0x4
	.uleb128 .LVL47-.LVL47
	.uleb128 .LVL50-.LVL47
	.uleb128 0x1
	.byte	0x57
	.byte	0x4
	.uleb128 .LVL52-.LVL47
	.uleb128 .LVL65-.LVL47
	.uleb128 0x1
	.byte	0x57
	.byte	0x4
	.uleb128 .LVL65-.LVL47
	.uleb128 .LVL72-.LVL47
	.uleb128 0x2
	.byte	0x30
	.byte	0x9f
	.byte	0x4
	.uleb128 .LVL73-.LVL47
	.uleb128 .LVL77-.LVL47
	.uleb128 0x1
	.byte	0x57
	.byte	0x4
	.uleb128 .LVL80-.LVL47
	.uleb128 .LFE2076-.LVL47
	.uleb128 0x1
	.byte	0x57
	.byte	0
.LVUS28:
	.uleb128 .LVU128
	.uleb128 .LVU137
	.uleb128 .LVU137
	.uleb128 .LVU141
	.uleb128 .LVU141
	.uleb128 .LVU142
	.uleb128 .LVU142
	.uleb128 .LVU152
	.uleb128 .LVU153
	.uleb128 .LVU155
	.uleb128 .LVU155
	.uleb128 .LVU156
	.uleb128 .LVU156
	.uleb128 .LVU160
	.uleb128 .LVU160
	.uleb128 .LVU161
	.uleb128 .LVU161
	.uleb128 .LVU163
	.uleb128 .LVU181
	.uleb128 0
.LLST28:
	.byte	0x6
	.4byte	.LVL54
	.byte	0x4
	.uleb128 .LVL54-.LVL54
	.uleb128 .LVL58-.LVL54
	.uleb128 0x3
	.byte	0x76
	.sleb128 8
	.byte	0x9f
	.byte	0x4
	.uleb128 .LVL58-.LVL54
	.uleb128 .LVL60-.LVL54
	.uleb128 0x1
	.byte	0x54
	.byte	0x4
	.uleb128 .LVL60-.LVL54
	.uleb128 .LVL61-.LVL54
	.uleb128 0x3
	.byte	0x74
	.sleb128 4
	.byte	0x9f
	.byte	0x4
	.uleb128 .LVL61-.LVL54
	.uleb128 .LVL66-.LVL54
	.uleb128 0x1
	.byte	0x54
	.byte	0x4
	.uleb128 .LVL66-.LVL54
	.uleb128 .LVL68-.LVL54
	.uleb128 0xa
	.byte	0x71
	.sleb128 0
	.byte	0x32
	.byte	0x24
	.byte	0x76
	.sleb128 0
	.byte	0x22
	.byte	0x23
	.uleb128 0xc
	.byte	0x9f
	.byte	0x4
	.uleb128 .LVL68-.LVL54
	.uleb128 .LVL69-.LVL54
	.uleb128 0x8
	.byte	0x76
	.sleb128 0
	.byte	0x74
	.sleb128 0
	.byte	0x22
	.byte	0x23
	.uleb128 0xc
	.byte	0x9f
	.byte	0x4
	.uleb128 .LVL69-.LVL54
	.uleb128 .LVL71-.LVL54
	.uleb128 0x1
	.byte	0x54
	.byte	0x4
	.uleb128 .LVL71-.LVL54
	.uleb128 .LVL71-.LVL54
	.uleb128 0x3
	.byte	0x74
	.sleb128 -4
	.byte	0x9f
	.byte	0x4
	.uleb128 .LVL71-.LVL54
	.uleb128 .LVL72-.LVL54
	.uleb128 0x1
	.byte	0x54
	.byte	0x4
	.uleb128 .LVL80-.LVL54
	.uleb128 .LFE2076-.LVL54
	.uleb128 0x3
	.byte	0x76
	.sleb128 8
	.byte	0x9f
	.byte	0
.LVUS537:
	.uleb128 0
	.uleb128 .LVU1277
	.uleb128 .LVU1277
	.uleb128 .LVU1278
	.uleb128 .LVU1278
	.uleb128 .LVU1279
	.uleb128 .LVU1279
	.uleb128 .LVU1313
	.uleb128 .LVU1313
	.uleb128 .LVU1316
	.uleb128 .LVU1316
	.uleb128 0
.LLST537:
	.byte	0x6
	.4byte	.LVL441
	.byte	0x4
	.uleb128 .LVL441-.LVL441
	.uleb128 .LVL465-.LVL441
	.uleb128 0x1
	.byte	0x50
	.byte	0x4
	.uleb128 .LVL465-.LVL441
	.uleb128 .LVL466-.LVL441
	.uleb128 0x3
	.byte	0x71
	.sleb128 -20
	.byte	0x9f
	.byte	0x4
	.uleb128 .LVL466-.LVL441
	.uleb128 .LVL467-.LVL441
	.uleb128 0x1
	.byte	0x50
	.byte	0x4
	.uleb128 .LVL467-.LVL441
	.uleb128 .LVL478-1-.LVL441
	.uleb128 0x3
	.byte	0x71
	.sleb128 -20
	.byte	0x9f
	.byte	0x4
	.uleb128 .LVL478-1-.LVL441
	.uleb128 .LVL479-.LVL441
	.uleb128 0xa
	.byte	0xa3
	.uleb128 0x3
	.byte	0xa5
	.uleb128 0
	.uleb128 0x26
	.byte	0xa8
	.uleb128 0x2d
	.byte	0xa8
	.uleb128 0
	.byte	0x9f
	.byte	0x4
	.uleb128 .LVL479-.LVL441
	.uleb128 .LFE2075-.LVL441
	.uleb128 0x1
	.byte	0x50
	.byte	0
.LVUS538:
	.uleb128 0
	.uleb128 .LVU1257
	.uleb128 .LVU1257
	.uleb128 0
.LLST538:
	.byte	0x6
	.4byte	.LVL441
	.byte	0x4
	.uleb128 .LVL441-.LVL441
	.uleb128 .LVL460-.LVL441
	.uleb128 0x1
	.byte	0x51
	.byte	0x4
	.uleb128 .LVL460-.LVL441
	.uleb128 .LFE2075-.LVL441
	.uleb128 0xa
	.byte	0xa3
	.uleb128 0x3
	.byte	0xa5
	.uleb128 0x1
	.uleb128 0x26
	.byte	0xa8
	.uleb128 0x2d
	.byte	0xa8
	.uleb128 0
	.byte	0x9f
	.byte	0
.LVUS539:
	.uleb128 0
	.uleb128 .LVU1219
	.uleb128 .LVU1219
	.uleb128 0
.LLST539:
	.byte	0x6
	.4byte	.LVL441
	.byte	0x4
	.uleb128 .LVL441-.LVL441
	.uleb128 .LVL445-.LVL441
	.uleb128 0x1
	.byte	0x52
	.byte	0x4
	.uleb128 .LVL445-.LVL441
	.uleb128 .LFE2075-.LVL441
	.uleb128 0xa
	.byte	0xa3
	.uleb128 0x3
	.byte	0xa5
	.uleb128 0x2
	.uleb128 0x26
	.byte	0xa8
	.uleb128 0x2d
	.byte	0xa8
	.uleb128 0
	.byte	0x9f
	.byte	0
.LVUS547:
	.uleb128 .LVU1219
	.uleb128 .LVU1262
.LLST547:
	.byte	0x8
	.4byte	.LVL445
	.uleb128 .LVL462-.LVL445
	.uleb128 0x1
	.byte	0x55
	.byte	0
.LVUS549:
	.uleb128 .LVU1225
	.uleb128 .LVU1227
	.uleb128 .LVU1227
	.uleb128 .LVU1232
.LLST549:
	.byte	0x6
	.4byte	.LVL449
	.byte	0x4
	.uleb128 .LVL449-.LVL449
	.uleb128 .LVL449-.LVL449
	.uleb128 0x2
	.byte	0x72
	.sleb128 0
	.byte	0x4
	.uleb128 .LVL449-.LVL449
	.uleb128 .LVL450-.LVL449
	.uleb128 0x1a
	.byte	0x72
	.sleb128 0
	.byte	0x6
	.byte	0x12
	.byte	0xa
	.2byte	0xffff
	.byte	0x16
	.byte	0x14
	.byte	0x2d
	.byte	0x28
	.2byte	0x1
	.byte	0x16
	.byte	0x13
	.byte	0x12
	.byte	0x30
	.byte	0x16
	.byte	0x14
	.byte	0x2b
	.byte	0x28
	.2byte	0x1
	.byte	0x16
	.byte	0x13
	.byte	0x9f
	.byte	0
.LVUS551:
	.uleb128 .LVU1219
	.uleb128 .LVU1225
	.uleb128 .LVU1238
	.uleb128 .LVU1254
.LLST551:
	.byte	0x6
	.4byte	.LVL445
	.byte	0x4
	.uleb128 .LVL445-.LVL445
	.uleb128 .LVL449-.LVL445
	.uleb128 0x3
	.byte	0x70
	.sleb128 20
	.byte	0x9f
	.byte	0x4
	.uleb128 .LVL452-.LVL445
	.uleb128 .LVL459-.LVL445
	.uleb128 0x3
	.byte	0x70
	.sleb128 20
	.byte	0x9f
	.byte	0
.LVUS552:
	.uleb128 .LVU1219
	.uleb128 .LVU1225
	.uleb128 .LVU1238
	.uleb128 .LVU1254
.LLST552:
	.byte	0x6
	.4byte	.LVL445
	.byte	0x4
	.uleb128 .LVL445-.LVL445
	.uleb128 .LVL449-.LVL445
	.uleb128 0x1
	.byte	0x55
	.byte	0x4
	.uleb128 .LVL452-.LVL445
	.uleb128 .LVL459-.LVL445
	.uleb128 0x1
	.byte	0x55
	.byte	0
.LVUS554:
	.uleb128 .LVU1219
	.uleb128 .LVU1225
	.uleb128 .LVU1239
	.uleb128 .LVU1254
.LLST554:
	.byte	0x6
	.4byte	.LVL445
	.byte	0x4
	.uleb128 .LVL445-.LVL445
	.uleb128 .LVL449-.LVL445
	.uleb128 0x3
	.byte	0x70
	.sleb128 28
	.byte	0x9f
	.byte	0x4
	.uleb128 .LVL452-.LVL445
	.uleb128 .LVL459-.LVL445
	.uleb128 0x3
	.byte	0x70
	.sleb128 28
	.byte	0x9f
	.byte	0
.LVUS555:
	.uleb128 .LVU1219
	.uleb128 .LVU1225
	.uleb128 .LVU1239
	.uleb128 .LVU1254
.LLST555:
	.byte	0x6
	.4byte	.LVL445
	.byte	0x4
	.uleb128 .LVL445-.LVL445
	.uleb128 .LVL449-.LVL445
	.uleb128 0x1
	.byte	0x55
	.byte	0x4
	.uleb128 .LVL452-.LVL445
	.uleb128 .LVL459-.LVL445
	.uleb128 0x1
	.byte	0x55
	.byte	0
.LVUS557:
	.uleb128 .LVU1219
	.uleb128 .LVU1225
	.uleb128 .LVU1240
	.uleb128 .LVU1254
.LLST557:
	.byte	0x6
	.4byte	.LVL445
	.byte	0x4
	.uleb128 .LVL445-.LVL445
	.uleb128 .LVL449-.LVL445
	.uleb128 0x3
	.byte	0x70
	.sleb128 28
	.byte	0x9f
	.byte	0x4
	.uleb128 .LVL452-.LVL445
	.uleb128 .LVL459-.LVL445
	.uleb128 0x3
	.byte	0x70
	.sleb128 28
	.byte	0x9f
	.byte	0
.LVUS558:
	.uleb128 .LVU1219
	.uleb128 .LVU1225
	.uleb128 .LVU1240
	.uleb128 .LVU1254
.LLST558:
	.byte	0x6
	.4byte	.LVL445
	.byte	0x4
	.uleb128 .LVL445-.LVL445
	.uleb128 .LVL449-.LVL445
	.uleb128 0x1
	.byte	0x55
	.byte	0x4
	.uleb128 .LVL452-.LVL445
	.uleb128 .LVL459-.LVL445
	.uleb128 0x1
	.byte	0x55
	.byte	0
.LVUS562:
	.uleb128 .LVU1219
	.uleb128 .LVU1225
	.uleb128 .LVU1243
	.uleb128 .LVU1254
.LLST562:
	.byte	0x6
	.4byte	.LVL445
	.byte	0x4
	.uleb128 .LVL445-.LVL445
	.uleb128 .LVL449-.LVL445
	.uleb128 0x1
	.byte	0x55
	.byte	0x4
	.uleb128 .LVL453-.LVL445
	.uleb128 .LVL459-.LVL445
	.uleb128 0x1
	.byte	0x55
	.byte	0
.LVUS563:
	.uleb128 .LVU1219
	.uleb128 .LVU1224
	.uleb128 .LVU1224
	.uleb128 .LVU1225
	.uleb128 .LVU1246
	.uleb128 .LVU1247
	.uleb128 .LVU1247
	.uleb128 .LVU1249
	.uleb128 .LVU1249
	.uleb128 .LVU1250
	.uleb128 .LVU1250
	.uleb128 .LVU1251
	.uleb128 .LVU1251
	.uleb128 .LVU1254
.LLST563:
	.byte	0x6
	.4byte	.LVL445
	.byte	0x4
	.uleb128 .LVL445-.LVL445
	.uleb128 .LVL448-.LVL445
	.uleb128 0x1
	.byte	0x53
	.byte	0x4
	.uleb128 .LVL448-.LVL445
	.uleb128 .LVL449-.LVL445
	.uleb128 0xd
	.byte	0x70
	.sleb128 28
	.byte	0x6
	.byte	0x70
	.sleb128 32
	.byte	0x6
	.byte	0x1c
	.byte	0x32
	.byte	0x26
	.byte	0x75
	.sleb128 0
	.byte	0x22
	.byte	0x9f
	.byte	0x4
	.uleb128 .LVL454-.LVL445
	.uleb128 .LVL455-.LVL445
	.uleb128 0x6
	.byte	0x73
	.sleb128 0
	.byte	0x75
	.sleb128 0
	.byte	0x22
	.byte	0x9f
	.byte	0x4
	.uleb128 .LVL455-.LVL445
	.uleb128 .LVL456-.LVL445
	.uleb128 0x1
	.byte	0x53
	.byte	0x4
	.uleb128 .LVL456-.LVL445
	.uleb128 .LVL457-.LVL445
	.uleb128 0xc
	.byte	0x72
	.sleb128 0
	.byte	0x70
	.sleb128 32
	.byte	0x6
	.byte	0x1c
	.byte	0x32
	.byte	0x26
	.byte	0x75
	.sleb128 0
	.byte	0x22
	.byte	0x9f
	.byte	0x4
	.uleb128 .LVL457-.LVL445
	.uleb128 .LVL458-.LVL445
	.uleb128 0xd
	.byte	0x70
	.sleb128 28
	.byte	0x6
	.byte	0x70
	.sleb128 32
	.byte	0x6
	.byte	0x1c
	.byte	0x32
	.byte	0x26
	.byte	0x75
	.sleb128 0
	.byte	0x22
	.byte	0x9f
	.byte	0x4
	.uleb128 .LVL458-.LVL445
	.uleb128 .LVL459-.LVL445
	.uleb128 0x1
	.byte	0x53
	.byte	0
.LVUS565:
	.uleb128 .LVU1220
	.uleb128 .LVU1223
.LLST565:
	.byte	0x8
	.4byte	.LVL446
	.uleb128 .LVL447-.LVL446
	.uleb128 0x1
	.byte	0x52
	.byte	0
.LVUS567:
	.uleb128 .LVU1220
	.uleb128 .LVU1221
.LLST567:
	.byte	0x8
	.4byte	.LVL446
	.uleb128 .LVL446-.LVL446
	.uleb128 0x9
	.byte	0x72
	.sleb128 0
	.byte	0x32
	.byte	0x24
	.byte	0x70
	.sleb128 40
	.byte	0x6
	.byte	0x22
	.byte	0x9f
	.byte	0
.LVUS569:
	.uleb128 .LVU1241
	.uleb128 .LVU1243
.LLST569:
	.byte	0x8
	.4byte	.LVL452
	.uleb128 .LVL453-.LVL452
	.uleb128 0x3
	.byte	0x70
	.sleb128 28
	.byte	0x9f
	.byte	0
.LVUS541:
	.uleb128 .LVU1200
	.uleb128 .LVU1203
.LLST541:
	.byte	0x8
	.4byte	.LVL442
	.uleb128 .LVL443-.LVL442
	.uleb128 0x3
	.byte	0x70
	.sleb128 20
	.byte	0x9f
	.byte	0
.LVUS543:
	.uleb128 .LVU1201
	.uleb128 .LVU1203
.LLST543:
	.byte	0x8
	.4byte	.LVL442
	.uleb128 .LVL443-.LVL442
	.uleb128 0x3
	.byte	0x70
	.sleb128 44
	.byte	0x9f
	.byte	0
.LVUS544:
	.uleb128 .LVU1201
	.uleb128 .LVU1203
.LLST544:
	.byte	0x8
	.4byte	.LVL442
	.uleb128 .LVL443-.LVL442
	.uleb128 0x3
	.byte	0x70
	.sleb128 28
	.byte	0x9f
	.byte	0
.LVUS546:
	.uleb128 .LVU1203
	.uleb128 .LVU1214
.LLST546:
	.byte	0x8
	.4byte	.LVL443
	.uleb128 .LVL444-.LVL443
	.uleb128 0x6
	.byte	0xa0
	.4byte	.Ldebug_info0+50976
	.sleb128 0
	.byte	0
.LVUS570:
	.uleb128 .LVU1258
	.uleb128 .LVU1262
.LLST570:
	.byte	0x8
	.4byte	.LVL461
	.uleb128 .LVL462-.LVL461
	.uleb128 0x1
	.byte	0x51
	.byte	0
.LVUS572:
	.uleb128 .LVU1259
	.uleb128 .LVU1262
.LLST572:
	.byte	0x8
	.4byte	.LVL461
	.uleb128 .LVL462-.LVL461
	.uleb128 0x3
	.byte	0x71
	.sleb128 8
	.byte	0x9f
	.byte	0
.LVUS575:
	.uleb128 .LVU1264
	.uleb128 .LVU1267
.LLST575:
	.byte	0x8
	.4byte	.LVL462
	.uleb128 .LVL462-.LVL462
	.uleb128 0x1
	.byte	0x51
	.byte	0
.LVUS577:
	.uleb128 .LVU1266
	.uleb128 .LVU1267
.LLST577:
	.byte	0x8
	.4byte	.LVL462
	.uleb128 .LVL462-.LVL462
	.uleb128 0x3
	.byte	0x71
	.sleb128 8
	.byte	0x9f
	.byte	0
.LVUS580:
	.uleb128 .LVU1267
	.uleb128 .LVU1287
	.uleb128 .LVU1316
	.uleb128 0
.LLST580:
	.byte	0x6
	.4byte	.LVL462
	.byte	0x4
	.uleb128 .LVL462-.LVL462
	.uleb128 .LVL472-.LVL462
	.uleb128 0x1
	.byte	0x54
	.byte	0x4
	.uleb128 .LVL479-.LVL462
	.uleb128 .LFE2075-.LVL462
	.uleb128 0x1
	.byte	0x54
	.byte	0
.LVUS586:
	.uleb128 .LVU1270
	.uleb128 .LVU1287
	.uleb128 .LVU1316
	.uleb128 0
.LLST586:
	.byte	0x6
	.4byte	.LVL462
	.byte	0x4
	.uleb128 .LVL462-.LVL462
	.uleb128 .LVL472-.LVL462
	.uleb128 0x1
	.byte	0x54
	.byte	0x4
	.uleb128 .LVL479-.LVL462
	.uleb128 .LFE2075-.LVL462
	.uleb128 0x1
	.byte	0x54
	.byte	0
.LVUS587:
	.uleb128 .LVU1273
	.uleb128 .LVU1274
	.uleb128 .LVU1274
	.uleb128 .LVU1286
	.uleb128 .LVU1286
	.uleb128 .LVU1287
	.uleb128 .LVU1316
	.uleb128 0
.LLST587:
	.byte	0x6
	.4byte	.LVL463
	.byte	0x4
	.uleb128 .LVL463-.LVL463
	.uleb128 .LVL464-.LVL463
	.uleb128 0x6
	.byte	0x73
	.sleb128 0
	.byte	0x74
	.sleb128 0
	.byte	0x22
	.byte	0x9f
	.byte	0x4
	.uleb128 .LVL464-.LVL463
	.uleb128 .LVL471-.LVL463
	.uleb128 0x1
	.byte	0x53
	.byte	0x4
	.uleb128 .LVL471-.LVL463
	.uleb128 .LVL472-.LVL463
	.uleb128 0xc
	.byte	0x76
	.sleb128 0
	.byte	0x71
	.sleb128 12
	.byte	0x6
	.byte	0x1c
	.byte	0x32
	.byte	0x26
	.byte	0x74
	.sleb128 0
	.byte	0x22
	.byte	0x9f
	.byte	0x4
	.uleb128 .LVL479-.LVL463
	.uleb128 .LFE2075-.LVL463
	.uleb128 0x1
	.byte	0x53
	.byte	0
.LVUS589:
	.uleb128 .LVU1280
	.uleb128 .LVU1285
.LLST589:
	.byte	0x8
	.4byte	.LVL468
	.uleb128 .LVL470-.LVL468
	.uleb128 0x1
	.byte	0x52
	.byte	0
.LVUS591:
	.uleb128 .LVU1282
	.uleb128 .LVU1283
.LLST591:
	.byte	0x8
	.4byte	.LVL469
	.uleb128 .LVL469-.LVL469
	.uleb128 0x1
	.byte	0x50
	.byte	0
.LVUS594:
	.uleb128 .LVU1289
	.uleb128 .LVU1313
	.uleb128 .LVU1313
	.uleb128 .LVU1313
.LLST594:
	.byte	0x6
	.4byte	.LVL472
	.byte	0x4
	.uleb128 .LVL472-.LVL472
	.uleb128 .LVL478-1-.LVL472
	.uleb128 0x1
	.byte	0x51
	.byte	0x4
	.uleb128 .LVL478-1-.LVL472
	.uleb128 .LVL478-.LVL472
	.uleb128 0xc
	.byte	0xa3
	.uleb128 0x3
	.byte	0xa5
	.uleb128 0
	.uleb128 0x26
	.byte	0xa8
	.uleb128 0x2d
	.byte	0xa8
	.uleb128 0
	.byte	0x23
	.uleb128 0x14
	.byte	0x9f
	.byte	0
.LVUS596:
	.uleb128 .LVU1292
	.uleb128 .LVU1294
	.uleb128 .LVU1294
	.uleb128 .LVU1301
.LLST596:
	.byte	0x6
	.4byte	.LVL472
	.byte	0x4
	.uleb128 .LVL472-.LVL472
	.uleb128 .LVL473-.LVL472
	.uleb128 0x3
	.byte	0x91
	.sleb128 -48
	.byte	0x9f
	.byte	0x4
	.uleb128 .LVL473-.LVL472
	.uleb128 .LVL475-.LVL472
	.uleb128 0x1
	.byte	0x52
	.byte	0
.LVUS597:
	.uleb128 .LVU1292
	.uleb128 .LVU1298
	.uleb128 .LVU1298
	.uleb128 .LVU1301
.LLST597:
	.byte	0x6
	.4byte	.LVL472
	.byte	0x4
	.uleb128 .LVL472-.LVL472
	.uleb128 .LVL474-.LVL472
	.uleb128 0x1
	.byte	0x56
	.byte	0x4
	.uleb128 .LVL474-.LVL472
	.uleb128 .LVL475-.LVL472
	.uleb128 0x2
	.byte	0x72
	.sleb128 0
	.byte	0
.LVUS598:
	.uleb128 .LVU1292
	.uleb128 .LVU1301
.LLST598:
	.byte	0x8
	.4byte	.LVL472
	.uleb128 .LVL475-.LVL472
	.uleb128 0x1
	.byte	0x55
	.byte	0
.LVUS600:
	.uleb128 .LVU1303
	.uleb128 .LVU1305
	.uleb128 .LVU1305
	.uleb128 .LVU1311
.LLST600:
	.byte	0x6
	.4byte	.LVL475
	.byte	0x4
	.uleb128 .LVL475-.LVL475
	.uleb128 .LVL476-.LVL475
	.uleb128 0x3
	.byte	0x91
	.sleb128 -64
	.byte	0x9f
	.byte	0x4
	.uleb128 .LVL476-.LVL475
	.uleb128 .LVL477-.LVL475
	.uleb128 0x1
	.byte	0x53
	.byte	0
.LVUS601:
	.uleb128 .LVU1303
	.uleb128 .LVU1311
.LLST601:
	.byte	0x8
	.4byte	.LVL475
	.uleb128 .LVL477-.LVL475
	.uleb128 0x1
	.byte	0x57
	.byte	0
.LVUS602:
	.uleb128 .LVU1303
	.uleb128 .LVU1311
.LLST602:
	.byte	0x8
	.4byte	.LVL475
	.uleb128 .LVL477-.LVL475
	.uleb128 0x1
	.byte	0x50
	.byte	0
.LVUS603:
	.uleb128 0
	.uleb128 .LVU1387
	.uleb128 .LVU1387
	.uleb128 .LVU1388
	.uleb128 .LVU1388
	.uleb128 .LVU1389
	.uleb128 .LVU1389
	.uleb128 .LVU1424
	.uleb128 .LVU1424
	.uleb128 .LVU1428
	.uleb128 .LVU1428
	.uleb128 0
.LLST603:
	.byte	0x6
	.4byte	.LVL480
	.byte	0x4
	.uleb128 .LVL480-.LVL480
	.uleb128 .LVL499-.LVL480
	.uleb128 0x1
	.byte	0x50
	.byte	0x4
	.uleb128 .LVL499-.LVL480
	.uleb128 .LVL500-.LVL480
	.uleb128 0x3
	.byte	0x71
	.sleb128 -20
	.byte	0x9f
	.byte	0x4
	.uleb128 .LVL500-.LVL480
	.uleb128 .LVL501-.LVL480
	.uleb128 0x1
	.byte	0x50
	.byte	0x4
	.uleb128 .LVL501-.LVL480
	.uleb128 .LVL513-1-.LVL480
	.uleb128 0x3
	.byte	0x71
	.sleb128 -20
	.byte	0x9f
	.byte	0x4
	.uleb128 .LVL513-1-.LVL480
	.uleb128 .LVL515-.LVL480
	.uleb128 0xa
	.byte	0xa3
	.uleb128 0x3
	.byte	0xa5
	.uleb128 0
	.uleb128 0x26
	.byte	0xa8
	.uleb128 0x2d
	.byte	0xa8
	.uleb128 0
	.byte	0x9f
	.byte	0x4
	.uleb128 .LVL515-.LVL480
	.uleb128 .LFE2074-.LVL480
	.uleb128 0x1
	.byte	0x50
	.byte	0
.LVUS604:
	.uleb128 0
	.uleb128 .LVU1340
	.uleb128 .LVU1340
	.uleb128 .LVU1365
	.uleb128 .LVU1365
	.uleb128 .LVU1390
	.uleb128 .LVU1390
	.uleb128 .LVU1427
	.uleb128 .LVU1427
	.uleb128 .LVU1428
	.uleb128 .LVU1428
	.uleb128 .LVU1429
	.uleb128 .LVU1429
	.uleb128 0
.LLST604:
	.byte	0x6
	.4byte	.LVL480
	.byte	0x4
	.uleb128 .LVL480-.LVL480
	.uleb128 .LVL484-.LVL480
	.uleb128 0x1
	.byte	0x51
	.byte	0x4
	.uleb128 .LVL484-.LVL480
	.uleb128 .LVL494-.LVL480
	.uleb128 0x1
	.byte	0x59
	.byte	0x4
	.uleb128 .LVL494-.LVL480
	.uleb128 .LVL502-.LVL480
	.uleb128 0x1
	.byte	0x52
	.byte	0x4
	.uleb128 .LVL502-.LVL480
	.uleb128 .LVL514-.LVL480
	.uleb128 0x1
	.byte	0x59
	.byte	0x4
	.uleb128 .LVL514-.LVL480
	.uleb128 .LVL515-.LVL480
	.uleb128 0xa
	.byte	0xa3
	.uleb128 0x3
	.byte	0xa5
	.uleb128 0x1
	.uleb128 0x26
	.byte	0xa8
	.uleb128 0x2d
	.byte	0xa8
	.uleb128 0
	.byte	0x9f
	.byte	0x4
	.uleb128 .LVL515-.LVL480
	.uleb128 .LVL516-.LVL480
	.uleb128 0x1
	.byte	0x52
	.byte	0x4
	.uleb128 .LVL516-.LVL480
	.uleb128 .LFE2074-.LVL480
	.uleb128 0x1
	.byte	0x59
	.byte	0
.LVUS605:
	.uleb128 0
	.uleb128 .LVU1340
	.uleb128 .LVU1340
	.uleb128 0
.LLST605:
	.byte	0x6
	.4byte	.LVL480
	.byte	0x4
	.uleb128 .LVL480-.LVL480
	.uleb128 .LVL484-.LVL480
	.uleb128 0x1
	.byte	0x52
	.byte	0x4
	.uleb128 .LVL484-.LVL480
	.uleb128 .LFE2074-.LVL480
	.uleb128 0xa
	.byte	0xa3
	.uleb128 0x3
	.byte	0xa5
	.uleb128 0x2
	.uleb128 0x26
	.byte	0xa8
	.uleb128 0x2d
	.byte	0xa8
	.uleb128 0
	.byte	0x9f
	.byte	0
.LVUS613:
	.uleb128 .LVU1340
	.uleb128 .LVU1372
.LLST613:
	.byte	0x8
	.4byte	.LVL484
	.uleb128 .LVL496-.LVL484
	.uleb128 0x1
	.byte	0x55
	.byte	0
.LVUS615:
	.uleb128 .LVU1340
	.uleb128 .LVU1346
	.uleb128 .LVU1351
	.uleb128 .LVU1365
.LLST615:
	.byte	0x6
	.4byte	.LVL484
	.byte	0x4
	.uleb128 .LVL484-.LVL484
	.uleb128 .LVL488-.LVL484
	.uleb128 0x3
	.byte	0x70
	.sleb128 20
	.byte	0x9f
	.byte	0x4
	.uleb128 .LVL490-.LVL484
	.uleb128 .LVL494-.LVL484
	.uleb128 0x3
	.byte	0x70
	.sleb128 20
	.byte	0x9f
	.byte	0
.LVUS616:
	.uleb128 .LVU1340
	.uleb128 .LVU1346
	.uleb128 .LVU1351
	.uleb128 .LVU1365
.LLST616:
	.byte	0x6
	.4byte	.LVL484
	.byte	0x4
	.uleb128 .LVL484-.LVL484
	.uleb128 .LVL488-.LVL484
	.uleb128 0x1
	.byte	0x55
	.byte	0x4
	.uleb128 .LVL490-.LVL484
	.uleb128 .LVL494-.LVL484
	.uleb128 0x1
	.byte	0x55
	.byte	0
.LVUS618:
	.uleb128 .LVU1340
	.uleb128 .LVU1346
	.uleb128 .LVU1352
	.uleb128 .LVU1365
.LLST618:
	.byte	0x6
	.4byte	.LVL484
	.byte	0x4
	.uleb128 .LVL484-.LVL484
	.uleb128 .LVL488-.LVL484
	.uleb128 0x3
	.byte	0x70
	.sleb128 28
	.byte	0x9f
	.byte	0x4
	.uleb128 .LVL490-.LVL484
	.uleb128 .LVL494-.LVL484
	.uleb128 0x3
	.byte	0x70
	.sleb128 28
	.byte	0x9f
	.byte	0
.LVUS619:
	.uleb128 .LVU1340
	.uleb128 .LVU1346
	.uleb128 .LVU1352
	.uleb128 .LVU1365
.LLST619:
	.byte	0x6
	.4byte	.LVL484
	.byte	0x4
	.uleb128 .LVL484-.LVL484
	.uleb128 .LVL488-.LVL484
	.uleb128 0x1
	.byte	0x55
	.byte	0x4
	.uleb128 .LVL490-.LVL484
	.uleb128 .LVL494-.LVL484
	.uleb128 0x1
	.byte	0x55
	.byte	0
.LVUS621:
	.uleb128 .LVU1340
	.uleb128 .LVU1346
	.uleb128 .LVU1353
	.uleb128 .LVU1365
.LLST621:
	.byte	0x6
	.4byte	.LVL484
	.byte	0x4
	.uleb128 .LVL484-.LVL484
	.uleb128 .LVL488-.LVL484
	.uleb128 0x3
	.byte	0x70
	.sleb128 28
	.byte	0x9f
	.byte	0x4
	.uleb128 .LVL490-.LVL484
	.uleb128 .LVL494-.LVL484
	.uleb128 0x3
	.byte	0x70
	.sleb128 28
	.byte	0x9f
	.byte	0
.LVUS622:
	.uleb128 .LVU1340
	.uleb128 .LVU1346
	.uleb128 .LVU1353
	.uleb128 .LVU1365
.LLST622:
	.byte	0x6
	.4byte	.LVL484
	.byte	0x4
	.uleb128 .LVL484-.LVL484
	.uleb128 .LVL488-.LVL484
	.uleb128 0x1
	.byte	0x55
	.byte	0x4
	.uleb128 .LVL490-.LVL484
	.uleb128 .LVL494-.LVL484
	.uleb128 0x1
	.byte	0x55
	.byte	0
.LVUS626:
	.uleb128 .LVU1340
	.uleb128 .LVU1346
	.uleb128 .LVU1356
	.uleb128 .LVU1365
.LLST626:
	.byte	0x6
	.4byte	.LVL484
	.byte	0x4
	.uleb128 .LVL484-.LVL484
	.uleb128 .LVL488-.LVL484
	.uleb128 0x1
	.byte	0x55
	.byte	0x4
	.uleb128 .LVL491-.LVL484
	.uleb128 .LVL494-.LVL484
	.uleb128 0x1
	.byte	0x55
	.byte	0
.LVUS627:
	.uleb128 .LVU1340
	.uleb128 .LVU1345
	.uleb128 .LVU1345
	.uleb128 .LVU1346
	.uleb128 .LVU1359
	.uleb128 .LVU1360
	.uleb128 .LVU1360
	.uleb128 .LVU1365
.LLST627:
	.byte	0x6
	.4byte	.LVL484
	.byte	0x4
	.uleb128 .LVL484-.LVL484
	.uleb128 .LVL487-.LVL484
	.uleb128 0x1
	.byte	0x53
	.byte	0x4
	.uleb128 .LVL487-.LVL484
	.uleb128 .LVL488-.LVL484
	.uleb128 0xd
	.byte	0x70
	.sleb128 28
	.byte	0x6
	.byte	0x70
	.sleb128 32
	.byte	0x6
	.byte	0x1c
	.byte	0x32
	.byte	0x26
	.byte	0x75
	.sleb128 0
	.byte	0x22
	.byte	0x9f
	.byte	0x4
	.uleb128 .LVL492-.LVL484
	.uleb128 .LVL493-.LVL484
	.uleb128 0x6
	.byte	0x73
	.sleb128 0
	.byte	0x75
	.sleb128 0
	.byte	0x22
	.byte	0x9f
	.byte	0x4
	.uleb128 .LVL493-.LVL484
	.uleb128 .LVL494-.LVL484
	.uleb128 0x1
	.byte	0x53
	.byte	0
.LVUS629:
	.uleb128 .LVU1341
	.uleb128 .LVU1344
.LLST629:
	.byte	0x8
	.4byte	.LVL485
	.uleb128 .LVL486-.LVL485
	.uleb128 0x1
	.byte	0x52
	.byte	0
.LVUS631:
	.uleb128 .LVU1341
	.uleb128 .LVU1342
.LLST631:
	.byte	0x8
	.4byte	.LVL485
	.uleb128 .LVL485-.LVL485
	.uleb128 0x9
	.byte	0x72
	.sleb128 0
	.byte	0x32
	.byte	0x24
	.byte	0x70
	.sleb128 40
	.byte	0x6
	.byte	0x22
	.byte	0x9f
	.byte	0
.LVUS633:
	.uleb128 .LVU1354
	.uleb128 .LVU1356
.LLST633:
	.byte	0x8
	.4byte	.LVL490
	.uleb128 .LVL491-.LVL490
	.uleb128 0x3
	.byte	0x70
	.sleb128 28
	.byte	0x9f
	.byte	0
.LVUS607:
	.uleb128 .LVU1322
	.uleb128 .LVU1325
.LLST607:
	.byte	0x8
	.4byte	.LVL481
	.uleb128 .LVL482-.LVL481
	.uleb128 0x3
	.byte	0x70
	.sleb128 20
	.byte	0x9f
	.byte	0
.LVUS609:
	.uleb128 .LVU1323
	.uleb128 .LVU1325
.LLST609:
	.byte	0x8
	.4byte	.LVL481
	.uleb128 .LVL482-.LVL481
	.uleb128 0x3
	.byte	0x70
	.sleb128 44
	.byte	0x9f
	.byte	0
.LVUS610:
	.uleb128 .LVU1323
	.uleb128 .LVU1325
.LLST610:
	.byte	0x8
	.4byte	.LVL481
	.uleb128 .LVL482-.LVL481
	.uleb128 0x3
	.byte	0x70
	.sleb128 28
	.byte	0x9f
	.byte	0
.LVUS612:
	.uleb128 .LVU1325
	.uleb128 .LVU1336
.LLST612:
	.byte	0x8
	.4byte	.LVL482
	.uleb128 .LVL483-.LVL482
	.uleb128 0x6
	.byte	0xa0
	.4byte	.Ldebug_info0+52321
	.sleb128 0
	.byte	0
.LVUS634:
	.uleb128 .LVU1368
	.uleb128 .LVU1372
.LLST634:
	.byte	0x8
	.4byte	.LVL495
	.uleb128 .LVL496-.LVL495
	.uleb128 0x1
	.byte	0x51
	.byte	0
.LVUS636:
	.uleb128 .LVU1369
	.uleb128 .LVU1372
.LLST636:
	.byte	0x8
	.4byte	.LVL495
	.uleb128 .LVL496-.LVL495
	.uleb128 0x3
	.byte	0x71
	.sleb128 8
	.byte	0x9f
	.byte	0
.LVUS639:
	.uleb128 .LVU1374
	.uleb128 .LVU1377
.LLST639:
	.byte	0x8
	.4byte	.LVL496
	.uleb128 .LVL496-.LVL496
	.uleb128 0x1
	.byte	0x51
	.byte	0
.LVUS641:
	.uleb128 .LVU1376
	.uleb128 .LVU1377
.LLST641:
	.byte	0x8
	.4byte	.LVL496
	.uleb128 .LVL496-.LVL496
	.uleb128 0x3
	.byte	0x71
	.sleb128 8
	.byte	0x9f
	.byte	0
.LVUS644:
	.uleb128 .LVU1377
	.uleb128 .LVU1398
	.uleb128 .LVU1428
	.uleb128 0
.LLST644:
	.byte	0x6
	.4byte	.LVL496
	.byte	0x4
	.uleb128 .LVL496-.LVL496
	.uleb128 .LVL507-.LVL496
	.uleb128 0x1
	.byte	0x54
	.byte	0x4
	.uleb128 .LVL515-.LVL496
	.uleb128 .LFE2074-.LVL496
	.uleb128 0x1
	.byte	0x54
	.byte	0
.LVUS650:
	.uleb128 .LVU1380
	.uleb128 .LVU1398
	.uleb128 .LVU1428
	.uleb128 0
.LLST650:
	.byte	0x6
	.4byte	.LVL496
	.byte	0x4
	.uleb128 .LVL496-.LVL496
	.uleb128 .LVL507-.LVL496
	.uleb128 0x1
	.byte	0x54
	.byte	0x4
	.uleb128 .LVL515-.LVL496
	.uleb128 .LFE2074-.LVL496
	.uleb128 0x1
	.byte	0x54
	.byte	0
.LVUS651:
	.uleb128 .LVU1383
	.uleb128 .LVU1384
	.uleb128 .LVU1384
	.uleb128 .LVU1397
	.uleb128 .LVU1397
	.uleb128 .LVU1398
	.uleb128 .LVU1428
	.uleb128 0
.LLST651:
	.byte	0x6
	.4byte	.LVL497
	.byte	0x4
	.uleb128 .LVL497-.LVL497
	.uleb128 .LVL498-.LVL497
	.uleb128 0x6
	.byte	0x73
	.sleb128 0
	.byte	0x74
	.sleb128 0
	.byte	0x22
	.byte	0x9f
	.byte	0x4
	.uleb128 .LVL498-.LVL497
	.uleb128 .LVL506-.LVL497
	.uleb128 0x1
	.byte	0x53
	.byte	0x4
	.uleb128 .LVL506-.LVL497
	.uleb128 .LVL507-.LVL497
	.uleb128 0xc
	.byte	0x76
	.sleb128 0
	.byte	0x71
	.sleb128 12
	.byte	0x6
	.byte	0x1c
	.byte	0x32
	.byte	0x26
	.byte	0x74
	.sleb128 0
	.byte	0x22
	.byte	0x9f
	.byte	0x4
	.uleb128 .LVL515-.LVL497
	.uleb128 .LFE2074-.LVL497
	.uleb128 0x1
	.byte	0x53
	.byte	0
.LVUS653:
	.uleb128 .LVU1391
	.uleb128 .LVU1396
.LLST653:
	.byte	0x8
	.4byte	.LVL503
	.uleb128 .LVL505-.LVL503
	.uleb128 0x1
	.byte	0x52
	.byte	0
.LVUS655:
	.uleb128 .LVU1393
	.uleb128 .LVU1394
.LLST655:
	.byte	0x8
	.4byte	.LVL504
	.uleb128 .LVL504-.LVL504
	.uleb128 0x1
	.byte	0x50
	.byte	0
.LVUS658:
	.uleb128 .LVU1400
	.uleb128 .LVU1424
	.uleb128 .LVU1424
	.uleb128 .LVU1424
.LLST658:
	.byte	0x6
	.4byte	.LVL507
	.byte	0x4
	.uleb128 .LVL507-.LVL507
	.uleb128 .LVL513-1-.LVL507
	.uleb128 0x1
	.byte	0x51
	.byte	0x4
	.uleb128 .LVL513-1-.LVL507
	.uleb128 .LVL513-.LVL507
	.uleb128 0xc
	.byte	0xa3
	.uleb128 0x3
	.byte	0xa5
	.uleb128 0
	.uleb128 0x26
	.byte	0xa8
	.uleb128 0x2d
	.byte	0xa8
	.uleb128 0
	.byte	0x23
	.uleb128 0x14
	.byte	0x9f
	.byte	0
.LVUS660:
	.uleb128 .LVU1403
	.uleb128 .LVU1405
	.uleb128 .LVU1405
	.uleb128 .LVU1412
.LLST660:
	.byte	0x6
	.4byte	.LVL507
	.byte	0x4
	.uleb128 .LVL507-.LVL507
	.uleb128 .LVL508-.LVL507
	.uleb128 0x3
	.byte	0x91
	.sleb128 -48
	.byte	0x9f
	.byte	0x4
	.uleb128 .LVL508-.LVL507
	.uleb128 .LVL510-.LVL507
	.uleb128 0x1
	.byte	0x52
	.byte	0
.LVUS661:
	.uleb128 .LVU1403
	.uleb128 .LVU1409
	.uleb128 .LVU1409
	.uleb128 .LVU1412
.LLST661:
	.byte	0x6
	.4byte	.LVL507
	.byte	0x4
	.uleb128 .LVL507-.LVL507
	.uleb128 .LVL509-.LVL507
	.uleb128 0x1
	.byte	0x56
	.byte	0x4
	.uleb128 .LVL509-.LVL507
	.uleb128 .LVL510-.LVL507
	.uleb128 0x2
	.byte	0x72
	.sleb128 0
	.byte	0
.LVUS662:
	.uleb128 .LVU1403
	.uleb128 .LVU1412
.LLST662:
	.byte	0x8
	.4byte	.LVL507
	.uleb128 .LVL510-.LVL507
	.uleb128 0x1
	.byte	0x55
	.byte	0
.LVUS664:
	.uleb128 .LVU1414
	.uleb128 .LVU1416
	.uleb128 .LVU1416
	.uleb128 .LVU1422
.LLST664:
	.byte	0x6
	.4byte	.LVL510
	.byte	0x4
	.uleb128 .LVL510-.LVL510
	.uleb128 .LVL511-.LVL510
	.uleb128 0x3
	.byte	0x91
	.sleb128 -64
	.byte	0x9f
	.byte	0x4
	.uleb128 .LVL511-.LVL510
	.uleb128 .LVL512-.LVL510
	.uleb128 0x1
	.byte	0x53
	.byte	0
.LVUS665:
	.uleb128 .LVU1414
	.uleb128 .LVU1422
.LLST665:
	.byte	0x8
	.4byte	.LVL510
	.uleb128 .LVL512-.LVL510
	.uleb128 0x1
	.byte	0x57
	.byte	0
.LVUS666:
	.uleb128 .LVU1414
	.uleb128 .LVU1422
.LLST666:
	.byte	0x8
	.4byte	.LVL510
	.uleb128 .LVL512-.LVL510
	.uleb128 0x1
	.byte	0x50
	.byte	0
.LVUS0:
	.uleb128 0
	.uleb128 .LVU6
	.uleb128 .LVU6
	.uleb128 .LVU58
	.uleb128 .LVU58
	.uleb128 .LVU59
	.uleb128 .LVU59
	.uleb128 0
.LLST0:
	.byte	0x6
	.4byte	.LVL0
	.byte	0x4
	.uleb128 .LVL0-.LVL0
	.uleb128 .LVL2-.LVL0
	.uleb128 0x1
	.byte	0x50
	.byte	0x4
	.uleb128 .LVL2-.LVL0
	.uleb128 .LVL24-.LVL0
	.uleb128 0x1
	.byte	0x56
	.byte	0x4
	.uleb128 .LVL24-.LVL0
	.uleb128 .LVL26-.LVL0
	.uleb128 0xa
	.byte	0xa3
	.uleb128 0x3
	.byte	0xa5
	.uleb128 0
	.uleb128 0x26
	.byte	0xa8
	.uleb128 0x2d
	.byte	0xa8
	.uleb128 0
	.byte	0x9f
	.byte	0x4
	.uleb128 .LVL26-.LVL0
	.uleb128 .LFE2073-.LVL0
	.uleb128 0x1
	.byte	0x56
	.byte	0
.LVUS1:
	.uleb128 .LVU6
	.uleb128 .LVU17
	.uleb128 .LVU17
	.uleb128 .LVU20
	.uleb128 .LVU20
	.uleb128 .LVU44
	.uleb128 .LVU44
	.uleb128 .LVU46
	.uleb128 .LVU46
	.uleb128 .LVU58
	.uleb128 .LVU58
	.uleb128 .LVU58
	.uleb128 .LVU58
	.uleb128 .LVU59
	.uleb128 .LVU59
	.uleb128 0
.LLST1:
	.byte	0x6
	.4byte	.LVL2
	.byte	0x4
	.uleb128 .LVL2-.LVL2
	.uleb128 .LVL5-.LVL2
	.uleb128 0x1
	.byte	0x50
	.byte	0x4
	.uleb128 .LVL5-.LVL2
	.uleb128 .LVL6-.LVL2
	.uleb128 0x5
	.byte	0x71
	.sleb128 0
	.byte	0x32
	.byte	0x26
	.byte	0x9f
	.byte	0x4
	.uleb128 .LVL6-.LVL2
	.uleb128 .LVL17-.LVL2
	.uleb128 0x9
	.byte	0x76
	.sleb128 12
	.byte	0x6
	.byte	0x77
	.sleb128 0
	.byte	0x1c
	.byte	0x32
	.byte	0x26
	.byte	0x9f
	.byte	0x4
	.uleb128 .LVL17-.LVL2
	.uleb128 .LVL18-.LVL2
	.uleb128 0x5
	.byte	0x71
	.sleb128 0
	.byte	0x32
	.byte	0x26
	.byte	0x9f
	.byte	0x4
	.uleb128 .LVL18-.LVL2
	.uleb128 .LVL24-.LVL2
	.uleb128 0x9
	.byte	0x76
	.sleb128 12
	.byte	0x6
	.byte	0x77
	.sleb128 0
	.byte	0x1c
	.byte	0x32
	.byte	0x26
	.byte	0x9f
	.byte	0x4
	.uleb128 .LVL24-.LVL2
	.uleb128 .LVL25-.LVL2
	.uleb128 0x12
	.byte	0xa3
	.uleb128 0x3
	.byte	0xa5
	.uleb128 0
	.uleb128 0x26
	.byte	0xa8
	.uleb128 0x2d
	.byte	0xa8
	.uleb128 0
	.byte	0x23
	.uleb128 0xc
	.byte	0x6
	.byte	0x77
	.sleb128 0
	.byte	0x1c
	.byte	0x32
	.byte	0x26
	.byte	0x9f
	.byte	0x4
	.uleb128 .LVL25-.LVL2
	.uleb128 .LVL26-.LVL2
	.uleb128 0x1c
	.byte	0xa3
	.uleb128 0x3
	.byte	0xa5
	.uleb128 0
	.uleb128 0x26
	.byte	0xa8
	.uleb128 0x2d
	.byte	0xa8
	.uleb128 0
	.byte	0x23
	.uleb128 0xc
	.byte	0x6
	.byte	0xa3
	.uleb128 0x3
	.byte	0xa5
	.uleb128 0
	.uleb128 0x26
	.byte	0xa8
	.uleb128 0x2d
	.byte	0xa8
	.uleb128 0
	.byte	0x23
	.uleb128 0x8
	.byte	0x6
	.byte	0x1c
	.byte	0x32
	.byte	0x26
	.byte	0x9f
	.byte	0x4
	.uleb128 .LVL26-.LVL2
	.uleb128 .LFE2073-.LVL2
	.uleb128 0x9
	.byte	0x76
	.sleb128 12
	.byte	0x6
	.byte	0x77
	.sleb128 0
	.byte	0x1c
	.byte	0x32
	.byte	0x26
	.byte	0x9f
	.byte	0
.LVUS2:
	.uleb128 .LVU8
	.uleb128 .LVU58
	.uleb128 .LVU58
	.uleb128 .LVU59
	.uleb128 .LVU59
	.uleb128 0
.LLST2:
	.byte	0x6
	.4byte	.LVL2
	.byte	0x4
	.uleb128 .LVL2-.LVL2
	.uleb128 .LVL25-.LVL2
	.uleb128 0x1
	.byte	0x57
	.byte	0x4
	.uleb128 .LVL25-.LVL2
	.uleb128 .LVL26-.LVL2
	.uleb128 0xb
	.byte	0xa3
	.uleb128 0x3
	.byte	0xa5
	.uleb128 0
	.uleb128 0x26
	.byte	0xa8
	.uleb128 0x2d
	.byte	0xa8
	.uleb128 0
	.byte	0x23
	.uleb128 0x8
	.byte	0x4
	.uleb128 .LVL26-.LVL2
	.uleb128 .LFE2073-.LVL2
	.uleb128 0x1
	.byte	0x57
	.byte	0
.LVUS3:
	.uleb128 .LVU9
	.uleb128 .LVU22
	.uleb128 .LVU22
	.uleb128 .LVU44
	.uleb128 .LVU44
	.uleb128 .LVU46
	.uleb128 .LVU48
	.uleb128 .LVU51
	.uleb128 .LVU51
	.uleb128 .LVU52
	.uleb128 .LVU52
	.uleb128 .LVU53
.LLST3:
	.byte	0x6
	.4byte	.LVL2
	.byte	0x4
	.uleb128 .LVL2-.LVL2
	.uleb128 .LVL7-.LVL2
	.uleb128 0x2
	.byte	0x30
	.byte	0x9f
	.byte	0x4
	.uleb128 .LVL7-.LVL2
	.uleb128 .LVL17-.LVL2
	.uleb128 0x1
	.byte	0x50
	.byte	0x4
	.uleb128 .LVL17-.LVL2
	.uleb128 .LVL18-.LVL2
	.uleb128 0x2
	.byte	0x30
	.byte	0x9f
	.byte	0x4
	.uleb128 .LVL19-.LVL2
	.uleb128 .LVL21-.LVL2
	.uleb128 0x1a
	.byte	0x73
	.sleb128 32
	.byte	0x31
	.byte	0x24
	.byte	0x76
	.sleb128 0
	.byte	0x22
	.byte	0x94
	.byte	0x2
	.byte	0xa
	.2byte	0xffff
	.byte	0x1a
	.byte	0x7c
	.sleb128 0
	.byte	0x32
	.byte	0x24
	.byte	0x77
	.sleb128 0
	.byte	0x22
	.byte	0x6
	.byte	0x1e
	.byte	0x70
	.sleb128 0
	.byte	0x22
	.byte	0x9f
	.byte	0x4
	.uleb128 .LVL21-.LVL2
	.uleb128 .LVL22-.LVL2
	.uleb128 0x18
	.byte	0x73
	.sleb128 32
	.byte	0x31
	.byte	0x24
	.byte	0x76
	.sleb128 0
	.byte	0x22
	.byte	0x94
	.byte	0x2
	.byte	0xa
	.2byte	0xffff
	.byte	0x1a
	.byte	0x77
	.sleb128 0
	.byte	0x72
	.sleb128 0
	.byte	0x22
	.byte	0x6
	.byte	0x1e
	.byte	0x70
	.sleb128 0
	.byte	0x22
	.byte	0x9f
	.byte	0x4
	.uleb128 .LVL22-.LVL2
	.uleb128 .LVL23-.LVL2
	.uleb128 0x18
	.byte	0x73
	.sleb128 0
	.byte	0x31
	.byte	0x24
	.byte	0x76
	.sleb128 0
	.byte	0x22
	.byte	0x94
	.byte	0x2
	.byte	0xa
	.2byte	0xffff
	.byte	0x1a
	.byte	0x77
	.sleb128 0
	.byte	0x72
	.sleb128 0
	.byte	0x22
	.byte	0x6
	.byte	0x1e
	.byte	0x70
	.sleb128 0
	.byte	0x22
	.byte	0x9f
	.byte	0
.LVUS4:
	.uleb128 .LVU12
	.uleb128 .LVU24
	.uleb128 .LVU24
	.uleb128 .LVU25
	.uleb128 .LVU25
	.uleb128 .LVU52
	.uleb128 .LVU52
	.uleb128 .LVU53
	.uleb128 .LVU59
	.uleb128 .LVU61
	.uleb128 .LVU61
	.uleb128 0
.LLST4:
	.byte	0x6
	.4byte	.LVL3
	.byte	0x4
	.uleb128 .LVL3-.LVL3
	.uleb128 .LVL8-.LVL3
	.uleb128 0x1
	.byte	0x53
	.byte	0x4
	.uleb128 .LVL8-.LVL3
	.uleb128 .LVL9-.LVL3
	.uleb128 0x4
	.byte	0x73
	.sleb128 -128
	.byte	0x9f
	.byte	0x4
	.uleb128 .LVL9-.LVL3
	.uleb128 .LVL22-.LVL3
	.uleb128 0x1
	.byte	0x53
	.byte	0x4
	.uleb128 .LVL22-.LVL3
	.uleb128 .LVL23-.LVL3
	.uleb128 0x3
	.byte	0x73
	.sleb128 -32
	.byte	0x9f
	.byte	0x4
	.uleb128 .LVL26-.LVL3
	.uleb128 .LVL27-.LVL3
	.uleb128 0x1
	.byte	0x53
	.byte	0x4
	.uleb128 .LVL27-.LVL3
	.uleb128 .LFE2073-.LVL3
	.uleb128 0x4
	.byte	0x73
	.sleb128 -128
	.byte	0x9f
	.byte	0
.LVUS5:
	.uleb128 .LVU14
	.uleb128 .LVU50
	.uleb128 .LVU59
	.uleb128 0
.LLST5:
	.byte	0x6
	.4byte	.LVL4
	.byte	0x4
	.uleb128 .LVL4-.LVL4
	.uleb128 .LVL20-.LVL4
	.uleb128 0x1
	.byte	0x52
	.byte	0x4
	.uleb128 .LVL26-.LVL4
	.uleb128 .LFE2073-.LVL4
	.uleb128 0x1
	.byte	0x52
	.byte	0
.LVUS8:
	.uleb128 .LVU15
	.uleb128 .LVU22
	.uleb128 .LVU22
	.uleb128 .LVU44
	.uleb128 .LVU44
	.uleb128 .LVU46
.LLST8:
	.byte	0x6
	.4byte	.LVL4
	.byte	0x4
	.uleb128 .LVL4-.LVL4
	.uleb128 .LVL7-.LVL4
	.uleb128 0x2
	.byte	0x30
	.byte	0x9f
	.byte	0x4
	.uleb128 .LVL7-.LVL4
	.uleb128 .LVL17-.LVL4
	.uleb128 0x1
	.byte	0x51
	.byte	0x4
	.uleb128 .LVL17-.LVL4
	.uleb128 .LVL18-.LVL4
	.uleb128 0x2
	.byte	0x30
	.byte	0x9f
	.byte	0
.LVUS6:
	.uleb128 .LVU3
	.uleb128 .LVU6
.LLST6:
	.byte	0x8
	.4byte	.LVL1
	.uleb128 .LVL2-.LVL1
	.uleb128 0x3
	.byte	0x70
	.sleb128 8
	.byte	0x9f
	.byte	0
.LVUS9:
	.uleb128 0
	.uleb128 .LVU69
	.uleb128 .LVU69
	.uleb128 .LVU70
	.uleb128 .LVU70
	.uleb128 .LVU105
	.uleb128 .LVU105
	.uleb128 0
.LLST9:
	.byte	0x6
	.4byte	.LVL28
	.byte	0x4
	.uleb128 .LVL28-.LVL28
	.uleb128 .LVL29-1-.LVL28
	.uleb128 0x1
	.byte	0x50
	.byte	0x4
	.uleb128 .LVL29-1-.LVL28
	.uleb128 .LVL30-.LVL28
	.uleb128 0xa
	.byte	0xa3
	.uleb128 0x3
	.byte	0xa5
	.uleb128 0
	.uleb128 0x26
	.byte	0xa8
	.uleb128 0x2d
	.byte	0xa8
	.uleb128 0
	.byte	0x9f
	.byte	0x4
	.uleb128 .LVL30-.LVL28
	.uleb128 .LVL43-.LVL28
	.uleb128 0x1
	.byte	0x50
	.byte	0x4
	.uleb128 .LVL43-.LVL28
	.uleb128 .LFE2072-.LVL28
	.uleb128 0xa
	.byte	0xa3
	.uleb128 0x3
	.byte	0xa5
	.uleb128 0
	.uleb128 0x26
	.byte	0xa8
	.uleb128 0x2d
	.byte	0xa8
	.uleb128 0
	.byte	0x9f
	.byte	0
.LVUS10:
	.uleb128 .LVU75
	.uleb128 .LVU80
	.uleb128 .LVU80
	.uleb128 .LVU106
.LLST10:
	.byte	0x6
	.4byte	.LVL31
	.byte	0x4
	.uleb128 .LVL31-.LVL31
	.uleb128 .LVL32-.LVL31
	.uleb128 0x1
	.byte	0x53
	.byte	0x4
	.uleb128 .LVL32-.LVL31
	.uleb128 .LVL44-.LVL31
	.uleb128 0x1
	.byte	0x5c
	.byte	0
.LVUS11:
	.uleb128 .LVU77
	.uleb128 .LVU106
.LLST11:
	.byte	0x8
	.4byte	.LVL31
	.uleb128 .LVL44-.LVL31
	.uleb128 0x1
	.byte	0x57
	.byte	0
.LVUS12:
	.uleb128 .LVU78
	.uleb128 .LVU86
	.uleb128 .LVU86
	.uleb128 .LVU100
	.uleb128 .LVU100
	.uleb128 .LVU102
.LLST12:
	.byte	0x6
	.4byte	.LVL31
	.byte	0x4
	.uleb128 .LVL31-.LVL31
	.uleb128 .LVL34-.LVL31
	.uleb128 0x2
	.byte	0x30
	.byte	0x9f
	.byte	0x4
	.uleb128 .LVL34-.LVL31
	.uleb128 .LVL40-.LVL31
	.uleb128 0x1
	.byte	0x54
	.byte	0x4
	.uleb128 .LVL40-.LVL31
	.uleb128 .LVL41-.LVL31
	.uleb128 0x2
	.byte	0x30
	.byte	0x9f
	.byte	0
.LVUS13:
	.uleb128 .LVU82
	.uleb128 .LVU104
.LLST13:
	.byte	0x8
	.4byte	.LVL33
	.uleb128 .LVL42-.LVL33
	.uleb128 0x1
	.byte	0x53
	.byte	0
.LVUS16:
	.uleb128 .LVU83
	.uleb128 .LVU86
	.uleb128 .LVU86
	.uleb128 .LVU100
	.uleb128 .LVU100
	.uleb128 .LVU102
.LLST16:
	.byte	0x6
	.4byte	.LVL33
	.byte	0x4
	.uleb128 .LVL33-.LVL33
	.uleb128 .LVL34-.LVL33
	.uleb128 0x2
	.byte	0x30
	.byte	0x9f
	.byte	0x4
	.uleb128 .LVL34-.LVL33
	.uleb128 .LVL40-.LVL33
	.uleb128 0x1
	.byte	0x52
	.byte	0x4
	.uleb128 .LVL40-.LVL33
	.uleb128 .LVL41-.LVL33
	.uleb128 0x2
	.byte	0x30
	.byte	0x9f
	.byte	0
.LVUS14:
	.uleb128 .LVU71
	.uleb128 .LVU75
.LLST14:
	.byte	0x8
	.4byte	.LVL30
	.uleb128 .LVL31-.LVL30
	.uleb128 0x3
	.byte	0x70
	.sleb128 8
	.byte	0x9f
	.byte	0
.LVUS250:
	.uleb128 0
	.uleb128 .LVU556
	.uleb128 .LVU556
	.uleb128 .LVU617
	.uleb128 .LVU617
	.uleb128 0
.LLST250:
	.byte	0x6
	.4byte	.LVL219
	.byte	0x4
	.uleb128 .LVL219-.LVL219
	.uleb128 .LVL223-.LVL219
	.uleb128 0x1
	.byte	0x50
	.byte	0x4
	.uleb128 .LVL223-.LVL219
	.uleb128 .LVL247-.LVL219
	.uleb128 0x1
	.byte	0x54
	.byte	0x4
	.uleb128 .LVL247-.LVL219
	.uleb128 .LFE2071-.LVL219
	.uleb128 0xa
	.byte	0xa3
	.uleb128 0x3
	.byte	0xa5
	.uleb128 0
	.uleb128 0x26
	.byte	0xa8
	.uleb128 0x2d
	.byte	0xa8
	.uleb128 0
	.byte	0x9f
	.byte	0
.LVUS251:
	.uleb128 0
	.uleb128 .LVU556
	.uleb128 .LVU556
	.uleb128 .LVU617
	.uleb128 .LVU617
	.uleb128 0
.LLST251:
	.byte	0x6
	.4byte	.LVL219
	.byte	0x4
	.uleb128 .LVL219-.LVL219
	.uleb128 .LVL223-.LVL219
	.uleb128 0x2
	.byte	0x71
	.sleb128 0
	.byte	0x4
	.uleb128 .LVL223-.LVL219
	.uleb128 .LVL249-.LVL219
	.uleb128 0x2
	.byte	0x78
	.sleb128 0
	.byte	0x4
	.uleb128 .LVL249-.LVL219
	.uleb128 .LFE2071-.LVL219
	.uleb128 0x9
	.byte	0xa3
	.uleb128 0x3
	.byte	0xa5
	.uleb128 0x1
	.uleb128 0x26
	.byte	0xa8
	.uleb128 0x2d
	.byte	0xa8
	.uleb128 0
	.byte	0
.LVUS252:
	.uleb128 0
	.uleb128 .LVU556
	.uleb128 .LVU556
	.uleb128 0
.LLST252:
	.byte	0x6
	.4byte	.LVL219
	.byte	0x4
	.uleb128 .LVL219-.LVL219
	.uleb128 .LVL223-.LVL219
	.uleb128 0x1
	.byte	0x52
	.byte	0x4
	.uleb128 .LVL223-.LVL219
	.uleb128 .LFE2071-.LVL219
	.uleb128 0xa
	.byte	0xa3
	.uleb128 0x3
	.byte	0xa5
	.uleb128 0x2
	.uleb128 0x26
	.byte	0xa8
	.uleb128 0x2d
	.byte	0xa8
	.uleb128 0
	.byte	0x9f
	.byte	0
.LVUS253:
	.uleb128 .LVU547
	.uleb128 .LVU556
	.uleb128 .LVU556
	.uleb128 .LVU590
	.uleb128 .LVU599
	.uleb128 .LVU605
	.uleb128 .LVU605
	.uleb128 .LVU611
	.uleb128 .LVU611
	.uleb128 .LVU613
	.uleb128 .LVU613
	.uleb128 .LVU614
.LLST253:
	.byte	0x6
	.4byte	.LVL220
	.byte	0x4
	.uleb128 .LVL220-.LVL220
	.uleb128 .LVL223-.LVL220
	.uleb128 0x2
	.byte	0x30
	.byte	0x9f
	.byte	0x4
	.uleb128 .LVL223-.LVL220
	.uleb128 .LVL236-.LVL220
	.uleb128 0x1
	.byte	0x55
	.byte	0x4
	.uleb128 .LVL237-.LVL220
	.uleb128 .LVL240-.LVL220
	.uleb128 0x2
	.byte	0x30
	.byte	0x9f
	.byte	0x4
	.uleb128 .LVL240-.LVL220
	.uleb128 .LVL242-.LVL220
	.uleb128 0x1
	.byte	0x53
	.byte	0x4
	.uleb128 .LVL242-.LVL220
	.uleb128 .LVL244-.LVL220
	.uleb128 0x2
	.byte	0x30
	.byte	0x9f
	.byte	0x4
	.uleb128 .LVL244-.LVL220
	.uleb128 .LVL245-.LVL220
	.uleb128 0x1
	.byte	0x53
	.byte	0
.LVUS254:
	.uleb128 .LVU546
	.uleb128 .LVU552
	.uleb128 .LVU552
	.uleb128 .LVU617
	.uleb128 .LVU617
	.uleb128 0
.LLST254:
	.byte	0x6
	.4byte	.LVL220
	.byte	0x4
	.uleb128 .LVL220-.LVL220
	.uleb128 .LVL222-.LVL220
	.uleb128 0x1
	.byte	0x53
	.byte	0x4
	.uleb128 .LVL222-.LVL220
	.uleb128 .LVL250-.LVL220
	.uleb128 0x1
	.byte	0x59
	.byte	0x4
	.uleb128 .LVL250-.LVL220
	.uleb128 .LFE2071-.LVL220
	.uleb128 0xc
	.byte	0x31
	.byte	0xa3
	.uleb128 0x3
	.byte	0xa5
	.uleb128 0x2
	.uleb128 0x26
	.byte	0xa8
	.uleb128 0x2d
	.byte	0xa8
	.uleb128 0
	.byte	0x24
	.byte	0x9f
	.byte	0
.LVUS255:
	.uleb128 .LVU595
	.uleb128 .LVU603
	.uleb128 .LVU603
	.uleb128 .LVU604
	.uleb128 .LVU604
	.uleb128 .LVU611
	.uleb128 .LVU611
	.uleb128 .LVU612
	.uleb128 .LVU612
	.uleb128 .LVU616
.LLST255:
	.byte	0x6
	.4byte	.LVL237
	.byte	0x4
	.uleb128 .LVL237-.LVL237
	.uleb128 .LVL238-.LVL237
	.uleb128 0x5
	.byte	0x72
	.sleb128 0
	.byte	0x34
	.byte	0x1b
	.byte	0x9f
	.byte	0x4
	.uleb128 .LVL238-.LVL237
	.uleb128 .LVL239-.LVL237
	.uleb128 0x5
	.byte	0x72
	.sleb128 4
	.byte	0x34
	.byte	0x1b
	.byte	0x9f
	.byte	0x4
	.uleb128 .LVL239-.LVL237
	.uleb128 .LVL242-.LVL237
	.uleb128 0x9
	.byte	0x74
	.sleb128 12
	.byte	0x6
	.byte	0x75
	.sleb128 0
	.byte	0x1c
	.byte	0x34
	.byte	0x1b
	.byte	0x9f
	.byte	0x4
	.uleb128 .LVL242-.LVL237
	.uleb128 .LVL243-.LVL237
	.uleb128 0x5
	.byte	0x72
	.sleb128 0
	.byte	0x34
	.byte	0x1b
	.byte	0x9f
	.byte	0x4
	.uleb128 .LVL243-.LVL237
	.uleb128 .LVL246-.LVL237
	.uleb128 0x9
	.byte	0x74
	.sleb128 12
	.byte	0x6
	.byte	0x75
	.sleb128 0
	.byte	0x1c
	.byte	0x34
	.byte	0x1b
	.byte	0x9f
	.byte	0
.LVUS256:
	.uleb128 .LVU597
	.uleb128 .LVU617
.LLST256:
	.byte	0x8
	.4byte	.LVL237
	.uleb128 .LVL248-.LVL237
	.uleb128 0x1
	.byte	0x55
	.byte	0
.LVUS257:
	.uleb128 .LVU598
	.uleb128 .LVU614
	.uleb128 .LVU614
	.uleb128 0
.LLST257:
	.byte	0x6
	.4byte	.LVL237
	.byte	0x4
	.uleb128 .LVL237-.LVL237
	.uleb128 .LVL245-.LVL237
	.uleb128 0x2
	.byte	0x31
	.byte	0x9f
	.byte	0x4
	.uleb128 .LVL245-.LVL237
	.uleb128 .LFE2071-.LVL237
	.uleb128 0x1
	.byte	0x52
	.byte	0
.LVUS259:
	.uleb128 .LVU548
	.uleb128 .LVU550
	.uleb128 .LVU566
	.uleb128 .LVU568
.LLST259:
	.byte	0x6
	.4byte	.LVL220
	.byte	0x4
	.uleb128 .LVL220-.LVL220
	.uleb128 .LVL221-.LVL220
	.uleb128 0x1
	.byte	0x51
	.byte	0x4
	.uleb128 .LVL225-.LVL220
	.uleb128 .LVL226-.LVL220
	.uleb128 0x1
	.byte	0x58
	.byte	0
.LVUS261:
	.uleb128 .LVU556
	.uleb128 .LVU563
	.uleb128 .LVU581
	.uleb128 .LVU590
.LLST261:
	.byte	0x6
	.4byte	.LVL223
	.byte	0x4
	.uleb128 .LVL223-.LVL223
	.uleb128 .LVL224-.LVL223
	.uleb128 0x3
	.byte	0x74
	.sleb128 8
	.byte	0x9f
	.byte	0x4
	.uleb128 .LVL233-.LVL223
	.uleb128 .LVL236-.LVL223
	.uleb128 0x3
	.byte	0x74
	.sleb128 8
	.byte	0x9f
	.byte	0
.LVUS262:
	.uleb128 .LVU556
	.uleb128 .LVU563
	.uleb128 .LVU581
	.uleb128 .LVU590
.LLST262:
	.byte	0x6
	.4byte	.LVL223
	.byte	0x4
	.uleb128 .LVL223-.LVL223
	.uleb128 .LVL224-.LVL223
	.uleb128 0x1
	.byte	0x5b
	.byte	0x4
	.uleb128 .LVL233-.LVL223
	.uleb128 .LVL236-.LVL223
	.uleb128 0x1
	.byte	0x5b
	.byte	0
.LVUS263:
	.uleb128 .LVU556
	.uleb128 .LVU563
	.uleb128 .LVU582
	.uleb128 .LVU590
.LLST263:
	.byte	0x6
	.4byte	.LVL223
	.byte	0x4
	.uleb128 .LVL223-.LVL223
	.uleb128 .LVL224-.LVL223
	.uleb128 0x3
	.byte	0x74
	.sleb128 8
	.byte	0x9f
	.byte	0x4
	.uleb128 .LVL233-.LVL223
	.uleb128 .LVL236-.LVL223
	.uleb128 0x3
	.byte	0x74
	.sleb128 8
	.byte	0x9f
	.byte	0
.LVUS264:
	.uleb128 .LVU556
	.uleb128 .LVU563
	.uleb128 .LVU582
	.uleb128 .LVU590
.LLST264:
	.byte	0x6
	.4byte	.LVL223
	.byte	0x4
	.uleb128 .LVL223-.LVL223
	.uleb128 .LVL224-.LVL223
	.uleb128 0x1
	.byte	0x5b
	.byte	0x4
	.uleb128 .LVL233-.LVL223
	.uleb128 .LVL236-.LVL223
	.uleb128 0x1
	.byte	0x5b
	.byte	0
.LVUS265:
	.uleb128 .LVU557
	.uleb128 .LVU563
.LLST265:
	.byte	0x8
	.4byte	.LVL224
	.uleb128 .LVL224-.LVL224
	.uleb128 0x3
	.byte	0x74
	.sleb128 8
	.byte	0x9f
	.byte	0
.LVUS266:
	.uleb128 .LVU558
	.uleb128 .LVU560
.LLST266:
	.byte	0x8
	.4byte	.LVL224
	.uleb128 .LVL224-.LVL224
	.uleb128 0x3
	.byte	0x74
	.sleb128 8
	.byte	0x9f
	.byte	0
.LVUS267:
	.uleb128 .LVU559
	.uleb128 .LVU560
.LLST267:
	.byte	0x8
	.4byte	.LVL224
	.uleb128 .LVL224-.LVL224
	.uleb128 0x3
	.byte	0x74
	.sleb128 12
	.byte	0x9f
	.byte	0
.LVUS268:
	.uleb128 .LVU560
	.uleb128 .LVU563
.LLST268:
	.byte	0x8
	.4byte	.LVL224
	.uleb128 .LVL224-.LVL224
	.uleb128 0x2
	.byte	0x31
	.byte	0x9f
	.byte	0
.LVUS269:
	.uleb128 .LVU585
	.uleb128 .LVU588
.LLST269:
	.byte	0x8
	.4byte	.LVL234
	.uleb128 .LVL235-.LVL234
	.uleb128 0x3
	.byte	0x74
	.sleb128 8
	.byte	0x9f
	.byte	0
.LVUS270:
	.uleb128 .LVU585
	.uleb128 .LVU588
.LLST270:
	.byte	0x8
	.4byte	.LVL234
	.uleb128 .LVL235-.LVL234
	.uleb128 0x1
	.byte	0x53
	.byte	0
.LVUS271:
	.uleb128 .LVU585
	.uleb128 .LVU588
.LLST271:
	.byte	0x8
	.4byte	.LVL234
	.uleb128 .LVL235-.LVL234
	.uleb128 0x1
	.byte	0x5b
	.byte	0
.LVUS272:
	.uleb128 .LVU586
	.uleb128 .LVU588
.LLST272:
	.byte	0x8
	.4byte	.LVL234
	.uleb128 .LVL235-.LVL234
	.uleb128 0x3
	.byte	0x74
	.sleb128 8
	.byte	0x9f
	.byte	0
.LVUS273:
	.uleb128 .LVU586
	.uleb128 .LVU588
.LLST273:
	.byte	0x8
	.4byte	.LVL234
	.uleb128 .LVL235-.LVL234
	.uleb128 0x1
	.byte	0x53
	.byte	0
.LVUS274:
	.uleb128 .LVU586
	.uleb128 .LVU588
.LLST274:
	.byte	0x8
	.4byte	.LVL234
	.uleb128 .LVL235-.LVL234
	.uleb128 0x1
	.byte	0x5b
	.byte	0
.LVUS275:
	.uleb128 .LVU571
	.uleb128 .LVU572
.LLST275:
	.byte	0x8
	.4byte	.LVL227
	.uleb128 .LVL227-.LVL227
	.uleb128 0x1
	.byte	0x58
	.byte	0
.LVUS276:
	.uleb128 .LVU571
	.uleb128 .LVU572
.LLST276:
	.byte	0x8
	.4byte	.LVL227
	.uleb128 .LVL227-.LVL227
	.uleb128 0x1
	.byte	0x55
	.byte	0
.LVUS278:
	.uleb128 .LVU572
	.uleb128 .LVU576
	.uleb128 .LVU577
	.uleb128 .LVU578
.LLST278:
	.byte	0x6
	.4byte	.LVL227
	.byte	0x4
	.uleb128 .LVL227-.LVL227
	.uleb128 .LVL228-1-.LVL227
	.uleb128 0x12
	.byte	0x79
	.sleb128 0
	.byte	0xa8
	.uleb128 0x3b
	.byte	0xa8
	.uleb128 0x34
	.byte	0x75
	.sleb128 0
	.byte	0x32
	.byte	0x24
	.byte	0x77
	.sleb128 0
	.byte	0x22
	.byte	0xa6
	.byte	0x4
	.uleb128 0x34
	.byte	0x1e
	.byte	0x9f
	.byte	0x4
	.uleb128 .LVL229-.LVL227
	.uleb128 .LVL230-1-.LVL227
	.uleb128 0xb
	.byte	0x79
	.sleb128 0
	.byte	0xa8
	.uleb128 0x3b
	.byte	0xa8
	.uleb128 0x34
	.byte	0xa5
	.uleb128 0x1
	.uleb128 0x34
	.byte	0x1e
	.byte	0x9f
	.byte	0
.LVUS280:
	.uleb128 .LVU592
	.uleb128 .LVU595
.LLST280:
	.byte	0x8
	.4byte	.LVL236
	.uleb128 .LVL237-.LVL236
	.uleb128 0x3
	.byte	0x74
	.sleb128 8
	.byte	0x9f
	.byte	0
.LVUS176:
	.uleb128 0
	.uleb128 .LVU412
	.uleb128 .LVU412
	.uleb128 .LVU477
	.uleb128 .LVU477
	.uleb128 0
.LLST176:
	.byte	0x6
	.4byte	.LVL165
	.byte	0x4
	.uleb128 .LVL165-.LVL165
	.uleb128 .LVL171-.LVL165
	.uleb128 0x1
	.byte	0x50
	.byte	0x4
	.uleb128 .LVL171-.LVL165
	.uleb128 .LVL188-.LVL165
	.uleb128 0x1
	.byte	0x54
	.byte	0x4
	.uleb128 .LVL188-.LVL165
	.uleb128 .LFE2070-.LVL165
	.uleb128 0xa
	.byte	0xa3
	.uleb128 0x3
	.byte	0xa5
	.uleb128 0
	.uleb128 0x26
	.byte	0xa8
	.uleb128 0x2d
	.byte	0xa8
	.uleb128 0
	.byte	0x9f
	.byte	0
.LVUS177:
	.uleb128 0
	.uleb128 .LVU412
	.uleb128 .LVU412
	.uleb128 .LVU476
	.uleb128 .LVU476
	.uleb128 0
.LLST177:
	.byte	0x6
	.4byte	.LVL165
	.byte	0x4
	.uleb128 .LVL165-.LVL165
	.uleb128 .LVL171-.LVL165
	.uleb128 0x1
	.byte	0x51
	.byte	0x4
	.uleb128 .LVL171-.LVL165
	.uleb128 .LVL187-.LVL165
	.uleb128 0x2
	.byte	0x7d
	.sleb128 0
	.byte	0x4
	.uleb128 .LVL187-.LVL165
	.uleb128 .LFE2070-.LVL165
	.uleb128 0x2
	.byte	0x91
	.sleb128 -56
	.byte	0
.LVUS178:
	.uleb128 0
	.uleb128 .LVU403
	.uleb128 .LVU403
	.uleb128 .LVU477
	.uleb128 .LVU477
	.uleb128 0
.LLST178:
	.byte	0x6
	.4byte	.LVL165
	.byte	0x4
	.uleb128 .LVL165-.LVL165
	.uleb128 .LVL168-.LVL165
	.uleb128 0x1
	.byte	0x52
	.byte	0x4
	.uleb128 .LVL168-.LVL165
	.uleb128 .LVL189-.LVL165
	.uleb128 0x1
	.byte	0x59
	.byte	0x4
	.uleb128 .LVL189-.LVL165
	.uleb128 .LFE2070-.LVL165
	.uleb128 0xa
	.byte	0xa3
	.uleb128 0x3
	.byte	0xa5
	.uleb128 0x2
	.uleb128 0x26
	.byte	0xa8
	.uleb128 0x2d
	.byte	0xa8
	.uleb128 0
	.byte	0x9f
	.byte	0
.LVUS179:
	.uleb128 0
	.uleb128 .LVU402
	.uleb128 .LVU402
	.uleb128 .LVU477
	.uleb128 .LVU477
	.uleb128 0
.LLST179:
	.byte	0x6
	.4byte	.LVL165
	.byte	0x4
	.uleb128 .LVL165-.LVL165
	.uleb128 .LVL167-.LVL165
	.uleb128 0x1
	.byte	0x53
	.byte	0x4
	.uleb128 .LVL167-.LVL165
	.uleb128 .LVL190-.LVL165
	.uleb128 0x1
	.byte	0x5a
	.byte	0x4
	.uleb128 .LVL190-.LVL165
	.uleb128 .LFE2070-.LVL165
	.uleb128 0xa
	.byte	0xa3
	.uleb128 0x3
	.byte	0xa5
	.uleb128 0x3
	.uleb128 0x26
	.byte	0xa8
	.uleb128 0x2d
	.byte	0xa8
	.uleb128 0
	.byte	0x9f
	.byte	0
.LVUS180:
	.uleb128 .LVU404
	.uleb128 .LVU407
	.uleb128 .LVU407
	.uleb128 0
.LLST180:
	.byte	0x6
	.4byte	.LVL169
	.byte	0x4
	.uleb128 .LVL169-.LVL169
	.uleb128 .LVL170-.LVL169
	.uleb128 0x1
	.byte	0x53
	.byte	0x4
	.uleb128 .LVL170-.LVL169
	.uleb128 .LFE2070-.LVL169
	.uleb128 0x2
	.byte	0x91
	.sleb128 -52
	.byte	0
.LVUS182:
	.uleb128 .LVU406
	.uleb128 .LVU412
	.uleb128 .LVU412
	.uleb128 .LVU474
.LLST182:
	.byte	0x6
	.4byte	.LVL169
	.byte	0x4
	.uleb128 .LVL169-.LVL169
	.uleb128 .LVL171-.LVL169
	.uleb128 0x2
	.byte	0x30
	.byte	0x9f
	.byte	0x4
	.uleb128 .LVL171-.LVL169
	.uleb128 .LVL186-.LVL169
	.uleb128 0x1
	.byte	0x55
	.byte	0
.LVUS184:
	.uleb128 .LVU448
	.uleb128 .LVU461
.LLST184:
	.byte	0x8
	.4byte	.LVL179
	.uleb128 .LVL182-.LVL179
	.uleb128 0x5
	.byte	0x71
	.sleb128 0
	.byte	0x30
	.byte	0x29
	.byte	0x9f
	.byte	0
.LVUS186:
	.uleb128 .LVU415
	.uleb128 .LVU427
	.uleb128 .LVU470
	.uleb128 .LVU474
.LLST186:
	.byte	0x6
	.4byte	.LVL173
	.byte	0x4
	.uleb128 .LVL173-.LVL173
	.uleb128 .LVL176-.LVL173
	.uleb128 0x3
	.byte	0x74
	.sleb128 20
	.byte	0x9f
	.byte	0x4
	.uleb128 .LVL183-.LVL173
	.uleb128 .LVL186-.LVL173
	.uleb128 0x3
	.byte	0x74
	.sleb128 20
	.byte	0x9f
	.byte	0
.LVUS187:
	.uleb128 .LVU415
	.uleb128 .LVU427
	.uleb128 .LVU470
	.uleb128 .LVU472
	.uleb128 .LVU472
	.uleb128 .LVU473
	.uleb128 .LVU473
	.uleb128 .LVU474
.LLST187:
	.byte	0x6
	.4byte	.LVL173
	.byte	0x4
	.uleb128 .LVL173-.LVL173
	.uleb128 .LVL176-.LVL173
	.uleb128 0x3
	.byte	0x91
	.sleb128 -44
	.byte	0x9f
	.byte	0x4
	.uleb128 .LVL183-.LVL173
	.uleb128 .LVL184-.LVL173
	.uleb128 0x3
	.byte	0x91
	.sleb128 -44
	.byte	0x9f
	.byte	0x4
	.uleb128 .LVL184-.LVL173
	.uleb128 .LVL185-1-.LVL173
	.uleb128 0x1
	.byte	0x51
	.byte	0x4
	.uleb128 .LVL185-1-.LVL173
	.uleb128 .LVL186-.LVL173
	.uleb128 0x3
	.byte	0x91
	.sleb128 -44
	.byte	0x9f
	.byte	0
.LVUS188:
	.uleb128 .LVU416
	.uleb128 .LVU427
	.uleb128 .LVU470
	.uleb128 .LVU474
.LLST188:
	.byte	0x6
	.4byte	.LVL173
	.byte	0x4
	.uleb128 .LVL173-.LVL173
	.uleb128 .LVL176-.LVL173
	.uleb128 0x3
	.byte	0x74
	.sleb128 20
	.byte	0x9f
	.byte	0x4
	.uleb128 .LVL183-.LVL173
	.uleb128 .LVL186-.LVL173
	.uleb128 0x3
	.byte	0x74
	.sleb128 20
	.byte	0x9f
	.byte	0
.LVUS189:
	.uleb128 .LVU416
	.uleb128 .LVU427
	.uleb128 .LVU470
	.uleb128 .LVU472
	.uleb128 .LVU472
	.uleb128 .LVU473
	.uleb128 .LVU473
	.uleb128 .LVU474
.LLST189:
	.byte	0x6
	.4byte	.LVL173
	.byte	0x4
	.uleb128 .LVL173-.LVL173
	.uleb128 .LVL176-.LVL173
	.uleb128 0x3
	.byte	0x91
	.sleb128 -44
	.byte	0x9f
	.byte	0x4
	.uleb128 .LVL183-.LVL173
	.uleb128 .LVL184-.LVL173
	.uleb128 0x3
	.byte	0x91
	.sleb128 -44
	.byte	0x9f
	.byte	0x4
	.uleb128 .LVL184-.LVL173
	.uleb128 .LVL185-1-.LVL173
	.uleb128 0x1
	.byte	0x51
	.byte	0x4
	.uleb128 .LVL185-1-.LVL173
	.uleb128 .LVL186-.LVL173
	.uleb128 0x3
	.byte	0x91
	.sleb128 -44
	.byte	0x9f
	.byte	0
.LVUS190:
	.uleb128 .LVU419
	.uleb128 .LVU422
.LLST190:
	.byte	0x8
	.4byte	.LVL174
	.uleb128 .LVL175-.LVL174
	.uleb128 0x3
	.byte	0x74
	.sleb128 20
	.byte	0x9f
	.byte	0
.LVUS191:
	.uleb128 .LVU419
	.uleb128 .LVU422
.LLST191:
	.byte	0x8
	.4byte	.LVL174
	.uleb128 .LVL175-.LVL174
	.uleb128 0x1
	.byte	0x5b
	.byte	0
.LVUS192:
	.uleb128 .LVU419
	.uleb128 .LVU422
.LLST192:
	.byte	0x8
	.4byte	.LVL174
	.uleb128 .LVL175-.LVL174
	.uleb128 0x3
	.byte	0x91
	.sleb128 -44
	.byte	0x9f
	.byte	0
.LVUS193:
	.uleb128 .LVU420
	.uleb128 .LVU422
.LLST193:
	.byte	0x8
	.4byte	.LVL174
	.uleb128 .LVL175-.LVL174
	.uleb128 0x3
	.byte	0x74
	.sleb128 20
	.byte	0x9f
	.byte	0
.LVUS194:
	.uleb128 .LVU420
	.uleb128 .LVU422
.LLST194:
	.byte	0x8
	.4byte	.LVL174
	.uleb128 .LVL175-.LVL174
	.uleb128 0x1
	.byte	0x5b
	.byte	0
.LVUS195:
	.uleb128 .LVU420
	.uleb128 .LVU422
.LLST195:
	.byte	0x8
	.4byte	.LVL174
	.uleb128 .LVL175-.LVL174
	.uleb128 0x3
	.byte	0x91
	.sleb128 -44
	.byte	0x9f
	.byte	0
.LVUS196:
	.uleb128 .LVU424
	.uleb128 .LVU427
.LLST196:
	.byte	0x8
	.4byte	.LVL176
	.uleb128 .LVL176-.LVL176
	.uleb128 0x3
	.byte	0x74
	.sleb128 20
	.byte	0x9f
	.byte	0
.LVUS197:
	.uleb128 .LVU425
	.uleb128 .LVU427
.LLST197:
	.byte	0x8
	.4byte	.LVL176
	.uleb128 .LVL176-.LVL176
	.uleb128 0x3
	.byte	0x74
	.sleb128 20
	.byte	0x9f
	.byte	0
.LVUS198:
	.uleb128 .LVU426
	.uleb128 .LVU427
.LLST198:
	.byte	0x8
	.4byte	.LVL176
	.uleb128 .LVL176-.LVL176
	.uleb128 0x6
	.byte	0xa0
	.4byte	.Ldebug_info0+55236
	.sleb128 0
	.byte	0
.LVUS199:
	.uleb128 .LVU426
	.uleb128 .LVU427
.LLST199:
	.byte	0x8
	.4byte	.LVL176
	.uleb128 .LVL176-.LVL176
	.uleb128 0x3
	.byte	0x74
	.sleb128 44
	.byte	0x9f
	.byte	0
.LVUS200:
	.uleb128 .LVU455
	.uleb128 .LVU459
.LLST200:
	.byte	0x8
	.4byte	.LVL180
	.uleb128 .LVL181-.LVL180
	.uleb128 0x3
	.byte	0x74
	.sleb128 20
	.byte	0x9f
	.byte	0
.LVUS201:
	.uleb128 .LVU456
	.uleb128 .LVU459
.LLST201:
	.byte	0x8
	.4byte	.LVL180
	.uleb128 .LVL181-.LVL180
	.uleb128 0x3
	.byte	0x74
	.sleb128 44
	.byte	0x9f
	.byte	0
.LVUS202:
	.uleb128 .LVU456
	.uleb128 .LVU459
.LLST202:
	.byte	0x8
	.4byte	.LVL180
	.uleb128 .LVL181-.LVL180
	.uleb128 0x3
	.byte	0x74
	.sleb128 28
	.byte	0x9f
	.byte	0
.LVUS181:
	.uleb128 .LVU400
	.uleb128 .LVU404
.LLST181:
	.byte	0x8
	.4byte	.LVL166
	.uleb128 .LVL169-.LVL166
	.uleb128 0x3
	.byte	0x70
	.sleb128 8
	.byte	0x9f
	.byte	0
.Ldebug_loc3:
	.section	.debug_aranges,"",%progbits
	.4byte	0x84
	.2byte	0x2
	.4byte	.Ldebug_info0
	.byte	0x4
	.byte	0
	.2byte	0
	.2byte	0
	.4byte	.LFB2073
	.4byte	.LFE2073-.LFB2073
	.4byte	.LFB2072
	.4byte	.LFE2072-.LFB2072
	.4byte	.LFB2076
	.4byte	.LFE2076-.LFB2076
	.4byte	.LFB2077
	.4byte	.LFE2077-.LFB2077
	.4byte	.LFB2242
	.4byte	.LFE2242-.LFB2242
	.4byte	.LFB2346
	.4byte	.LFE2346-.LFB2346
	.4byte	.LFB2070
	.4byte	.LFE2070-.LFB2070
	.4byte	.LFB2348
	.4byte	.LFE2348-.LFB2348
	.4byte	.LFB2071
	.4byte	.LFE2071-.LFB2071
	.4byte	.LFB2485
	.4byte	.LFE2485-.LFB2485
	.4byte	.LFB2487
	.4byte	.LFE2487-.LFB2487
	.4byte	.LFB2278
	.4byte	.LFE2278-.LFB2278
	.4byte	.LFB2075
	.4byte	.LFE2075-.LFB2075
	.4byte	.LFB2074
	.4byte	.LFE2074-.LFB2074
	.4byte	0
	.4byte	0
	.section	.debug_rnglists,"",%progbits
.Ldebug_ranges0:
	.4byte	.Ldebug_ranges3-.Ldebug_ranges2
.Ldebug_ranges2:
	.2byte	0x5
	.byte	0x4
	.byte	0
	.4byte	0
.LLRL7:
	.byte	0x5
	.4byte	.LBB768
	.byte	0x4
	.uleb128 .LBB768-.LBB768
	.uleb128 .LBE768-.LBB768
	.byte	0x4
	.uleb128 .LBB769-.LBB768
	.uleb128 .LBE769-.LBB768
	.byte	0
.LLRL15:
	.byte	0x5
	.4byte	.LBB772
	.byte	0x4
	.uleb128 .LBB772-.LBB772
	.uleb128 .LBE772-.LBB772
	.byte	0x4
	.uleb128 .LBB773-.LBB772
	.uleb128 .LBE773-.LBB772
	.byte	0
.LLRL27:
	.byte	0x5
	.4byte	.LBB775
	.byte	0x4
	.uleb128 .LBB775-.LBB775
	.uleb128 .LBE775-.LBB775
	.byte	0x4
	.uleb128 .LBB776-.LBB775
	.uleb128 .LBE776-.LBB775
	.byte	0x4
	.uleb128 .LBB777-.LBB775
	.uleb128 .LBE777-.LBB775
	.byte	0
.LLRL34:
	.byte	0x5
	.4byte	.LBB783
	.byte	0x4
	.uleb128 .LBB783-.LBB783
	.uleb128 .LBE783-.LBB783
	.byte	0x4
	.uleb128 .LBB784-.LBB783
	.uleb128 .LBE784-.LBB783
	.byte	0
.LLRL42:
	.byte	0x5
	.4byte	.LBB787
	.byte	0x4
	.uleb128 .LBB787-.LBB787
	.uleb128 .LBE787-.LBB787
	.byte	0x4
	.uleb128 .LBB794-.LBB787
	.uleb128 .LBE794-.LBB787
	.byte	0
.LLRL54:
	.byte	0x5
	.4byte	.LBB874
	.byte	0x4
	.uleb128 .LBB874-.LBB874
	.uleb128 .LBE874-.LBB874
	.byte	0x4
	.uleb128 .LBB985-.LBB874
	.uleb128 .LBE985-.LBB874
	.byte	0
.LLRL57:
	.byte	0x5
	.4byte	.LBB876
	.byte	0x4
	.uleb128 .LBB876-.LBB876
	.uleb128 .LBE876-.LBB876
	.byte	0x4
	.uleb128 .LBB972-.LBB876
	.uleb128 .LBE972-.LBB876
	.byte	0
.LLRL64:
	.byte	0x7
	.4byte	.LBB879
	.uleb128 .LBE879-.LBB879
.LLRL80:
	.byte	0x5
	.4byte	.LBB899
	.byte	0x4
	.uleb128 .LBB899-.LBB899
	.uleb128 .LBE899-.LBB899
	.byte	0x4
	.uleb128 .LBB900-.LBB899
	.uleb128 .LBE900-.LBB899
	.byte	0
.LLRL84:
	.byte	0x5
	.4byte	.LBB901
	.byte	0x4
	.uleb128 .LBB901-.LBB901
	.uleb128 .LBE901-.LBB901
	.byte	0x4
	.uleb128 .LBB915-.LBB901
	.uleb128 .LBE915-.LBB901
	.byte	0
.LLRL107:
	.byte	0x5
	.4byte	.LBB919
	.byte	0x4
	.uleb128 .LBB919-.LBB919
	.uleb128 .LBE919-.LBB919
	.byte	0x4
	.uleb128 .LBB964-.LBB919
	.uleb128 .LBE964-.LBB919
	.byte	0
.LLRL114:
	.byte	0x5
	.4byte	.LBB924
	.byte	0x4
	.uleb128 .LBB924-.LBB924
	.uleb128 .LBE924-.LBB924
	.byte	0x4
	.uleb128 .LBB931-.LBB924
	.uleb128 .LBE931-.LBB924
	.byte	0
.LLRL122:
	.byte	0x7
	.4byte	.LBB933
	.uleb128 .LBE933-.LBB933
.LLRL138:
	.byte	0x5
	.4byte	.LBB953
	.byte	0x4
	.uleb128 .LBB953-.LBB953
	.uleb128 .LBE953-.LBB953
	.byte	0x4
	.uleb128 .LBB965-.LBB953
	.uleb128 .LBE965-.LBB953
	.byte	0
.LLRL173:
	.byte	0x5
	.4byte	.LBB982
	.byte	0x4
	.uleb128 .LBB982-.LBB982
	.uleb128 .LBE982-.LBB982
	.byte	0x4
	.uleb128 .LBB984-.LBB982
	.uleb128 .LBE984-.LBB982
	.byte	0
.LLRL183:
	.byte	0x5
	.4byte	.LBB1015
	.byte	0x4
	.uleb128 .LBB1015-.LBB1015
	.uleb128 .LBE1015-.LBB1015
	.byte	0x4
	.uleb128 .LBB1033-.LBB1015
	.uleb128 .LBE1033-.LBB1015
	.byte	0
.LLRL185:
	.byte	0x5
	.4byte	.LBB1016
	.byte	0x4
	.uleb128 .LBB1016-.LBB1016
	.uleb128 .LBE1016-.LBB1016
	.byte	0x4
	.uleb128 .LBB1032-.LBB1016
	.uleb128 .LBE1032-.LBB1016
	.byte	0
.LLRL233:
	.byte	0x5
	.4byte	.LBB1090
	.byte	0x4
	.uleb128 .LBB1090-.LBB1090
	.uleb128 .LBE1090-.LBB1090
	.byte	0x4
	.uleb128 .LBB1104-.LBB1090
	.uleb128 .LBE1104-.LBB1090
	.byte	0
.LLRL244:
	.byte	0x5
	.4byte	.LBB1097
	.byte	0x4
	.uleb128 .LBB1097-.LBB1097
	.uleb128 .LBE1097-.LBB1097
	.byte	0x4
	.uleb128 .LBB1105-.LBB1097
	.uleb128 .LBE1105-.LBB1097
	.byte	0
.LLRL258:
	.byte	0x5
	.4byte	.LBB1128
	.byte	0x4
	.uleb128 .LBB1128-.LBB1128
	.uleb128 .LBE1128-.LBB1128
	.byte	0x4
	.uleb128 .LBB1147-.LBB1128
	.uleb128 .LBE1147-.LBB1128
	.byte	0
.LLRL260:
	.byte	0x5
	.4byte	.LBB1131
	.byte	0x4
	.uleb128 .LBB1131-.LBB1131
	.uleb128 .LBE1131-.LBB1131
	.byte	0x4
	.uleb128 .LBB1146-.LBB1131
	.uleb128 .LBE1146-.LBB1131
	.byte	0x4
	.uleb128 .LBB1153-.LBB1131
	.uleb128 .LBE1153-.LBB1131
	.byte	0
.LLRL277:
	.byte	0x5
	.4byte	.LBB1149
	.byte	0x4
	.uleb128 .LBB1149-.LBB1149
	.uleb128 .LBE1149-.LBB1149
	.byte	0x4
	.uleb128 .LBB1152-.LBB1149
	.uleb128 .LBE1152-.LBB1149
	.byte	0
.LLRL279:
	.byte	0x5
	.4byte	.LBB1154
	.byte	0x4
	.uleb128 .LBB1154-.LBB1154
	.uleb128 .LBE1154-.LBB1154
	.byte	0x4
	.uleb128 .LBB1157-.LBB1154
	.uleb128 .LBE1157-.LBB1154
	.byte	0
.LLRL285:
	.byte	0x5
	.4byte	.LBB1178
	.byte	0x4
	.uleb128 .LBB1178-.LBB1178
	.uleb128 .LBE1178-.LBB1178
	.byte	0x4
	.uleb128 .LBB1210-.LBB1178
	.uleb128 .LBE1210-.LBB1178
	.byte	0
.LLRL288:
	.byte	0x5
	.4byte	.LBB1179
	.byte	0x4
	.uleb128 .LBB1179-.LBB1179
	.uleb128 .LBE1179-.LBB1179
	.byte	0x4
	.uleb128 .LBB1205-.LBB1179
	.uleb128 .LBE1205-.LBB1179
	.byte	0x4
	.uleb128 .LBB1209-.LBB1179
	.uleb128 .LBE1209-.LBB1179
	.byte	0
.LLRL293:
	.byte	0x5
	.4byte	.LBB1183
	.byte	0x4
	.uleb128 .LBB1183-.LBB1183
	.uleb128 .LBE1183-.LBB1183
	.byte	0x4
	.uleb128 .LBB1186-.LBB1183
	.uleb128 .LBE1186-.LBB1183
	.byte	0x4
	.uleb128 .LBB1187-.LBB1183
	.uleb128 .LBE1187-.LBB1183
	.byte	0
.LLRL297:
	.byte	0x5
	.4byte	.LBB1194
	.byte	0x4
	.uleb128 .LBB1194-.LBB1194
	.uleb128 .LBE1194-.LBB1194
	.byte	0x4
	.uleb128 .LBB1208-.LBB1194
	.uleb128 .LBE1208-.LBB1194
	.byte	0
.LLRL318:
	.byte	0x5
	.4byte	.LBB1231
	.byte	0x4
	.uleb128 .LBB1231-.LBB1231
	.uleb128 .LBE1231-.LBB1231
	.byte	0x4
	.uleb128 .LBB1261-.LBB1231
	.uleb128 .LBE1261-.LBB1231
	.byte	0
.LLRL319:
	.byte	0x5
	.4byte	.LBB1232
	.byte	0x4
	.uleb128 .LBB1232-.LBB1232
	.uleb128 .LBE1232-.LBB1232
	.byte	0x4
	.uleb128 .LBB1255-.LBB1232
	.uleb128 .LBE1255-.LBB1232
	.byte	0x4
	.uleb128 .LBB1260-.LBB1232
	.uleb128 .LBE1260-.LBB1232
	.byte	0
.LLRL323:
	.byte	0x5
	.4byte	.LBB1235
	.byte	0x4
	.uleb128 .LBB1235-.LBB1235
	.uleb128 .LBE1235-.LBB1235
	.byte	0x4
	.uleb128 .LBB1238-.LBB1235
	.uleb128 .LBE1238-.LBB1235
	.byte	0x4
	.uleb128 .LBB1239-.LBB1235
	.uleb128 .LBE1239-.LBB1235
	.byte	0
.LLRL327:
	.byte	0x5
	.4byte	.LBB1244
	.byte	0x4
	.uleb128 .LBB1244-.LBB1244
	.uleb128 .LBE1244-.LBB1244
	.byte	0x4
	.uleb128 .LBB1259-.LBB1244
	.uleb128 .LBE1259-.LBB1244
	.byte	0
.LLRL340:
	.byte	0x5
	.4byte	.LBB1256
	.byte	0x4
	.uleb128 .LBB1256-.LBB1256
	.uleb128 .LBE1256-.LBB1256
	.byte	0x4
	.uleb128 .LBB1258-.LBB1256
	.uleb128 .LBE1258-.LBB1256
	.byte	0
.LLRL349:
	.byte	0x5
	.4byte	.LBB1513
	.byte	0x4
	.uleb128 .LBB1513-.LBB1513
	.uleb128 .LBE1513-.LBB1513
	.byte	0x4
	.uleb128 .LBB1766-.LBB1513
	.uleb128 .LBE1766-.LBB1513
	.byte	0
.LLRL353:
	.byte	0x5
	.4byte	.LBB1518
	.byte	0x4
	.uleb128 .LBB1518-.LBB1518
	.uleb128 .LBE1518-.LBB1518
	.byte	0x4
	.uleb128 .LBB1779-.LBB1518
	.uleb128 .LBE1779-.LBB1518
	.byte	0x4
	.uleb128 .LBB1780-.LBB1518
	.uleb128 .LBE1780-.LBB1518
	.byte	0
.LLRL376:
	.byte	0x5
	.4byte	.LBB1536
	.byte	0x4
	.uleb128 .LBB1536-.LBB1536
	.uleb128 .LBE1536-.LBB1536
	.byte	0x4
	.uleb128 .LBB1620-.LBB1536
	.uleb128 .LBE1620-.LBB1536
	.byte	0
.LLRL383:
	.byte	0x5
	.4byte	.LBB1544
	.byte	0x4
	.uleb128 .LBB1544-.LBB1544
	.uleb128 .LBE1544-.LBB1544
	.byte	0x4
	.uleb128 .LBB1585-.LBB1544
	.uleb128 .LBE1585-.LBB1544
	.byte	0
.LLRL390:
	.byte	0x5
	.4byte	.LBB1555
	.byte	0x4
	.uleb128 .LBB1555-.LBB1555
	.uleb128 .LBE1555-.LBB1555
	.byte	0x4
	.uleb128 .LBB1581-.LBB1555
	.uleb128 .LBE1581-.LBB1555
	.byte	0
.LLRL397:
	.byte	0x5
	.4byte	.LBB1559
	.byte	0x4
	.uleb128 .LBB1559-.LBB1559
	.uleb128 .LBE1559-.LBB1559
	.byte	0x4
	.uleb128 .LBB1580-.LBB1559
	.uleb128 .LBE1580-.LBB1559
	.byte	0
.LLRL401:
	.byte	0x5
	.4byte	.LBB1567
	.byte	0x4
	.uleb128 .LBB1567-.LBB1567
	.uleb128 .LBE1567-.LBB1567
	.byte	0x4
	.uleb128 .LBB1572-.LBB1567
	.uleb128 .LBE1572-.LBB1567
	.byte	0
.LLRL412:
	.byte	0x5
	.4byte	.LBB1586
	.byte	0x4
	.uleb128 .LBB1586-.LBB1586
	.uleb128 .LBE1586-.LBB1586
	.byte	0x4
	.uleb128 .LBB1618-.LBB1586
	.uleb128 .LBE1618-.LBB1586
	.byte	0
.LLRL416:
	.byte	0x5
	.4byte	.LBB1591
	.byte	0x4
	.uleb128 .LBB1591-.LBB1591
	.uleb128 .LBE1591-.LBB1591
	.byte	0x4
	.uleb128 .LBB1619-.LBB1591
	.uleb128 .LBE1619-.LBB1591
	.byte	0x4
	.uleb128 .LBB1621-.LBB1591
	.uleb128 .LBE1621-.LBB1591
	.byte	0x4
	.uleb128 .LBB1649-.LBB1591
	.uleb128 .LBE1649-.LBB1591
	.byte	0
.LLRL419:
	.byte	0x5
	.4byte	.LBB1593
	.byte	0x4
	.uleb128 .LBB1593-.LBB1593
	.uleb128 .LBE1593-.LBB1593
	.byte	0x4
	.uleb128 .LBB1611-.LBB1593
	.uleb128 .LBE1611-.LBB1593
	.byte	0
.LLRL422:
	.byte	0x5
	.4byte	.LBB1595
	.byte	0x4
	.uleb128 .LBB1595-.LBB1595
	.uleb128 .LBE1595-.LBB1595
	.byte	0x4
	.uleb128 .LBB1610-.LBB1595
	.uleb128 .LBE1610-.LBB1595
	.byte	0x4
	.uleb128 .LBB1612-.LBB1595
	.uleb128 .LBE1612-.LBB1595
	.byte	0x4
	.uleb128 .LBB1613-.LBB1595
	.uleb128 .LBE1613-.LBB1595
	.byte	0x4
	.uleb128 .LBB1614-.LBB1595
	.uleb128 .LBE1614-.LBB1595
	.byte	0
.LLRL426:
	.byte	0x5
	.4byte	.LBB1598
	.byte	0x4
	.uleb128 .LBB1598-.LBB1598
	.uleb128 .LBE1598-.LBB1598
	.byte	0x4
	.uleb128 .LBB1601-.LBB1598
	.uleb128 .LBE1601-.LBB1598
	.byte	0
.LLRL437:
	.byte	0x5
	.4byte	.LBB1630
	.byte	0x4
	.uleb128 .LBB1630-.LBB1630
	.uleb128 .LBE1630-.LBB1630
	.byte	0x4
	.uleb128 .LBB1762-.LBB1630
	.uleb128 .LBE1762-.LBB1630
	.byte	0x4
	.uleb128 .LBB1763-.LBB1630
	.uleb128 .LBE1763-.LBB1630
	.byte	0
.LLRL442:
	.byte	0x5
	.4byte	.LBB1634
	.byte	0x4
	.uleb128 .LBB1634-.LBB1634
	.uleb128 .LBE1634-.LBB1634
	.byte	0x4
	.uleb128 .LBB1645-.LBB1634
	.uleb128 .LBE1645-.LBB1634
	.byte	0x4
	.uleb128 .LBB1646-.LBB1634
	.uleb128 .LBE1646-.LBB1634
	.byte	0
.LLRL446:
	.byte	0x5
	.4byte	.LBB1637
	.byte	0x4
	.uleb128 .LBB1637-.LBB1637
	.uleb128 .LBE1637-.LBB1637
	.byte	0x4
	.uleb128 .LBB1640-.LBB1637
	.uleb128 .LBE1640-.LBB1637
	.byte	0
.LLRL453:
	.byte	0x5
	.4byte	.LBB1652
	.byte	0x4
	.uleb128 .LBB1652-.LBB1652
	.uleb128 .LBE1652-.LBB1652
	.byte	0x4
	.uleb128 .LBB1713-.LBB1652
	.uleb128 .LBE1713-.LBB1652
	.byte	0
.LLRL461:
	.byte	0x5
	.4byte	.LBB1657
	.byte	0x4
	.uleb128 .LBB1657-.LBB1657
	.uleb128 .LBE1657-.LBB1657
	.byte	0x4
	.uleb128 .LBB1714-.LBB1657
	.uleb128 .LBE1714-.LBB1657
	.byte	0x4
	.uleb128 .LBB1754-.LBB1657
	.uleb128 .LBE1754-.LBB1657
	.byte	0
.LLRL468:
	.byte	0x5
	.4byte	.LBB1665
	.byte	0x4
	.uleb128 .LBB1665-.LBB1665
	.uleb128 .LBE1665-.LBB1665
	.byte	0x4
	.uleb128 .LBB1711-.LBB1665
	.uleb128 .LBE1711-.LBB1665
	.byte	0x4
	.uleb128 .LBB1712-.LBB1665
	.uleb128 .LBE1712-.LBB1665
	.byte	0
.LLRL475:
	.byte	0x5
	.4byte	.LBB1676
	.byte	0x4
	.uleb128 .LBB1676-.LBB1676
	.uleb128 .LBE1676-.LBB1676
	.byte	0x4
	.uleb128 .LBB1705-.LBB1676
	.uleb128 .LBE1705-.LBB1676
	.byte	0x4
	.uleb128 .LBB1706-.LBB1676
	.uleb128 .LBE1706-.LBB1676
	.byte	0
.LLRL482:
	.byte	0x5
	.4byte	.LBB1680
	.byte	0x4
	.uleb128 .LBB1680-.LBB1680
	.uleb128 .LBE1680-.LBB1680
	.byte	0x4
	.uleb128 .LBB1703-.LBB1680
	.uleb128 .LBE1703-.LBB1680
	.byte	0x4
	.uleb128 .LBB1704-.LBB1680
	.uleb128 .LBE1704-.LBB1680
	.byte	0
.LLRL486:
	.byte	0x5
	.4byte	.LBB1688
	.byte	0x4
	.uleb128 .LBB1688-.LBB1688
	.uleb128 .LBE1688-.LBB1688
	.byte	0x4
	.uleb128 .LBB1693-.LBB1688
	.uleb128 .LBE1693-.LBB1688
	.byte	0
.LLRL497:
	.byte	0x5
	.4byte	.LBB1715
	.byte	0x4
	.uleb128 .LBB1715-.LBB1715
	.uleb128 .LBE1715-.LBB1715
	.byte	0x4
	.uleb128 .LBB1752-.LBB1715
	.uleb128 .LBE1752-.LBB1715
	.byte	0
.LLRL501:
	.byte	0x5
	.4byte	.LBB1720
	.byte	0x4
	.uleb128 .LBB1720-.LBB1720
	.uleb128 .LBE1720-.LBB1720
	.byte	0x4
	.uleb128 .LBB1753-.LBB1720
	.uleb128 .LBE1753-.LBB1720
	.byte	0x4
	.uleb128 .LBB1755-.LBB1720
	.uleb128 .LBE1755-.LBB1720
	.byte	0x4
	.uleb128 .LBB1761-.LBB1720
	.uleb128 .LBE1761-.LBB1720
	.byte	0
.LLRL504:
	.byte	0x5
	.4byte	.LBB1722
	.byte	0x4
	.uleb128 .LBB1722-.LBB1722
	.uleb128 .LBE1722-.LBB1722
	.byte	0x4
	.uleb128 .LBB1745-.LBB1722
	.uleb128 .LBE1745-.LBB1722
	.byte	0
.LLRL507:
	.byte	0x5
	.4byte	.LBB1724
	.byte	0x4
	.uleb128 .LBB1724-.LBB1724
	.uleb128 .LBE1724-.LBB1724
	.byte	0x4
	.uleb128 .LBB1744-.LBB1724
	.uleb128 .LBE1744-.LBB1724
	.byte	0x4
	.uleb128 .LBB1746-.LBB1724
	.uleb128 .LBE1746-.LBB1724
	.byte	0x4
	.uleb128 .LBB1747-.LBB1724
	.uleb128 .LBE1747-.LBB1724
	.byte	0x4
	.uleb128 .LBB1748-.LBB1724
	.uleb128 .LBE1748-.LBB1724
	.byte	0
.LLRL513:
	.byte	0x5
	.4byte	.LBB1728
	.byte	0x4
	.uleb128 .LBB1728-.LBB1728
	.uleb128 .LBE1728-.LBB1728
	.byte	0x4
	.uleb128 .LBB1731-.LBB1728
	.uleb128 .LBE1731-.LBB1728
	.byte	0
.LLRL540:
	.byte	0x5
	.4byte	.LBB1844
	.byte	0x4
	.uleb128 .LBB1844-.LBB1844
	.uleb128 .LBE1844-.LBB1844
	.byte	0x4
	.uleb128 .LBB1853-.LBB1844
	.uleb128 .LBE1853-.LBB1844
	.byte	0
.LLRL542:
	.byte	0x5
	.4byte	.LBB1846
	.byte	0x4
	.uleb128 .LBB1846-.LBB1846
	.uleb128 .LBE1846-.LBB1846
	.byte	0x4
	.uleb128 .LBB1849-.LBB1846
	.uleb128 .LBE1849-.LBB1846
	.byte	0
.LLRL545:
	.byte	0x5
	.4byte	.LBB1851
	.byte	0x4
	.uleb128 .LBB1851-.LBB1851
	.uleb128 .LBE1851-.LBB1851
	.byte	0x4
	.uleb128 .LBB1854-.LBB1851
	.uleb128 .LBE1854-.LBB1851
	.byte	0
.LLRL548:
	.byte	0x5
	.4byte	.LBB1856
	.byte	0x4
	.uleb128 .LBB1856-.LBB1856
	.uleb128 .LBE1856-.LBB1856
	.byte	0x4
	.uleb128 .LBB1888-.LBB1856
	.uleb128 .LBE1888-.LBB1856
	.byte	0
.LLRL550:
	.byte	0x5
	.4byte	.LBB1857
	.byte	0x4
	.uleb128 .LBB1857-.LBB1857
	.uleb128 .LBE1857-.LBB1857
	.byte	0x4
	.uleb128 .LBB1886-.LBB1857
	.uleb128 .LBE1886-.LBB1857
	.byte	0x4
	.uleb128 .LBB1887-.LBB1857
	.uleb128 .LBE1887-.LBB1857
	.byte	0
.LLRL553:
	.byte	0x5
	.4byte	.LBB1859
	.byte	0x4
	.uleb128 .LBB1859-.LBB1859
	.uleb128 .LBE1859-.LBB1859
	.byte	0x4
	.uleb128 .LBB1882-.LBB1859
	.uleb128 .LBE1882-.LBB1859
	.byte	0x4
	.uleb128 .LBB1883-.LBB1859
	.uleb128 .LBE1883-.LBB1859
	.byte	0
.LLRL556:
	.byte	0x5
	.4byte	.LBB1860
	.byte	0x4
	.uleb128 .LBB1860-.LBB1860
	.uleb128 .LBE1860-.LBB1860
	.byte	0x4
	.uleb128 .LBB1880-.LBB1860
	.uleb128 .LBE1880-.LBB1860
	.byte	0x4
	.uleb128 .LBB1881-.LBB1860
	.uleb128 .LBE1881-.LBB1860
	.byte	0
.LLRL559:
	.byte	0x5
	.4byte	.LBB1861
	.byte	0x4
	.uleb128 .LBB1861-.LBB1861
	.uleb128 .LBE1861-.LBB1861
	.byte	0x4
	.uleb128 .LBB1878-.LBB1861
	.uleb128 .LBE1878-.LBB1861
	.byte	0x4
	.uleb128 .LBB1879-.LBB1861
	.uleb128 .LBE1879-.LBB1861
	.byte	0
.LLRL560:
	.byte	0x5
	.4byte	.LBB1862
	.byte	0x4
	.uleb128 .LBB1862-.LBB1862
	.uleb128 .LBE1862-.LBB1862
	.byte	0x4
	.uleb128 .LBB1874-.LBB1862
	.uleb128 .LBE1874-.LBB1862
	.byte	0x4
	.uleb128 .LBB1877-.LBB1862
	.uleb128 .LBE1877-.LBB1862
	.byte	0
.LLRL564:
	.byte	0x5
	.4byte	.LBB1865
	.byte	0x4
	.uleb128 .LBB1865-.LBB1865
	.uleb128 .LBE1865-.LBB1865
	.byte	0x4
	.uleb128 .LBB1868-.LBB1865
	.uleb128 .LBE1868-.LBB1865
	.byte	0x4
	.uleb128 .LBB1869-.LBB1865
	.uleb128 .LBE1869-.LBB1865
	.byte	0
.LLRL578:
	.byte	0x5
	.4byte	.LBB1895
	.byte	0x4
	.uleb128 .LBB1895-.LBB1895
	.uleb128 .LBE1895-.LBB1895
	.byte	0x4
	.uleb128 .LBB1924-.LBB1895
	.uleb128 .LBE1924-.LBB1895
	.byte	0
.LLRL581:
	.byte	0x5
	.4byte	.LBB1897
	.byte	0x4
	.uleb128 .LBB1897-.LBB1897
	.uleb128 .LBE1897-.LBB1897
	.byte	0x4
	.uleb128 .LBB1909-.LBB1897
	.uleb128 .LBE1909-.LBB1897
	.byte	0
.LLRL584:
	.byte	0x5
	.4byte	.LBB1899
	.byte	0x4
	.uleb128 .LBB1899-.LBB1899
	.uleb128 .LBE1899-.LBB1899
	.byte	0x4
	.uleb128 .LBB1910-.LBB1899
	.uleb128 .LBE1910-.LBB1899
	.byte	0x4
	.uleb128 .LBB1911-.LBB1899
	.uleb128 .LBE1911-.LBB1899
	.byte	0
.LLRL588:
	.byte	0x5
	.4byte	.LBB1902
	.byte	0x4
	.uleb128 .LBB1902-.LBB1902
	.uleb128 .LBE1902-.LBB1902
	.byte	0x4
	.uleb128 .LBB1904-.LBB1902
	.uleb128 .LBE1904-.LBB1902
	.byte	0
.LLRL606:
	.byte	0x5
	.4byte	.LBB1981
	.byte	0x4
	.uleb128 .LBB1981-.LBB1981
	.uleb128 .LBE1981-.LBB1981
	.byte	0x4
	.uleb128 .LBB1990-.LBB1981
	.uleb128 .LBE1990-.LBB1981
	.byte	0
.LLRL608:
	.byte	0x5
	.4byte	.LBB1983
	.byte	0x4
	.uleb128 .LBB1983-.LBB1983
	.uleb128 .LBE1983-.LBB1983
	.byte	0x4
	.uleb128 .LBB1986-.LBB1983
	.uleb128 .LBE1986-.LBB1983
	.byte	0
.LLRL611:
	.byte	0x5
	.4byte	.LBB1988
	.byte	0x4
	.uleb128 .LBB1988-.LBB1988
	.uleb128 .LBE1988-.LBB1988
	.byte	0x4
	.uleb128 .LBB1991-.LBB1988
	.uleb128 .LBE1991-.LBB1988
	.byte	0
.LLRL614:
	.byte	0x5
	.4byte	.LBB1993
	.byte	0x4
	.uleb128 .LBB1993-.LBB1993
	.uleb128 .LBE1993-.LBB1993
	.byte	0x4
	.uleb128 .LBB2014-.LBB1993
	.uleb128 .LBE2014-.LBB1993
	.byte	0
.LLRL617:
	.byte	0x5
	.4byte	.LBB1995
	.byte	0x4
	.uleb128 .LBB1995-.LBB1995
	.uleb128 .LBE1995-.LBB1995
	.byte	0x4
	.uleb128 .LBB2012-.LBB1995
	.uleb128 .LBE2012-.LBB1995
	.byte	0
.LLRL620:
	.byte	0x5
	.4byte	.LBB1996
	.byte	0x4
	.uleb128 .LBB1996-.LBB1996
	.uleb128 .LBE1996-.LBB1996
	.byte	0x4
	.uleb128 .LBB2011-.LBB1996
	.uleb128 .LBE2011-.LBB1996
	.byte	0
.LLRL623:
	.byte	0x5
	.4byte	.LBB1997
	.byte	0x4
	.uleb128 .LBB1997-.LBB1997
	.uleb128 .LBE1997-.LBB1997
	.byte	0x4
	.uleb128 .LBB2010-.LBB1997
	.uleb128 .LBE2010-.LBB1997
	.byte	0
.LLRL624:
	.byte	0x5
	.4byte	.LBB1998
	.byte	0x4
	.uleb128 .LBB1998-.LBB1998
	.uleb128 .LBE1998-.LBB1998
	.byte	0x4
	.uleb128 .LBB2009-.LBB1998
	.uleb128 .LBE2009-.LBB1998
	.byte	0
.LLRL628:
	.byte	0x5
	.4byte	.LBB2001
	.byte	0x4
	.uleb128 .LBB2001-.LBB2001
	.uleb128 .LBE2001-.LBB2001
	.byte	0x4
	.uleb128 .LBB2004-.LBB2001
	.uleb128 .LBE2004-.LBB2001
	.byte	0
.LLRL642:
	.byte	0x5
	.4byte	.LBB2021
	.byte	0x4
	.uleb128 .LBB2021-.LBB2021
	.uleb128 .LBE2021-.LBB2021
	.byte	0x4
	.uleb128 .LBB2050-.LBB2021
	.uleb128 .LBE2050-.LBB2021
	.byte	0
.LLRL645:
	.byte	0x5
	.4byte	.LBB2023
	.byte	0x4
	.uleb128 .LBB2023-.LBB2023
	.uleb128 .LBE2023-.LBB2023
	.byte	0x4
	.uleb128 .LBB2035-.LBB2023
	.uleb128 .LBE2035-.LBB2023
	.byte	0
.LLRL648:
	.byte	0x5
	.4byte	.LBB2025
	.byte	0x4
	.uleb128 .LBB2025-.LBB2025
	.uleb128 .LBE2025-.LBB2025
	.byte	0x4
	.uleb128 .LBB2036-.LBB2025
	.uleb128 .LBE2036-.LBB2025
	.byte	0x4
	.uleb128 .LBB2037-.LBB2025
	.uleb128 .LBE2037-.LBB2025
	.byte	0
.LLRL652:
	.byte	0x5
	.4byte	.LBB2028
	.byte	0x4
	.uleb128 .LBB2028-.LBB2028
	.uleb128 .LBE2028-.LBB2028
	.byte	0x4
	.uleb128 .LBB2030-.LBB2028
	.uleb128 .LBE2030-.LBB2028
	.byte	0
.LLRL667:
	.byte	0x7
	.4byte	.LFB2073
	.uleb128 .LFE2073-.LFB2073
	.byte	0x7
	.4byte	.LFB2072
	.uleb128 .LFE2072-.LFB2072
	.byte	0x7
	.4byte	.LFB2076
	.uleb128 .LFE2076-.LFB2076
	.byte	0x7
	.4byte	.LFB2077
	.uleb128 .LFE2077-.LFB2077
	.byte	0x7
	.4byte	.LFB2242
	.uleb128 .LFE2242-.LFB2242
	.byte	0x7
	.4byte	.LFB2346
	.uleb128 .LFE2346-.LFB2346
	.byte	0x7
	.4byte	.LFB2070
	.uleb128 .LFE2070-.LFB2070
	.byte	0x7
	.4byte	.LFB2348
	.uleb128 .LFE2348-.LFB2348
	.byte	0x7
	.4byte	.LFB2071
	.uleb128 .LFE2071-.LFB2071
	.byte	0x7
	.4byte	.LFB2485
	.uleb128 .LFE2485-.LFB2485
	.byte	0x7
	.4byte	.LFB2487
	.uleb128 .LFE2487-.LFB2487
	.byte	0x7
	.4byte	.LFB2278
	.uleb128 .LFE2278-.LFB2278
	.byte	0x7
	.4byte	.LFB2075
	.uleb128 .LFE2075-.LFB2075
	.byte	0x7
	.4byte	.LFB2074
	.uleb128 .LFE2074-.LFB2074
	.byte	0
.Ldebug_ranges3:
	.section	.debug_line,"",%progbits
.Ldebug_line0:
	.section	.debug_str,"MS",%progbits,1
.LASF554:
	.ascii	"_ZNSt15_Deque_iteratorIlRKlPS0_EmmEi\000"
.LASF1010:
	.ascii	"_ZN9__gnu_cxx17__normal_iteratorIPlSt6vectorIlSaIlE"
	.ascii	"EEC4ERKS1_\000"
.LASF73:
	.ascii	"log10\000"
.LASF1008:
	.ascii	"__normal_iterator\000"
.LASF391:
	.ascii	"_ZNKSt6vectorIlSaIlEE4sizeEv\000"
.LASF167:
	.ascii	"expm1\000"
.LASF553:
	.ascii	"_ZNSt15_Deque_iteratorIlRKlPS0_EmmEv\000"
.LASF138:
	.ascii	"_ZSt13islessgreaterdd\000"
.LASF776:
	.ascii	"_ZNSt6vectorIfSaIfEE9push_backERKf\000"
.LASF1006:
	.ascii	"__normal_iterator<long int*, std::vector<long int, "
	.ascii	"std::allocator<long int> > >\000"
.LASF366:
	.ascii	"_ZNSt6vectorIlSaIlEE6assignESt16initializer_listIlE"
	.ascii	"\000"
.LASF757:
	.ascii	"_ZNKSt6vectorIfSaIfEE4sizeEv\000"
.LASF779:
	.ascii	"_ZNSt6vectorIfSaIfEE6insertEN9__gnu_cxx17__normal_i"
	.ascii	"teratorIPKfS1_EERS4_\000"
.LASF686:
	.ascii	"_ZNSt5dequeIlSaIlEE19_M_destroy_data_auxESt15_Deque"
	.ascii	"_iteratorIlRlPlES5_\000"
.LASF307:
	.ascii	"_ZNSt12_Vector_baseIlSaIlEE12_Vector_implC4EOS2_\000"
.LASF1177:
	.ascii	"__it\000"
.LASF642:
	.ascii	"_ZNKSt5dequeIlSaIlEE4sizeEv\000"
.LASF1130:
	.ascii	"overflow_cnt\000"
.LASF46:
	.ascii	"_ZSt5atan2ee\000"
.LASF524:
	.ascii	"_Self\000"
.LASF374:
	.ascii	"reverse_iterator\000"
.LASF609:
	.ascii	"_ZNSt5dequeIlSaIlEE14_S_buffer_sizeEv\000"
.LASF199:
	.ascii	"log1p\000"
.LASF783:
	.ascii	"_ZNSt6vectorIfSaIfEE5eraseEN9__gnu_cxx17__normal_it"
	.ascii	"eratorIPKfS1_EE\000"
.LASF1131:
	.ascii	"samples_out_cnt\000"
.LASF262:
	.ascii	"allocate\000"
.LASF1225:
	.ascii	"__node_offset\000"
.LASF469:
	.ascii	"_M_data_ptr<long int>\000"
.LASF1187:
	.ascii	"__allocmax\000"
.LASF137:
	.ascii	"_ZSt13islessgreateree\000"
.LASF194:
	.ascii	"_ZSt6llrinte\000"
.LASF195:
	.ascii	"_ZSt6llrintf\000"
.LASF731:
	.ascii	"_ZNSt6vectorIfSaIfEEC4EjRKfRKS0_\000"
.LASF830:
	.ascii	"_ZNSt12_Vector_baseIfSaIfEE17_Vector_impl_data12_M_"
	.ascii	"swap_dataERS2_\000"
.LASF266:
	.ascii	"_ZNSt15__new_allocatorIlE10deallocateEPlj\000"
.LASF655:
	.ascii	"_ZNSt5dequeIlSaIlEE4backEv\000"
.LASF566:
	.ascii	"_ZNSt11_Deque_baseIlSaIlEE16_Deque_impl_dataC4Ev\000"
.LASF988:
	.ascii	"__alloc_traits<std::allocator<long int>, long int>\000"
.LASF899:
	.ascii	"__copy_move_backward_a2<false, long int**, long int"
	.ascii	"**>\000"
.LASF841:
	.ascii	"_ZNSt12_Vector_baseIfSaIfEEC4Ej\000"
.LASF376:
	.ascii	"_ZNSt6vectorIlSaIlEE6rbeginEv\000"
.LASF546:
	.ascii	"_ZNSt15_Deque_iteratorIlRKlPS0_EC4ERKS3_\000"
.LASF902:
	.ascii	"_ZSt14__copy_move_a2ILb0EPPlS1_ET1_T0_S3_S2_\000"
.LASF47:
	.ascii	"_ZSt5atan2ff\000"
.LASF563:
	.ascii	"_M_map\000"
.LASF448:
	.ascii	"_ZNSt6vectorIlSaIlEE16_M_shrink_to_fitEv\000"
.LASF696:
	.ascii	"_M_reserve_elements_at_front\000"
.LASF743:
	.ascii	"_ZNSt6vectorIfSaIfEE6assignEjRKf\000"
.LASF847:
	.ascii	"_ZNSt12_Vector_baseIfSaIfEED4Ev\000"
.LASF986:
	.ascii	"__ops\000"
.LASF630:
	.ascii	"_ZNSt5dequeIlSaIlEE5beginEv\000"
.LASF139:
	.ascii	"_ZSt13islessgreaterff\000"
.LASF736:
	.ascii	"_ZNSt6vectorIfSaIfEEC4EOS1_RKS0_St17integral_consta"
	.ascii	"ntIbLb0EE\000"
.LASF631:
	.ascii	"_ZNKSt5dequeIlSaIlEE5beginEv\000"
.LASF646:
	.ascii	"_ZNSt5dequeIlSaIlEE13shrink_to_fitEv\000"
.LASF720:
	.ascii	"reverse_iterator<std::_Deque_iterator<long int, lon"
	.ascii	"g int const&, long int const*> >\000"
.LASF1047:
	.ascii	"_ZNK9__gnu_cxx17__normal_iteratorIPKfSt6vectorIfSaI"
	.ascii	"fEEEplEi\000"
.LASF432:
	.ascii	"_ZNSt6vectorIlSaIlEE5eraseEN9__gnu_cxx17__normal_it"
	.ascii	"eratorIPKlS1_EES6_\000"
.LASF79:
	.ascii	"_ZSt3powee\000"
.LASF279:
	.ascii	"_ZNSt15__new_allocatorIlEaSERKS0_\000"
.LASF985:
	.ascii	"__gnu_cxx\000"
.LASF671:
	.ascii	"_ZNSt5dequeIlSaIlEE4swapERS1_\000"
.LASF1055:
	.ascii	"short unsigned int\000"
.LASF1168:
	.ascii	"operator new\000"
.LASF351:
	.ascii	"_ZNSt6vectorIlSaIlEEC4EjRKlRKS0_\000"
.LASF1159:
	.ascii	"m_attenuate_shift\000"
.LASF978:
	.ascii	"_ZStmiRKSt15_Deque_iteratorIlRlPlES4_\000"
.LASF111:
	.ascii	"_ZSt5isnanf\000"
.LASF40:
	.ascii	"_ZSt4asine\000"
.LASF41:
	.ascii	"_ZSt4asinf\000"
.LASF656:
	.ascii	"_ZNKSt5dequeIlSaIlEE4backEv\000"
.LASF276:
	.ascii	"_ZNSaIlEC4Ev\000"
.LASF140:
	.ascii	"isunordered\000"
.LASF398:
	.ascii	"capacity\000"
.LASF1009:
	.ascii	"_ZN9__gnu_cxx17__normal_iteratorIPlSt6vectorIlSaIlE"
	.ascii	"EEC4Ev\000"
.LASF1186:
	.ascii	"__diffmax\000"
.LASF960:
	.ascii	"__copy_move_backward_a<true, std::_Deque_iterator<l"
	.ascii	"ong int, long int&, long int*>, std::_Deque_iterato"
	.ascii	"r<long int, long int&, long int*> >\000"
.LASF589:
	.ascii	"_ZNKSt11_Deque_baseIlSaIlEE19_M_get_Tp_allocatorEv\000"
.LASF474:
	.ascii	"initializer_list<long int>\000"
.LASF80:
	.ascii	"_ZSt3powff\000"
.LASF1191:
	.ascii	"__old_num_nodes\000"
.LASF120:
	.ascii	"isgreater\000"
.LASF71:
	.ascii	"_ZSt3loge\000"
.LASF72:
	.ascii	"_ZSt3logf\000"
.LASF333:
	.ascii	"_ZNSt12_Vector_baseIlSaIlEE17_M_create_storageEj\000"
.LASF1257:
	.ascii	"__aeabi_i2f\000"
.LASF1086:
	.ascii	"uint16_t\000"
.LASF1154:
	.ascii	"_ZN6filter9CICFilter7out_lenEv\000"
.LASF786:
	.ascii	"_ZNSt6vectorIfSaIfEE5clearEv\000"
.LASF803:
	.ascii	"__new_allocator<float>\000"
.LASF812:
	.ascii	"_ZNKSt15__new_allocatorIfE8max_sizeEv\000"
.LASF116:
	.ascii	"signbit\000"
.LASF599:
	.ascii	"_M_deallocate_map\000"
.LASF1070:
	.ascii	"float_t\000"
.LASF1035:
	.ascii	"__normal_iterator<float*, std::vector<float, std::a"
	.ascii	"llocator<float> > >\000"
.LASF1232:
	.ascii	"length\000"
.LASF1073:
	.ascii	"div_t\000"
.LASF1173:
	.ascii	"__last\000"
.LASF445:
	.ascii	"_M_default_append\000"
.LASF172:
	.ascii	"_ZSt4fdimff\000"
.LASF701:
	.ascii	"_ZNSt5dequeIlSaIlEE24_M_new_elements_at_frontEj\000"
.LASF259:
	.ascii	"const_pointer\000"
.LASF618:
	.ascii	"_ZNSt5dequeIlSaIlEEC4EOS1_RKS0_\000"
.LASF1018:
	.ascii	"_ZN9__gnu_cxx17__normal_iteratorIPlSt6vectorIlSaIlE"
	.ascii	"EEpLEi\000"
.LASF963:
	.ascii	"_ZSt12__miter_baseISt15_Deque_iteratorIlRlPlEET_S4_"
	.ascii	"\000"
.LASF1247:
	.ascii	"coefficients_size\000"
.LASF940:
	.ascii	"_ZSt4copyIPPlS1_ET0_T_S3_S2_\000"
.LASF1197:
	.ascii	"_ZNSt15__new_allocatorIPlEC2Ev\000"
.LASF965:
	.ascii	"_ZSt12__to_addressIlEPT_S1_\000"
.LASF11:
	.ascii	"_ZNKSt17integral_constantIbLb0EEcvbEv\000"
.LASF306:
	.ascii	"_ZNSt12_Vector_baseIlSaIlEE12_Vector_implC4ERKS0_\000"
.LASF265:
	.ascii	"deallocate\000"
.LASF1171:
	.ascii	"__from\000"
.LASF332:
	.ascii	"_M_create_storage\000"
.LASF3:
	.ascii	"operator std::integral_constant<bool, true>::value_"
	.ascii	"type\000"
.LASF760:
	.ascii	"_ZNSt6vectorIfSaIfEE6resizeEjRKf\000"
.LASF770:
	.ascii	"_ZNSt6vectorIfSaIfEE5frontEv\000"
.LASF25:
	.ascii	"_Category\000"
.LASF584:
	.ascii	"_ZNSt11_Deque_baseIlSaIlEEC4EOS1_RKS0_\000"
.LASF598:
	.ascii	"_ZNSt11_Deque_baseIlSaIlEE15_M_allocate_mapEj\000"
.LASF410:
	.ascii	"_ZNKSt6vectorIlSaIlEE2atEj\000"
.LASF275:
	.ascii	"allocator\000"
.LASF837:
	.ascii	"_ZNKSt12_Vector_baseIfSaIfEE19_M_get_Tp_allocatorEv"
	.ascii	"\000"
.LASF1189:
	.ascii	"__nodes_to_add\000"
.LASF565:
	.ascii	"_Deque_impl_data\000"
.LASF944:
	.ascii	"_IRef\000"
.LASF1145:
	.ascii	"_ZN6filter9FIRFilter11process_oneEv\000"
.LASF788:
	.ascii	"_ZNSt6vectorIfSaIfEE21_M_default_initializeEj\000"
.LASF669:
	.ascii	"_ZNSt5dequeIlSaIlEE5eraseESt15_Deque_iteratorIlRKlP"
	.ascii	"S3_E\000"
.LASF298:
	.ascii	"_M_end_of_storage\000"
.LASF267:
	.ascii	"max_size\000"
.LASF319:
	.ascii	"_ZNSt12_Vector_baseIlSaIlEEC4EjRKS0_\000"
.LASF1116:
	.ascii	"FILTER_BUFFER_SIZE\000"
.LASF1188:
	.ascii	"__al\000"
.LASF928:
	.ascii	"__copy_move_dit<true, long int, long int&, long int"
	.ascii	"*, std::_Deque_iterator<long int, long int&, long i"
	.ascii	"nt*> >\000"
.LASF941:
	.ascii	"__copy_move_a1<true, long int, long int&, long int*"
	.ascii	", long int>\000"
.LASF937:
	.ascii	"copy_backward<long int**, long int**>\000"
.LASF327:
	.ascii	"_M_impl\000"
.LASF858:
	.ascii	"_ZNKSt16initializer_listIfE4sizeEv\000"
.LASF1091:
	.ascii	"atoi\000"
.LASF1063:
	.ascii	"__max_align_ll\000"
.LASF569:
	.ascii	"_ZNSt11_Deque_baseIlSaIlEE16_Deque_impl_dataC4EOS2_"
	.ascii	"\000"
.LASF614:
	.ascii	"_ZNSt5dequeIlSaIlEEC4EjRKlRKS0_\000"
.LASF587:
	.ascii	"_ZNSt11_Deque_baseIlSaIlEED4Ev\000"
.LASF1088:
	.ascii	"uint32_t\000"
.LASF5:
	.ascii	"_ZNKSt17integral_constantIbLb1EEcvbEv\000"
.LASF1050:
	.ascii	"_ZNK9__gnu_cxx17__normal_iteratorIPKfSt6vectorIfSaI"
	.ascii	"fEEE4baseEv\000"
.LASF286:
	.ascii	"_ZNSt16allocator_traitsISaIlEE8allocateERS0_jPKv\000"
.LASF324:
	.ascii	"_ZNSt12_Vector_baseIlSaIlEEC4ERKS0_OS1_\000"
.LASF594:
	.ascii	"_ZNSt11_Deque_baseIlSaIlEE16_M_allocate_nodeEv\000"
.LASF1193:
	.ascii	"__new_nstart\000"
.LASF452:
	.ascii	"_ZNSt6vectorIlSaIlEE14_M_emplace_auxEN9__gnu_cxx17_"
	.ascii	"_normal_iteratorIPKlS1_EEOl\000"
.LASF188:
	.ascii	"_ZSt5ilogbe\000"
.LASF189:
	.ascii	"_ZSt5ilogbf\000"
.LASF378:
	.ascii	"_ZNKSt6vectorIlSaIlEE6rbeginEv\000"
.LASF12:
	.ascii	"_ZNKSt17integral_constantIbLb0EEclEv\000"
.LASF831:
	.ascii	"_ZNSt12_Vector_baseIfSaIfEE12_Vector_implC4Ev\000"
.LASF347:
	.ascii	"vector\000"
.LASF1087:
	.ascii	"int32_t\000"
.LASF1205:
	.ascii	"__pos\000"
.LASF952:
	.ascii	"_ZSt12__niter_baseISt15_Deque_iteratorIlRlPlEET_S4_"
	.ascii	"\000"
.LASF568:
	.ascii	"_ZNSt11_Deque_baseIlSaIlEE16_Deque_impl_dataaSERKS2"
	.ascii	"_\000"
.LASF114:
	.ascii	"_ZSt8isnormald\000"
.LASF21:
	.ascii	"__debug\000"
.LASF115:
	.ascii	"_ZSt8isnormalf\000"
.LASF953:
	.ascii	"__relocate_a<long int*, long int*, std::allocator<l"
	.ascii	"ong int> >\000"
.LASF242:
	.ascii	"_ZSt6tgammae\000"
.LASF243:
	.ascii	"_ZSt6tgammaf\000"
.LASF271:
	.ascii	"construct<long int, long int>\000"
.LASF322:
	.ascii	"_ZNSt12_Vector_baseIlSaIlEEC4EOS0_\000"
.LASF726:
	.ascii	"_ZNSt6vectorIfSaIfEE14_S_do_relocateEPfS2_S2_RS0_St"
	.ascii	"17integral_constantIbLb0EE\000"
.LASF1251:
	.ascii	"memcpy\000"
.LASF22:
	.ascii	"__copy_move<false, false, std::random_access_iterat"
	.ascii	"or_tag>\000"
.LASF893:
	.ascii	"__copy_move_a2<true, long int*, long int*>\000"
.LASF459:
	.ascii	"_M_erase_at_end\000"
.LASF816:
	.ascii	"_ZNSaIfEC4ERKS_\000"
.LASF344:
	.ascii	"_ZNSt6vectorIlSaIlEE14_S_do_relocateEPlS2_S2_RS0_St"
	.ascii	"17integral_constantIbLb0EE\000"
.LASF338:
	.ascii	"vector<long int, std::allocator<long int> >\000"
.LASF431:
	.ascii	"_ZNSt6vectorIlSaIlEE5eraseEN9__gnu_cxx17__normal_it"
	.ascii	"eratorIPKlS1_EE\000"
.LASF542:
	.ascii	"_ZNSt15_Deque_iteratorIlRlPlE14_S_buffer_sizeEv\000"
.LASF463:
	.ascii	"_ZNSt6vectorIlSaIlEE8_M_eraseEN9__gnu_cxx17__normal"
	.ascii	"_iteratorIPlS1_EES5_\000"
.LASF1206:
	.ascii	"_ZNSt15_Deque_iteratorIlRlPlEC2ES1_PS1_\000"
.LASF1248:
	.ascii	"in_ptr\000"
.LASF230:
	.ascii	"_ZSt4rinte\000"
.LASF231:
	.ascii	"_ZSt4rintf\000"
.LASF444:
	.ascii	"_ZNSt6vectorIlSaIlEE14_M_fill_insertEN9__gnu_cxx17_"
	.ascii	"_normal_iteratorIPlS1_EEjRKl\000"
.LASF876:
	.ascii	"__copy_m<long int*, long int*>\000"
.LASF1194:
	.ascii	"__new_map_size\000"
.LASF1265:
	.ascii	"_ZNSt16allocator_traitsISaIlEE9constructIlJlEEEvRS0"
	.ascii	"_PT_DpOT0_\000"
.LASF57:
	.ascii	"sinh\000"
.LASF238:
	.ascii	"scalbn\000"
.LASF722:
	.ascii	"_ZNSt6vectorIfSaIfEE19_S_nothrow_relocateESt17integ"
	.ascii	"ral_constantIbLb1EE\000"
.LASF513:
	.ascii	"_ZNSt15_Deque_iteratorIlRlPlEC4ES1_PS1_\000"
.LASF1125:
	.ascii	"read\000"
.LASF321:
	.ascii	"_ZNSt12_Vector_baseIlSaIlEEC4EOS1_\000"
.LASF1182:
	.ascii	"__node\000"
.LASF1176:
	.ascii	"__res\000"
.LASF372:
	.ascii	"_ZNSt6vectorIlSaIlEE3endEv\000"
.LASF277:
	.ascii	"_ZNSaIlEC4ERKS_\000"
.LASF691:
	.ascii	"_ZNSt5dequeIlSaIlEE15_M_erase_at_endESt15_Deque_ite"
	.ascii	"ratorIlRlPlE\000"
.LASF735:
	.ascii	"_ZNSt6vectorIfSaIfEEC4EOS1_RKS0_St17integral_consta"
	.ascii	"ntIbLb1EE\000"
.LASF517:
	.ascii	"__iter\000"
.LASF697:
	.ascii	"_ZNSt5dequeIlSaIlEE28_M_reserve_elements_at_frontEj"
	.ascii	"\000"
.LASF9:
	.ascii	"value_type\000"
.LASF1201:
	.ascii	"__in_chrg\000"
.LASF492:
	.ascii	"_ZNSt15__new_allocatorIPlE10deallocateEPS0_j\000"
.LASF477:
	.ascii	"allocator<long int*>\000"
.LASF1106:
	.ascii	"wctomb\000"
.LASF106:
	.ascii	"_ZSt5isinfd\000"
.LASF105:
	.ascii	"_ZSt5isinfe\000"
.LASF107:
	.ascii	"_ZSt5isinff\000"
.LASF1059:
	.ascii	"long int\000"
.LASF755:
	.ascii	"_ZNKSt6vectorIfSaIfEE7crbeginEv\000"
.LASF118:
	.ascii	"_ZSt7signbitd\000"
.LASF117:
	.ascii	"_ZSt7signbite\000"
.LASF119:
	.ascii	"_ZSt7signbitf\000"
.LASF318:
	.ascii	"_ZNSt12_Vector_baseIlSaIlEEC4Ej\000"
.LASF521:
	.ascii	"_ZNKSt15_Deque_iteratorIlRlPlEdeEv\000"
.LASF832:
	.ascii	"_ZNSt12_Vector_baseIfSaIfEE12_Vector_implC4ERKS0_\000"
.LASF989:
	.ascii	"_S_select_on_copy\000"
.LASF695:
	.ascii	"_ZNSt5dequeIlSaIlEE16_M_shrink_to_fitEv\000"
.LASF486:
	.ascii	"_ZNSt15__new_allocatorIPlEC4ERKS1_\000"
.LASF320:
	.ascii	"_ZNSt12_Vector_baseIlSaIlEEC4Ev\000"
.LASF537:
	.ascii	"_M_set_node\000"
.LASF624:
	.ascii	"_ZNSt5dequeIlSaIlEEaSERKS1_\000"
.LASF428:
	.ascii	"_ZNSt6vectorIlSaIlEE6insertEN9__gnu_cxx17__normal_i"
	.ascii	"teratorIPKlS1_EESt16initializer_listIlE\000"
.LASF688:
	.ascii	"_ZNSt5dequeIlSaIlEE15_M_destroy_dataESt15_Deque_ite"
	.ascii	"ratorIlRlPlES5_RKS0_\000"
.LASF804:
	.ascii	"_ZNSt15__new_allocatorIfEC4Ev\000"
.LASF310:
	.ascii	"_Tp_alloc_type\000"
.LASF1137:
	.ascii	"m_buffer_fill\000"
.LASF1092:
	.ascii	"atol\000"
.LASF427:
	.ascii	"_ZNSt6vectorIlSaIlEE6insertEN9__gnu_cxx17__normal_i"
	.ascii	"teratorIPKlS1_EEOl\000"
.LASF245:
	.ascii	"_ZSt5trunce\000"
.LASF246:
	.ascii	"_ZSt5truncf\000"
.LASF1048:
	.ascii	"_ZN9__gnu_cxx17__normal_iteratorIPKfSt6vectorIfSaIf"
	.ascii	"EEEmIEi\000"
.LASF502:
	.ascii	"rebind\000"
.LASF102:
	.ascii	"_ZSt8isfinited\000"
.LASF101:
	.ascii	"_ZSt8isfinitee\000"
.LASF103:
	.ascii	"_ZSt8isfinitef\000"
.LASF882:
	.ascii	"__copy_move_b<long int, long int>\000"
.LASF703:
	.ascii	"_ZNSt5dequeIlSaIlEE23_M_new_elements_at_backEj\000"
.LASF1172:
	.ascii	"__first\000"
.LASF1239:
	.ascii	"coeff_len\000"
.LASF913:
	.ascii	"_ZSt14__copy_move_a1ILb0EPPlS1_ET1_T0_S3_S2_\000"
.LASF778:
	.ascii	"_ZNSt6vectorIfSaIfEE8pop_backEv\000"
.LASF595:
	.ascii	"_M_deallocate_node\000"
.LASF373:
	.ascii	"_ZNKSt6vectorIlSaIlEE3endEv\000"
.LASF1107:
	.ascii	"lldiv\000"
.LASF971:
	.ascii	"_ZSt13move_backwardISt15_Deque_iteratorIlRlPlES3_ET"
	.ascii	"0_T_S5_S4_\000"
.LASF704:
	.ascii	"_M_reserve_map_at_back\000"
.LASF331:
	.ascii	"_ZNSt12_Vector_baseIlSaIlEE13_M_deallocateEPlj\000"
.LASF206:
	.ascii	"_ZSt4logbe\000"
.LASF207:
	.ascii	"_ZSt4logbf\000"
.LASF711:
	.ascii	"_ZNSt5dequeIlSaIlEE15_M_move_assign1EOS1_St17integr"
	.ascii	"al_constantIbLb1EE\000"
.LASF371:
	.ascii	"_ZNKSt6vectorIlSaIlEE5beginEv\000"
.LASF1242:
	.ascii	"p_data1\000"
.LASF1243:
	.ascii	"p_data2\000"
.LASF848:
	.ascii	"_ZNSt12_Vector_baseIfSaIfEE11_M_allocateEj\000"
.LASF505:
	.ascii	"_S_buffer_size\000"
.LASF342:
	.ascii	"_S_do_relocate\000"
.LASF339:
	.ascii	"_S_nothrow_relocate\000"
.LASF1162:
	.ascii	"m_order\000"
.LASF303:
	.ascii	"_M_swap_data\000"
.LASF1170:
	.ascii	"__to\000"
.LASF827:
	.ascii	"_ZNSt12_Vector_baseIfSaIfEE17_Vector_impl_dataC4EOS"
	.ascii	"2_\000"
.LASF1012:
	.ascii	"_ZNK9__gnu_cxx17__normal_iteratorIPlSt6vectorIlSaIl"
	.ascii	"EEEptEv\000"
.LASF690:
	.ascii	"_ZNSt5dequeIlSaIlEE17_M_erase_at_beginESt15_Deque_i"
	.ascii	"teratorIlRlPlE\000"
.LASF914:
	.ascii	"__niter_base<long int**>\000"
.LASF661:
	.ascii	"_ZNSt5dequeIlSaIlEE9push_backEOl\000"
.LASF1180:
	.ascii	"__rlen\000"
.LASF1200:
	.ascii	"__rhs\000"
.LASF104:
	.ascii	"isinf\000"
.LASF409:
	.ascii	"_ZNSt6vectorIlSaIlEE2atEj\000"
.LASF28:
	.ascii	"__assign_one<long int, long int>\000"
.LASF768:
	.ascii	"_ZNSt6vectorIfSaIfEE2atEj\000"
.LASF1017:
	.ascii	"_ZNK9__gnu_cxx17__normal_iteratorIPlSt6vectorIlSaIl"
	.ascii	"EEEixEi\000"
.LASF260:
	.ascii	"_ZNKSt15__new_allocatorIlE7addressERKl\000"
.LASF1226:
	.ascii	"_ZNSt15_Deque_iteratorIlRlPlEC2ERKS2_\000"
.LASF957:
	.ascii	"_Allocator\000"
.LASF562:
	.ascii	"_Deque_base<long int, std::allocator<long int> >\000"
.LASF1052:
	.ascii	"__type\000"
.LASF660:
	.ascii	"_ZNSt5dequeIlSaIlEE9push_backERKl\000"
.LASF336:
	.ascii	"type\000"
.LASF936:
	.ascii	"_ZSt12__niter_baseIPlET_S1_\000"
.LASF401:
	.ascii	"_ZNKSt6vectorIlSaIlEE5emptyEv\000"
.LASF508:
	.ascii	"_M_first\000"
.LASF520:
	.ascii	"operator*\000"
.LASF979:
	.ascii	"operator+\000"
.LASF966:
	.ascii	"operator-\000"
.LASF494:
	.ascii	"_ZNKSt15__new_allocatorIPlE11_M_max_sizeEv\000"
.LASF1083:
	.ascii	"__gnu_debug\000"
.LASF666:
	.ascii	"_ZNSt5dequeIlSaIlEE6insertESt15_Deque_iteratorIlRKl"
	.ascii	"PS3_EOl\000"
.LASF278:
	.ascii	"operator=\000"
.LASF1066:
	.ascii	"__uint16_t\000"
.LASF228:
	.ascii	"_ZSt6remquoffPi\000"
.LASF29:
	.ascii	"_ZNSt11__copy_moveILb0ELb0ESt26random_access_iterat"
	.ascii	"or_tagE12__assign_oneIPlS3_EEvPT_PT0_\000"
.LASF467:
	.ascii	"_M_realloc_append<long int>\000"
.LASF789:
	.ascii	"_ZNSt6vectorIfSaIfEE14_M_fill_assignEjRKf\000"
.LASF964:
	.ascii	"__to_address<long int>\000"
.LASF1152:
	.ascii	"_ZN6filter9CICFilterD4Ev\000"
.LASF1174:
	.ascii	"__result\000"
.LASF932:
	.ascii	"__enable_if_t\000"
.LASF236:
	.ascii	"_ZSt7scalblnel\000"
.LASF1190:
	.ascii	"__add_at_front\000"
.LASF845:
	.ascii	"_ZNSt12_Vector_baseIfSaIfEEC4EOS1_RKS0_\000"
.LASF1031:
	.ascii	"_ZN9__gnu_cxx14__alloc_traitsISaIfEfE20_S_propagate"
	.ascii	"_on_swapEv\000"
.LASF1124:
	.ascii	"_ZN6filter9FIRFilter7out_lenEv\000"
.LASF870:
	.ascii	"_ZNSt16allocator_traitsISaIPlEE10deallocateERS1_PS0"
	.ascii	"_j\000"
.LASF1089:
	.ascii	"atexit\000"
.LASF616:
	.ascii	"_ZNSt5dequeIlSaIlEEC4EOS1_\000"
.LASF1236:
	.ascii	"err_cnt\000"
.LASF1144:
	.ascii	"process_one\000"
.LASF300:
	.ascii	"_ZNSt12_Vector_baseIlSaIlEE17_Vector_impl_dataC4EOS"
	.ascii	"2_\000"
.LASF1002:
	.ascii	"_ZN9__gnu_cxx14__alloc_traitsISaIlElE15_S_nothrow_m"
	.ascii	"oveEv\000"
.LASF901:
	.ascii	"__copy_move_a2<false, long int**, long int**>\000"
.LASF480:
	.ascii	"_ZNSaIPlEaSERKS0_\000"
.LASF725:
	.ascii	"_ZNSt6vectorIfSaIfEE14_S_do_relocateEPfS2_S2_RS0_St"
	.ascii	"17integral_constantIbLb1EE\000"
.LASF1129:
	.ascii	"_ZN6filter9FIRFilter12is_symmetricEv\000"
.LASF968:
	.ascii	"move<std::_Deque_iterator<long int, long int&, long"
	.ascii	" int*>, std::_Deque_iterator<long int, long int&, l"
	.ascii	"ong int*> >\000"
.LASF76:
	.ascii	"modf\000"
.LASF361:
	.ascii	"_ZNSt6vectorIlSaIlEEaSERKS1_\000"
.LASF920:
	.ascii	"min<int>\000"
.LASF328:
	.ascii	"_M_allocate\000"
.LASF705:
	.ascii	"_ZNSt5dequeIlSaIlEE22_M_reserve_map_at_backEj\000"
.LASF1155:
	.ascii	"_ZN6filter9CICFilter4readEPtj\000"
.LASF863:
	.ascii	"_ZNSt19__ptr_traits_ptr_toIPKlS0_Lb0EE10pointer_toE"
	.ascii	"RS0_\000"
.LASF343:
	.ascii	"_ZNSt6vectorIlSaIlEE14_S_do_relocateEPlS2_S2_RS0_St"
	.ascii	"17integral_constantIbLb1EE\000"
.LASF886:
	.ascii	"_ZNSt11__copy_moveILb1ELb1ESt26random_access_iterat"
	.ascii	"or_tagE8__copy_mIllEEPT0_PT_S6_S4_\000"
.LASF468:
	.ascii	"_ZNSt6vectorIlSaIlEE17_M_realloc_appendIJlEEEvDpOT_"
	.ascii	"\000"
.LASF1264:
	.ascii	"align_val_t\000"
.LASF912:
	.ascii	"__copy_move_a1<false, long int**, long int**>\000"
.LASF237:
	.ascii	"_ZSt7scalblnfl\000"
.LASF302:
	.ascii	"_ZNSt12_Vector_baseIlSaIlEE17_Vector_impl_data12_M_"
	.ascii	"copy_dataERKS2_\000"
.LASF715:
	.ascii	"_ZNSt5dequeIlSaIlEE15_M_move_assign2EOS1_St17integr"
	.ascii	"al_constantIbLb0EE\000"
.LASF859:
	.ascii	"_ZNKSt16initializer_listIfE5beginEv\000"
.LASF571:
	.ascii	"_Deque_impl\000"
.LASF1196:
	.ascii	"_ZN9__gnu_cxx17__normal_iteratorIPlSt6vectorIlSaIlE"
	.ascii	"EEC2ERKS1_\000"
.LASF408:
	.ascii	"_ZNKSt6vectorIlSaIlEE14_M_range_checkEj\000"
.LASF983:
	.ascii	"unsigned char\000"
.LASF612:
	.ascii	"_ZNSt5dequeIlSaIlEEC4ERKS0_\000"
.LASF535:
	.ascii	"_ZNSt15_Deque_iteratorIlRlPlEmIEi\000"
.LASF793:
	.ascii	"_ZNSt6vectorIfSaIfEE14_M_insert_rvalEN9__gnu_cxx17_"
	.ascii	"_normal_iteratorIPKfS1_EEOf\000"
.LASF20:
	.ascii	"random_access_iterator_tag\000"
.LASF851:
	.ascii	"__type_identity<std::allocator<float> >\000"
.LASF969:
	.ascii	"_ZSt4moveISt15_Deque_iteratorIlRlPlES3_ET0_T_S5_S4_"
	.ascii	"\000"
.LASF2:
	.ascii	"float\000"
.LASF58:
	.ascii	"_ZSt4sinhe\000"
.LASF59:
	.ascii	"_ZSt4sinhf\000"
.LASF775:
	.ascii	"_ZNKSt6vectorIfSaIfEE4dataEv\000"
.LASF1199:
	.ascii	"__lhs\000"
.LASF555:
	.ascii	"_ZNSt15_Deque_iteratorIlRKlPS0_EpLEi\000"
.LASF1051:
	.ascii	"__enable_if<true, std::_Deque_iterator<long int, lo"
	.ascii	"ng int&, long int*> >\000"
.LASF709:
	.ascii	"_ZNSt5dequeIlSaIlEE17_M_reallocate_mapEjb\000"
.LASF615:
	.ascii	"_ZNSt5dequeIlSaIlEEC4ERKS1_\000"
.LASF1262:
	.ascii	"C:\\Projects\\oppc_sw\\oppc-aux-sw\000"
.LASF364:
	.ascii	"assign\000"
.LASF1151:
	.ascii	"~CICFilter\000"
.LASF543:
	.ascii	"_ZNSt15_Deque_iteratorIlRKlPS0_E14_S_buffer_sizeEv\000"
.LASF1032:
	.ascii	"_ZN9__gnu_cxx14__alloc_traitsISaIfEfE15_S_always_eq"
	.ascii	"ualEv\000"
.LASF1254:
	.ascii	"__aeabi_uidiv\000"
.LASF999:
	.ascii	"_S_always_equal\000"
.LASF813:
	.ascii	"_ZNKSt15__new_allocatorIfE11_M_max_sizeEv\000"
.LASF925:
	.ascii	"_ZSt13__copy_move_aILb0EPPlS1_ET1_T0_S3_S2_\000"
.LASF360:
	.ascii	"_ZNSt6vectorIlSaIlEED4Ev\000"
.LASF641:
	.ascii	"_ZNKSt5dequeIlSaIlEE5crendEv\000"
.LASF815:
	.ascii	"_ZNSaIfEC4Ev\000"
.LASF959:
	.ascii	"_ZSt13__copy_move_aILb1ESt15_Deque_iteratorIlRlPlES"
	.ascii	"3_ET1_T0_S5_S4_\000"
.LASF602:
	.ascii	"_ZNSt11_Deque_baseIlSaIlEE17_M_initialize_mapEj\000"
.LASF379:
	.ascii	"rend\000"
.LASF905:
	.ascii	"__copy_move_backward_a1<true, long int*, long int*>"
	.ascii	"\000"
.LASF798:
	.ascii	"_ZNSt6vectorIfSaIfEE15_M_erase_at_endEPf\000"
.LASF365:
	.ascii	"_ZNSt6vectorIlSaIlEE6assignEjRKl\000"
.LASF1244:
	.ascii	"p_data\000"
.LASF485:
	.ascii	"_ZNSt15__new_allocatorIPlEC4Ev\000"
.LASF93:
	.ascii	"fmod\000"
.LASF377:
	.ascii	"const_reverse_iterator\000"
.LASF1161:
	.ascii	"m_data_counter\000"
.LASF724:
	.ascii	"_ZNSt6vectorIfSaIfEE15_S_use_relocateEv\000"
.LASF13:
	.ascii	"false_type\000"
.LASF1158:
	.ascii	"m_int_state\000"
.LASF967:
	.ascii	"_ZStmiRKSt15_Deque_iteratorIlRlPlEi\000"
.LASF560:
	.ascii	"_ZNSt15_Deque_iteratorIlRKlPS0_EC4IS_IlRlPlEvEERKT_"
	.ascii	"\000"
.LASF253:
	.ascii	"~__new_allocator\000"
.LASF449:
	.ascii	"_M_insert_rval\000"
.LASF433:
	.ascii	"swap\000"
.LASF992:
	.ascii	"_ZN9__gnu_cxx14__alloc_traitsISaIlElE10_S_on_swapER"
	.ascii	"S1_S3_\000"
.LASF187:
	.ascii	"ilogb\000"
.LASF1234:
	.ascii	"stage_in\000"
.LASF380:
	.ascii	"_ZNSt6vectorIlSaIlEE4rendEv\000"
.LASF836:
	.ascii	"_ZNSt12_Vector_baseIfSaIfEE19_M_get_Tp_allocatorEv\000"
.LASF1000:
	.ascii	"_ZN9__gnu_cxx14__alloc_traitsISaIlElE15_S_always_eq"
	.ascii	"ualEv\000"
.LASF1224:
	.ascii	"__offset\000"
.LASF1149:
	.ascii	"CICFilter\000"
.LASF193:
	.ascii	"llrint\000"
.LASF927:
	.ascii	"_ZSt12__miter_baseIPPlET_S2_\000"
.LASF751:
	.ascii	"_ZNSt6vectorIfSaIfEE4rendEv\000"
.LASF1269:
	.ascii	"_ZZNSt6vectorIlSaIlEE17_M_realloc_appendIJlEEEvDpOT"
	.ascii	"_EN6_GuardD2Ev\000"
.LASF289:
	.ascii	"_ZNSt16allocator_traitsISaIlEE8max_sizeERKS0_\000"
.LASF264:
	.ascii	"size_type\000"
.LASF1222:
	.ascii	"__map_alloc\000"
.LASF834:
	.ascii	"_ZNSt12_Vector_baseIfSaIfEE12_Vector_implC4EOS0_\000"
.LASF1252:
	.ascii	"__builtin_memmove\000"
.LASF739:
	.ascii	"_ZNSt6vectorIfSaIfEED4Ev\000"
.LASF753:
	.ascii	"_ZNKSt6vectorIfSaIfEE6cbeginEv\000"
.LASF367:
	.ascii	"iterator\000"
.LASF1112:
	.ascii	"strtold\000"
.LASF183:
	.ascii	"_ZSt5hypotddd\000"
.LASF795:
	.ascii	"_ZNKSt6vectorIfSaIfEE12_M_check_lenEjPKc\000"
.LASF544:
	.ascii	"_ZNSt15_Deque_iteratorIlRKlPS0_EC4EPlPS4_\000"
.LASF1109:
	.ascii	"strtoll\000"
.LASF811:
	.ascii	"_ZNSt15__new_allocatorIfE10deallocateEPfj\000"
.LASF1049:
	.ascii	"_ZNK9__gnu_cxx17__normal_iteratorIPKfSt6vectorIfSaI"
	.ascii	"fEEEmiEi\000"
.LASF317:
	.ascii	"_ZNSt12_Vector_baseIlSaIlEEC4ERKS0_\000"
.LASF349:
	.ascii	"_ZNSt6vectorIlSaIlEEC4ERKS0_\000"
.LASF362:
	.ascii	"_ZNSt6vectorIlSaIlEEaSEOS1_\000"
.LASF918:
	.ascii	"__copy_move_backward_a1<true, long int*, long int>\000"
.LASF1153:
	.ascii	"_ZN6filter9CICFilter5writeEPKtjj\000"
.LASF548:
	.ascii	"_ZNKSt15_Deque_iteratorIlRKlPS0_E13_M_const_castEv\000"
.LASF590:
	.ascii	"_Map_alloc_type\000"
.LASF1229:
	.ascii	"_ZNSt15_Deque_iteratorIlRKlPS0_EC2IS_IlRlPlEvEERKT_"
	.ascii	"\000"
.LASF857:
	.ascii	"_ZNSt16initializer_listIfEC4Ev\000"
.LASF667:
	.ascii	"_ZNSt5dequeIlSaIlEE6insertESt15_Deque_iteratorIlRKl"
	.ascii	"PS3_ESt16initializer_listIlE\000"
.LASF741:
	.ascii	"_ZNSt6vectorIfSaIfEEaSEOS1_\000"
.LASF872:
	.ascii	"_ZNSt16allocator_traitsISaIPlEE37select_on_containe"
	.ascii	"r_copy_constructionERKS1_\000"
.LASF1077:
	.ascii	"7lldiv_t\000"
.LASF721:
	.ascii	"vector<float, std::allocator<float> >\000"
.LASF359:
	.ascii	"~vector\000"
.LASF817:
	.ascii	"_ZNSaIfEaSERKS_\000"
.LASF1227:
	.ascii	"__nstart\000"
.LASF479:
	.ascii	"_ZNSaIPlEC4ERKS0_\000"
.LASF689:
	.ascii	"_M_erase_at_begin\000"
.LASF113:
	.ascii	"_ZSt8isnormale\000"
.LASF6:
	.ascii	"_ZNKSt17integral_constantIbLb1EEclEv\000"
.LASF352:
	.ascii	"_ZNSt6vectorIlSaIlEEC4ERKS1_\000"
.LASF214:
	.ascii	"nearbyint\000"
.LASF126:
	.ascii	"_ZSt14isgreaterequaldd\000"
.LASF947:
	.ascii	"__niter_wrap<std::_Deque_iterator<long int, long in"
	.ascii	"t&, long int*> >\000"
.LASF627:
	.ascii	"_ZNSt5dequeIlSaIlEE6assignEjRKl\000"
.LASF1231:
	.ascii	"output_size\000"
.LASF833:
	.ascii	"_ZNSt12_Vector_baseIfSaIfEE12_Vector_implC4EOS2_\000"
.LASF874:
	.ascii	"enable_if<true, long int*>\000"
.LASF122:
	.ascii	"_ZSt9isgreaterdd\000"
.LASF1133:
	.ascii	"m_values\000"
.LASF390:
	.ascii	"size\000"
.LASF280:
	.ascii	"_ZNSaIlEaSERKS_\000"
.LASF16:
	.ascii	"__swappable_details\000"
.LASF274:
	.ascii	"allocator<long int>\000"
.LASF998:
	.ascii	"_ZN9__gnu_cxx14__alloc_traitsISaIlElE20_S_propagate"
	.ascii	"_on_swapEv\000"
.LASF915:
	.ascii	"_ZSt12__niter_baseIPPlET_S2_\000"
.LASF1020:
	.ascii	"_ZN9__gnu_cxx17__normal_iteratorIPlSt6vectorIlSaIlE"
	.ascii	"EEmIEi\000"
.LASF301:
	.ascii	"_M_copy_data\000"
.LASF88:
	.ascii	"_ZSt4fabse\000"
.LASF89:
	.ascii	"_ZSt4fabsf\000"
.LASF125:
	.ascii	"_ZSt14isgreaterequalee\000"
.LASF1095:
	.ascii	"ldiv\000"
.LASF435:
	.ascii	"clear\000"
.LASF1014:
	.ascii	"_ZN9__gnu_cxx17__normal_iteratorIPlSt6vectorIlSaIlE"
	.ascii	"EEppEi\000"
.LASF281:
	.ascii	"~allocator\000"
.LASF456:
	.ascii	"_ZNSt6vectorIlSaIlEE17_S_check_init_lenEjRKS0_\000"
.LASF1160:
	.ascii	"m_gain\000"
.LASF121:
	.ascii	"_ZSt9isgreateree\000"
.LASF819:
	.ascii	"allocator_traits<std::allocator<float> >\000"
.LASF15:
	.ascii	"size_t\000"
.LASF215:
	.ascii	"_ZSt9nearbyinte\000"
.LASF216:
	.ascii	"_ZSt9nearbyintf\000"
.LASF162:
	.ascii	"_ZSt4erfce\000"
.LASF163:
	.ascii	"_ZSt4erfcf\000"
.LASF145:
	.ascii	"_ZSt5acoshe\000"
.LASF146:
	.ascii	"_ZSt5acoshf\000"
.LASF1184:
	.ascii	"__count\000"
.LASF1042:
	.ascii	"_ZN9__gnu_cxx17__normal_iteratorIPKfSt6vectorIfSaIf"
	.ascii	"EEEppEi\000"
.LASF839:
	.ascii	"_ZNSt12_Vector_baseIfSaIfEEC4Ev\000"
.LASF489:
	.ascii	"_ZNKSt15__new_allocatorIPlE7addressERS0_\000"
.LASF802:
	.ascii	"_ZNSt6vectorIfSaIfEE14_M_move_assignEOS1_St17integr"
	.ascii	"al_constantIbLb0EE\000"
.LASF354:
	.ascii	"_ZNSt6vectorIlSaIlEEC4ERKS1_RKS0_\000"
.LASF949:
	.ascii	"__copy_move_backward_a1<true, long int, long int&, "
	.ascii	"long int*, long int>\000"
.LASF620:
	.ascii	"_ZNSt5dequeIlSaIlEEC4EOS1_RKS0_St17integral_constan"
	.ascii	"tIbLb0EE\000"
.LASF900:
	.ascii	"_ZSt23__copy_move_backward_a2ILb0EPPlS1_ET1_T0_S3_S"
	.ascii	"2_\000"
.LASF593:
	.ascii	"_M_allocate_node\000"
.LASF411:
	.ascii	"front\000"
.LASF127:
	.ascii	"_ZSt14isgreaterequalff\000"
.LASF980:
	.ascii	"_ZStplRKSt15_Deque_iteratorIlRlPlEi\000"
.LASF633:
	.ascii	"_ZNKSt5dequeIlSaIlEE3endEv\000"
.LASF756:
	.ascii	"_ZNKSt6vectorIfSaIfEE5crendEv\000"
.LASF1084:
	.ascii	"_Float32\000"
.LASF1023:
	.ascii	"_ZNK9__gnu_cxx17__normal_iteratorIPlSt6vectorIlSaIl"
	.ascii	"EEE4baseEv\000"
.LASF954:
	.ascii	"_ZSt12__relocate_aIPlS0_SaIlEET0_T_S3_S2_RT1_\000"
.LASF585:
	.ascii	"_ZNSt11_Deque_baseIlSaIlEEC4EOS1_RKS0_j\000"
.LASF1007:
	.ascii	"_M_current\000"
.LASF123:
	.ascii	"_ZSt9isgreaterff\000"
.LASF1122:
	.ascii	"_ZN6filter9FIRFilter5writeEPKtjj\000"
.LASF608:
	.ascii	"_ZNSt6vectorIlSaIlEE15_S_use_relocateEv\000"
.LASF1046:
	.ascii	"_ZN9__gnu_cxx17__normal_iteratorIPKfSt6vectorIfSaIf"
	.ascii	"EEEpLEi\000"
.LASF856:
	.ascii	"_ZNSt16initializer_listIfEC4EPKfj\000"
.LASF498:
	.ascii	"element_type\000"
.LASF443:
	.ascii	"_M_fill_insert\000"
.LASF659:
	.ascii	"_ZNSt5dequeIlSaIlEE10push_frontEOl\000"
.LASF1249:
	.ascii	"sample_output\000"
.LASF153:
	.ascii	"cbrt\000"
.LASF869:
	.ascii	"_ZNSt16allocator_traitsISaIPlEE8allocateERS1_jPKv\000"
.LASF797:
	.ascii	"_ZNSt6vectorIfSaIfEE11_S_max_sizeERKS0_\000"
.LASF961:
	.ascii	"_ZSt22__copy_move_backward_aILb1ESt15_Deque_iterato"
	.ascii	"rIlRlPlES3_ET1_T0_S5_S4_\000"
.LASF635:
	.ascii	"_ZNKSt5dequeIlSaIlEE6rbeginEv\000"
.LASF1221:
	.ascii	"__new_node\000"
.LASF850:
	.ascii	"_ZNSt12_Vector_baseIfSaIfEE17_M_create_storageEj\000"
.LASF930:
	.ascii	"__copy_move_backward_dit<true, long int, long int&,"
	.ascii	" long int*, std::_Deque_iterator<long int, long int"
	.ascii	"&, long int*> >\000"
.LASF1057:
	.ascii	"signed char\000"
.LASF1114:
	.ascii	"FILTER_OUTPUT_LEN\000"
.LASF1025:
	.ascii	"__normal_iterator<long int const*, std::vector<long"
	.ascii	" int, std::allocator<long int> > >\000"
.LASF457:
	.ascii	"_S_max_size\000"
.LASF45:
	.ascii	"atan2\000"
.LASF441:
	.ascii	"_M_fill_assign\000"
.LASF491:
	.ascii	"_ZNSt15__new_allocatorIPlE8allocateEjPKv\000"
.LASF716:
	.ascii	"_M_push_back_aux<long int>\000"
.LASF951:
	.ascii	"__niter_base<std::_Deque_iterator<long int, long in"
	.ascii	"t&, long int*> >\000"
.LASF764:
	.ascii	"_ZNSt6vectorIfSaIfEE7reserveEj\000"
.LASF1261:
	.ascii	"lib/filter/src/filter.cpp\000"
.LASF1041:
	.ascii	"_ZN9__gnu_cxx17__normal_iteratorIPKfSt6vectorIfSaIf"
	.ascii	"EEEppEv\000"
.LASF657:
	.ascii	"push_front\000"
.LASF7:
	.ascii	"integral_constant<bool, true>\000"
.LASF507:
	.ascii	"_M_cur\000"
.LASF823:
	.ascii	"_ZNSt16allocator_traitsISaIfEE8max_sizeERKS0_\000"
.LASF1078:
	.ascii	"lldiv_t\000"
.LASF203:
	.ascii	"_ZSt4log2e\000"
.LASF204:
	.ascii	"_ZSt4log2f\000"
.LASF454:
	.ascii	"_ZNKSt6vectorIlSaIlEE12_M_check_lenEjPKc\000"
.LASF466:
	.ascii	"_ZNSt6vectorIlSaIlEE14_M_move_assignEOS1_St17integr"
	.ascii	"al_constantIbLb0EE\000"
.LASF212:
	.ascii	"_ZSt6lrounde\000"
.LASF213:
	.ascii	"_ZSt6lroundf\000"
.LASF692:
	.ascii	"_ZNSt5dequeIlSaIlEE8_M_eraseESt15_Deque_iteratorIlR"
	.ascii	"lPlE\000"
.LASF890:
	.ascii	"_ZSt28__throw_bad_array_new_lengthv\000"
.LASF458:
	.ascii	"_ZNSt6vectorIlSaIlEE11_S_max_sizeERKS0_\000"
.LASF150:
	.ascii	"atanh\000"
.LASF375:
	.ascii	"rbegin\000"
.LASF806:
	.ascii	"_ZNSt15__new_allocatorIfEaSERKS0_\000"
.LASF1005:
	.ascii	"rebind<long int*>\000"
.LASF975:
	.ascii	"_ZSteqRKSt15_Deque_iteratorIlRlPlES4_\000"
.LASF672:
	.ascii	"_ZNSt5dequeIlSaIlEE5clearEv\000"
.LASF1027:
	.ascii	"_ZN9__gnu_cxx14__alloc_traitsISaIfEfE17_S_select_on"
	.ascii	"_copyERKS1_\000"
.LASF800:
	.ascii	"_ZNSt6vectorIfSaIfEE8_M_eraseEN9__gnu_cxx17__normal"
	.ascii	"_iteratorIPfS1_EES5_\000"
.LASF249:
	.ascii	"_ZSt3divll\000"
.LASF794:
	.ascii	"_ZNSt6vectorIfSaIfEE14_M_emplace_auxEN9__gnu_cxx17_"
	.ascii	"_normal_iteratorIPKfS1_EEOf\000"
.LASF838:
	.ascii	"_ZNKSt12_Vector_baseIfSaIfEE13get_allocatorEv\000"
.LASF165:
	.ascii	"_ZSt4exp2e\000"
.LASF166:
	.ascii	"_ZSt4exp2f\000"
.LASF1019:
	.ascii	"_ZNK9__gnu_cxx17__normal_iteratorIPlSt6vectorIlSaIl"
	.ascii	"EEEplEi\000"
.LASF1085:
	.ascii	"_Float64\000"
.LASF182:
	.ascii	"_ZSt5hypoteee\000"
.LASF558:
	.ascii	"_ZNSt15_Deque_iteratorIlRKlPS0_E11_M_set_nodeEPPl\000"
.LASF191:
	.ascii	"_ZSt6lgammae\000"
.LASF192:
	.ascii	"_ZSt6lgammaf\000"
.LASF471:
	.ascii	"emplace_back<long int>\000"
.LASF316:
	.ascii	"_Vector_base\000"
.LASF1209:
	.ascii	"__elems\000"
.LASF164:
	.ascii	"exp2\000"
.LASF1110:
	.ascii	"strtoull\000"
.LASF550:
	.ascii	"_ZNKSt15_Deque_iteratorIlRKlPS0_EptEv\000"
.LASF1198:
	.ascii	"__ptr\000"
.LASF148:
	.ascii	"_ZSt5asinhe\000"
.LASF149:
	.ascii	"_ZSt5asinhf\000"
.LASF1024:
	.ascii	"_Container\000"
.LASF483:
	.ascii	"_Tp1\000"
.LASF1256:
	.ascii	"__builtin_roundf\000"
.LASF464:
	.ascii	"_M_move_assign\000"
.LASF490:
	.ascii	"_ZNKSt15__new_allocatorIPlE7addressERKS0_\000"
.LASF653:
	.ascii	"_ZNSt5dequeIlSaIlEE5frontEv\000"
.LASF557:
	.ascii	"_ZNKSt15_Deque_iteratorIlRKlPS0_EixEi\000"
.LASF382:
	.ascii	"cbegin\000"
.LASF977:
	.ascii	"_ZSt3maxIjERKT_S2_S2_\000"
.LASF254:
	.ascii	"_ZNSt15__new_allocatorIlED4Ev\000"
.LASF314:
	.ascii	"get_allocator\000"
.LASF581:
	.ascii	"_ZNSt11_Deque_baseIlSaIlEEC4ERKS0_j\000"
.LASF1214:
	.ascii	"_M_alloc\000"
.LASF110:
	.ascii	"_ZSt5isnand\000"
.LASF109:
	.ascii	"_ZSt5isnane\000"
.LASF26:
	.ascii	"__copy_move<true, false, std::random_access_iterato"
	.ascii	"r_tag>\000"
.LASF1127:
	.ascii	"_ZN6filter9FIRFilter4readEPtj\000"
.LASF509:
	.ascii	"_M_last\000"
.LASF904:
	.ascii	"_ZSt14__copy_move_a1ILb1EPlS0_ET1_T0_S2_S1_\000"
.LASF255:
	.ascii	"address\000"
.LASF896:
	.ascii	"_ZSt23__copy_move_backward_a2ILb1EPlS0_ET1_T0_S2_S1"
	.ascii	"_\000"
.LASF381:
	.ascii	"_ZNKSt6vectorIlSaIlEE4rendEv\000"
.LASF576:
	.ascii	"_ZNSt11_Deque_baseIlSaIlEE11_Deque_implC4EOS2_OS0_\000"
.LASF1185:
	.ascii	"this\000"
.LASF96:
	.ascii	"fpclassify\000"
.LASF388:
	.ascii	"crend\000"
.LASF154:
	.ascii	"_ZSt4cbrte\000"
.LASF155:
	.ascii	"_ZSt4cbrtf\000"
.LASF752:
	.ascii	"_ZNKSt6vectorIfSaIfEE4rendEv\000"
.LASF415:
	.ascii	"_ZNSt6vectorIlSaIlEE4backEv\000"
.LASF1103:
	.ascii	"strtoul\000"
.LASF801:
	.ascii	"_ZNSt6vectorIfSaIfEE14_M_move_assignEOS1_St17integr"
	.ascii	"al_constantIbLb1EE\000"
.LASF1233:
	.ascii	"step\000"
.LASF885:
	.ascii	"__copy_m<long int, long int>\000"
.LASF619:
	.ascii	"_ZNSt5dequeIlSaIlEEC4EOS1_RKS0_St17integral_constan"
	.ascii	"tIbLb1EE\000"
.LASF510:
	.ascii	"_Map_pointer\000"
.LASF939:
	.ascii	"copy<long int**, long int**>\000"
.LASF1139:
	.ascii	"m_max_values\000"
.LASF323:
	.ascii	"_ZNSt12_Vector_baseIlSaIlEEC4EOS1_RKS0_\000"
.LASF772:
	.ascii	"_ZNSt6vectorIfSaIfEE4backEv\000"
.LASF1076:
	.ascii	"ldiv_t\000"
.LASF404:
	.ascii	"operator[]\000"
.LASF309:
	.ascii	"_ZNSt12_Vector_baseIlSaIlEE12_Vector_implC4EOS0_OS2"
	.ascii	"_\000"
.LASF865:
	.ascii	"__detail\000"
.LASF36:
	.ascii	"acos\000"
.LASF209:
	.ascii	"_ZSt5lrinte\000"
.LASF210:
	.ascii	"_ZSt5lrintf\000"
.LASF527:
	.ascii	"_ZNSt15_Deque_iteratorIlRlPlEppEi\000"
.LASF996:
	.ascii	"_ZN9__gnu_cxx14__alloc_traitsISaIlElE27_S_propagate"
	.ascii	"_on_move_assignEv\000"
.LASF87:
	.ascii	"fabs\000"
.LASF981:
	.ascii	"min<unsigned int>\000"
.LASF526:
	.ascii	"_ZNSt15_Deque_iteratorIlRlPlEppEv\000"
.LASF962:
	.ascii	"__miter_base<std::_Deque_iterator<long int, long in"
	.ascii	"t&, long int*> >\000"
.LASF761:
	.ascii	"_ZNSt6vectorIfSaIfEE13shrink_to_fitEv\000"
.LASF710:
	.ascii	"_M_move_assign1\000"
.LASF678:
	.ascii	"_M_pop_back_aux\000"
.LASF108:
	.ascii	"isnan\000"
.LASF1080:
	.ascii	"wchar_t\000"
.LASF926:
	.ascii	"__miter_base<long int**>\000"
.LASF436:
	.ascii	"_ZNSt6vectorIlSaIlEE5clearEv\000"
.LASF501:
	.ascii	"pointer_traits<long int*>\000"
.LASF181:
	.ascii	"hypot\000"
.LASF824:
	.ascii	"_ZNSt16allocator_traitsISaIfEE37select_on_container"
	.ascii	"_copy_constructionERKS0_\000"
.LASF285:
	.ascii	"allocator_type\000"
.LASF1207:
	.ascii	"__old_start\000"
.LASF423:
	.ascii	"pop_back\000"
.LASF828:
	.ascii	"_ZNSt12_Vector_baseIfSaIfEE17_Vector_impl_data12_M_"
	.ascii	"copy_dataERKS2_\000"
.LASF90:
	.ascii	"floor\000"
.LASF1075:
	.ascii	"6ldiv_t\000"
.LASF785:
	.ascii	"_ZNSt6vectorIfSaIfEE4swapERS1_\000"
.LASF577:
	.ascii	"_ZNKSt11_Deque_baseIlSaIlEE13get_allocatorEv\000"
.LASF713:
	.ascii	"_M_move_assign2\000"
.LASF884:
	.ascii	"__copy_move<true, true, std::random_access_iterator"
	.ascii	"_tag>\000"
.LASF717:
	.ascii	"_ZNSt5dequeIlSaIlEE16_M_push_back_auxIJlEEEvDpOT_\000"
.LASF235:
	.ascii	"scalbln\000"
.LASF197:
	.ascii	"_ZSt7llrounde\000"
.LASF198:
	.ascii	"_ZSt7llroundf\000"
.LASF284:
	.ascii	"_ZNSt16allocator_traitsISaIlEE8allocateERS0_j\000"
.LASF1217:
	.ascii	"_ZZNSt6vectorIlSaIlEE17_M_realloc_appendIJlEEEvDpOT"
	.ascii	"_EN6_GuardD4Ev\000"
.LASF387:
	.ascii	"_ZNKSt6vectorIlSaIlEE7crbeginEv\000"
.LASF945:
	.ascii	"_IPtr\000"
.LASF782:
	.ascii	"_ZNSt6vectorIfSaIfEE6insertEN9__gnu_cxx17__normal_i"
	.ascii	"teratorIPKfS1_EEjRS4_\000"
.LASF465:
	.ascii	"_ZNSt6vectorIlSaIlEE14_M_move_assignEOS1_St17integr"
	.ascii	"al_constantIbLb1EE\000"
.LASF1253:
	.ascii	"__builtin_memcpy\000"
.LASF288:
	.ascii	"_ZNSt16allocator_traitsISaIlEE10deallocateERS0_Plj\000"
.LASF1235:
	.ascii	"stage_out\000"
.LASF547:
	.ascii	"_ZNSt15_Deque_iteratorIlRKlPS0_EaSERKS3_\000"
.LASF156:
	.ascii	"copysign\000"
.LASF1105:
	.ascii	"wcstombs\000"
.LASF412:
	.ascii	"_ZNSt6vectorIlSaIlEE5frontEv\000"
.LASF1081:
	.ascii	"char16_t\000"
.LASF1241:
	.ascii	"result\000"
.LASF451:
	.ascii	"_M_emplace_aux\000"
.LASF805:
	.ascii	"_ZNSt15__new_allocatorIfEC4ERKS0_\000"
.LASF972:
	.ascii	"operator!=\000"
.LASF1026:
	.ascii	"__alloc_traits<std::allocator<float>, float>\000"
.LASF687:
	.ascii	"_M_destroy_data\000"
.LASF993:
	.ascii	"_S_propagate_on_copy_assign\000"
.LASF130:
	.ascii	"_ZSt6islessdd\000"
.LASF511:
	.ascii	"_M_node\000"
.LASF1100:
	.ascii	"srand\000"
.LASF1223:
	.ascii	"__elems_before\000"
.LASF1111:
	.ascii	"strtof\000"
.LASF879:
	.ascii	"__copy_move_b<long int*, long int*>\000"
.LASF762:
	.ascii	"_ZNKSt6vectorIfSaIfEE8capacityEv\000"
.LASF217:
	.ascii	"nextafter\000"
.LASF750:
	.ascii	"_ZNKSt6vectorIfSaIfEE6rbeginEv\000"
.LASF650:
	.ascii	"_ZNKSt5dequeIlSaIlEE14_M_range_checkEj\000"
.LASF844:
	.ascii	"_ZNSt12_Vector_baseIfSaIfEEC4EOS0_\000"
.LASF733:
	.ascii	"_ZNSt6vectorIfSaIfEEC4EOS1_\000"
.LASF472:
	.ascii	"_ZNSt6vectorIlSaIlEE12emplace_backIJlEEERlDpOT_\000"
.LASF663:
	.ascii	"_ZNSt5dequeIlSaIlEE9pop_frontEv\000"
.LASF556:
	.ascii	"_ZNSt15_Deque_iteratorIlRKlPS0_EmIEi\000"
.LASF84:
	.ascii	"ceil\000"
.LASF503:
	.ascii	"_Deque_iterator<long int, long int&, long int*>\000"
.LASF1163:
	.ascii	"m_out_cnt\000"
.LASF257:
	.ascii	"pointer\000"
.LASF476:
	.ascii	"reverse_iterator<__gnu_cxx::__normal_iterator<long "
	.ascii	"int const*, std::vector<long int, std::allocator<lo"
	.ascii	"ng int> > > >\000"
.LASF129:
	.ascii	"_ZSt6islessee\000"
.LASF1082:
	.ascii	"char32_t\000"
.LASF405:
	.ascii	"_ZNSt6vectorIlSaIlEEixEj\000"
.LASF532:
	.ascii	"_ZNSt15_Deque_iteratorIlRlPlEpLEi\000"
.LASF747:
	.ascii	"_ZNSt6vectorIfSaIfEE3endEv\000"
.LASF421:
	.ascii	"_ZNSt6vectorIlSaIlEE9push_backERKl\000"
.LASF1064:
	.ascii	"__max_align_ld\000"
.LASF754:
	.ascii	"_ZNKSt6vectorIfSaIfEE4cendEv\000"
.LASF184:
	.ascii	"_ZSt5hypotfff\000"
.LASF1181:
	.ascii	"__rend\000"
.LASF1123:
	.ascii	"out_len\000"
.LASF335:
	.ascii	"__type_identity<std::allocator<long int> >\000"
.LASF1065:
	.ascii	"max_align_t\000"
.LASF700:
	.ascii	"_M_new_elements_at_front\000"
.LASF1164:
	.ascii	"m_out_buf\000"
.LASF1104:
	.ascii	"system\000"
.LASF681:
	.ascii	"_ZNSt5dequeIlSaIlEE16_M_pop_front_auxEv\000"
.LASF943:
	.ascii	"_ITp\000"
.LASF955:
	.ascii	"_InputIterator\000"
.LASF282:
	.ascii	"_ZNSaIlED4Ev\000"
.LASF100:
	.ascii	"isfinite\000"
.LASF478:
	.ascii	"_ZNSaIPlEC4Ev\000"
.LASF131:
	.ascii	"_ZSt6islessff\000"
.LASF684:
	.ascii	"_ZNSt5dequeIlSaIlEE13_M_insert_auxESt15_Deque_itera"
	.ascii	"torIlRlPlEjRKl\000"
.LASF74:
	.ascii	"_ZSt5log10e\000"
.LASF75:
	.ascii	"_ZSt5log10f\000"
.LASF500:
	.ascii	"_Elt\000"
.LASF518:
	.ascii	"_M_const_cast\000"
.LASF894:
	.ascii	"_ZSt14__copy_move_a2ILb1EPlS0_ET1_T0_S2_S1_\000"
.LASF564:
	.ascii	"_M_map_size\000"
.LASF496:
	.ascii	"pointer_to\000"
.LASF810:
	.ascii	"_ZNSt15__new_allocatorIfE8allocateEjPKv\000"
.LASF533:
	.ascii	"difference_type\000"
.LASF358:
	.ascii	"_ZNSt6vectorIlSaIlEEC4ESt16initializer_listIlERKS0_"
	.ascii	"\000"
.LASF247:
	.ascii	"ptrdiff_t\000"
.LASF414:
	.ascii	"back\000"
.LASF790:
	.ascii	"_ZNSt6vectorIfSaIfEE14_M_fill_insertEN9__gnu_cxx17_"
	.ascii	"_normal_iteratorIPfS1_EEjRKf\000"
.LASF679:
	.ascii	"_ZNSt5dequeIlSaIlEE15_M_pop_back_auxEv\000"
.LASF65:
	.ascii	"frexp\000"
.LASF270:
	.ascii	"_ZNKSt15__new_allocatorIlE11_M_max_sizeEv\000"
.LASF748:
	.ascii	"_ZNKSt6vectorIfSaIfEE3endEv\000"
.LASF353:
	.ascii	"_ZNSt6vectorIlSaIlEEC4EOS1_\000"
.LASF923:
	.ascii	"_ZSt22__copy_move_backward_aILb0EPPlS1_ET1_T0_S3_S2"
	.ascii	"_\000"
.LASF132:
	.ascii	"islessequal\000"
.LASF1175:
	.ascii	"_Num\000"
.LASF256:
	.ascii	"_ZNKSt15__new_allocatorIlE7addressERl\000"
.LASF826:
	.ascii	"_ZNSt12_Vector_baseIfSaIfEE17_Vector_impl_dataC4Ev\000"
.LASF393:
	.ascii	"resize\000"
.LASF1202:
	.ascii	"_ZNSt15__new_allocatorIPlED2Ev\000"
.LASF1179:
	.ascii	"__len\000"
.LASF1013:
	.ascii	"_ZN9__gnu_cxx17__normal_iteratorIPlSt6vectorIlSaIlE"
	.ascii	"EEppEv\000"
.LASF588:
	.ascii	"_ZNSt11_Deque_baseIlSaIlEE19_M_get_Tp_allocatorEv\000"
.LASF767:
	.ascii	"_ZNKSt6vectorIfSaIfEE14_M_range_checkEj\000"
.LASF759:
	.ascii	"_ZNSt6vectorIfSaIfEE6resizeEj\000"
.LASF888:
	.ascii	"_ZSt17__throw_bad_allocv\000"
.LASF1195:
	.ascii	"__new_map\000"
.LASF946:
	.ascii	"_OTp\000"
.LASF1238:
	.ascii	"state\000"
.LASF861:
	.ascii	"reverse_iterator<__gnu_cxx::__normal_iterator<float"
	.ascii	" const*, std::vector<float, std::allocator<float> >"
	.ascii	" > >\000"
.LASF98:
	.ascii	"_ZSt10fpclassifyd\000"
.LASF97:
	.ascii	"_ZSt10fpclassifye\000"
.LASF99:
	.ascii	"_ZSt10fpclassifyf\000"
.LASF873:
	.ascii	"iterator_traits<long int*>\000"
.LASF94:
	.ascii	"_ZSt4fmodee\000"
.LASF1097:
	.ascii	"mbstowcs\000"
.LASF1036:
	.ascii	"__normal_iterator<float const*, std::vector<float, "
	.ascii	"std::allocator<float> > >\000"
.LASF878:
	.ascii	"__copy_move_backward<false, true, std::random_acces"
	.ascii	"s_iterator_tag>\000"
.LASF1146:
	.ascii	"process_one_sym\000"
.LASF1034:
	.ascii	"rebind<float>\000"
.LASF252:
	.ascii	"_ZNSt15__new_allocatorIlEC4ERKS0_\000"
.LASF1039:
	.ascii	"_ZNK9__gnu_cxx17__normal_iteratorIPKfSt6vectorIfSaI"
	.ascii	"fEEEdeEv\000"
.LASF313:
	.ascii	"_ZNKSt12_Vector_baseIlSaIlEE19_M_get_Tp_allocatorEv"
	.ascii	"\000"
.LASF461:
	.ascii	"_M_erase\000"
.LASF446:
	.ascii	"_ZNSt6vectorIlSaIlEE17_M_default_appendEj\000"
.LASF369:
	.ascii	"_ZNSt6vectorIlSaIlEE5beginEv\000"
.LASF820:
	.ascii	"_ZNSt16allocator_traitsISaIfEE8allocateERS0_j\000"
.LASF654:
	.ascii	"_ZNKSt5dequeIlSaIlEE5frontEv\000"
.LASF1113:
	.ascii	"filter\000"
.LASF683:
	.ascii	"_M_insert_aux\000"
.LASF200:
	.ascii	"_ZSt5log1pe\000"
.LASF201:
	.ascii	"_ZSt5log1pf\000"
.LASF1178:
	.ascii	"__clen\000"
.LASF583:
	.ascii	"_ZNSt11_Deque_baseIlSaIlEEC4EOS1_\000"
.LASF95:
	.ascii	"_ZSt4fmodff\000"
.LASF860:
	.ascii	"reverse_iterator<__gnu_cxx::__normal_iterator<float"
	.ascii	"*, std::vector<float, std::allocator<float> > > >\000"
.LASF948:
	.ascii	"_ZSt12__niter_wrapISt15_Deque_iteratorIlRlPlEET_RKS"
	.ascii	"4_S4_\000"
.LASF877:
	.ascii	"_ZNSt11__copy_moveILb0ELb1ESt26random_access_iterat"
	.ascii	"or_tagE8__copy_mIPlS3_EEPT0_PT_S7_S5_\000"
.LASF875:
	.ascii	"__copy_move<false, true, std::random_access_iterato"
	.ascii	"r_tag>\000"
.LASF506:
	.ascii	"_Elt_pointer\000"
.LASF702:
	.ascii	"_M_new_elements_at_back\000"
.LASF384:
	.ascii	"cend\000"
.LASF698:
	.ascii	"_M_reserve_elements_at_back\000"
.LASF1141:
	.ascii	"m_gain_bits\000"
.LASF895:
	.ascii	"__copy_move_backward_a2<true, long int*, long int*>"
	.ascii	"\000"
.LASF394:
	.ascii	"_ZNSt6vectorIlSaIlEE6resizeEj\000"
.LASF392:
	.ascii	"_ZNKSt6vectorIlSaIlEE8max_sizeEv\000"
.LASF416:
	.ascii	"_ZNKSt6vectorIlSaIlEE4backEv\000"
.LASF297:
	.ascii	"_M_finish\000"
.LASF1246:
	.ascii	"gain_bits\000"
.LASF685:
	.ascii	"_M_destroy_data_aux\000"
.LASF175:
	.ascii	"fmax\000"
.LASF4:
	.ascii	"operator()\000"
.LASF742:
	.ascii	"_ZNSt6vectorIfSaIfEEaSESt16initializer_listIfE\000"
.LASF290:
	.ascii	"select_on_container_copy_construction\000"
.LASF773:
	.ascii	"_ZNKSt6vectorIfSaIfEE4backEv\000"
.LASF462:
	.ascii	"_ZNSt6vectorIlSaIlEE8_M_eraseEN9__gnu_cxx17__normal"
	.ascii	"_iteratorIPlS1_EE\000"
.LASF580:
	.ascii	"_ZNSt11_Deque_baseIlSaIlEEC4Ej\000"
.LASF55:
	.ascii	"_ZSt4coshe\000"
.LASF56:
	.ascii	"_ZSt4coshf\000"
.LASF649:
	.ascii	"_ZNKSt5dequeIlSaIlEEixEj\000"
.LASF579:
	.ascii	"_ZNSt11_Deque_baseIlSaIlEEC4Ev\000"
.LASF112:
	.ascii	"isnormal\000"
.LASF348:
	.ascii	"_ZNSt6vectorIlSaIlEEC4Ev\000"
.LASF730:
	.ascii	"_ZNSt6vectorIfSaIfEEC4EjRKS0_\000"
.LASF487:
	.ascii	"_ZNSt15__new_allocatorIPlEaSERKS1_\000"
.LASF8:
	.ascii	"integral_constant<bool, false>\000"
.LASF601:
	.ascii	"_M_initialize_map\000"
.LASF395:
	.ascii	"_ZNSt6vectorIlSaIlEE6resizeEjRKl\000"
.LASF592:
	.ascii	"_ZNKSt11_Deque_baseIlSaIlEE20_M_get_map_allocatorEv"
	.ascii	"\000"
.LASF142:
	.ascii	"_ZSt11isunordereddd\000"
.LASF272:
	.ascii	"_ZNSt15__new_allocatorIlE9constructIlJlEEEvPT_DpOT0"
	.ascii	"_\000"
.LASF1219:
	.ascii	"__guard\000"
.LASF1220:
	.ascii	"_ZNSaIPlED2Ev\000"
.LASF591:
	.ascii	"_M_get_map_allocator\000"
.LASF1090:
	.ascii	"atof\000"
.LASF680:
	.ascii	"_M_pop_front_aux\000"
.LASF1230:
	.ascii	"max_length\000"
.LASF994:
	.ascii	"_ZN9__gnu_cxx14__alloc_traitsISaIlElE27_S_propagate"
	.ascii	"_on_copy_assignEv\000"
.LASF227:
	.ascii	"_ZSt6remquoeePi\000"
.LASF516:
	.ascii	"_ZNSt15_Deque_iteratorIlRlPlEaSERKS2_\000"
.LASF434:
	.ascii	"_ZNSt6vectorIlSaIlEE4swapERS1_\000"
.LASF341:
	.ascii	"_ZNSt6vectorIlSaIlEE19_S_nothrow_relocateESt17integ"
	.ascii	"ral_constantIbLb0EE\000"
.LASF345:
	.ascii	"_S_relocate\000"
.LASF597:
	.ascii	"_M_allocate_map\000"
.LASF144:
	.ascii	"acosh\000"
.LASF774:
	.ascii	"_ZNSt6vectorIfSaIfEE4dataEv\000"
.LASF1169:
	.ascii	"_Znwj\000"
.LASF440:
	.ascii	"_ZNSt6vectorIlSaIlEE21_M_default_initializeEj\000"
.LASF326:
	.ascii	"_ZNSt12_Vector_baseIlSaIlEED4Ev\000"
.LASF628:
	.ascii	"_ZNSt5dequeIlSaIlEE6assignESt16initializer_listIlE\000"
.LASF718:
	.ascii	"_ZNSt5dequeIlSaIlEE12emplace_backIJlEEERlDpOT_\000"
.LASF141:
	.ascii	"_ZSt11isunorderedee\000"
.LASF438:
	.ascii	"_ZNSt6vectorIlSaIlEE18_M_fill_initializeEjRKl\000"
.LASF766:
	.ascii	"_ZNKSt6vectorIfSaIfEEixEj\000"
.LASF807:
	.ascii	"_ZNSt15__new_allocatorIfED4Ev\000"
.LASF223:
	.ascii	"remainder\000"
.LASF1216:
	.ascii	"~_Guard\000"
.LASF1101:
	.ascii	"strtod\000"
.LASF54:
	.ascii	"cosh\000"
.LASF179:
	.ascii	"_ZSt4fminee\000"
.LASF1054:
	.ascii	"_ZN9__gnu_cxxmiIPlSt6vectorIlSaIlEEEENS_17__normal_"
	.ascii	"iteratorIT_T0_E15difference_typeERKS8_SB_\000"
.LASF1044:
	.ascii	"_ZN9__gnu_cxx17__normal_iteratorIPKfSt6vectorIfSaIf"
	.ascii	"EEEmmEi\000"
.LASF1102:
	.ascii	"strtol\000"
.LASF136:
	.ascii	"islessgreater\000"
.LASF241:
	.ascii	"tgamma\000"
.LASF907:
	.ascii	"__copy_move_backward_a1<false, long int**, long int"
	.ascii	"**>\000"
.LASF402:
	.ascii	"reserve\000"
.LASF567:
	.ascii	"_ZNSt11_Deque_baseIlSaIlEE16_Deque_impl_dataC4ERKS2"
	.ascii	"_\000"
.LASF648:
	.ascii	"_ZNSt5dequeIlSaIlEEixEj\000"
.LASF682:
	.ascii	"_ZNSt5dequeIlSaIlEE14_M_fill_insertESt15_Deque_iter"
	.ascii	"atorIlRlPlEjRKl\000"
.LASF1203:
	.ascii	"_ZNSaIPlEC2IlEERKSaIT_E\000"
.LASF604:
	.ascii	"_ZNSt11_Deque_baseIlSaIlEE15_M_create_nodesEPPlS3_\000"
.LASF208:
	.ascii	"lrint\000"
.LASF897:
	.ascii	"_BI1\000"
.LASF950:
	.ascii	"_ZSt23__copy_move_backward_a1ILb1ElRlPllESt15_Deque"
	.ascii	"_iteratorIT3_RS3_PS3_ES2_IT0_T1_T2_ESA_S6_\000"
.LASF898:
	.ascii	"_BI2\000"
.LASF143:
	.ascii	"_ZSt11isunorderedff\000"
.LASF229:
	.ascii	"rint\000"
.LASF525:
	.ascii	"operator++\000"
.LASF991:
	.ascii	"_S_on_swap\000"
.LASF984:
	.ascii	"bool\000"
.LASF305:
	.ascii	"_ZNSt12_Vector_baseIlSaIlEE12_Vector_implC4Ev\000"
.LASF419:
	.ascii	"_ZNKSt6vectorIlSaIlEE4dataEv\000"
.LASF180:
	.ascii	"_ZSt4fminff\000"
.LASF357:
	.ascii	"_ZNSt6vectorIlSaIlEEC4EOS1_RKS0_\000"
.LASF867:
	.ascii	"allocator_traits<std::allocator<long int*> >\000"
.LASF497:
	.ascii	"_ZNSt19__ptr_traits_ptr_toIPllLb0EE10pointer_toERl\000"
.LASF221:
	.ascii	"_ZSt10nexttowardee\000"
.LASF1126:
	.ascii	"_ZN6filter9FIRFilter4readEPlj\000"
.LASF482:
	.ascii	"_ZNSaIPlEC4IlEERKSaIT_E\000"
.LASF268:
	.ascii	"_ZNKSt15__new_allocatorIlE8max_sizeEv\000"
.LASF1143:
	.ascii	"_ZN6filter9FIRFilter16set_coefficientsESt6vectorIfS"
	.ascii	"aIfEEm\000"
.LASF613:
	.ascii	"_ZNSt5dequeIlSaIlEEC4EjRKS0_\000"
.LASF334:
	.ascii	"_Alloc\000"
.LASF929:
	.ascii	"_ZSt15__copy_move_ditILb1ElRlPlSt15_Deque_iteratorI"
	.ascii	"lS0_S1_EET3_S2_IT0_T1_T2_ES8_S4_\000"
.LASF283:
	.ascii	"allocator_traits<std::allocator<long int> >\000"
.LASF719:
	.ascii	"reverse_iterator<std::_Deque_iterator<long int, lon"
	.ascii	"g int&, long int*> >\000"
.LASF299:
	.ascii	"_ZNSt12_Vector_baseIlSaIlEE17_Vector_impl_dataC4Ev\000"
.LASF1021:
	.ascii	"_ZNK9__gnu_cxx17__normal_iteratorIPlSt6vectorIlSaIl"
	.ascii	"EEEmiEi\000"
.LASF1069:
	.ascii	"char\000"
.LASF52:
	.ascii	"_ZSt3tane\000"
.LASF53:
	.ascii	"_ZSt3tanf\000"
.LASF68:
	.ascii	"ldexp\000"
.LASF420:
	.ascii	"push_back\000"
.LASF531:
	.ascii	"operator+=\000"
.LASF771:
	.ascii	"_ZNKSt6vectorIfSaIfEE5frontEv\000"
.LASF222:
	.ascii	"_ZSt10nexttowardfe\000"
.LASF232:
	.ascii	"round\000"
.LASF714:
	.ascii	"_ZNSt5dequeIlSaIlEE15_M_move_assign2EOS1_St17integr"
	.ascii	"al_constantIbLb1EE\000"
.LASF853:
	.ascii	"_M_array\000"
.LASF425:
	.ascii	"insert\000"
.LASF990:
	.ascii	"_ZN9__gnu_cxx14__alloc_traitsISaIlElE17_S_select_on"
	.ascii	"_copyERKS1_\000"
.LASF586:
	.ascii	"~_Deque_base\000"
.LASF1211:
	.ascii	"__new_finish\000"
.LASF161:
	.ascii	"erfc\000"
.LASF147:
	.ascii	"asinh\000"
.LASF447:
	.ascii	"_M_shrink_to_fit\000"
.LASF881:
	.ascii	"__copy_move_backward<true, true, std::random_access"
	.ascii	"_iterator_tag>\000"
.LASF337:
	.ascii	"_Type\000"
.LASF528:
	.ascii	"operator--\000"
.LASF33:
	.ascii	"_ZSt3absd\000"
.LASF31:
	.ascii	"_ZSt3abse\000"
.LASF32:
	.ascii	"_ZSt3absf\000"
.LASF82:
	.ascii	"_ZSt4sqrte\000"
.LASF83:
	.ascii	"_ZSt4sqrtf\000"
.LASF35:
	.ascii	"_ZSt3absl\000"
.LASF239:
	.ascii	"_ZSt6scalbnei\000"
.LASF534:
	.ascii	"operator-=\000"
.LASF522:
	.ascii	"operator->\000"
.LASF34:
	.ascii	"_ZSt3absx\000"
.LASF647:
	.ascii	"_ZNKSt5dequeIlSaIlEE5emptyEv\000"
.LASF626:
	.ascii	"_ZNSt5dequeIlSaIlEEaSESt16initializer_listIlE\000"
.LASF1245:
	.ascii	"coefficients\000"
.LASF1183:
	.ascii	"__alloc\000"
.LASF63:
	.ascii	"_ZSt3expe\000"
.LASF64:
	.ascii	"_ZSt3expf\000"
.LASF777:
	.ascii	"_ZNSt6vectorIfSaIfEE9push_backEOf\000"
.LASF1030:
	.ascii	"_ZN9__gnu_cxx14__alloc_traitsISaIfEfE27_S_propagate"
	.ascii	"_on_move_assignEv\000"
.LASF539:
	.ascii	"_Ref\000"
.LASF173:
	.ascii	"_ZSt3fmaeee\000"
.LASF61:
	.ascii	"_ZSt4tanhe\000"
.LASF62:
	.ascii	"_ZSt4tanhf\000"
.LASF293:
	.ascii	"_Args\000"
.LASF931:
	.ascii	"_ZSt24__copy_move_backward_ditILb1ElRlPlSt15_Deque_"
	.ascii	"iteratorIlS0_S1_EET3_S2_IT0_T1_T2_ES8_S4_\000"
.LASF1072:
	.ascii	"quot\000"
.LASF240:
	.ascii	"_ZSt6scalbnfi\000"
.LASF460:
	.ascii	"_ZNSt6vectorIlSaIlEE15_M_erase_at_endEPl\000"
.LASF1038:
	.ascii	"_ZN9__gnu_cxx17__normal_iteratorIPKfSt6vectorIfSaIf"
	.ascii	"EEEC4ERKS2_\000"
.LASF224:
	.ascii	"_ZSt9remainderee\000"
.LASF607:
	.ascii	"deque<long int, std::allocator<long int> >\000"
.LASF906:
	.ascii	"_ZSt23__copy_move_backward_a1ILb1EPlS0_ET1_T0_S2_S1"
	.ascii	"_\000"
.LASF638:
	.ascii	"_ZNKSt5dequeIlSaIlEE6cbeginEv\000"
.LASF765:
	.ascii	"_ZNSt6vectorIfSaIfEEixEj\000"
.LASF1108:
	.ascii	"atoll\000"
.LASF493:
	.ascii	"_ZNKSt15__new_allocatorIPlE8max_sizeEv\000"
.LASF699:
	.ascii	"_ZNSt5dequeIlSaIlEE27_M_reserve_elements_at_backEj\000"
.LASF693:
	.ascii	"_ZNSt5dequeIlSaIlEE8_M_eraseESt15_Deque_iteratorIlR"
	.ascii	"lPlES5_\000"
.LASF916:
	.ascii	"__copy_move_a1<true, long int*, long int>\000"
.LASF495:
	.ascii	"__ptr_traits_ptr_to<long int*, long int, false>\000"
.LASF403:
	.ascii	"_ZNSt6vectorIlSaIlEE7reserveEj\000"
.LASF470:
	.ascii	"_ZNKSt6vectorIlSaIlEE11_M_data_ptrIlEEPT_S4_\000"
.LASF561:
	.ascii	"_Iter\000"
.LASF658:
	.ascii	"_ZNSt5dequeIlSaIlEE10push_frontERKl\000"
.LASF835:
	.ascii	"_ZNSt12_Vector_baseIfSaIfEE12_Vector_implC4EOS0_OS2"
	.ascii	"_\000"
.LASF1093:
	.ascii	"bsearch\000"
.LASF529:
	.ascii	"_ZNSt15_Deque_iteratorIlRlPlEmmEv\000"
.LASF1208:
	.ascii	"__old_finish\000"
.LASF340:
	.ascii	"_ZNSt6vectorIlSaIlEE19_S_nothrow_relocateESt17integ"
	.ascii	"ral_constantIbLb1EE\000"
.LASF225:
	.ascii	"_ZSt9remainderff\000"
.LASF124:
	.ascii	"isgreaterequal\000"
.LASF171:
	.ascii	"_ZSt4fdimee\000"
.LASF315:
	.ascii	"_ZNKSt12_Vector_baseIlSaIlEE13get_allocatorEv\000"
.LASF662:
	.ascii	"pop_front\000"
.LASF572:
	.ascii	"_ZNSt11_Deque_baseIlSaIlEE11_Deque_implC4Ev\000"
.LASF552:
	.ascii	"_ZNSt15_Deque_iteratorIlRKlPS0_EppEi\000"
.LASF745:
	.ascii	"_ZNSt6vectorIfSaIfEE5beginEv\000"
.LASF24:
	.ascii	"_IsSimple\000"
.LASF422:
	.ascii	"_ZNSt6vectorIlSaIlEE9push_backEOl\000"
.LASF178:
	.ascii	"fmin\000"
.LASF1118:
	.ascii	"_ZN6filter9FIRFilterC4ESt6vectorIfSaIfEEjm\000"
.LASF287:
	.ascii	"const_void_pointer\000"
.LASF294:
	.ascii	"_Vector_base<long int, std::allocator<long int> >\000"
.LASF261:
	.ascii	"const_reference\000"
.LASF551:
	.ascii	"_ZNSt15_Deque_iteratorIlRKlPS0_EppEv\000"
.LASF269:
	.ascii	"_M_max_size\000"
.LASF707:
	.ascii	"_ZNSt5dequeIlSaIlEE23_M_reserve_map_at_frontEj\000"
.LASF1166:
	.ascii	"operator delete\000"
.LASF769:
	.ascii	"_ZNKSt6vectorIfSaIfEE2atEj\000"
.LASF1147:
	.ascii	"_ZN6filter9FIRFilter15process_one_symEv\000"
.LASF792:
	.ascii	"_ZNSt6vectorIfSaIfEE16_M_shrink_to_fitEv\000"
.LASF1228:
	.ascii	"__nfinish\000"
.LASF168:
	.ascii	"_ZSt5expm1e\000"
.LASF169:
	.ascii	"_ZSt5expm1f\000"
.LASF818:
	.ascii	"_ZNSaIfED4Ev\000"
.LASF611:
	.ascii	"_ZNSt5dequeIlSaIlEEC4Ev\000"
.LASF91:
	.ascii	"_ZSt5floore\000"
.LASF92:
	.ascii	"_ZSt5floorf\000"
.LASF796:
	.ascii	"_ZNSt6vectorIfSaIfEE17_S_check_init_lenEjRKS0_\000"
.LASF1156:
	.ascii	"gain\000"
.LASF488:
	.ascii	"_ZNSt15__new_allocatorIPlED4Ev\000"
.LASF244:
	.ascii	"trunc\000"
.LASF982:
	.ascii	"_ZSt3minIjERKT_S2_S2_\000"
.LASF176:
	.ascii	"_ZSt4fmaxee\000"
.LASF291:
	.ascii	"_ZNSt16allocator_traitsISaIlEE37select_on_container"
	.ascii	"_copy_constructionERKS0_\000"
.LASF43:
	.ascii	"_ZSt4atane\000"
.LASF44:
	.ascii	"_ZSt4atanf\000"
.LASF621:
	.ascii	"_ZNSt5dequeIlSaIlEEC4ESt16initializer_listIlERKS0_\000"
.LASF134:
	.ascii	"_ZSt11islessequaldd\000"
.LASF399:
	.ascii	"_ZNKSt6vectorIlSaIlEE8capacityEv\000"
.LASF821:
	.ascii	"_ZNSt16allocator_traitsISaIfEE8allocateERS0_jPKv\000"
.LASF622:
	.ascii	"~deque\000"
.LASF712:
	.ascii	"_ZNSt5dequeIlSaIlEE15_M_move_assign1EOS1_St17integr"
	.ascii	"al_constantIbLb0EE\000"
.LASF829:
	.ascii	"_ZNSt12_Vector_baseIlSaIlEE17_Vector_impl_data12_M_"
	.ascii	"swap_dataERS2_\000"
.LASF610:
	.ascii	"deque\000"
.LASF676:
	.ascii	"_ZNSt5dequeIlSaIlEE21_M_default_initializeEv\000"
.LASF1015:
	.ascii	"_ZN9__gnu_cxx17__normal_iteratorIPlSt6vectorIlSaIlE"
	.ascii	"EEmmEv\000"
.LASF430:
	.ascii	"erase\000"
.LASF1062:
	.ascii	"double\000"
.LASF781:
	.ascii	"_ZNSt6vectorIfSaIfEE6insertEN9__gnu_cxx17__normal_i"
	.ascii	"teratorIPKfS1_EESt16initializer_listIfE\000"
.LASF938:
	.ascii	"_ZSt13copy_backwardIPPlS1_ET0_T_S3_S2_\000"
.LASF17:
	.ascii	"__swappable_with_details\000"
.LASF746:
	.ascii	"_ZNKSt6vectorIfSaIfEE5beginEv\000"
.LASF389:
	.ascii	"_ZNKSt6vectorIlSaIlEE5crendEv\000"
.LASF23:
	.ascii	"_IsMove\000"
.LASF956:
	.ascii	"_ForwardIterator\000"
.LASF177:
	.ascii	"_ZSt4fmaxff\000"
.LASF519:
	.ascii	"_ZNKSt15_Deque_iteratorIlRlPlE13_M_const_castEv\000"
.LASF917:
	.ascii	"_ZSt14__copy_move_a1ILb1EPllEN9__gnu_cxx11__enable_"
	.ascii	"ifIXsrSt23__is_random_access_iterIT0_NSt15iterator_"
	.ascii	"traitsIS4_E17iterator_categoryEE7__valueESt15_Deque"
	.ascii	"_iteratorIT1_RSA_PSA_EE6__typeES4_S4_SD_\000"
.LASF312:
	.ascii	"_ZNSt12_Vector_baseIlSaIlEE19_M_get_Tp_allocatorEv\000"
.LASF1043:
	.ascii	"_ZN9__gnu_cxx17__normal_iteratorIPKfSt6vectorIfSaIf"
	.ascii	"EEEmmEv\000"
.LASF133:
	.ascii	"_ZSt11islessequalee\000"
.LASF202:
	.ascii	"log2\000"
.LASF1218:
	.ascii	"_ZZNSt6vectorIlSaIlEE17_M_realloc_appendIJlEEEvDpOT"
	.ascii	"_EN6_GuardC2EPljRS0_\000"
.LASF1213:
	.ascii	"_M_storage\000"
.LASF30:
	.ascii	"_ZNSt11__copy_moveILb1ELb0ESt26random_access_iterat"
	.ascii	"or_tagE12__assign_oneIllEEvPT_PT0_\000"
.LASF1255:
	.ascii	"roundf\000"
.LASF799:
	.ascii	"_ZNSt6vectorIfSaIfEE8_M_eraseEN9__gnu_cxx17__normal"
	.ascii	"_iteratorIPfS1_EE\000"
.LASF634:
	.ascii	"_ZNSt5dequeIlSaIlEE6rbeginEv\000"
.LASF911:
	.ascii	"_Iterator\000"
.LASF737:
	.ascii	"_ZNSt6vectorIfSaIfEEC4EOS1_RKS0_\000"
.LASF1067:
	.ascii	"__int32_t\000"
.LASF437:
	.ascii	"_M_fill_initialize\000"
.LASF1215:
	.ascii	"_ZZNSt6vectorIlSaIlEE17_M_realloc_appendIJlEEEvDpOT"
	.ascii	"_EN6_GuardC4EPljRS0_\000"
.LASF220:
	.ascii	"nexttoward\000"
.LASF1068:
	.ascii	"__uint32_t\000"
.LASF1099:
	.ascii	"qsort\000"
.LASF706:
	.ascii	"_M_reserve_map_at_front\000"
.LASF1029:
	.ascii	"_ZN9__gnu_cxx14__alloc_traitsISaIfEfE27_S_propagate"
	.ascii	"_on_copy_assignEv\000"
.LASF330:
	.ascii	"_M_deallocate\000"
.LASF417:
	.ascii	"data\000"
.LASF205:
	.ascii	"logb\000"
.LASF1268:
	.ascii	"rand\000"
.LASF453:
	.ascii	"_M_check_len\000"
.LASF763:
	.ascii	"_ZNKSt6vectorIfSaIfEE5emptyEv\000"
.LASF135:
	.ascii	"_ZSt11islessequalff\000"
.LASF1140:
	.ascii	"m_is_symmetric\000"
.LASF673:
	.ascii	"_ZNSt5dequeIlSaIlEE17_S_check_init_lenEjRKS0_\000"
.LASF1128:
	.ascii	"is_symmetric\000"
.LASF645:
	.ascii	"_ZNSt5dequeIlSaIlEE6resizeEjRKl\000"
.LASF538:
	.ascii	"_ZNSt15_Deque_iteratorIlRlPlE11_M_set_nodeEPS1_\000"
.LASF976:
	.ascii	"max<unsigned int>\000"
.LASF1210:
	.ascii	"__new_start\000"
.LASF677:
	.ascii	"_ZNSt5dequeIlSaIlEE14_M_fill_assignEjRKl\000"
.LASF397:
	.ascii	"_ZNSt6vectorIlSaIlEE13shrink_to_fitEv\000"
.LASF780:
	.ascii	"_ZNSt6vectorIfSaIfEE6insertEN9__gnu_cxx17__normal_i"
	.ascii	"teratorIPKfS1_EEOf\000"
.LASF1263:
	.ascii	"input_iterator_tag\000"
.LASF1022:
	.ascii	"base\000"
.LASF668:
	.ascii	"_ZNSt5dequeIlSaIlEE6insertESt15_Deque_iteratorIlRKl"
	.ascii	"PS3_EjS4_\000"
.LASF632:
	.ascii	"_ZNSt5dequeIlSaIlEE3endEv\000"
.LASF499:
	.ascii	"_Ptr\000"
.LASF933:
	.ascii	"__relocate_a_1<long int, long int>\000"
.LASF157:
	.ascii	"_ZSt8copysignee\000"
.LASF1003:
	.ascii	"rebind<long int>\000"
.LASF740:
	.ascii	"_ZNSt6vectorIfSaIfEEaSERKS1_\000"
.LASF196:
	.ascii	"llround\000"
.LASF356:
	.ascii	"_ZNSt6vectorIlSaIlEEC4EOS1_RKS0_St17integral_consta"
	.ascii	"ntIbLb0EE\000"
.LASF728:
	.ascii	"_ZNSt6vectorIfSaIfEEC4Ev\000"
.LASF1040:
	.ascii	"_ZNK9__gnu_cxx17__normal_iteratorIPKfSt6vectorIfSaI"
	.ascii	"fEEEptEv\000"
.LASF174:
	.ascii	"_ZSt3fmafff\000"
.LASF1074:
	.ascii	"5div_t\000"
.LASF481:
	.ascii	"_ZNSaIPlED4Ev\000"
.LASF652:
	.ascii	"_ZNKSt5dequeIlSaIlEE2atEj\000"
.LASF640:
	.ascii	"_ZNKSt5dequeIlSaIlEE7crbeginEv\000"
.LASF738:
	.ascii	"_ZNSt6vectorIfSaIfEEC4ESt16initializer_listIfERKS0_"
	.ascii	"\000"
.LASF1192:
	.ascii	"__new_num_nodes\000"
.LASF1016:
	.ascii	"_ZN9__gnu_cxx17__normal_iteratorIPlSt6vectorIlSaIlE"
	.ascii	"EEmmEi\000"
.LASF429:
	.ascii	"_ZNSt6vectorIlSaIlEE6insertEN9__gnu_cxx17__normal_i"
	.ascii	"teratorIPKlS1_EEjRS4_\000"
.LASF1045:
	.ascii	"_ZNK9__gnu_cxx17__normal_iteratorIPKfSt6vectorIfSaI"
	.ascii	"fEEEixEi\000"
.LASF880:
	.ascii	"_ZNSt20__copy_move_backwardILb0ELb1ESt26random_acce"
	.ascii	"ss_iterator_tagE13__copy_move_bIPlS3_EEPT0_PT_S7_S5"
	.ascii	"_\000"
.LASF1120:
	.ascii	"_ZN6filter9FIRFilterD4Ev\000"
.LASF400:
	.ascii	"empty\000"
.LASF1134:
	.ascii	"m_decimation_factor\000"
.LASF158:
	.ascii	"_ZSt8copysignff\000"
.LASF942:
	.ascii	"_ZSt14__copy_move_a1ILb1ElRlPllESt15_Deque_iterator"
	.ascii	"IT3_RS3_PS3_ES2_IT0_T1_T2_ESA_S6_\000"
.LASF924:
	.ascii	"__copy_move_a<false, long int**, long int**>\000"
.LASF1266:
	.ascii	"_ZNKSt16initializer_listIfE3endEv\000"
.LASF559:
	.ascii	"_Deque_iterator<std::_Deque_iterator<long int, long"
	.ascii	" int&, long int*> >\000"
.LASF1098:
	.ascii	"mbtowc\000"
.LASF233:
	.ascii	"_ZSt5rounde\000"
.LASF234:
	.ascii	"_ZSt5roundf\000"
.LASF1250:
	.ascii	"_ZnwjPv\000"
.LASF18:
	.ascii	"forward_iterator_tag\000"
.LASF66:
	.ascii	"_ZSt5frexpePi\000"
.LASF997:
	.ascii	"_S_propagate_on_swap\000"
.LASF439:
	.ascii	"_M_default_initialize\000"
.LASF515:
	.ascii	"_ZNSt15_Deque_iteratorIlRlPlEC4ERKS2_\000"
.LASF0:
	.ascii	"long long unsigned int\000"
.LASF1165:
	.ascii	"memmove\000"
.LASF892:
	.ascii	"_ZSt20__throw_length_errorPKc\000"
.LASF1237:
	.ascii	"data_counter\000"
.LASF674:
	.ascii	"_ZNSt5dequeIlSaIlEE11_S_max_sizeERKS0_\000"
.LASF455:
	.ascii	"_S_check_init_len\000"
.LASF910:
	.ascii	"_ZSt12__niter_wrapIPPlET_RKS2_S2_\000"
.LASF1079:
	.ascii	"__compar_fn_t\000"
.LASF606:
	.ascii	"_ZNSt11_Deque_baseIlSaIlEE16_M_destroy_nodesEPPlS3_"
	.ascii	"\000"
.LASF871:
	.ascii	"_ZNSt16allocator_traitsISaIPlEE8max_sizeERKS1_\000"
.LASF675:
	.ascii	"_ZNSt5dequeIlSaIlEE18_M_fill_initializeERKl\000"
.LASF809:
	.ascii	"_ZNKSt15__new_allocatorIfE7addressERKf\000"
.LASF60:
	.ascii	"tanh\000"
.LASF919:
	.ascii	"_ZSt23__copy_move_backward_a1ILb1EPllEN9__gnu_cxx11"
	.ascii	"__enable_ifIXsrSt23__is_random_access_iterIT0_NSt15"
	.ascii	"iterator_traitsIS4_E17iterator_categoryEE7__valueES"
	.ascii	"t15_Deque_iteratorIT1_RSA_PSA_EE6__typeES4_S4_SD_\000"
.LASF643:
	.ascii	"_ZNKSt5dequeIlSaIlEE8max_sizeEv\000"
.LASF1096:
	.ascii	"mblen\000"
.LASF325:
	.ascii	"~_Vector_base\000"
.LASF727:
	.ascii	"_ZNSt6vectorIfSaIfEE11_S_relocateEPfS2_S2_RS0_\000"
.LASF77:
	.ascii	"_ZSt4modfePe\000"
.LASF1148:
	.ascii	"MAX_CIC_ORDER\000"
.LASF1150:
	.ascii	"_ZN6filter9CICFilterC4Emm\000"
.LASF862:
	.ascii	"__ptr_traits_ptr_to<long int const*, long int const"
	.ascii	", false>\000"
.LASF787:
	.ascii	"_ZNSt6vectorIfSaIfEE18_M_fill_initializeEjRKf\000"
.LASF292:
	.ascii	"rebind_alloc\000"
.LASF636:
	.ascii	"_ZNSt5dequeIlSaIlEE4rendEv\000"
.LASF473:
	.ascii	"__type_identity_t\000"
.LASF273:
	.ascii	"__new_allocator<long int>\000"
.LASF1258:
	.ascii	"__aeabi_fmul\000"
.LASF822:
	.ascii	"_ZNSt16allocator_traitsISaIfEE10deallocateERS0_Pfj\000"
.LASF545:
	.ascii	"_ZNSt15_Deque_iteratorIlRKlPS0_EC4Ev\000"
.LASF629:
	.ascii	"_ZNKSt5dequeIlSaIlEE13get_allocatorEv\000"
.LASF549:
	.ascii	"_ZNKSt15_Deque_iteratorIlRKlPS0_EdeEv\000"
.LASF1142:
	.ascii	"set_coefficients\000"
.LASF846:
	.ascii	"_ZNSt12_Vector_baseIfSaIfEEC4ERKS0_OS1_\000"
.LASF170:
	.ascii	"fdim\000"
.LASF27:
	.ascii	"__assign_one<long int*, long int*>\000"
.LASF1240:
	.ascii	"coeff\000"
.LASF575:
	.ascii	"_ZNSt11_Deque_baseIlSaIlEE11_Deque_implC4EOS0_\000"
.LASF248:
	.ascii	"true_type\000"
.LASF523:
	.ascii	"_ZNKSt15_Deque_iteratorIlRlPlEptEv\000"
.LASF185:
	.ascii	"_ZSt5hypotee\000"
.LASF1132:
	.ascii	"m_coefficients\000"
.LASF42:
	.ascii	"atan\000"
.LASF1094:
	.ascii	"getenv\000"
.LASF1212:
	.ascii	"_Guard\000"
.LASF1260:
	.ascii	"GNU C++17 14.2.0 -mcpu=cortex-m0plus -mthumb -march"
	.ascii	"=armv6-m -g -O1 -std=gnu++17 -fno-exceptions -fno-r"
	.ascii	"tti -ffunction-sections -fdata-sections\000"
.LASF664:
	.ascii	"_ZNSt5dequeIlSaIlEE8pop_backEv\000"
.LASF934:
	.ascii	"_ZSt14__relocate_a_1IllENSt9enable_ifIXsrSt24__is_b"
	.ascii	"itwise_relocatableIT_vE5valueEPS2_E4typeES4_S4_S4_R"
	.ascii	"SaIT0_E\000"
.LASF758:
	.ascii	"_ZNKSt6vectorIfSaIfEE8max_sizeEv\000"
.LASF151:
	.ascii	"_ZSt5atanhe\000"
.LASF152:
	.ascii	"_ZSt5atanhf\000"
.LASF536:
	.ascii	"_ZNKSt15_Deque_iteratorIlRlPlEixEi\000"
.LASF211:
	.ascii	"lround\000"
.LASF1037:
	.ascii	"_ZN9__gnu_cxx17__normal_iteratorIPKfSt6vectorIfSaIf"
	.ascii	"EEEC4Ev\000"
.LASF1061:
	.ascii	"long double\000"
.LASF250:
	.ascii	"__new_allocator\000"
.LASF625:
	.ascii	"_ZNSt5dequeIlSaIlEEaSEOS1_\000"
.LASF903:
	.ascii	"__copy_move_a1<true, long int*, long int*>\000"
.LASF406:
	.ascii	"_ZNKSt6vectorIlSaIlEEixEj\000"
.LASF1267:
	.ascii	"11max_align_t\000"
.LASF413:
	.ascii	"_ZNKSt6vectorIlSaIlEE5frontEv\000"
.LASF922:
	.ascii	"__copy_move_backward_a<false, long int**, long int*"
	.ascii	"*>\000"
.LASF186:
	.ascii	"_ZSt5hypotff\000"
.LASF814:
	.ascii	"allocator<float>\000"
.LASF651:
	.ascii	"_ZNSt5dequeIlSaIlEE2atEj\000"
.LASF128:
	.ascii	"isless\000"
.LASF1115:
	.ascii	"MAX_FILTER_ORDER\000"
.LASF190:
	.ascii	"lgamma\000"
.LASF85:
	.ascii	"_ZSt4ceile\000"
.LASF86:
	.ascii	"_ZSt4ceilf\000"
.LASF442:
	.ascii	"_ZNSt6vectorIlSaIlEE14_M_fill_assignEjRKl\000"
.LASF840:
	.ascii	"_ZNSt12_Vector_baseIfSaIfEEC4ERKS0_\000"
.LASF617:
	.ascii	"_ZNSt5dequeIlSaIlEEC4ERKS1_RKS0_\000"
.LASF852:
	.ascii	"initializer_list<float>\000"
.LASF729:
	.ascii	"_ZNSt6vectorIfSaIfEEC4ERKS0_\000"
.LASF383:
	.ascii	"_ZNKSt6vectorIlSaIlEE6cbeginEv\000"
.LASF744:
	.ascii	"_ZNSt6vectorIfSaIfEE6assignESt16initializer_listIfE"
	.ascii	"\000"
.LASF1119:
	.ascii	"~FIRFilter\000"
.LASF1060:
	.ascii	"long long int\000"
.LASF574:
	.ascii	"_ZNSt11_Deque_baseIlSaIlEE11_Deque_implC4EOS2_\000"
.LASF418:
	.ascii	"_ZNSt6vectorIlSaIlEE4dataEv\000"
.LASF791:
	.ascii	"_ZNSt6vectorIfSaIfEE17_M_default_appendEj\000"
.LASF1033:
	.ascii	"_ZN9__gnu_cxx14__alloc_traitsISaIfEfE15_S_nothrow_m"
	.ascii	"oveEv\000"
.LASF504:
	.ascii	"_S_use_relocate\000"
.LASF304:
	.ascii	"_Vector_impl\000"
.LASF39:
	.ascii	"asin\000"
.LASF596:
	.ascii	"_ZNSt11_Deque_baseIlSaIlEE18_M_deallocate_nodeEPl\000"
.LASF385:
	.ascii	"_ZNKSt6vectorIlSaIlEE4cendEv\000"
.LASF665:
	.ascii	"_ZNSt5dequeIlSaIlEE6insertESt15_Deque_iteratorIlRKl"
	.ascii	"PS3_ES4_\000"
.LASF450:
	.ascii	"_ZNSt6vectorIlSaIlEE14_M_insert_rvalEN9__gnu_cxx17_"
	.ascii	"_normal_iteratorIPKlS1_EEOl\000"
.LASF363:
	.ascii	"_ZNSt6vectorIlSaIlEEaSESt16initializer_listIlE\000"
.LASF355:
	.ascii	"_ZNSt6vectorIlSaIlEEC4EOS1_RKS0_St17integral_consta"
	.ascii	"ntIbLb1EE\000"
.LASF732:
	.ascii	"_ZNSt6vectorIfSaIfEEC4ERKS1_\000"
.LASF69:
	.ascii	"_ZSt5ldexpei\000"
.LASF350:
	.ascii	"_ZNSt6vectorIlSaIlEEC4EjRKS0_\000"
.LASF48:
	.ascii	"_ZSt3cose\000"
.LASF49:
	.ascii	"_ZSt3cosf\000"
.LASF670:
	.ascii	"_ZNSt5dequeIlSaIlEE5eraseESt15_Deque_iteratorIlRKlP"
	.ascii	"S3_ES6_\000"
.LASF370:
	.ascii	"const_iterator\000"
.LASF1135:
	.ascii	"m_buffer\000"
.LASF296:
	.ascii	"_M_start\000"
.LASF582:
	.ascii	"_ZNSt11_Deque_baseIlSaIlEEC4ERKS0_\000"
.LASF889:
	.ascii	"__throw_bad_array_new_length\000"
.LASF639:
	.ascii	"_ZNKSt5dequeIlSaIlEE4cendEv\000"
.LASF987:
	.ascii	"_ZN9__gnu_cxx3divExx\000"
.LASF644:
	.ascii	"_ZNSt5dequeIlSaIlEE6resizeEj\000"
.LASF1004:
	.ascii	"other\000"
.LASF1001:
	.ascii	"_S_nothrow_move\000"
.LASF1028:
	.ascii	"_ZN9__gnu_cxx14__alloc_traitsISaIfEfE10_S_on_swapER"
	.ascii	"S1_S3_\000"
.LASF1138:
	.ascii	"m_input_cnt\000"
.LASF866:
	.ascii	"iterator_traits<float const*>\000"
.LASF578:
	.ascii	"_Deque_base\000"
.LASF970:
	.ascii	"move_backward<std::_Deque_iterator<long int, long i"
	.ascii	"nt&, long int*>, std::_Deque_iterator<long int, lon"
	.ascii	"g int&, long int*> >\000"
.LASF995:
	.ascii	"_S_propagate_on_move_assign\000"
.LASF530:
	.ascii	"_ZNSt15_Deque_iteratorIlRlPlEmmEi\000"
.LASF708:
	.ascii	"_M_reallocate_map\000"
.LASF694:
	.ascii	"_ZNSt5dequeIlSaIlEE17_M_default_appendEj\000"
.LASF855:
	.ascii	"initializer_list\000"
.LASF603:
	.ascii	"_M_create_nodes\000"
.LASF70:
	.ascii	"_ZSt5ldexpfi\000"
.LASF1056:
	.ascii	"long unsigned int\000"
.LASF263:
	.ascii	"_ZNSt15__new_allocatorIlE8allocateEjPKv\000"
.LASF67:
	.ascii	"_ZSt5frexpfPi\000"
.LASF311:
	.ascii	"_M_get_Tp_allocator\000"
.LASF864:
	.ascii	"pointer_traits<long int const*>\000"
.LASF600:
	.ascii	"_ZNSt11_Deque_baseIlSaIlEE17_M_deallocate_mapEPPlj\000"
.LASF908:
	.ascii	"_ZSt23__copy_move_backward_a1ILb0EPPlS1_ET1_T0_S3_S"
	.ascii	"2_\000"
.LASF14:
	.ascii	"__bool_constant\000"
.LASF623:
	.ascii	"_ZNSt5dequeIlSaIlEED4Ev\000"
.LASF843:
	.ascii	"_ZNSt12_Vector_baseIfSaIfEEC4EOS1_\000"
.LASF258:
	.ascii	"reference\000"
.LASF573:
	.ascii	"_ZNSt11_Deque_baseIlSaIlEE11_Deque_implC4ERKS0_\000"
.LASF570:
	.ascii	"_ZNSt11_Deque_baseIlSaIlEE16_Deque_impl_data12_M_sw"
	.ascii	"ap_dataERS2_\000"
.LASF637:
	.ascii	"_ZNKSt5dequeIlSaIlEE4rendEv\000"
.LASF723:
	.ascii	"_ZNSt6vectorIfSaIfEE19_S_nothrow_relocateESt17integ"
	.ascii	"ral_constantIbLb0EE\000"
.LASF887:
	.ascii	"__throw_bad_alloc\000"
.LASF935:
	.ascii	"__niter_base<long int*>\000"
.LASF883:
	.ascii	"_ZNSt20__copy_move_backwardILb1ELb1ESt26random_acce"
	.ascii	"ss_iterator_tagE13__copy_move_bIllEEPT0_PT_S6_S4_\000"
.LASF1071:
	.ascii	"double_t\000"
.LASF251:
	.ascii	"_ZNSt15__new_allocatorIlEC4Ev\000"
.LASF958:
	.ascii	"__copy_move_a<true, std::_Deque_iterator<long int, "
	.ascii	"long int&, long int*>, std::_Deque_iterator<long in"
	.ascii	"t, long int&, long int*> >\000"
.LASF1011:
	.ascii	"_ZNK9__gnu_cxx17__normal_iteratorIPlSt6vectorIlSaIl"
	.ascii	"EEEdeEv\000"
.LASF78:
	.ascii	"_ZSt4modffPf\000"
.LASF218:
	.ascii	"_ZSt9nextafteree\000"
.LASF868:
	.ascii	"_ZNSt16allocator_traitsISaIPlEE8allocateERS1_j\000"
.LASF1121:
	.ascii	"write\000"
.LASF396:
	.ascii	"shrink_to_fit\000"
.LASF475:
	.ascii	"reverse_iterator<__gnu_cxx::__normal_iterator<long "
	.ascii	"int*, std::vector<long int, std::allocator<long int"
	.ascii	"> > > >\000"
.LASF329:
	.ascii	"_ZNSt12_Vector_baseIlSaIlEE11_M_allocateEj\000"
.LASF514:
	.ascii	"_ZNSt15_Deque_iteratorIlRlPlEC4Ev\000"
.LASF159:
	.ascii	"_ZSt3erfe\000"
.LASF160:
	.ascii	"_ZSt3erff\000"
.LASF974:
	.ascii	"operator==\000"
.LASF1259:
	.ascii	"__aeabi_f2iz\000"
.LASF541:
	.ascii	"_Deque_iterator<long int, long int const&, long int"
	.ascii	" const*>\000"
.LASF226:
	.ascii	"remquo\000"
.LASF1:
	.ascii	"unsigned int\000"
.LASF1167:
	.ascii	"_ZdlPvj\000"
.LASF512:
	.ascii	"_Deque_iterator\000"
.LASF1204:
	.ascii	"__tmp\000"
.LASF219:
	.ascii	"_ZSt9nextafterff\000"
.LASF50:
	.ascii	"_ZSt3sine\000"
.LASF51:
	.ascii	"_ZSt3sinf\000"
.LASF484:
	.ascii	"__new_allocator<long int*>\000"
.LASF295:
	.ascii	"_Vector_impl_data\000"
.LASF346:
	.ascii	"_ZNSt6vectorIlSaIlEE11_S_relocateEPlS2_S2_RS0_\000"
.LASF1136:
	.ascii	"m_buffer_pos\000"
.LASF540:
	.ascii	"__ptr_rebind\000"
.LASF734:
	.ascii	"_ZNSt6vectorIfSaIfEEC4ERKS1_RKS0_\000"
.LASF973:
	.ascii	"_ZStneRKSt15_Deque_iteratorIlRlPlES4_\000"
.LASF308:
	.ascii	"_ZNSt12_Vector_baseIlSaIlEE12_Vector_implC4EOS0_\000"
.LASF1058:
	.ascii	"short int\000"
.LASF368:
	.ascii	"begin\000"
.LASF909:
	.ascii	"__niter_wrap<long int**>\000"
.LASF891:
	.ascii	"__throw_length_error\000"
.LASF424:
	.ascii	"_ZNSt6vectorIlSaIlEE8pop_backEv\000"
.LASF605:
	.ascii	"_M_destroy_nodes\000"
.LASF386:
	.ascii	"crbegin\000"
.LASF81:
	.ascii	"sqrt\000"
.LASF921:
	.ascii	"_ZSt3minIiERKT_S2_S2_\000"
.LASF842:
	.ascii	"_ZNSt12_Vector_baseIfSaIfEEC4EjRKS0_\000"
.LASF426:
	.ascii	"_ZNSt6vectorIlSaIlEE6insertEN9__gnu_cxx17__normal_i"
	.ascii	"teratorIPKlS1_EERS4_\000"
.LASF808:
	.ascii	"_ZNKSt15__new_allocatorIfE7addressERf\000"
.LASF784:
	.ascii	"_ZNSt6vectorIfSaIfEE5eraseEN9__gnu_cxx17__normal_it"
	.ascii	"eratorIPKfS1_EES6_\000"
.LASF407:
	.ascii	"_M_range_check\000"
.LASF849:
	.ascii	"_ZNSt12_Vector_baseIfSaIfEE13_M_deallocateEPfj\000"
.LASF825:
	.ascii	"_Vector_base<float, std::allocator<float> >\000"
.LASF1053:
	.ascii	"operator-<long int*, std::vector<long int> >\000"
.LASF10:
	.ascii	"operator std::integral_constant<bool, false>::value"
	.ascii	"_type\000"
.LASF1157:
	.ascii	"_ZN6filter9CICFilter4gainEv\000"
.LASF749:
	.ascii	"_ZNSt6vectorIfSaIfEE6rbeginEv\000"
.LASF19:
	.ascii	"bidirectional_iterator_tag\000"
.LASF37:
	.ascii	"_ZSt4acose\000"
.LASF38:
	.ascii	"_ZSt4acosf\000"
.LASF1117:
	.ascii	"FIRFilter\000"
.LASF854:
	.ascii	"_M_len\000"
	.global	__aeabi_f2iz
	.global	__aeabi_fmul
	.global	__aeabi_i2f
	.global	__aeabi_uidiv
	.ident	"GCC: (GNU) 14.2.0"
